
test5_app.elf:     file format elf32-littlenios2
test5_app.elf
architecture: nios2, flags 0x00000112:
EXEC_P, HAS_SYMS, D_PAGED
start address 0x00800274

Program Header:
    LOAD off    0x00001000 vaddr 0x00800000 paddr 0x00800000 align 2**12
         filesz 0x00000020 memsz 0x00000020 flags r-x
    LOAD off    0x00001020 vaddr 0x00800020 paddr 0x00800020 align 2**12
         filesz 0x00010be8 memsz 0x00010be8 flags r-x
    LOAD off    0x00011c08 vaddr 0x00810c08 paddr 0x00812670 align 2**12
         filesz 0x00001a68 memsz 0x00001a68 flags rw-
    LOAD off    0x000140d8 vaddr 0x008140d8 paddr 0x008140d8 align 2**12
         filesz 0x00000000 memsz 0x00000478 flags rw-

Sections:
Idx Name          Size      VMA       LMA       File off  Algn
  0 .entry        00000020  00800000  00800000  00001000  2**5
                  CONTENTS, ALLOC, LOAD, READONLY, CODE
  1 .exceptions   00000254  00800020  00800020  00001020  2**2
                  CONTENTS, ALLOC, LOAD, READONLY, CODE
  2 .text         00010624  00800274  00800274  00001274  2**2
                  CONTENTS, ALLOC, LOAD, READONLY, CODE
  3 .rodata       00000370  00810898  00810898  00011898  2**2
                  CONTENTS, ALLOC, LOAD, READONLY, DATA
  4 .rwdata       00001a68  00810c08  00812670  00011c08  2**2
                  CONTENTS, ALLOC, LOAD, DATA, SMALL_DATA
  5 .bss          00000478  008140d8  008140d8  000140d8  2**2
                  ALLOC, SMALL_DATA
  6 .comment      00000026  00000000  00000000  00013670  2**0
                  CONTENTS, READONLY
  7 .debug_aranges 00000dd0  00000000  00000000  00013698  2**3
                  CONTENTS, READONLY, DEBUGGING
  8 .debug_pubnames 00001b4e  00000000  00000000  00014468  2**0
                  CONTENTS, READONLY, DEBUGGING
  9 .debug_info   00028a12  00000000  00000000  00015fb6  2**0
                  CONTENTS, READONLY, DEBUGGING
 10 .debug_abbrev 0000861b  00000000  00000000  0003e9c8  2**0
                  CONTENTS, READONLY, DEBUGGING
 11 .debug_line   00017970  00000000  00000000  00046fe3  2**0
                  CONTENTS, READONLY, DEBUGGING
 12 .debug_frame  0000242c  00000000  00000000  0005e954  2**2
                  CONTENTS, READONLY, DEBUGGING
 13 .debug_str    000027c4  00000000  00000000  00060d80  2**0
                  CONTENTS, READONLY, DEBUGGING
 14 .debug_loc    0000d035  00000000  00000000  00063544  2**0
                  CONTENTS, READONLY, DEBUGGING
 15 .debug_alt_sim_info 00000010  00000000  00000000  0007057c  2**2
                  CONTENTS, READONLY, DEBUGGING
 16 .debug_ranges 000009c0  00000000  00000000  00070590  2**3
                  CONTENTS, READONLY, DEBUGGING
 17 .thread_model 00000008  00000000  00000000  000751ec  2**0
                  CONTENTS, READONLY
 18 .cpu          00000003  00000000  00000000  000751f4  2**0
                  CONTENTS, READONLY
 19 .qsys         00000001  00000000  00000000  000751f7  2**0
                  CONTENTS, READONLY
 20 .simulation_enabled 00000001  00000000  00000000  000751f8  2**0
                  CONTENTS, READONLY
 21 .sysid_hash   00000004  00000000  00000000  000751f9  2**0
                  CONTENTS, READONLY
 22 .sysid_base   00000004  00000000  00000000  000751fd  2**0
                  CONTENTS, READONLY
 23 .sysid_time   00000004  00000000  00000000  00075201  2**0
                  CONTENTS, READONLY
 24 .stderr_dev   00000009  00000000  00000000  00075205  2**0
                  CONTENTS, READONLY
 25 .stdin_dev    00000009  00000000  00000000  0007520e  2**0
                  CONTENTS, READONLY
 26 .stdout_dev   00000009  00000000  00000000  00075217  2**0
                  CONTENTS, READONLY
 27 .sopc_system_name 00000012  00000000  00000000  00075220  2**0
                  CONTENTS, READONLY
 28 .jdi          00004ff5  00000000  00000000  00075232  2**0
                  CONTENTS, READONLY
 29 .sopcinfo     0002ee5a  00000000  00000000  0007a227  2**0
                  CONTENTS, READONLY
SYMBOL TABLE:
00800000 l    d  .entry	00000000 .entry
00800020 l    d  .exceptions	00000000 .exceptions
00800274 l    d  .text	00000000 .text
00810898 l    d  .rodata	00000000 .rodata
00810c08 l    d  .rwdata	00000000 .rwdata
008140d8 l    d  .bss	00000000 .bss
00000000 l    d  .comment	00000000 .comment
00000000 l    d  .debug_aranges	00000000 .debug_aranges
00000000 l    d  .debug_pubnames	00000000 .debug_pubnames
00000000 l    d  .debug_info	00000000 .debug_info
00000000 l    d  .debug_abbrev	00000000 .debug_abbrev
00000000 l    d  .debug_line	00000000 .debug_line
00000000 l    d  .debug_frame	00000000 .debug_frame
00000000 l    d  .debug_str	00000000 .debug_str
00000000 l    d  .debug_loc	00000000 .debug_loc
00000000 l    d  .debug_alt_sim_info	00000000 .debug_alt_sim_info
00000000 l    d  .debug_ranges	00000000 .debug_ranges
008002ac l       .text	00000000 alt_after_alt_main
00800020 l       .exceptions	00000000 save_context
008000a8 l       .exceptions	00000000 save_sp_to_pxCurrentTCB
008000c0 l       .exceptions	00000000 hw_irq_test
00800178 l       .exceptions	00000000 soft_exceptions
008000d4 l       .exceptions	00000000 hw_irq_handler
008000f0 l       .exceptions	00000000 restore_context
00800194 l       .exceptions	00000000 call_scheduler
00000000 l    df *ABS*	00000000 alt_irq_handler.c
00000000 l    df *ABS*	00000000 main.c
00000000 l    df *ABS*	00000000 puts.c
00000000 l    df *ABS*	00000000 strlen.c
00000000 l    df *ABS*	00000000 fvwrite.c
00000000 l    df *ABS*	00000000 impure.c
00810c08 l     O .rwdata	00000400 impure_data
00000000 l    df *ABS*	00000000 mallocr.c
00000000 l    df *ABS*	00000000 memchr.c
00000000 l    df *ABS*	00000000 memcpy.c
00000000 l    df *ABS*	00000000 memmove.c
00000000 l    df *ABS*	00000000 mallocr.c
00000000 l    df *ABS*	00000000 sbrkr.c
00000000 l    df *ABS*	00000000 wsetup.c
00000000 l    df *ABS*	00000000 fflush.c
00000000 l    df *ABS*	00000000 findfp.c
00801c08 l     F .text	00000058 std
00801d14 l     F .text	00000008 __fp_lock
00801d1c l     F .text	00000008 __fp_unlock
00000000 l    df *ABS*	00000000 mallocr.c
00000000 l    df *ABS*	00000000 fwalk.c
00000000 l    df *ABS*	00000000 int_errno.c
00000000 l    df *ABS*	00000000 makebuf.c
00000000 l    df *ABS*	00000000 memset.c
00000000 l    df *ABS*	00000000 stdio.c
00000000 l    df *ABS*	00000000 writer.c
00000000 l    df *ABS*	00000000 closer.c
00000000 l    df *ABS*	00000000 fclose.c
00000000 l    df *ABS*	00000000 fstatr.c
00000000 l    df *ABS*	00000000 isattyr.c
00000000 l    df *ABS*	00000000 lseekr.c
00000000 l    df *ABS*	00000000 readr.c
00000000 l    df *ABS*	00000000 lib2-mul.c
00000000 l    df *ABS*	00000000 alt_main.c
00000000 l    df *ABS*	00000000 alt_malloc_lock.c
00000000 l    df *ABS*	00000000 queue.c
008039b0 l     F .text	0000015c prvCopyDataToQueue
00803d58 l     F .text	00000064 prvIsQueueFull
00803ba8 l     F .text	00000120 prvUnlockQueue
00803b0c l     F .text	0000009c prvCopyDataFromQueue
00803cc8 l     F .text	0000005c prvIsQueueEmpty
00000000 l    df *ABS*	00000000 tasks.c
008140fc l     O .bss	00000004 uxTasksDeleted
00814100 l     O .bss	00000004 uxCurrentNumberOfTasks
00814104 l     O .bss	00000004 xTickCount
00814108 l     O .bss	00000004 uxTopUsedPriority
0081410c l     O .bss	00000004 uxTopReadyPriority
00814110 l     O .bss	00000004 xSchedulerRunning
00814114 l     O .bss	00000004 uxSchedulerSuspended
00814118 l     O .bss	00000004 uxMissedTicks
0081411c l     O .bss	00000004 xMissedYield
00814120 l     O .bss	00000004 xNumOfOverflows
00814124 l     O .bss	00000004 uxTaskNumber
0081263c l     O .rwdata	00000004 xNextTaskUnblockTime
008055d0 l     F .text	000000c4 prvAllocateTCBAndStack
00805310 l     F .text	000000d4 prvInitialiseTCBVariables
008053e4 l     F .text	000000b8 prvInitialiseTaskLists
008141d0 l     O .bss	00000064 pxReadyTasksLists
00814270 l     O .bss	00000014 xTasksWaitingTermination
00805558 l     F .text	00000078 prvAddCurrentTaskToDelayedList
00814284 l     O .bss	00000014 xSuspendedTaskList
0081425c l     O .bss	00000014 xPendingReadyList
008052f4 l     F .text	0000001c prvIdleTask
00805694 l     F .text	00000148 prvListTaskWithinSingleList
00814128 l     O .bss	00000004 pxDelayedTaskList
0081412c l     O .bss	00000004 pxOverflowDelayedTaskList
0080549c l     F .text	000000bc prvCheckTasksWaitingTermination
00814234 l     O .bss	00000014 xDelayedTaskList1
00814248 l     O .bss	00000014 xDelayedTaskList2
008058b0 l     F .text	0000003c prvDeleteTCB
00814188 l     O .bss	00000046 pcStatusString.3812
008057dc l     F .text	00000064 usTaskCheckFreeStackSpace
00000000 l    df *ABS*	00000000 timers.c
00814130 l     O .bss	00000004 xTimerQueue
0080637c l     F .text	00000094 prvCheckForValidListAndQueue
00805e94 l     F .text	00000034 prvTimerTask
00805de8 l     F .text	000000ac prvProcessExpiredTimer
00814138 l     O .bss	00000004 pxCurrentTimerList
00806030 l     F .text	000000cc prvInsertTimerInActiveList
00805f68 l     F .text	00000060 prvGetNextExpireTime
00805ec8 l     F .text	000000a0 prvProcessTimerOrBlockTask
008060fc l     F .text	00000178 prvProcessReceivedCommands
00805fc8 l     F .text	00000068 prvSampleTimeNow
00814134 l     O .bss	00000004 xLastTime.1990
00806274 l     F .text	00000108 prvSwitchTimerLists
0081413c l     O .bss	00000004 pxOverflowTimerList
00814298 l     O .bss	00000014 xActiveTimerList1
008142ac l     O .bss	00000014 xActiveTimerList2
00000000 l    df *ABS*	00000000 alt_close.c
008065a4 l     F .text	00000060 alt_get_errno
00000000 l    df *ABS*	00000000 alt_dev.c
00806604 l     F .text	0000002c alt_dev_null_write
00000000 l    df *ABS*	00000000 alt_do_ctors.c
00000000 l    df *ABS*	00000000 alt_do_dtors.c
00000000 l    df *ABS*	00000000 alt_errno.c
00000000 l    df *ABS*	00000000 alt_fstat.c
008067d0 l     F .text	00000060 alt_get_errno
00000000 l    df *ABS*	00000000 alt_io_redirect.c
00806830 l     F .text	000000d8 alt_open_fd
00000000 l    df *ABS*	00000000 alt_isatty.c
00806a44 l     F .text	00000060 alt_get_errno
00000000 l    df *ABS*	00000000 alt_load.c
00806b24 l     F .text	0000006c alt_load_section
00000000 l    df *ABS*	00000000 alt_lseek.c
00806c84 l     F .text	00000060 alt_get_errno
00000000 l    df *ABS*	00000000 alt_open.c
00806ce4 l     F .text	000000f8 alt_file_locked
00806f68 l     F .text	00000060 alt_get_errno
00000000 l    df *ABS*	00000000 alt_read.c
008070ec l     F .text	00000060 alt_get_errno
00000000 l    df *ABS*	00000000 alt_release_fd.c
00000000 l    df *ABS*	00000000 alt_sbrk.c
00812658 l     O .rwdata	00000004 heap_end
00000000 l    df *ABS*	00000000 alt_write.c
008073a4 l     F .text	00000060 alt_get_errno
00000000 l    df *ABS*	00000000 alt_sys_init.c
008115b8 l     O .rwdata	00001068 jtag_uart
00807494 l     F .text	00000038 alt_dev_reg
00000000 l    df *ABS*	00000000 altera_avalon_jtag_uart_fd.c
00000000 l    df *ABS*	00000000 altera_avalon_jtag_uart_init.c
0080776c l     F .text	00000228 altera_avalon_jtag_uart_irq
00807994 l     F .text	000000b0 altera_avalon_jtag_uart_timeout
00000000 l    df *ABS*	00000000 altera_avalon_jtag_uart_ioctl.c
00000000 l    df *ABS*	00000000 altera_avalon_jtag_uart_read.c
00000000 l    df *ABS*	00000000 altera_avalon_jtag_uart_write.c
00000000 l    df *ABS*	00000000 altera_avalon_timer_sc.c
00808088 l     F .text	00000070 alt_avalon_timer_sc_irq
00000000 l    df *ABS*	00000000 alt_env_lock.c
00000000 l    df *ABS*	00000000 heap_3.c
00000000 l    df *ABS*	00000000 list.c
00000000 l    df *ABS*	00000000 port.c
00808620 l     F .text	00000028 prvReadGp
00000000 l    df *ABS*	00000000 alt_alarm_start.c
00000000 l    df *ABS*	00000000 alt_dcache_flush_all.c
00000000 l    df *ABS*	00000000 alt_dev_llist_insert.c
008088ec l     F .text	00000060 alt_get_errno
00000000 l    df *ABS*	00000000 alt_find_dev.c
00000000 l    df *ABS*	00000000 alt_find_file.c
00000000 l    df *ABS*	00000000 alt_get_fd.c
00000000 l    df *ABS*	00000000 alt_icache_flush_all.c
00000000 l    df *ABS*	00000000 alt_iic.c
00000000 l    df *ABS*	00000000 alt_iic_isr_register.c
00000000 l    df *ABS*	00000000 alt_irq_vars.c
00000000 l    df *ABS*	00000000 alt_tick.c
00000000 l    df *ABS*	00000000 altera_nios2_qsys_irq.c
00000000 l    df *ABS*	00000000 atexit.c
00000000 l    df *ABS*	00000000 errno.c
00000000 l    df *ABS*	00000000 exit.c
00000000 l    df *ABS*	00000000 malloc.c
00000000 l    df *ABS*	00000000 memcmp.c
00000000 l    df *ABS*	00000000 sprintf.c
00000000 l    df *ABS*	00000000 strcat.c
00000000 l    df *ABS*	00000000 strcpy.c
00000000 l    df *ABS*	00000000 strncpy.c
00000000 l    df *ABS*	00000000 vfprintf.c
00809468 l     F .text	00000058 __sprint_r
0081096e l     O .rodata	00000010 blanks.3452
0081095e l     O .rodata	00000010 zeroes.3453
00000000 l    df *ABS*	00000000 __atexit.c
00000000 l    df *ABS*	00000000 __call_atexit.c
0080b4dc l     F .text	00000004 register_fini
00000000 l    df *ABS*	00000000 dtoa.c
0080b690 l     F .text	00000244 quorem
00000000 l    df *ABS*	00000000 locale.c
0081266c l     O .rwdata	00000004 charset
008109a0 l     O .rodata	00000030 lconv
00000000 l    df *ABS*	00000000 mprec.c
00810ae8 l     O .rodata	0000000c p05.2458
00000000 l    df *ABS*	00000000 s_isinfd.c
00000000 l    df *ABS*	00000000 s_isnand.c
00000000 l    df *ABS*	00000000 strcmp.c
00000000 l    df *ABS*	00000000 mallocr.c
00000000 l    df *ABS*	00000000 libgcc2.c
00000000 l    df *ABS*	00000000 libgcc2.c
00000000 l    df *ABS*	00000000 dp-bit.c
0080ee98 l     F .text	00000410 _fpadd_parts
00000000 l    df *ABS*	00000000 dp-bit.c
00000000 l    df *ABS*	00000000 dp-bit.c
00000000 l    df *ABS*	00000000 dp-bit.c
00000000 l    df *ABS*	00000000 dp-bit.c
00000000 l    df *ABS*	00000000 dp-bit.c
00000000 l    df *ABS*	00000000 dp-bit.c
00000000 l    df *ABS*	00000000 dp-bit.c
00000000 l    df *ABS*	00000000 dp-bit.c
00000000 l    df *ABS*	00000000 dp-bit.c
00000000 l    df *ABS*	00000000 dp-bit.c
00000000 l    df *ABS*	00000000 dp-bit.c
00000000 l    df *ABS*	00000000 lib2-divmod.c
0080ffc4 l     F .text	0000007c udivmodsi4
00000000 l    df *ABS*	00000000 libgcc2.c
00000000 l    df *ABS*	00000000 libgcc2.c
00000000 l    df *ABS*	00000000 libgcc2.c
00000000 l    df *ABS*	00000000 dp-bit.c
00000000 l    df *ABS*	00000000 dp-bit.c
00000000 l    df *ABS*	00000000 dp-bit.c
00000000 l    df *ABS*	00000000 alt_exit.c
008107c8 l     F .text	00000040 alt_sim_halt
0080d358 g     F .text	00000094 _mprec_log10
0080d444 g     F .text	00000088 __any_on
00802ab4 g     F .text	00000070 _isatty_r
00810ac0 g     O .rodata	00000028 __mprec_tinytens
00802c84 g     F .text	000000f0 alt_main
00809320 g     F .text	0000008c strcpy
008002d0 g     F .text	000000a0 _puts_r
008142c0 g     O .bss	00000100 alt_irq
00802b24 g     F .text	00000078 _lseek_r
008000d8 g       .exceptions	00000000 restore_sp_from_pxCurrentTCB
00812670 g       *ABS*	00000000 __flash_rwdata_start
0080f9b8 g     F .text	00000088 __eqdf2
00814550 g       *ABS*	00000000 __alt_heap_start
008042f8 g     F .text	00000080 uxTaskPriorityGet
00805c70 g     F .text	000000b0 xTimerCreate
008026f0 g     F .text	00000068 __sseek
00801c70 g     F .text	000000a4 __sinit
00803df8 g     F .text	000000a4 vQueueWaitForMessageRestricted
0080ceac g     F .text	00000084 _setlocale_r
00801d70 g     F .text	0000009c __sfmoreglue
00802dc8 g     F .text	0000003c __malloc_unlock
00801158 g     F .text	000000e0 memmove
00805b48 g     F .text	00000050 vTaskEnterCritical
00801d60 g     F .text	00000010 _cleanup
0080342c g     F .text	000000d4 xQueueGenericSendFromISR
0080d4cc g     F .text	000000bc _Balloc
0080fac8 g     F .text	00000088 __gtdf2
008090d8 g     F .text	00000010 __errno
00800000 g     F .entry	0000000c __reset
008030d8 g     F .text	0000008c xQueueGiveMutexRecursive
008140f8 g     O .bss	00000004 pxCurrentTCB
00800020 g       *ABS*	00000000 __flash_exceptions_start
00802a40 g     F .text	00000074 _fstat_r
008140e4 g     O .bss	00000004 errno
00802c4c  w    F .text	0000001c pre_constructors
008140ec g     O .bss	00000004 alt_argv
0081a62c g       *ABS*	00000000 _gp
00804378 g     F .text	000001cc vTaskPrioritySet
008140f4 g     O .bss	00000004 alt_heapsem
00811438 g     O .rwdata	00000180 alt_fd_list
00808648 g     F .text	0000002c xPortStartScheduler
0080490c g     F .text	00000044 vTaskEndScheduler
0080894c g     F .text	00000094 alt_find_dev
008010b8 g     F .text	000000a0 memcpy
00804f54 g     F .text	00000084 vTaskPlaceOnEventList
00803e9c g     F .text	0000020c xTaskGenericCreate
00804640 g     F .text	00000070 xTaskIsTaskSuspended
00801d54 g     F .text	0000000c _cleanup_r
0080fc60 g     F .text	000000f8 __floatsidf
00806908 g     F .text	00000078 alt_io_redirect
0080fbd8 g     F .text	00000088 __ltdf2
00810898 g       *ABS*	00000000 __DTOR_END__
00802c68  w    F .text	0000001c post_constructors
00800370 g     F .text	00000014 puts
00808258 g     F .text	00000044 vPortFree
0080d2a8 g     F .text	000000b0 __ratio
00807bac g     F .text	00000260 altera_avalon_jtag_uart_read
00809134 g     F .text	00000014 malloc
00810100 g     F .text	00000008 __udivsi3
00806980 g     F .text	000000c4 isatty
008109d0 g     O .rodata	000000c8 __mprec_tens
00805840 g     F .text	00000070 uxTaskGetStackHighWaterMark
0080ce88 g     F .text	00000008 __locale_charset
00808334 g     F .text	00000098 vListInsertEnd
008140d8 g     O .bss	00000004 __malloc_top_pad
00814140 g     O .bss	00000004 alt_fd_list_lock
00812668 g     O .rwdata	00000004 __mb_cur_max
0080ce90 g     F .text	0000000c _localeconv_r
0080dc30 g     F .text	0000003c __i2b
008003f8 g     F .text	0000049c __sfvwrite_r
0080182c g     F .text	00000070 _sbrk_r
00804794 g     F .text	000000dc xTaskResumeFromISR
00802b9c g     F .text	00000078 _read_r
0080830c g     F .text	00000028 vListInitialiseItem
00812620 g     O .rwdata	0000000c __lc_ctype
00812650 g     O .rwdata	00000004 alt_max_fd
00808690 g     F .text	00000038 vPortSysTickHandler
008105c8 g     F .text	00000138 __unpack_d
0080291c g     F .text	00000110 _fclose_r
00801bd4 g     F .text	00000034 fflush
008140dc g     O .bss	00000004 __malloc_max_sbrked_mem
0080f328 g     F .text	00000074 __adddf3
0080d188 g     F .text	00000120 __b2d
0080e838 g     F .text	00000660 __umoddi3
00806b90 g     F .text	000000f4 lseek
00812630 g     O .rwdata	00000004 _global_impure_ptr
00801238 g     F .text	000005f4 _realloc_r
00814550 g       *ABS*	00000000 __bss_end
00808e04 g     F .text	000000f8 alt_iic_isr_register
00808f94 g     F .text	00000110 alt_tick
0080e1cc g     F .text	0000066c __udivdi3
00810a98 g     O .rodata	00000028 __mprec_bigtens
0080deb8 g     F .text	00000120 __s2b
0080fe30 g     F .text	00000194 __floatunsidf
0080d0a8 g     F .text	00000060 __mcmp
00808218 g     F .text	00000040 pvPortMalloc
00801d3c g     F .text	00000018 __fp_lock_all
00808dbc g     F .text	00000048 alt_ic_irq_enabled
008038ec g     F .text	0000003c vQueueDelete
00808674 g     F .text	0000001c vPortEndScheduler
0080829c g     F .text	00000070 vListInitialise
00808efc g     F .text	00000098 alt_alarm_stop
00814148 g     O .bss	00000004 alt_irq_active
008001ac g     F .exceptions	000000c8 alt_irq_handler
00811410 g     O .rwdata	00000028 alt_dev_null
00804af0 g     F .text	00000050 xTaskGetTickCount
00803260 g     F .text	000001cc xQueueGenericSend
0080881c g     F .text	0000001c alt_dcache_flush_all
0080cf74 g     F .text	00000070 __hi0bits
0080fd58 g     F .text	000000d8 __fixdfsi
00812670 g       *ABS*	00000000 __ram_rwdata_end
00812648 g     O .rwdata	00000008 alt_dev_list
00807280 g     F .text	00000124 write
00805038 g     F .text	000000e4 xTaskRemoveFromEventList
00810c08 g       *ABS*	00000000 __ram_rodata_end
008066f8 g     F .text	000000d8 fstat
00809290 g     F .text	00000090 strcat
0080dd98 g     F .text	00000120 __pow5mult
00814154 g     O .bss	00000004 __nlocale_changed
00810108 g     F .text	00000008 __umodsi3
00814550 g       *ABS*	00000000 end
008040a8 g     F .text	000000f0 vTaskDelete
00807614 g     F .text	00000158 altera_avalon_jtag_uart_init
00810894 g       *ABS*	00000000 __CTOR_LIST__
01000000 g       *ABS*	00000000 __alt_stack_pointer
008080f8 g     F .text	00000090 alt_avalon_timer_sc_init
00810234 g     F .text	00000080 __clzsi2
00807e0c g     F .text	0000027c altera_avalon_jtag_uart_write
00801c60 g     F .text	00000004 __sfp_lock_acquire
00800fd4 g     F .text	000000e4 memchr
008094c0 g     F .text	00001ec4 ___vfprintf_internal_r
00809230 g     F .text	00000060 _sprintf_r
00805154 g     F .text	000000ec xTaskCheckForTimeOut
00802028 g     F .text	00000314 _free_r
0080b4e0 g     F .text	000001b0 __call_exitprocs
00814158 g     O .bss	00000004 __mlocale_changed
00812638 g     O .rwdata	00000004 __malloc_sbrk_base
00800274 g     F .text	0000003c _start
0081414c g     O .bss	00000004 _alt_tick_rate
00804950 g     F .text	00000028 vTaskSuspendAll
00804b40 g     F .text	0000002c xTaskGetTickCountFromISR
0080d890 g     F .text	0000014c __lshift
00814150 g     O .bss	00000004 _alt_nticks
00806fc8 g     F .text	00000124 read
00807438 g     F .text	0000005c alt_sys_init
008084a0 g     F .text	00000098 uxListRemove
0080b3a8 g     F .text	00000134 __register_exitproc
00805a7c g     F .text	000000cc vTaskPriorityDisinherit
0080d9dc g     F .text	00000254 __multiply
00807a44 g     F .text	00000074 altera_avalon_jtag_uart_close
00805968 g     F .text	00000114 vTaskPriorityInherit
00802c14 g     F .text	00000038 __mulsi3
00810c08 g       *ABS*	00000000 __ram_rwdata_start
00810898 g       *ABS*	00000000 __ram_rodata_start
008093ac g     F .text	000000bc strncpy
00814160 g     O .bss	00000028 __malloc_current_mallinfo
008046b0 g     F .text	000000e4 vTaskResume
0080d588 g     F .text	0000017c __d2b
00804e78 g     F .text	000000dc vTaskSwitchContext
008074cc g     F .text	00000058 altera_avalon_jtag_uart_read_fd
00808b00 g     F .text	00000114 alt_get_fd
00804fd8 g     F .text	00000060 vTaskPlaceOnEventListRestricted
00810700 g     F .text	000000c8 __fpcmp_parts_d
008028ac g     F .text	00000070 _close_r
00809148 g     F .text	00000074 memcmp
0080757c g     F .text	00000048 altera_avalon_jtag_uart_close_fd
00814550 g       *ABS*	00000000 __alt_stack_base
008075c4 g     F .text	00000050 altera_avalon_jtag_uart_ioctl_fd
00805d20 g     F .text	000000c8 xTimerGenericCommand
008052b0 g     F .text	00000044 vTaskSetTaskNumber
0080189c g     F .text	0000013c __swsetup_r
00804544 g     F .text	000000fc vTaskSuspend
0080f760 g     F .text	00000258 __divdf3
00801e0c g     F .text	000000f0 __sfp
0080d3ec g     F .text	00000058 __copybits
00804b6c g     F .text	00000020 uxTaskGetNumberOfTasks
00000000         *UND*	00000000 save_context
00811008 g     O .rwdata	00000408 __malloc_av_
00801c6c g     F .text	00000004 __sinit_lock_release
00804cf8 g     F .text	00000180 vTaskIncrementTick
0080f39c g     F .text	000003c4 __muldf3
008027d4 g     F .text	00000060 __sread
008089e0 g     F .text	00000120 alt_find_file
00808838 g     F .text	000000b4 alt_dev_llist_insert
00802d74 g     F .text	00000054 __malloc_lock
008071c4 g     F .text	000000bc sbrk
00803164 g     F .text	000000a0 xQueueTakeMutexRecursive
00803928 g     F .text	0000002c ucQueueGetQueueNumber
008019d8 g     F .text	000001fc _fflush_r
0080e104 g     F .text	000000c8 _calloc_r
008140d8 g       *ABS*	00000000 __bss_start
00804b8c g     F .text	0000016c vTaskList
00805264 g     F .text	0000004c uxTaskGetTaskNumber
00802650 g     F .text	00000098 memset
008002b0 g     F .text	00000020 main
008140f0 g     O .bss	00000004 alt_envp
008140e0 g     O .bss	00000004 __malloc_max_total_mem
00807524 g     F .text	00000058 altera_avalon_jtag_uart_write_fd
008083cc g     F .text	000000d4 vListInsert
008026e8 g     F .text	00000008 __sclose
01000000 g       *ABS*	00000000 __alt_heap_limit
00802a2c g     F .text	00000014 fclose
00805c00 g     F .text	00000070 xTimerCreateTimerTask
008143c0 g     O .bss	00000190 _atexit0
0080b8d4 g     F .text	000015b4 _dtoa_r
00800894 g     F .text	00000740 _malloc_r
00803984 g     F .text	0000002c ucQueueGetQueueType
00812654 g     O .rwdata	00000004 alt_errno
00804198 g     F .text	000000e8 vTaskDelayUntil
008081dc g     F .text	0000003c __env_unlock
00802404 g     F .text	000000b8 _fwalk
00803788 g     F .text	000000dc xQueueReceiveFromISR
008058ec g     F .text	00000028 xTaskGetCurrentTaskHandle
00810040 g     F .text	00000060 __divsi3
00810af4 g     O .rodata	00000014 __thenan_df
00802f30 g     F .text	000000d8 xQueueGenericCreate
00801efc g     F .text	0000012c _malloc_trim_r
00810898 g       *ABS*	00000000 __CTOR_END__
0080e048 g     F .text	000000bc strcmp
00803204 g     F .text	0000005c xQueueCreateCountingSemaphore
00810898 g       *ABS*	00000000 __flash_rodata_start
00810898 g       *ABS*	00000000 __DTOR_LIST__
0080fa40 g     F .text	00000088 __nedf2
00803954 g     F .text	00000030 vQueueSetQueueNumber
00807404 g     F .text	00000034 alt_irq_init
0080714c g     F .text	00000078 alt_release_fd
00804978 g     F .text	00000178 xTaskResumeAll
008091bc g     F .text	00000074 sprintf
00810b08 g     O .rodata	00000100 __clz_tab
00804870 g     F .text	0000009c vTaskStartScheduler
0081415c g     O .bss	00000004 _PathLocale
008090c4 g     F .text	00000014 atexit
00802834 g     F .text	00000078 _write_r
0080cf30 g     F .text	0000001c setlocale
00803dbc g     F .text	0000003c xQueueIsQueueFullFromISR
00806474 g     F .text	00000030 pvTimerGetTimerID
0081262c g     O .rwdata	00000004 _impure_ptr
008140e8 g     O .bss	00000004 alt_argc
00806694 g     F .text	00000064 _do_dtors
00000000         *UND*	00000000 alt_irq_entry
0080d108 g     F .text	00000080 __ulp
0080dfd8 g     F .text	00000040 __isinfd
00801d24 g     F .text	00000018 __fp_unlock_all
00805240 g     F .text	00000024 vTaskMissedYield
00812640 g     O .rwdata	00000008 alt_fs_list
00803864 g     F .text	00000058 uxQueueMessagesWaiting
00803500 g     F .text	00000288 xQueueGenericReceive
00800020 g       *ABS*	00000000 __ram_exceptions_start
0080ce9c g     F .text	00000010 localeconv
00808c30 g     F .text	00000050 alt_ic_isr_register
00802e04 g     F .text	0000012c xQueueGenericReset
00812670 g       *ABS*	00000000 _edata
00814550 g       *ABS*	00000000 _end
00800274 g       *ABS*	00000000 __ram_exceptions_end
00807ab8 g     F .text	000000f4 altera_avalon_jtag_uart_ioctl
00806410 g     F .text	00000064 xTimerIsTimerActive
00808d1c g     F .text	000000a0 alt_ic_irq_disable
00802758 g     F .text	0000007c __swrite
00812634 g     O .rwdata	00000004 __malloc_trim_threshold
008090a4 g     F .text	00000020 altera_nios2_qsys_irq_init
008090e8 g     F .text	00000038 exit
0080233c g     F .text	000000c8 _fwalk_reent
0080d704 g     F .text	0000018c __mdiff
008100a0 g     F .text	00000060 __modsi3
00804280 g     F .text	00000078 vTaskDelay
01000000 g       *ABS*	00000000 __alt_data_end
00801c64 g     F .text	00000004 __sfp_lock_release
00800000 g       *ABS*	00000000 __alt_mem_sdram
00805914 g     F .text	00000054 xTaskGetSchedulerState
0080e018 g     F .text	00000030 __isnand
00810808 g     F .text	00000020 _exit
008086c8 g     F .text	00000154 alt_alarm_start
00810110 g     F .text	00000124 __muldi3
008024bc g     F .text	00000194 __smakebuf_r
00805b98 g     F .text	00000068 vTaskExitCritical
00800384 g     F .text	00000074 strlen
00808538 g     F .text	000000e8 pxPortInitialiseStack
00806ddc g     F .text	0000018c open
0080fb50 g     F .text	00000088 __gedf2
00808c14 g     F .text	0000001c alt_icache_flush_all
0080511c g     F .text	00000038 vTaskSetTimeOutState
0081265c g     O .rwdata	00000004 alt_priority_mask
00808c80 g     F .text	0000009c alt_ic_irq_enable
0080b384 g     F .text	00000024 __vfprintf_internal
008038bc g     F .text	00000030 uxQueueMessagesWaitingFromISR
00808188 g     F .text	00000054 __env_lock
00803d24 g     F .text	00000034 xQueueIsQueueEmptyFromISR
0080f2a8 g     F .text	00000080 __subdf3
0080cfe4 g     F .text	000000c4 __lo0bits
00812660 g     O .rwdata	00000008 alt_alarm_list
00806630 g     F .text	00000064 _do_ctors
00803008 g     F .text	000000d0 xQueueCreateMutex
008064a4 g     F .text	00000100 close
00814144 g     O .bss	00000004 alt_envsem
00806aa4 g     F .text	00000080 alt_load
008102b4 g     F .text	00000314 __pack_d
00809120 g     F .text	00000014 free
00801c68 g     F .text	00000004 __sinit_lock_acquire
0080dc6c g     F .text	0000012c __multadd
0080cf4c g     F .text	00000028 _Bfree



Disassembly of section .entry:

00800000 <__reset>:
  800000:	00402034 	movhi	at,128
  800004:	08409d14 	ori	at,at,628
  800008:	0800683a 	jmp	at
	...

Disassembly of section .exceptions:

00800020 <save_context>:
  800020:	ef7fff04 	addi	ea,ea,-4
  800024:	deffe204 	addi	sp,sp,-120
  800028:	dfc00015 	stw	ra,0(sp)
  80002c:	d8400215 	stw	at,8(sp)
  800030:	d8800315 	stw	r2,12(sp)
  800034:	d8c00415 	stw	r3,16(sp)
  800038:	d9000515 	stw	r4,20(sp)
  80003c:	d9400615 	stw	r5,24(sp)
  800040:	d9800715 	stw	r6,28(sp)
  800044:	d9c00815 	stw	r7,32(sp)
  800048:	da000915 	stw	r8,36(sp)
  80004c:	da400a15 	stw	r9,40(sp)
  800050:	da800b15 	stw	r10,44(sp)
  800054:	dac00c15 	stw	r11,48(sp)
  800058:	db000d15 	stw	r12,52(sp)
  80005c:	db400e15 	stw	r13,56(sp)
  800060:	db800f15 	stw	r14,60(sp)
  800064:	dbc01015 	stw	r15,64(sp)
  800068:	000b307a 	rdctl	r5,estatus
  80006c:	d9401115 	stw	r5,68(sp)
  800070:	df401215 	stw	ea,72(sp)
  800074:	dc001315 	stw	r16,76(sp)
  800078:	dc401415 	stw	r17,80(sp)
  80007c:	dc801515 	stw	r18,84(sp)
  800080:	dcc01615 	stw	r19,88(sp)
  800084:	dd001715 	stw	r20,92(sp)
  800088:	dd401815 	stw	r21,96(sp)
  80008c:	dd801915 	stw	r22,100(sp)
  800090:	ddc01a15 	stw	r23,104(sp)
  800094:	de801b15 	stw	gp,108(sp)
  800098:	df001c15 	stw	fp,112(sp)
  80009c:	08090d80 	call	8090d8 <__errno>
  8000a0:	10c00017 	ldw	r3,0(r2)
  8000a4:	d8c01d15 	stw	r3,116(sp)

008000a8 <save_sp_to_pxCurrentTCB>:
  8000a8:	08059140 	call	805914 <xTaskGetSchedulerState>
  8000ac:	10000426 	beq	r2,zero,8000c0 <hw_irq_test>
  8000b0:	06002074 	movhi	et,129
  8000b4:	c6103e04 	addi	et,et,16632
  8000b8:	c6000017 	ldw	et,0(et)
  8000bc:	c6c00015 	stw	sp,0(et)

008000c0 <hw_irq_test>:
  8000c0:	0009313a 	rdctl	r4,ipending
  8000c4:	000b307a 	rdctl	r5,estatus
  8000c8:	2880004c 	andi	r2,r5,1
  8000cc:	10002a26 	beq	r2,zero,800178 <soft_exceptions>
  8000d0:	20002926 	beq	r4,zero,800178 <soft_exceptions>

008000d4 <hw_irq_handler>:
  8000d4:	08001ac0 	call	8001ac <alt_irq_handler>

008000d8 <restore_sp_from_pxCurrentTCB>:
  8000d8:	08059140 	call	805914 <xTaskGetSchedulerState>
  8000dc:	10000426 	beq	r2,zero,8000f0 <restore_context>
  8000e0:	06002074 	movhi	et,129
  8000e4:	c6103e04 	addi	et,et,16632
  8000e8:	c6000017 	ldw	et,0(et)
  8000ec:	c6c00017 	ldw	sp,0(et)

008000f0 <restore_context>:
  8000f0:	08090d80 	call	8090d8 <__errno>
  8000f4:	d8c01d17 	ldw	r3,116(sp)
  8000f8:	10c00015 	stw	r3,0(r2)
  8000fc:	dfc00017 	ldw	ra,0(sp)
  800100:	d8400217 	ldw	at,8(sp)
  800104:	d8800317 	ldw	r2,12(sp)
  800108:	d8c00417 	ldw	r3,16(sp)
  80010c:	d9000517 	ldw	r4,20(sp)
  800110:	d9400617 	ldw	r5,24(sp)
  800114:	d9800717 	ldw	r6,28(sp)
  800118:	d9c00817 	ldw	r7,32(sp)
  80011c:	da000917 	ldw	r8,36(sp)
  800120:	da400a17 	ldw	r9,40(sp)
  800124:	da800b17 	ldw	r10,44(sp)
  800128:	dac00c17 	ldw	r11,48(sp)
  80012c:	db000d17 	ldw	r12,52(sp)
  800130:	db400e17 	ldw	r13,56(sp)
  800134:	db800f17 	ldw	r14,60(sp)
  800138:	dbc01017 	ldw	r15,64(sp)
  80013c:	de001117 	ldw	et,68(sp)
  800140:	c001707a 	wrctl	estatus,et
  800144:	df401217 	ldw	ea,72(sp)
  800148:	dc001317 	ldw	r16,76(sp)
  80014c:	dc401417 	ldw	r17,80(sp)
  800150:	dc801517 	ldw	r18,84(sp)
  800154:	dcc01617 	ldw	r19,88(sp)
  800158:	dd001717 	ldw	r20,92(sp)
  80015c:	dd401817 	ldw	r21,96(sp)
  800160:	dd801917 	ldw	r22,100(sp)
  800164:	ddc01a17 	ldw	r23,104(sp)
  800168:	de801b17 	ldw	gp,108(sp)
  80016c:	df001c17 	ldw	fp,112(sp)
  800170:	dec01e04 	addi	sp,sp,120
  800174:	ef80083a 	eret

00800178 <soft_exceptions>:
  800178:	ee000017 	ldw	et,0(ea)
  80017c:	00400ef4 	movhi	at,59
  800180:	085a0e94 	ori	at,at,26682
  800184:	c070c03a 	cmpne	et,et,at
  800188:	c0000226 	beq	et,zero,800194 <call_scheduler>
  80018c:	003da03a 	break	0
  800190:	003fd706 	br	8000f0 <restore_context>

00800194 <call_scheduler>:
  800194:	08059140 	call	805914 <xTaskGetSchedulerState>
  800198:	103fd526 	beq	r2,zero,8000f0 <restore_context>
  80019c:	ef400104 	addi	ea,ea,4
  8001a0:	df401215 	stw	ea,72(sp)
  8001a4:	0804e780 	call	804e78 <vTaskSwitchContext>
  8001a8:	003fcb06 	br	8000d8 <restore_sp_from_pxCurrentTCB>

008001ac <alt_irq_handler>:
  8001ac:	defff904 	addi	sp,sp,-28
  8001b0:	dfc00615 	stw	ra,24(sp)
  8001b4:	df000515 	stw	fp,20(sp)
  8001b8:	df000504 	addi	fp,sp,20
  8001bc:	0005313a 	rdctl	r2,ipending
  8001c0:	e0bffc15 	stw	r2,-16(fp)
  8001c4:	e0bffc17 	ldw	r2,-16(fp)
  8001c8:	e0bfff15 	stw	r2,-4(fp)
  8001cc:	e03ffd15 	stw	zero,-12(fp)
  8001d0:	00800044 	movi	r2,1
  8001d4:	e0bffe15 	stw	r2,-8(fp)
  8001d8:	e0ffff17 	ldw	r3,-4(fp)
  8001dc:	e0bffe17 	ldw	r2,-8(fp)
  8001e0:	1884703a 	and	r2,r3,r2
  8001e4:	1005003a 	cmpeq	r2,r2,zero
  8001e8:	1000161e 	bne	r2,zero,800244 <alt_irq_handler+0x98>
  8001ec:	e0bffd17 	ldw	r2,-12(fp)
  8001f0:	00c02074 	movhi	r3,129
  8001f4:	18d0b004 	addi	r3,r3,17088
  8001f8:	100490fa 	slli	r2,r2,3
  8001fc:	10c5883a 	add	r2,r2,r3
  800200:	11400017 	ldw	r5,0(r2)
  800204:	e0bffd17 	ldw	r2,-12(fp)
  800208:	00c02074 	movhi	r3,129
  80020c:	18d0b004 	addi	r3,r3,17088
  800210:	100490fa 	slli	r2,r2,3
  800214:	10c5883a 	add	r2,r2,r3
  800218:	10800104 	addi	r2,r2,4
  80021c:	11000017 	ldw	r4,0(r2)
  800220:	283ee83a 	callr	r5
  800224:	0005313a 	rdctl	r2,ipending
  800228:	e0bffb15 	stw	r2,-20(fp)
  80022c:	e0bffb17 	ldw	r2,-20(fp)
  800230:	e0bfff15 	stw	r2,-4(fp)
  800234:	e0bfff17 	ldw	r2,-4(fp)
  800238:	1004c03a 	cmpne	r2,r2,zero
  80023c:	103fe31e 	bne	r2,zero,8001cc <alt_irq_handler+0x20>
  800240:	00000706 	br	800260 <alt_irq_handler+0xb4>
  800244:	e0bffe17 	ldw	r2,-8(fp)
  800248:	1085883a 	add	r2,r2,r2
  80024c:	e0bffe15 	stw	r2,-8(fp)
  800250:	e0bffd17 	ldw	r2,-12(fp)
  800254:	10800044 	addi	r2,r2,1
  800258:	e0bffd15 	stw	r2,-12(fp)
  80025c:	003fde06 	br	8001d8 <alt_irq_handler+0x2c>
  800260:	e037883a 	mov	sp,fp
  800264:	dfc00117 	ldw	ra,4(sp)
  800268:	df000017 	ldw	fp,0(sp)
  80026c:	dec00204 	addi	sp,sp,8
  800270:	f800283a 	ret

Disassembly of section .text:

00800274 <_start>:
  800274:	06c04034 	movhi	sp,256
  800278:	dec00014 	ori	sp,sp,0
  80027c:	06802074 	movhi	gp,129
  800280:	d6a98b14 	ori	gp,gp,42540
  800284:	00802074 	movhi	r2,129
  800288:	10903614 	ori	r2,r2,16600
  80028c:	00c02074 	movhi	r3,129
  800290:	18d15414 	ori	r3,r3,17744
  800294:	10c00326 	beq	r2,r3,8002a4 <_start+0x30>
  800298:	10000015 	stw	zero,0(r2)
  80029c:	10800104 	addi	r2,r2,4
  8002a0:	10fffd36 	bltu	r2,r3,800298 <_start+0x24>
  8002a4:	0806aa40 	call	806aa4 <alt_load>
  8002a8:	0802c840 	call	802c84 <alt_main>

008002ac <alt_after_alt_main>:
  8002ac:	003fff06 	br	8002ac <alt_after_alt_main>

008002b0 <main>:
  8002b0:	defffe04 	addi	sp,sp,-8
  8002b4:	dfc00115 	stw	ra,4(sp)
  8002b8:	df000015 	stw	fp,0(sp)
  8002bc:	d839883a 	mov	fp,sp
  8002c0:	01002074 	movhi	r4,129
  8002c4:	21022604 	addi	r4,r4,2200
  8002c8:	08003700 	call	800370 <puts>
  8002cc:	003fff06 	br	8002cc <main+0x1c>

008002d0 <_puts_r>:
  8002d0:	defff604 	addi	sp,sp,-40
  8002d4:	dc400715 	stw	r17,28(sp)
  8002d8:	2023883a 	mov	r17,r4
  8002dc:	2809883a 	mov	r4,r5
  8002e0:	dfc00915 	stw	ra,36(sp)
  8002e4:	dcc00815 	stw	r19,32(sp)
  8002e8:	2827883a 	mov	r19,r5
  8002ec:	08003840 	call	800384 <strlen>
  8002f0:	89400217 	ldw	r5,8(r17)
  8002f4:	00c02074 	movhi	r3,129
  8002f8:	18c22a04 	addi	r3,r3,2216
  8002fc:	01c00044 	movi	r7,1
  800300:	12000044 	addi	r8,r2,1
  800304:	d8c00515 	stw	r3,20(sp)
  800308:	d9c00615 	stw	r7,24(sp)
  80030c:	d8c00304 	addi	r3,sp,12
  800310:	01c00084 	movi	r7,2
  800314:	8809883a 	mov	r4,r17
  800318:	d80d883a 	mov	r6,sp
  80031c:	d8c00015 	stw	r3,0(sp)
  800320:	dcc00315 	stw	r19,12(sp)
  800324:	da000215 	stw	r8,8(sp)
  800328:	d9c00115 	stw	r7,4(sp)
  80032c:	d8800415 	stw	r2,16(sp)
  800330:	08003f80 	call	8003f8 <__sfvwrite_r>
  800334:	00ffffc4 	movi	r3,-1
  800338:	10000626 	beq	r2,zero,800354 <_puts_r+0x84>
  80033c:	1805883a 	mov	r2,r3
  800340:	dfc00917 	ldw	ra,36(sp)
  800344:	dcc00817 	ldw	r19,32(sp)
  800348:	dc400717 	ldw	r17,28(sp)
  80034c:	dec00a04 	addi	sp,sp,40
  800350:	f800283a 	ret
  800354:	00c00284 	movi	r3,10
  800358:	1805883a 	mov	r2,r3
  80035c:	dfc00917 	ldw	ra,36(sp)
  800360:	dcc00817 	ldw	r19,32(sp)
  800364:	dc400717 	ldw	r17,28(sp)
  800368:	dec00a04 	addi	sp,sp,40
  80036c:	f800283a 	ret

00800370 <puts>:
  800370:	00802074 	movhi	r2,129
  800374:	10898b04 	addi	r2,r2,9772
  800378:	200b883a 	mov	r5,r4
  80037c:	11000017 	ldw	r4,0(r2)
  800380:	08002d01 	jmpi	8002d0 <_puts_r>

00800384 <strlen>:
  800384:	208000cc 	andi	r2,r4,3
  800388:	2011883a 	mov	r8,r4
  80038c:	1000161e 	bne	r2,zero,8003e8 <strlen+0x64>
  800390:	20c00017 	ldw	r3,0(r4)
  800394:	017fbff4 	movhi	r5,65279
  800398:	297fbfc4 	addi	r5,r5,-257
  80039c:	01e02074 	movhi	r7,32897
  8003a0:	39e02004 	addi	r7,r7,-32640
  8003a4:	1945883a 	add	r2,r3,r5
  8003a8:	11c4703a 	and	r2,r2,r7
  8003ac:	00c6303a 	nor	r3,zero,r3
  8003b0:	1886703a 	and	r3,r3,r2
  8003b4:	18000c1e 	bne	r3,zero,8003e8 <strlen+0x64>
  8003b8:	280d883a 	mov	r6,r5
  8003bc:	380b883a 	mov	r5,r7
  8003c0:	21000104 	addi	r4,r4,4
  8003c4:	20800017 	ldw	r2,0(r4)
  8003c8:	1187883a 	add	r3,r2,r6
  8003cc:	1946703a 	and	r3,r3,r5
  8003d0:	0084303a 	nor	r2,zero,r2
  8003d4:	10c4703a 	and	r2,r2,r3
  8003d8:	103ff926 	beq	r2,zero,8003c0 <strlen+0x3c>
  8003dc:	20800007 	ldb	r2,0(r4)
  8003e0:	10000326 	beq	r2,zero,8003f0 <strlen+0x6c>
  8003e4:	21000044 	addi	r4,r4,1
  8003e8:	20800007 	ldb	r2,0(r4)
  8003ec:	103ffd1e 	bne	r2,zero,8003e4 <strlen+0x60>
  8003f0:	2205c83a 	sub	r2,r4,r8
  8003f4:	f800283a 	ret

008003f8 <__sfvwrite_r>:
  8003f8:	30800217 	ldw	r2,8(r6)
  8003fc:	defff504 	addi	sp,sp,-44
  800400:	df000915 	stw	fp,36(sp)
  800404:	dd800715 	stw	r22,28(sp)
  800408:	dc800315 	stw	r18,12(sp)
  80040c:	dfc00a15 	stw	ra,40(sp)
  800410:	ddc00815 	stw	r23,32(sp)
  800414:	dd400615 	stw	r21,24(sp)
  800418:	dd000515 	stw	r20,20(sp)
  80041c:	dcc00415 	stw	r19,16(sp)
  800420:	dc400215 	stw	r17,8(sp)
  800424:	dc000115 	stw	r16,4(sp)
  800428:	302d883a 	mov	r22,r6
  80042c:	2039883a 	mov	fp,r4
  800430:	2825883a 	mov	r18,r5
  800434:	10001c26 	beq	r2,zero,8004a8 <__sfvwrite_r+0xb0>
  800438:	29c0030b 	ldhu	r7,12(r5)
  80043c:	3880020c 	andi	r2,r7,8
  800440:	10002726 	beq	r2,zero,8004e0 <__sfvwrite_r+0xe8>
  800444:	28800417 	ldw	r2,16(r5)
  800448:	10002526 	beq	r2,zero,8004e0 <__sfvwrite_r+0xe8>
  80044c:	3880008c 	andi	r2,r7,2
  800450:	b5400017 	ldw	r21,0(r22)
  800454:	10002826 	beq	r2,zero,8004f8 <__sfvwrite_r+0x100>
  800458:	0021883a 	mov	r16,zero
  80045c:	0023883a 	mov	r17,zero
  800460:	880d883a 	mov	r6,r17
  800464:	e009883a 	mov	r4,fp
  800468:	00810004 	movi	r2,1024
  80046c:	80006e26 	beq	r16,zero,800628 <__sfvwrite_r+0x230>
  800470:	800f883a 	mov	r7,r16
  800474:	91400717 	ldw	r5,28(r18)
  800478:	1400012e 	bgeu	r2,r16,800480 <__sfvwrite_r+0x88>
  80047c:	100f883a 	mov	r7,r2
  800480:	90c00917 	ldw	r3,36(r18)
  800484:	183ee83a 	callr	r3
  800488:	1007883a 	mov	r3,r2
  80048c:	80a1c83a 	sub	r16,r16,r2
  800490:	88a3883a 	add	r17,r17,r2
  800494:	00806d0e 	bge	zero,r2,80064c <__sfvwrite_r+0x254>
  800498:	b0800217 	ldw	r2,8(r22)
  80049c:	10c5c83a 	sub	r2,r2,r3
  8004a0:	b0800215 	stw	r2,8(r22)
  8004a4:	103fee1e 	bne	r2,zero,800460 <__sfvwrite_r+0x68>
  8004a8:	0009883a 	mov	r4,zero
  8004ac:	2005883a 	mov	r2,r4
  8004b0:	dfc00a17 	ldw	ra,40(sp)
  8004b4:	df000917 	ldw	fp,36(sp)
  8004b8:	ddc00817 	ldw	r23,32(sp)
  8004bc:	dd800717 	ldw	r22,28(sp)
  8004c0:	dd400617 	ldw	r21,24(sp)
  8004c4:	dd000517 	ldw	r20,20(sp)
  8004c8:	dcc00417 	ldw	r19,16(sp)
  8004cc:	dc800317 	ldw	r18,12(sp)
  8004d0:	dc400217 	ldw	r17,8(sp)
  8004d4:	dc000117 	ldw	r16,4(sp)
  8004d8:	dec00b04 	addi	sp,sp,44
  8004dc:	f800283a 	ret
  8004e0:	080189c0 	call	80189c <__swsetup_r>
  8004e4:	1000e41e 	bne	r2,zero,800878 <__sfvwrite_r+0x480>
  8004e8:	91c0030b 	ldhu	r7,12(r18)
  8004ec:	b5400017 	ldw	r21,0(r22)
  8004f0:	3880008c 	andi	r2,r7,2
  8004f4:	103fd81e 	bne	r2,zero,800458 <__sfvwrite_r+0x60>
  8004f8:	3880004c 	andi	r2,r7,1
  8004fc:	1005003a 	cmpeq	r2,r2,zero
  800500:	10005726 	beq	r2,zero,800660 <__sfvwrite_r+0x268>
  800504:	0029883a 	mov	r20,zero
  800508:	002f883a 	mov	r23,zero
  80050c:	a0004226 	beq	r20,zero,800618 <__sfvwrite_r+0x220>
  800510:	3880800c 	andi	r2,r7,512
  800514:	94000217 	ldw	r16,8(r18)
  800518:	10008b26 	beq	r2,zero,800748 <__sfvwrite_r+0x350>
  80051c:	800d883a 	mov	r6,r16
  800520:	a400a536 	bltu	r20,r16,8007b8 <__sfvwrite_r+0x3c0>
  800524:	3881200c 	andi	r2,r7,1152
  800528:	10002726 	beq	r2,zero,8005c8 <__sfvwrite_r+0x1d0>
  80052c:	90800517 	ldw	r2,20(r18)
  800530:	92000417 	ldw	r8,16(r18)
  800534:	91400017 	ldw	r5,0(r18)
  800538:	1087883a 	add	r3,r2,r2
  80053c:	1887883a 	add	r3,r3,r2
  800540:	1808d7fa 	srli	r4,r3,31
  800544:	2a21c83a 	sub	r16,r5,r8
  800548:	80800044 	addi	r2,r16,1
  80054c:	20c9883a 	add	r4,r4,r3
  800550:	2027d07a 	srai	r19,r4,1
  800554:	a085883a 	add	r2,r20,r2
  800558:	980d883a 	mov	r6,r19
  80055c:	9880022e 	bgeu	r19,r2,800568 <__sfvwrite_r+0x170>
  800560:	1027883a 	mov	r19,r2
  800564:	100d883a 	mov	r6,r2
  800568:	3881000c 	andi	r2,r7,1024
  80056c:	1000b826 	beq	r2,zero,800850 <__sfvwrite_r+0x458>
  800570:	300b883a 	mov	r5,r6
  800574:	e009883a 	mov	r4,fp
  800578:	08008940 	call	800894 <_malloc_r>
  80057c:	10003126 	beq	r2,zero,800644 <__sfvwrite_r+0x24c>
  800580:	91400417 	ldw	r5,16(r18)
  800584:	1009883a 	mov	r4,r2
  800588:	800d883a 	mov	r6,r16
  80058c:	1023883a 	mov	r17,r2
  800590:	08010b80 	call	8010b8 <memcpy>
  800594:	90c0030b 	ldhu	r3,12(r18)
  800598:	00beffc4 	movi	r2,-1025
  80059c:	1886703a 	and	r3,r3,r2
  8005a0:	18c02014 	ori	r3,r3,128
  8005a4:	90c0030d 	sth	r3,12(r18)
  8005a8:	9c07c83a 	sub	r3,r19,r16
  8005ac:	8c05883a 	add	r2,r17,r16
  8005b0:	a00d883a 	mov	r6,r20
  8005b4:	a021883a 	mov	r16,r20
  8005b8:	90800015 	stw	r2,0(r18)
  8005bc:	90c00215 	stw	r3,8(r18)
  8005c0:	94400415 	stw	r17,16(r18)
  8005c4:	94c00515 	stw	r19,20(r18)
  8005c8:	91000017 	ldw	r4,0(r18)
  8005cc:	b80b883a 	mov	r5,r23
  8005d0:	a023883a 	mov	r17,r20
  8005d4:	08011580 	call	801158 <memmove>
  8005d8:	90c00217 	ldw	r3,8(r18)
  8005dc:	90800017 	ldw	r2,0(r18)
  8005e0:	a027883a 	mov	r19,r20
  8005e4:	1c07c83a 	sub	r3,r3,r16
  8005e8:	1405883a 	add	r2,r2,r16
  8005ec:	90c00215 	stw	r3,8(r18)
  8005f0:	a021883a 	mov	r16,r20
  8005f4:	90800015 	stw	r2,0(r18)
  8005f8:	b0800217 	ldw	r2,8(r22)
  8005fc:	1405c83a 	sub	r2,r2,r16
  800600:	b0800215 	stw	r2,8(r22)
  800604:	103fa826 	beq	r2,zero,8004a8 <__sfvwrite_r+0xb0>
  800608:	a469c83a 	sub	r20,r20,r17
  80060c:	91c0030b 	ldhu	r7,12(r18)
  800610:	bcef883a 	add	r23,r23,r19
  800614:	a03fbe1e 	bne	r20,zero,800510 <__sfvwrite_r+0x118>
  800618:	adc00017 	ldw	r23,0(r21)
  80061c:	ad000117 	ldw	r20,4(r21)
  800620:	ad400204 	addi	r21,r21,8
  800624:	003fb906 	br	80050c <__sfvwrite_r+0x114>
  800628:	ac400017 	ldw	r17,0(r21)
  80062c:	ac000117 	ldw	r16,4(r21)
  800630:	ad400204 	addi	r21,r21,8
  800634:	003f8a06 	br	800460 <__sfvwrite_r+0x68>
  800638:	91400417 	ldw	r5,16(r18)
  80063c:	e009883a 	mov	r4,fp
  800640:	08020280 	call	802028 <_free_r>
  800644:	00800304 	movi	r2,12
  800648:	e0800015 	stw	r2,0(fp)
  80064c:	9080030b 	ldhu	r2,12(r18)
  800650:	013fffc4 	movi	r4,-1
  800654:	10801014 	ori	r2,r2,64
  800658:	9080030d 	sth	r2,12(r18)
  80065c:	003f9306 	br	8004ac <__sfvwrite_r+0xb4>
  800660:	0027883a 	mov	r19,zero
  800664:	002f883a 	mov	r23,zero
  800668:	d8000015 	stw	zero,0(sp)
  80066c:	0029883a 	mov	r20,zero
  800670:	98001e26 	beq	r19,zero,8006ec <__sfvwrite_r+0x2f4>
  800674:	d8c00017 	ldw	r3,0(sp)
  800678:	1804c03a 	cmpne	r2,r3,zero
  80067c:	10005e26 	beq	r2,zero,8007f8 <__sfvwrite_r+0x400>
  800680:	9821883a 	mov	r16,r19
  800684:	a4c0012e 	bgeu	r20,r19,80068c <__sfvwrite_r+0x294>
  800688:	a021883a 	mov	r16,r20
  80068c:	91000017 	ldw	r4,0(r18)
  800690:	90800417 	ldw	r2,16(r18)
  800694:	91800217 	ldw	r6,8(r18)
  800698:	91c00517 	ldw	r7,20(r18)
  80069c:	1100022e 	bgeu	r2,r4,8006a8 <__sfvwrite_r+0x2b0>
  8006a0:	31e3883a 	add	r17,r6,r7
  8006a4:	8c001616 	blt	r17,r16,800700 <__sfvwrite_r+0x308>
  8006a8:	81c03816 	blt	r16,r7,80078c <__sfvwrite_r+0x394>
  8006ac:	90c00917 	ldw	r3,36(r18)
  8006b0:	91400717 	ldw	r5,28(r18)
  8006b4:	e009883a 	mov	r4,fp
  8006b8:	b80d883a 	mov	r6,r23
  8006bc:	183ee83a 	callr	r3
  8006c0:	1023883a 	mov	r17,r2
  8006c4:	00bfe10e 	bge	zero,r2,80064c <__sfvwrite_r+0x254>
  8006c8:	a469c83a 	sub	r20,r20,r17
  8006cc:	a0001826 	beq	r20,zero,800730 <__sfvwrite_r+0x338>
  8006d0:	b0800217 	ldw	r2,8(r22)
  8006d4:	1445c83a 	sub	r2,r2,r17
  8006d8:	b0800215 	stw	r2,8(r22)
  8006dc:	103f7226 	beq	r2,zero,8004a8 <__sfvwrite_r+0xb0>
  8006e0:	9c67c83a 	sub	r19,r19,r17
  8006e4:	bc6f883a 	add	r23,r23,r17
  8006e8:	983fe21e 	bne	r19,zero,800674 <__sfvwrite_r+0x27c>
  8006ec:	adc00017 	ldw	r23,0(r21)
  8006f0:	acc00117 	ldw	r19,4(r21)
  8006f4:	ad400204 	addi	r21,r21,8
  8006f8:	d8000015 	stw	zero,0(sp)
  8006fc:	003fdc06 	br	800670 <__sfvwrite_r+0x278>
  800700:	b80b883a 	mov	r5,r23
  800704:	880d883a 	mov	r6,r17
  800708:	08011580 	call	801158 <memmove>
  80070c:	90c00017 	ldw	r3,0(r18)
  800710:	e009883a 	mov	r4,fp
  800714:	900b883a 	mov	r5,r18
  800718:	1c47883a 	add	r3,r3,r17
  80071c:	90c00015 	stw	r3,0(r18)
  800720:	08019d80 	call	8019d8 <_fflush_r>
  800724:	103fc91e 	bne	r2,zero,80064c <__sfvwrite_r+0x254>
  800728:	a469c83a 	sub	r20,r20,r17
  80072c:	a03fe81e 	bne	r20,zero,8006d0 <__sfvwrite_r+0x2d8>
  800730:	e009883a 	mov	r4,fp
  800734:	900b883a 	mov	r5,r18
  800738:	08019d80 	call	8019d8 <_fflush_r>
  80073c:	103fc31e 	bne	r2,zero,80064c <__sfvwrite_r+0x254>
  800740:	d8000015 	stw	zero,0(sp)
  800744:	003fe206 	br	8006d0 <__sfvwrite_r+0x2d8>
  800748:	91000017 	ldw	r4,0(r18)
  80074c:	90800417 	ldw	r2,16(r18)
  800750:	1100022e 	bgeu	r2,r4,80075c <__sfvwrite_r+0x364>
  800754:	8023883a 	mov	r17,r16
  800758:	85003136 	bltu	r16,r20,800820 <__sfvwrite_r+0x428>
  80075c:	91c00517 	ldw	r7,20(r18)
  800760:	a1c01836 	bltu	r20,r7,8007c4 <__sfvwrite_r+0x3cc>
  800764:	90c00917 	ldw	r3,36(r18)
  800768:	91400717 	ldw	r5,28(r18)
  80076c:	e009883a 	mov	r4,fp
  800770:	b80d883a 	mov	r6,r23
  800774:	183ee83a 	callr	r3
  800778:	1021883a 	mov	r16,r2
  80077c:	00bfb30e 	bge	zero,r2,80064c <__sfvwrite_r+0x254>
  800780:	1023883a 	mov	r17,r2
  800784:	1027883a 	mov	r19,r2
  800788:	003f9b06 	br	8005f8 <__sfvwrite_r+0x200>
  80078c:	b80b883a 	mov	r5,r23
  800790:	800d883a 	mov	r6,r16
  800794:	08011580 	call	801158 <memmove>
  800798:	90c00217 	ldw	r3,8(r18)
  80079c:	90800017 	ldw	r2,0(r18)
  8007a0:	8023883a 	mov	r17,r16
  8007a4:	1c07c83a 	sub	r3,r3,r16
  8007a8:	1405883a 	add	r2,r2,r16
  8007ac:	90c00215 	stw	r3,8(r18)
  8007b0:	90800015 	stw	r2,0(r18)
  8007b4:	003fc406 	br	8006c8 <__sfvwrite_r+0x2d0>
  8007b8:	a00d883a 	mov	r6,r20
  8007bc:	a021883a 	mov	r16,r20
  8007c0:	003f8106 	br	8005c8 <__sfvwrite_r+0x1d0>
  8007c4:	b80b883a 	mov	r5,r23
  8007c8:	a00d883a 	mov	r6,r20
  8007cc:	08011580 	call	801158 <memmove>
  8007d0:	90c00217 	ldw	r3,8(r18)
  8007d4:	90800017 	ldw	r2,0(r18)
  8007d8:	a021883a 	mov	r16,r20
  8007dc:	1d07c83a 	sub	r3,r3,r20
  8007e0:	1505883a 	add	r2,r2,r20
  8007e4:	a023883a 	mov	r17,r20
  8007e8:	a027883a 	mov	r19,r20
  8007ec:	90c00215 	stw	r3,8(r18)
  8007f0:	90800015 	stw	r2,0(r18)
  8007f4:	003f8006 	br	8005f8 <__sfvwrite_r+0x200>
  8007f8:	b809883a 	mov	r4,r23
  8007fc:	01400284 	movi	r5,10
  800800:	980d883a 	mov	r6,r19
  800804:	0800fd40 	call	800fd4 <memchr>
  800808:	10001726 	beq	r2,zero,800868 <__sfvwrite_r+0x470>
  80080c:	15c5c83a 	sub	r2,r2,r23
  800810:	15000044 	addi	r20,r2,1
  800814:	00800044 	movi	r2,1
  800818:	d8800015 	stw	r2,0(sp)
  80081c:	003f9806 	br	800680 <__sfvwrite_r+0x288>
  800820:	b80b883a 	mov	r5,r23
  800824:	800d883a 	mov	r6,r16
  800828:	08011580 	call	801158 <memmove>
  80082c:	90c00017 	ldw	r3,0(r18)
  800830:	e009883a 	mov	r4,fp
  800834:	900b883a 	mov	r5,r18
  800838:	1c07883a 	add	r3,r3,r16
  80083c:	90c00015 	stw	r3,0(r18)
  800840:	8027883a 	mov	r19,r16
  800844:	08019d80 	call	8019d8 <_fflush_r>
  800848:	103f6b26 	beq	r2,zero,8005f8 <__sfvwrite_r+0x200>
  80084c:	003f7f06 	br	80064c <__sfvwrite_r+0x254>
  800850:	400b883a 	mov	r5,r8
  800854:	e009883a 	mov	r4,fp
  800858:	08012380 	call	801238 <_realloc_r>
  80085c:	103f7626 	beq	r2,zero,800638 <__sfvwrite_r+0x240>
  800860:	1023883a 	mov	r17,r2
  800864:	003f5006 	br	8005a8 <__sfvwrite_r+0x1b0>
  800868:	00c00044 	movi	r3,1
  80086c:	9d000044 	addi	r20,r19,1
  800870:	d8c00015 	stw	r3,0(sp)
  800874:	003f8206 	br	800680 <__sfvwrite_r+0x288>
  800878:	9080030b 	ldhu	r2,12(r18)
  80087c:	00c00244 	movi	r3,9
  800880:	013fffc4 	movi	r4,-1
  800884:	10801014 	ori	r2,r2,64
  800888:	9080030d 	sth	r2,12(r18)
  80088c:	e0c00015 	stw	r3,0(fp)
  800890:	003f0606 	br	8004ac <__sfvwrite_r+0xb4>

00800894 <_malloc_r>:
  800894:	defff604 	addi	sp,sp,-40
  800898:	28c002c4 	addi	r3,r5,11
  80089c:	00800584 	movi	r2,22
  8008a0:	dc800215 	stw	r18,8(sp)
  8008a4:	dfc00915 	stw	ra,36(sp)
  8008a8:	df000815 	stw	fp,32(sp)
  8008ac:	ddc00715 	stw	r23,28(sp)
  8008b0:	dd800615 	stw	r22,24(sp)
  8008b4:	dd400515 	stw	r21,20(sp)
  8008b8:	dd000415 	stw	r20,16(sp)
  8008bc:	dcc00315 	stw	r19,12(sp)
  8008c0:	dc400115 	stw	r17,4(sp)
  8008c4:	dc000015 	stw	r16,0(sp)
  8008c8:	2025883a 	mov	r18,r4
  8008cc:	10c01236 	bltu	r2,r3,800918 <_malloc_r+0x84>
  8008d0:	04400404 	movi	r17,16
  8008d4:	8940142e 	bgeu	r17,r5,800928 <_malloc_r+0x94>
  8008d8:	00800304 	movi	r2,12
  8008dc:	0007883a 	mov	r3,zero
  8008e0:	90800015 	stw	r2,0(r18)
  8008e4:	1805883a 	mov	r2,r3
  8008e8:	dfc00917 	ldw	ra,36(sp)
  8008ec:	df000817 	ldw	fp,32(sp)
  8008f0:	ddc00717 	ldw	r23,28(sp)
  8008f4:	dd800617 	ldw	r22,24(sp)
  8008f8:	dd400517 	ldw	r21,20(sp)
  8008fc:	dd000417 	ldw	r20,16(sp)
  800900:	dcc00317 	ldw	r19,12(sp)
  800904:	dc800217 	ldw	r18,8(sp)
  800908:	dc400117 	ldw	r17,4(sp)
  80090c:	dc000017 	ldw	r16,0(sp)
  800910:	dec00a04 	addi	sp,sp,40
  800914:	f800283a 	ret
  800918:	00bffe04 	movi	r2,-8
  80091c:	18a2703a 	and	r17,r3,r2
  800920:	883fed16 	blt	r17,zero,8008d8 <_malloc_r+0x44>
  800924:	897fec36 	bltu	r17,r5,8008d8 <_malloc_r+0x44>
  800928:	9009883a 	mov	r4,r18
  80092c:	0802d740 	call	802d74 <__malloc_lock>
  800930:	00807dc4 	movi	r2,503
  800934:	14402b2e 	bgeu	r2,r17,8009e4 <_malloc_r+0x150>
  800938:	8806d27a 	srli	r3,r17,9
  80093c:	18003f1e 	bne	r3,zero,800a3c <_malloc_r+0x1a8>
  800940:	880cd0fa 	srli	r6,r17,3
  800944:	300490fa 	slli	r2,r6,3
  800948:	02c02074 	movhi	r11,129
  80094c:	5ac40204 	addi	r11,r11,4104
  800950:	12cb883a 	add	r5,r2,r11
  800954:	2c000317 	ldw	r16,12(r5)
  800958:	580f883a 	mov	r7,r11
  80095c:	2c00041e 	bne	r5,r16,800970 <_malloc_r+0xdc>
  800960:	00000a06 	br	80098c <_malloc_r+0xf8>
  800964:	1800860e 	bge	r3,zero,800b80 <_malloc_r+0x2ec>
  800968:	84000317 	ldw	r16,12(r16)
  80096c:	2c000726 	beq	r5,r16,80098c <_malloc_r+0xf8>
  800970:	80800117 	ldw	r2,4(r16)
  800974:	00ffff04 	movi	r3,-4
  800978:	10c8703a 	and	r4,r2,r3
  80097c:	2447c83a 	sub	r3,r4,r17
  800980:	008003c4 	movi	r2,15
  800984:	10fff70e 	bge	r2,r3,800964 <_malloc_r+0xd0>
  800988:	31bfffc4 	addi	r6,r6,-1
  80098c:	32400044 	addi	r9,r6,1
  800990:	02802074 	movhi	r10,129
  800994:	52840404 	addi	r10,r10,4112
  800998:	54000217 	ldw	r16,8(r10)
  80099c:	8280a026 	beq	r16,r10,800c20 <_malloc_r+0x38c>
  8009a0:	80800117 	ldw	r2,4(r16)
  8009a4:	00ffff04 	movi	r3,-4
  8009a8:	10ca703a 	and	r5,r2,r3
  8009ac:	2c4dc83a 	sub	r6,r5,r17
  8009b0:	008003c4 	movi	r2,15
  8009b4:	11808316 	blt	r2,r6,800bc4 <_malloc_r+0x330>
  8009b8:	52800315 	stw	r10,12(r10)
  8009bc:	52800215 	stw	r10,8(r10)
  8009c0:	30002916 	blt	r6,zero,800a68 <_malloc_r+0x1d4>
  8009c4:	8147883a 	add	r3,r16,r5
  8009c8:	18800117 	ldw	r2,4(r3)
  8009cc:	9009883a 	mov	r4,r18
  8009d0:	10800054 	ori	r2,r2,1
  8009d4:	18800115 	stw	r2,4(r3)
  8009d8:	0802dc80 	call	802dc8 <__malloc_unlock>
  8009dc:	80c00204 	addi	r3,r16,8
  8009e0:	003fc006 	br	8008e4 <_malloc_r+0x50>
  8009e4:	02c02074 	movhi	r11,129
  8009e8:	5ac40204 	addi	r11,r11,4104
  8009ec:	8ac5883a 	add	r2,r17,r11
  8009f0:	14000317 	ldw	r16,12(r2)
  8009f4:	580f883a 	mov	r7,r11
  8009f8:	8806d0fa 	srli	r3,r17,3
  8009fc:	14006c26 	beq	r2,r16,800bb0 <_malloc_r+0x31c>
  800a00:	80c00117 	ldw	r3,4(r16)
  800a04:	00bfff04 	movi	r2,-4
  800a08:	81800317 	ldw	r6,12(r16)
  800a0c:	1886703a 	and	r3,r3,r2
  800a10:	80c7883a 	add	r3,r16,r3
  800a14:	18800117 	ldw	r2,4(r3)
  800a18:	81400217 	ldw	r5,8(r16)
  800a1c:	9009883a 	mov	r4,r18
  800a20:	10800054 	ori	r2,r2,1
  800a24:	18800115 	stw	r2,4(r3)
  800a28:	31400215 	stw	r5,8(r6)
  800a2c:	29800315 	stw	r6,12(r5)
  800a30:	0802dc80 	call	802dc8 <__malloc_unlock>
  800a34:	80c00204 	addi	r3,r16,8
  800a38:	003faa06 	br	8008e4 <_malloc_r+0x50>
  800a3c:	00800104 	movi	r2,4
  800a40:	10c0052e 	bgeu	r2,r3,800a58 <_malloc_r+0x1c4>
  800a44:	00800504 	movi	r2,20
  800a48:	10c07836 	bltu	r2,r3,800c2c <_malloc_r+0x398>
  800a4c:	198016c4 	addi	r6,r3,91
  800a50:	300490fa 	slli	r2,r6,3
  800a54:	003fbc06 	br	800948 <_malloc_r+0xb4>
  800a58:	8804d1ba 	srli	r2,r17,6
  800a5c:	11800e04 	addi	r6,r2,56
  800a60:	300490fa 	slli	r2,r6,3
  800a64:	003fb806 	br	800948 <_malloc_r+0xb4>
  800a68:	00807fc4 	movi	r2,511
  800a6c:	1140bb36 	bltu	r2,r5,800d5c <_malloc_r+0x4c8>
  800a70:	2806d0fa 	srli	r3,r5,3
  800a74:	573ffe04 	addi	fp,r10,-8
  800a78:	00800044 	movi	r2,1
  800a7c:	180890fa 	slli	r4,r3,3
  800a80:	1807d0ba 	srai	r3,r3,2
  800a84:	e1c00117 	ldw	r7,4(fp)
  800a88:	5909883a 	add	r4,r11,r4
  800a8c:	21400217 	ldw	r5,8(r4)
  800a90:	10c4983a 	sll	r2,r2,r3
  800a94:	81000315 	stw	r4,12(r16)
  800a98:	81400215 	stw	r5,8(r16)
  800a9c:	388eb03a 	or	r7,r7,r2
  800aa0:	2c000315 	stw	r16,12(r5)
  800aa4:	24000215 	stw	r16,8(r4)
  800aa8:	e1c00115 	stw	r7,4(fp)
  800aac:	4807883a 	mov	r3,r9
  800ab0:	4800cd16 	blt	r9,zero,800de8 <_malloc_r+0x554>
  800ab4:	1807d0ba 	srai	r3,r3,2
  800ab8:	00800044 	movi	r2,1
  800abc:	10c8983a 	sll	r4,r2,r3
  800ac0:	39004436 	bltu	r7,r4,800bd4 <_malloc_r+0x340>
  800ac4:	21c4703a 	and	r2,r4,r7
  800ac8:	10000a1e 	bne	r2,zero,800af4 <_malloc_r+0x260>
  800acc:	2109883a 	add	r4,r4,r4
  800ad0:	00bfff04 	movi	r2,-4
  800ad4:	4884703a 	and	r2,r9,r2
  800ad8:	3906703a 	and	r3,r7,r4
  800adc:	12400104 	addi	r9,r2,4
  800ae0:	1800041e 	bne	r3,zero,800af4 <_malloc_r+0x260>
  800ae4:	2109883a 	add	r4,r4,r4
  800ae8:	3904703a 	and	r2,r7,r4
  800aec:	4a400104 	addi	r9,r9,4
  800af0:	103ffc26 	beq	r2,zero,800ae4 <_malloc_r+0x250>
  800af4:	480490fa 	slli	r2,r9,3
  800af8:	4819883a 	mov	r12,r9
  800afc:	023fff04 	movi	r8,-4
  800b00:	589b883a 	add	r13,r11,r2
  800b04:	6807883a 	mov	r3,r13
  800b08:	014003c4 	movi	r5,15
  800b0c:	1c000317 	ldw	r16,12(r3)
  800b10:	1c00041e 	bne	r3,r16,800b24 <_malloc_r+0x290>
  800b14:	0000a706 	br	800db4 <_malloc_r+0x520>
  800b18:	3000ab0e 	bge	r6,zero,800dc8 <_malloc_r+0x534>
  800b1c:	84000317 	ldw	r16,12(r16)
  800b20:	1c00a426 	beq	r3,r16,800db4 <_malloc_r+0x520>
  800b24:	80800117 	ldw	r2,4(r16)
  800b28:	1204703a 	and	r2,r2,r8
  800b2c:	144dc83a 	sub	r6,r2,r17
  800b30:	29bff90e 	bge	r5,r6,800b18 <_malloc_r+0x284>
  800b34:	81000317 	ldw	r4,12(r16)
  800b38:	80c00217 	ldw	r3,8(r16)
  800b3c:	89400054 	ori	r5,r17,1
  800b40:	8445883a 	add	r2,r16,r17
  800b44:	20c00215 	stw	r3,8(r4)
  800b48:	19000315 	stw	r4,12(r3)
  800b4c:	81400115 	stw	r5,4(r16)
  800b50:	1187883a 	add	r3,r2,r6
  800b54:	31000054 	ori	r4,r6,1
  800b58:	50800315 	stw	r2,12(r10)
  800b5c:	50800215 	stw	r2,8(r10)
  800b60:	19800015 	stw	r6,0(r3)
  800b64:	11000115 	stw	r4,4(r2)
  800b68:	12800215 	stw	r10,8(r2)
  800b6c:	12800315 	stw	r10,12(r2)
  800b70:	9009883a 	mov	r4,r18
  800b74:	0802dc80 	call	802dc8 <__malloc_unlock>
  800b78:	80c00204 	addi	r3,r16,8
  800b7c:	003f5906 	br	8008e4 <_malloc_r+0x50>
  800b80:	8109883a 	add	r4,r16,r4
  800b84:	20800117 	ldw	r2,4(r4)
  800b88:	80c00217 	ldw	r3,8(r16)
  800b8c:	81400317 	ldw	r5,12(r16)
  800b90:	10800054 	ori	r2,r2,1
  800b94:	20800115 	stw	r2,4(r4)
  800b98:	28c00215 	stw	r3,8(r5)
  800b9c:	19400315 	stw	r5,12(r3)
  800ba0:	9009883a 	mov	r4,r18
  800ba4:	0802dc80 	call	802dc8 <__malloc_unlock>
  800ba8:	80c00204 	addi	r3,r16,8
  800bac:	003f4d06 	br	8008e4 <_malloc_r+0x50>
  800bb0:	80800204 	addi	r2,r16,8
  800bb4:	14000317 	ldw	r16,12(r2)
  800bb8:	143f911e 	bne	r2,r16,800a00 <_malloc_r+0x16c>
  800bbc:	1a400084 	addi	r9,r3,2
  800bc0:	003f7306 	br	800990 <_malloc_r+0xfc>
  800bc4:	88c00054 	ori	r3,r17,1
  800bc8:	8445883a 	add	r2,r16,r17
  800bcc:	80c00115 	stw	r3,4(r16)
  800bd0:	003fdf06 	br	800b50 <_malloc_r+0x2bc>
  800bd4:	e4000217 	ldw	r16,8(fp)
  800bd8:	00bfff04 	movi	r2,-4
  800bdc:	80c00117 	ldw	r3,4(r16)
  800be0:	802d883a 	mov	r22,r16
  800be4:	18aa703a 	and	r21,r3,r2
  800be8:	ac401636 	bltu	r21,r17,800c44 <_malloc_r+0x3b0>
  800bec:	ac49c83a 	sub	r4,r21,r17
  800bf0:	008003c4 	movi	r2,15
  800bf4:	1100130e 	bge	r2,r4,800c44 <_malloc_r+0x3b0>
  800bf8:	88800054 	ori	r2,r17,1
  800bfc:	8447883a 	add	r3,r16,r17
  800c00:	80800115 	stw	r2,4(r16)
  800c04:	20800054 	ori	r2,r4,1
  800c08:	18800115 	stw	r2,4(r3)
  800c0c:	e0c00215 	stw	r3,8(fp)
  800c10:	9009883a 	mov	r4,r18
  800c14:	0802dc80 	call	802dc8 <__malloc_unlock>
  800c18:	80c00204 	addi	r3,r16,8
  800c1c:	003f3106 	br	8008e4 <_malloc_r+0x50>
  800c20:	39c00117 	ldw	r7,4(r7)
  800c24:	573ffe04 	addi	fp,r10,-8
  800c28:	003fa006 	br	800aac <_malloc_r+0x218>
  800c2c:	00801504 	movi	r2,84
  800c30:	10c06736 	bltu	r2,r3,800dd0 <_malloc_r+0x53c>
  800c34:	8804d33a 	srli	r2,r17,12
  800c38:	11801b84 	addi	r6,r2,110
  800c3c:	300490fa 	slli	r2,r6,3
  800c40:	003f4106 	br	800948 <_malloc_r+0xb4>
  800c44:	d0a6ab17 	ldw	r2,-25940(gp)
  800c48:	d0e00317 	ldw	r3,-32756(gp)
  800c4c:	053fffc4 	movi	r20,-1
  800c50:	10800404 	addi	r2,r2,16
  800c54:	88a7883a 	add	r19,r17,r2
  800c58:	1d000326 	beq	r3,r20,800c68 <_malloc_r+0x3d4>
  800c5c:	98c3ffc4 	addi	r3,r19,4095
  800c60:	00bc0004 	movi	r2,-4096
  800c64:	18a6703a 	and	r19,r3,r2
  800c68:	9009883a 	mov	r4,r18
  800c6c:	980b883a 	mov	r5,r19
  800c70:	080182c0 	call	80182c <_sbrk_r>
  800c74:	1009883a 	mov	r4,r2
  800c78:	15000426 	beq	r2,r20,800c8c <_malloc_r+0x3f8>
  800c7c:	854b883a 	add	r5,r16,r21
  800c80:	1029883a 	mov	r20,r2
  800c84:	11405a2e 	bgeu	r2,r5,800df0 <_malloc_r+0x55c>
  800c88:	87000c26 	beq	r16,fp,800cbc <_malloc_r+0x428>
  800c8c:	e4000217 	ldw	r16,8(fp)
  800c90:	80c00117 	ldw	r3,4(r16)
  800c94:	00bfff04 	movi	r2,-4
  800c98:	1884703a 	and	r2,r3,r2
  800c9c:	14400336 	bltu	r2,r17,800cac <_malloc_r+0x418>
  800ca0:	1449c83a 	sub	r4,r2,r17
  800ca4:	008003c4 	movi	r2,15
  800ca8:	113fd316 	blt	r2,r4,800bf8 <_malloc_r+0x364>
  800cac:	9009883a 	mov	r4,r18
  800cb0:	0802dc80 	call	802dc8 <__malloc_unlock>
  800cb4:	0007883a 	mov	r3,zero
  800cb8:	003f0a06 	br	8008e4 <_malloc_r+0x50>
  800cbc:	05c02074 	movhi	r23,129
  800cc0:	bdd05804 	addi	r23,r23,16736
  800cc4:	b8800017 	ldw	r2,0(r23)
  800cc8:	988d883a 	add	r6,r19,r2
  800ccc:	b9800015 	stw	r6,0(r23)
  800cd0:	d0e00317 	ldw	r3,-32756(gp)
  800cd4:	00bfffc4 	movi	r2,-1
  800cd8:	18808e26 	beq	r3,r2,800f14 <_malloc_r+0x680>
  800cdc:	2145c83a 	sub	r2,r4,r5
  800ce0:	3085883a 	add	r2,r6,r2
  800ce4:	b8800015 	stw	r2,0(r23)
  800ce8:	20c001cc 	andi	r3,r4,7
  800cec:	18005f1e 	bne	r3,zero,800e6c <_malloc_r+0x5d8>
  800cf0:	000b883a 	mov	r5,zero
  800cf4:	a4c5883a 	add	r2,r20,r19
  800cf8:	1083ffcc 	andi	r2,r2,4095
  800cfc:	00c40004 	movi	r3,4096
  800d00:	1887c83a 	sub	r3,r3,r2
  800d04:	28e7883a 	add	r19,r5,r3
  800d08:	9009883a 	mov	r4,r18
  800d0c:	980b883a 	mov	r5,r19
  800d10:	080182c0 	call	80182c <_sbrk_r>
  800d14:	1007883a 	mov	r3,r2
  800d18:	00bfffc4 	movi	r2,-1
  800d1c:	18807a26 	beq	r3,r2,800f08 <_malloc_r+0x674>
  800d20:	1d05c83a 	sub	r2,r3,r20
  800d24:	9885883a 	add	r2,r19,r2
  800d28:	10c00054 	ori	r3,r2,1
  800d2c:	b8800017 	ldw	r2,0(r23)
  800d30:	a021883a 	mov	r16,r20
  800d34:	a0c00115 	stw	r3,4(r20)
  800d38:	9885883a 	add	r2,r19,r2
  800d3c:	b8800015 	stw	r2,0(r23)
  800d40:	e5000215 	stw	r20,8(fp)
  800d44:	b7003626 	beq	r22,fp,800e20 <_malloc_r+0x58c>
  800d48:	018003c4 	movi	r6,15
  800d4c:	35404b36 	bltu	r6,r21,800e7c <_malloc_r+0x5e8>
  800d50:	00800044 	movi	r2,1
  800d54:	a0800115 	stw	r2,4(r20)
  800d58:	003fcd06 	br	800c90 <_malloc_r+0x3fc>
  800d5c:	2808d27a 	srli	r4,r5,9
  800d60:	2000371e 	bne	r4,zero,800e40 <_malloc_r+0x5ac>
  800d64:	2808d0fa 	srli	r4,r5,3
  800d68:	200690fa 	slli	r3,r4,3
  800d6c:	1ad1883a 	add	r8,r3,r11
  800d70:	41800217 	ldw	r6,8(r8)
  800d74:	41805b26 	beq	r8,r6,800ee4 <_malloc_r+0x650>
  800d78:	30800117 	ldw	r2,4(r6)
  800d7c:	00ffff04 	movi	r3,-4
  800d80:	10c4703a 	and	r2,r2,r3
  800d84:	2880022e 	bgeu	r5,r2,800d90 <_malloc_r+0x4fc>
  800d88:	31800217 	ldw	r6,8(r6)
  800d8c:	41bffa1e 	bne	r8,r6,800d78 <_malloc_r+0x4e4>
  800d90:	32000317 	ldw	r8,12(r6)
  800d94:	39c00117 	ldw	r7,4(r7)
  800d98:	82000315 	stw	r8,12(r16)
  800d9c:	81800215 	stw	r6,8(r16)
  800da0:	07002074 	movhi	fp,129
  800da4:	e7040204 	addi	fp,fp,4104
  800da8:	34000315 	stw	r16,12(r6)
  800dac:	44000215 	stw	r16,8(r8)
  800db0:	003f3e06 	br	800aac <_malloc_r+0x218>
  800db4:	63000044 	addi	r12,r12,1
  800db8:	608000cc 	andi	r2,r12,3
  800dbc:	10005d26 	beq	r2,zero,800f34 <_malloc_r+0x6a0>
  800dc0:	18c00204 	addi	r3,r3,8
  800dc4:	003f5106 	br	800b0c <_malloc_r+0x278>
  800dc8:	8089883a 	add	r4,r16,r2
  800dcc:	003f6d06 	br	800b84 <_malloc_r+0x2f0>
  800dd0:	00805504 	movi	r2,340
  800dd4:	10c02036 	bltu	r2,r3,800e58 <_malloc_r+0x5c4>
  800dd8:	8804d3fa 	srli	r2,r17,15
  800ddc:	11801dc4 	addi	r6,r2,119
  800de0:	300490fa 	slli	r2,r6,3
  800de4:	003ed806 	br	800948 <_malloc_r+0xb4>
  800de8:	48c000c4 	addi	r3,r9,3
  800dec:	003f3106 	br	800ab4 <_malloc_r+0x220>
  800df0:	05c02074 	movhi	r23,129
  800df4:	bdd05804 	addi	r23,r23,16736
  800df8:	b8800017 	ldw	r2,0(r23)
  800dfc:	988d883a 	add	r6,r19,r2
  800e00:	b9800015 	stw	r6,0(r23)
  800e04:	293fb21e 	bne	r5,r4,800cd0 <_malloc_r+0x43c>
  800e08:	2083ffcc 	andi	r2,r4,4095
  800e0c:	103fb01e 	bne	r2,zero,800cd0 <_malloc_r+0x43c>
  800e10:	e4000217 	ldw	r16,8(fp)
  800e14:	9d45883a 	add	r2,r19,r21
  800e18:	10800054 	ori	r2,r2,1
  800e1c:	80800115 	stw	r2,4(r16)
  800e20:	b8c00017 	ldw	r3,0(r23)
  800e24:	d0a6ac17 	ldw	r2,-25936(gp)
  800e28:	10c0012e 	bgeu	r2,r3,800e30 <_malloc_r+0x59c>
  800e2c:	d0e6ac15 	stw	r3,-25936(gp)
  800e30:	d0a6ad17 	ldw	r2,-25932(gp)
  800e34:	10ff962e 	bgeu	r2,r3,800c90 <_malloc_r+0x3fc>
  800e38:	d0e6ad15 	stw	r3,-25932(gp)
  800e3c:	003f9406 	br	800c90 <_malloc_r+0x3fc>
  800e40:	00800104 	movi	r2,4
  800e44:	11001e36 	bltu	r2,r4,800ec0 <_malloc_r+0x62c>
  800e48:	2804d1ba 	srli	r2,r5,6
  800e4c:	11000e04 	addi	r4,r2,56
  800e50:	200690fa 	slli	r3,r4,3
  800e54:	003fc506 	br	800d6c <_malloc_r+0x4d8>
  800e58:	00815504 	movi	r2,1364
  800e5c:	10c01d2e 	bgeu	r2,r3,800ed4 <_malloc_r+0x640>
  800e60:	01801f84 	movi	r6,126
  800e64:	0080fc04 	movi	r2,1008
  800e68:	003eb706 	br	800948 <_malloc_r+0xb4>
  800e6c:	00800204 	movi	r2,8
  800e70:	10cbc83a 	sub	r5,r2,r3
  800e74:	2169883a 	add	r20,r4,r5
  800e78:	003f9e06 	br	800cf4 <_malloc_r+0x460>
  800e7c:	00bffe04 	movi	r2,-8
  800e80:	a93ffd04 	addi	r4,r21,-12
  800e84:	2088703a 	and	r4,r4,r2
  800e88:	b10b883a 	add	r5,r22,r4
  800e8c:	00c00144 	movi	r3,5
  800e90:	28c00215 	stw	r3,8(r5)
  800e94:	28c00115 	stw	r3,4(r5)
  800e98:	b0800117 	ldw	r2,4(r22)
  800e9c:	1080004c 	andi	r2,r2,1
  800ea0:	2084b03a 	or	r2,r4,r2
  800ea4:	b0800115 	stw	r2,4(r22)
  800ea8:	313fdd2e 	bgeu	r6,r4,800e20 <_malloc_r+0x58c>
  800eac:	b1400204 	addi	r5,r22,8
  800eb0:	9009883a 	mov	r4,r18
  800eb4:	08020280 	call	802028 <_free_r>
  800eb8:	e4000217 	ldw	r16,8(fp)
  800ebc:	003fd806 	br	800e20 <_malloc_r+0x58c>
  800ec0:	00800504 	movi	r2,20
  800ec4:	11001536 	bltu	r2,r4,800f1c <_malloc_r+0x688>
  800ec8:	210016c4 	addi	r4,r4,91
  800ecc:	200690fa 	slli	r3,r4,3
  800ed0:	003fa606 	br	800d6c <_malloc_r+0x4d8>
  800ed4:	8804d4ba 	srli	r2,r17,18
  800ed8:	11801f04 	addi	r6,r2,124
  800edc:	300490fa 	slli	r2,r6,3
  800ee0:	003e9906 	br	800948 <_malloc_r+0xb4>
  800ee4:	2009d0ba 	srai	r4,r4,2
  800ee8:	01402074 	movhi	r5,129
  800eec:	29440204 	addi	r5,r5,4104
  800ef0:	00c00044 	movi	r3,1
  800ef4:	28800117 	ldw	r2,4(r5)
  800ef8:	1906983a 	sll	r3,r3,r4
  800efc:	10c4b03a 	or	r2,r2,r3
  800f00:	28800115 	stw	r2,4(r5)
  800f04:	003fa306 	br	800d94 <_malloc_r+0x500>
  800f08:	0027883a 	mov	r19,zero
  800f0c:	00c00044 	movi	r3,1
  800f10:	003f8606 	br	800d2c <_malloc_r+0x498>
  800f14:	d1200315 	stw	r4,-32756(gp)
  800f18:	003f7306 	br	800ce8 <_malloc_r+0x454>
  800f1c:	00801504 	movi	r2,84
  800f20:	11001936 	bltu	r2,r4,800f88 <_malloc_r+0x6f4>
  800f24:	2804d33a 	srli	r2,r5,12
  800f28:	11001b84 	addi	r4,r2,110
  800f2c:	200690fa 	slli	r3,r4,3
  800f30:	003f8e06 	br	800d6c <_malloc_r+0x4d8>
  800f34:	480b883a 	mov	r5,r9
  800f38:	6807883a 	mov	r3,r13
  800f3c:	288000cc 	andi	r2,r5,3
  800f40:	18fffe04 	addi	r3,r3,-8
  800f44:	297fffc4 	addi	r5,r5,-1
  800f48:	10001526 	beq	r2,zero,800fa0 <_malloc_r+0x70c>
  800f4c:	18800217 	ldw	r2,8(r3)
  800f50:	10fffa26 	beq	r2,r3,800f3c <_malloc_r+0x6a8>
  800f54:	2109883a 	add	r4,r4,r4
  800f58:	393f1e36 	bltu	r7,r4,800bd4 <_malloc_r+0x340>
  800f5c:	203f1d26 	beq	r4,zero,800bd4 <_malloc_r+0x340>
  800f60:	21c4703a 	and	r2,r4,r7
  800f64:	10000226 	beq	r2,zero,800f70 <_malloc_r+0x6dc>
  800f68:	6013883a 	mov	r9,r12
  800f6c:	003ee106 	br	800af4 <_malloc_r+0x260>
  800f70:	2109883a 	add	r4,r4,r4
  800f74:	3904703a 	and	r2,r7,r4
  800f78:	63000104 	addi	r12,r12,4
  800f7c:	103ffc26 	beq	r2,zero,800f70 <_malloc_r+0x6dc>
  800f80:	6013883a 	mov	r9,r12
  800f84:	003edb06 	br	800af4 <_malloc_r+0x260>
  800f88:	00805504 	movi	r2,340
  800f8c:	11000836 	bltu	r2,r4,800fb0 <_malloc_r+0x71c>
  800f90:	2804d3fa 	srli	r2,r5,15
  800f94:	11001dc4 	addi	r4,r2,119
  800f98:	200690fa 	slli	r3,r4,3
  800f9c:	003f7306 	br	800d6c <_malloc_r+0x4d8>
  800fa0:	0104303a 	nor	r2,zero,r4
  800fa4:	388e703a 	and	r7,r7,r2
  800fa8:	e1c00115 	stw	r7,4(fp)
  800fac:	003fe906 	br	800f54 <_malloc_r+0x6c0>
  800fb0:	00815504 	movi	r2,1364
  800fb4:	1100032e 	bgeu	r2,r4,800fc4 <_malloc_r+0x730>
  800fb8:	01001f84 	movi	r4,126
  800fbc:	00c0fc04 	movi	r3,1008
  800fc0:	003f6a06 	br	800d6c <_malloc_r+0x4d8>
  800fc4:	2804d4ba 	srli	r2,r5,18
  800fc8:	11001f04 	addi	r4,r2,124
  800fcc:	200690fa 	slli	r3,r4,3
  800fd0:	003f6606 	br	800d6c <_malloc_r+0x4d8>

00800fd4 <memchr>:
  800fd4:	008000c4 	movi	r2,3
  800fd8:	29403fcc 	andi	r5,r5,255
  800fdc:	2007883a 	mov	r3,r4
  800fe0:	1180022e 	bgeu	r2,r6,800fec <memchr+0x18>
  800fe4:	2084703a 	and	r2,r4,r2
  800fe8:	10000b26 	beq	r2,zero,801018 <memchr+0x44>
  800fec:	313fffc4 	addi	r4,r6,-1
  800ff0:	3000051e 	bne	r6,zero,801008 <memchr+0x34>
  800ff4:	00002c06 	br	8010a8 <memchr+0xd4>
  800ff8:	213fffc4 	addi	r4,r4,-1
  800ffc:	00bfffc4 	movi	r2,-1
  801000:	18c00044 	addi	r3,r3,1
  801004:	20802826 	beq	r4,r2,8010a8 <memchr+0xd4>
  801008:	18800003 	ldbu	r2,0(r3)
  80100c:	28bffa1e 	bne	r5,r2,800ff8 <memchr+0x24>
  801010:	1805883a 	mov	r2,r3
  801014:	f800283a 	ret
  801018:	0011883a 	mov	r8,zero
  80101c:	0007883a 	mov	r3,zero
  801020:	01c00104 	movi	r7,4
  801024:	4004923a 	slli	r2,r8,8
  801028:	18c00044 	addi	r3,r3,1
  80102c:	1151883a 	add	r8,r2,r5
  801030:	19fffc1e 	bne	r3,r7,801024 <memchr+0x50>
  801034:	02bfbff4 	movhi	r10,65279
  801038:	52bfbfc4 	addi	r10,r10,-257
  80103c:	02602074 	movhi	r9,32897
  801040:	4a602004 	addi	r9,r9,-32640
  801044:	02c000c4 	movi	r11,3
  801048:	20800017 	ldw	r2,0(r4)
  80104c:	31bfff04 	addi	r6,r6,-4
  801050:	200f883a 	mov	r7,r4
  801054:	1204f03a 	xor	r2,r2,r8
  801058:	1287883a 	add	r3,r2,r10
  80105c:	1a46703a 	and	r3,r3,r9
  801060:	0084303a 	nor	r2,zero,r2
  801064:	10c4703a 	and	r2,r2,r3
  801068:	10000b26 	beq	r2,zero,801098 <memchr+0xc4>
  80106c:	20800003 	ldbu	r2,0(r4)
  801070:	28800f26 	beq	r5,r2,8010b0 <memchr+0xdc>
  801074:	20800043 	ldbu	r2,1(r4)
  801078:	21c00044 	addi	r7,r4,1
  80107c:	28800c26 	beq	r5,r2,8010b0 <memchr+0xdc>
  801080:	20800083 	ldbu	r2,2(r4)
  801084:	21c00084 	addi	r7,r4,2
  801088:	28800926 	beq	r5,r2,8010b0 <memchr+0xdc>
  80108c:	208000c3 	ldbu	r2,3(r4)
  801090:	21c000c4 	addi	r7,r4,3
  801094:	28800626 	beq	r5,r2,8010b0 <memchr+0xdc>
  801098:	21000104 	addi	r4,r4,4
  80109c:	59bfea36 	bltu	r11,r6,801048 <memchr+0x74>
  8010a0:	2007883a 	mov	r3,r4
  8010a4:	003fd106 	br	800fec <memchr+0x18>
  8010a8:	0005883a 	mov	r2,zero
  8010ac:	f800283a 	ret
  8010b0:	3805883a 	mov	r2,r7
  8010b4:	f800283a 	ret

008010b8 <memcpy>:
  8010b8:	01c003c4 	movi	r7,15
  8010bc:	2007883a 	mov	r3,r4
  8010c0:	3980032e 	bgeu	r7,r6,8010d0 <memcpy+0x18>
  8010c4:	2904b03a 	or	r2,r5,r4
  8010c8:	108000cc 	andi	r2,r2,3
  8010cc:	10000926 	beq	r2,zero,8010f4 <memcpy+0x3c>
  8010d0:	30000626 	beq	r6,zero,8010ec <memcpy+0x34>
  8010d4:	30cd883a 	add	r6,r6,r3
  8010d8:	28800003 	ldbu	r2,0(r5)
  8010dc:	29400044 	addi	r5,r5,1
  8010e0:	18800005 	stb	r2,0(r3)
  8010e4:	18c00044 	addi	r3,r3,1
  8010e8:	30fffb1e 	bne	r6,r3,8010d8 <memcpy+0x20>
  8010ec:	2005883a 	mov	r2,r4
  8010f0:	f800283a 	ret
  8010f4:	3811883a 	mov	r8,r7
  8010f8:	200f883a 	mov	r7,r4
  8010fc:	28c00017 	ldw	r3,0(r5)
  801100:	31bffc04 	addi	r6,r6,-16
  801104:	38c00015 	stw	r3,0(r7)
  801108:	28800117 	ldw	r2,4(r5)
  80110c:	38800115 	stw	r2,4(r7)
  801110:	28c00217 	ldw	r3,8(r5)
  801114:	38c00215 	stw	r3,8(r7)
  801118:	28800317 	ldw	r2,12(r5)
  80111c:	29400404 	addi	r5,r5,16
  801120:	38800315 	stw	r2,12(r7)
  801124:	39c00404 	addi	r7,r7,16
  801128:	41bff436 	bltu	r8,r6,8010fc <memcpy+0x44>
  80112c:	008000c4 	movi	r2,3
  801130:	1180072e 	bgeu	r2,r6,801150 <memcpy+0x98>
  801134:	1007883a 	mov	r3,r2
  801138:	28800017 	ldw	r2,0(r5)
  80113c:	31bfff04 	addi	r6,r6,-4
  801140:	29400104 	addi	r5,r5,4
  801144:	38800015 	stw	r2,0(r7)
  801148:	39c00104 	addi	r7,r7,4
  80114c:	19bffa36 	bltu	r3,r6,801138 <memcpy+0x80>
  801150:	3807883a 	mov	r3,r7
  801154:	003fde06 	br	8010d0 <memcpy+0x18>

00801158 <memmove>:
  801158:	2807883a 	mov	r3,r5
  80115c:	2011883a 	mov	r8,r4
  801160:	29000c2e 	bgeu	r5,r4,801194 <memmove+0x3c>
  801164:	298f883a 	add	r7,r5,r6
  801168:	21c00a2e 	bgeu	r4,r7,801194 <memmove+0x3c>
  80116c:	30000726 	beq	r6,zero,80118c <memmove+0x34>
  801170:	2187883a 	add	r3,r4,r6
  801174:	198dc83a 	sub	r6,r3,r6
  801178:	39ffffc4 	addi	r7,r7,-1
  80117c:	38800003 	ldbu	r2,0(r7)
  801180:	18ffffc4 	addi	r3,r3,-1
  801184:	18800005 	stb	r2,0(r3)
  801188:	19bffb1e 	bne	r3,r6,801178 <memmove+0x20>
  80118c:	2005883a 	mov	r2,r4
  801190:	f800283a 	ret
  801194:	01c003c4 	movi	r7,15
  801198:	39800a36 	bltu	r7,r6,8011c4 <memmove+0x6c>
  80119c:	303ffb26 	beq	r6,zero,80118c <memmove+0x34>
  8011a0:	400f883a 	mov	r7,r8
  8011a4:	320d883a 	add	r6,r6,r8
  8011a8:	28800003 	ldbu	r2,0(r5)
  8011ac:	29400044 	addi	r5,r5,1
  8011b0:	38800005 	stb	r2,0(r7)
  8011b4:	39c00044 	addi	r7,r7,1
  8011b8:	39bffb1e 	bne	r7,r6,8011a8 <memmove+0x50>
  8011bc:	2005883a 	mov	r2,r4
  8011c0:	f800283a 	ret
  8011c4:	1904b03a 	or	r2,r3,r4
  8011c8:	108000cc 	andi	r2,r2,3
  8011cc:	103ff31e 	bne	r2,zero,80119c <memmove+0x44>
  8011d0:	3811883a 	mov	r8,r7
  8011d4:	180b883a 	mov	r5,r3
  8011d8:	200f883a 	mov	r7,r4
  8011dc:	28c00017 	ldw	r3,0(r5)
  8011e0:	31bffc04 	addi	r6,r6,-16
  8011e4:	38c00015 	stw	r3,0(r7)
  8011e8:	28800117 	ldw	r2,4(r5)
  8011ec:	38800115 	stw	r2,4(r7)
  8011f0:	28c00217 	ldw	r3,8(r5)
  8011f4:	38c00215 	stw	r3,8(r7)
  8011f8:	28800317 	ldw	r2,12(r5)
  8011fc:	29400404 	addi	r5,r5,16
  801200:	38800315 	stw	r2,12(r7)
  801204:	39c00404 	addi	r7,r7,16
  801208:	41bff436 	bltu	r8,r6,8011dc <memmove+0x84>
  80120c:	008000c4 	movi	r2,3
  801210:	1180072e 	bgeu	r2,r6,801230 <memmove+0xd8>
  801214:	1007883a 	mov	r3,r2
  801218:	28800017 	ldw	r2,0(r5)
  80121c:	31bfff04 	addi	r6,r6,-4
  801220:	29400104 	addi	r5,r5,4
  801224:	38800015 	stw	r2,0(r7)
  801228:	39c00104 	addi	r7,r7,4
  80122c:	19bffa36 	bltu	r3,r6,801218 <memmove+0xc0>
  801230:	3811883a 	mov	r8,r7
  801234:	003fd906 	br	80119c <memmove+0x44>

00801238 <_realloc_r>:
  801238:	defff404 	addi	sp,sp,-48
  80123c:	dd800815 	stw	r22,32(sp)
  801240:	dc800415 	stw	r18,16(sp)
  801244:	dc400315 	stw	r17,12(sp)
  801248:	dfc00b15 	stw	ra,44(sp)
  80124c:	df000a15 	stw	fp,40(sp)
  801250:	ddc00915 	stw	r23,36(sp)
  801254:	dd400715 	stw	r21,28(sp)
  801258:	dd000615 	stw	r20,24(sp)
  80125c:	dcc00515 	stw	r19,20(sp)
  801260:	dc000215 	stw	r16,8(sp)
  801264:	2825883a 	mov	r18,r5
  801268:	3023883a 	mov	r17,r6
  80126c:	202d883a 	mov	r22,r4
  801270:	2800c926 	beq	r5,zero,801598 <_realloc_r+0x360>
  801274:	0802d740 	call	802d74 <__malloc_lock>
  801278:	943ffe04 	addi	r16,r18,-8
  80127c:	88c002c4 	addi	r3,r17,11
  801280:	00800584 	movi	r2,22
  801284:	82000117 	ldw	r8,4(r16)
  801288:	10c01b2e 	bgeu	r2,r3,8012f8 <_realloc_r+0xc0>
  80128c:	00bffe04 	movi	r2,-8
  801290:	188e703a 	and	r7,r3,r2
  801294:	3839883a 	mov	fp,r7
  801298:	38001a16 	blt	r7,zero,801304 <_realloc_r+0xcc>
  80129c:	e4401936 	bltu	fp,r17,801304 <_realloc_r+0xcc>
  8012a0:	013fff04 	movi	r4,-4
  8012a4:	4126703a 	and	r19,r8,r4
  8012a8:	99c02616 	blt	r19,r7,801344 <_realloc_r+0x10c>
  8012ac:	802b883a 	mov	r21,r16
  8012b0:	9829883a 	mov	r20,r19
  8012b4:	84000204 	addi	r16,r16,8
  8012b8:	a80f883a 	mov	r7,r21
  8012bc:	a70dc83a 	sub	r6,r20,fp
  8012c0:	008003c4 	movi	r2,15
  8012c4:	1180c136 	bltu	r2,r6,8015cc <_realloc_r+0x394>
  8012c8:	38800117 	ldw	r2,4(r7)
  8012cc:	a549883a 	add	r4,r20,r21
  8012d0:	1080004c 	andi	r2,r2,1
  8012d4:	a084b03a 	or	r2,r20,r2
  8012d8:	38800115 	stw	r2,4(r7)
  8012dc:	20c00117 	ldw	r3,4(r4)
  8012e0:	18c00054 	ori	r3,r3,1
  8012e4:	20c00115 	stw	r3,4(r4)
  8012e8:	b009883a 	mov	r4,r22
  8012ec:	0802dc80 	call	802dc8 <__malloc_unlock>
  8012f0:	8023883a 	mov	r17,r16
  8012f4:	00000606 	br	801310 <_realloc_r+0xd8>
  8012f8:	01c00404 	movi	r7,16
  8012fc:	3839883a 	mov	fp,r7
  801300:	e47fe72e 	bgeu	fp,r17,8012a0 <_realloc_r+0x68>
  801304:	00800304 	movi	r2,12
  801308:	0023883a 	mov	r17,zero
  80130c:	b0800015 	stw	r2,0(r22)
  801310:	8805883a 	mov	r2,r17
  801314:	dfc00b17 	ldw	ra,44(sp)
  801318:	df000a17 	ldw	fp,40(sp)
  80131c:	ddc00917 	ldw	r23,36(sp)
  801320:	dd800817 	ldw	r22,32(sp)
  801324:	dd400717 	ldw	r21,28(sp)
  801328:	dd000617 	ldw	r20,24(sp)
  80132c:	dcc00517 	ldw	r19,20(sp)
  801330:	dc800417 	ldw	r18,16(sp)
  801334:	dc400317 	ldw	r17,12(sp)
  801338:	dc000217 	ldw	r16,8(sp)
  80133c:	dec00c04 	addi	sp,sp,48
  801340:	f800283a 	ret
  801344:	00802074 	movhi	r2,129
  801348:	10840204 	addi	r2,r2,4104
  80134c:	12400217 	ldw	r9,8(r2)
  801350:	84cd883a 	add	r6,r16,r19
  801354:	802b883a 	mov	r21,r16
  801358:	3240b926 	beq	r6,r9,801640 <_realloc_r+0x408>
  80135c:	31400117 	ldw	r5,4(r6)
  801360:	00bfff84 	movi	r2,-2
  801364:	2884703a 	and	r2,r5,r2
  801368:	1185883a 	add	r2,r2,r6
  80136c:	10c00117 	ldw	r3,4(r2)
  801370:	18c0004c 	andi	r3,r3,1
  801374:	1807003a 	cmpeq	r3,r3,zero
  801378:	1800a326 	beq	r3,zero,801608 <_realloc_r+0x3d0>
  80137c:	2908703a 	and	r4,r5,r4
  801380:	9929883a 	add	r20,r19,r4
  801384:	a1c0a30e 	bge	r20,r7,801614 <_realloc_r+0x3dc>
  801388:	4080004c 	andi	r2,r8,1
  80138c:	1000551e 	bne	r2,zero,8014e4 <_realloc_r+0x2ac>
  801390:	80800017 	ldw	r2,0(r16)
  801394:	80afc83a 	sub	r23,r16,r2
  801398:	b8c00117 	ldw	r3,4(r23)
  80139c:	00bfff04 	movi	r2,-4
  8013a0:	1884703a 	and	r2,r3,r2
  8013a4:	30002e26 	beq	r6,zero,801460 <_realloc_r+0x228>
  8013a8:	3240b926 	beq	r6,r9,801690 <_realloc_r+0x458>
  8013ac:	98a9883a 	add	r20,r19,r2
  8013b0:	2509883a 	add	r4,r4,r20
  8013b4:	d9000015 	stw	r4,0(sp)
  8013b8:	21c02a16 	blt	r4,r7,801464 <_realloc_r+0x22c>
  8013bc:	30800317 	ldw	r2,12(r6)
  8013c0:	30c00217 	ldw	r3,8(r6)
  8013c4:	01400904 	movi	r5,36
  8013c8:	99bfff04 	addi	r6,r19,-4
  8013cc:	18800315 	stw	r2,12(r3)
  8013d0:	10c00215 	stw	r3,8(r2)
  8013d4:	b9000317 	ldw	r4,12(r23)
  8013d8:	b8800217 	ldw	r2,8(r23)
  8013dc:	b82b883a 	mov	r21,r23
  8013e0:	bc000204 	addi	r16,r23,8
  8013e4:	20800215 	stw	r2,8(r4)
  8013e8:	11000315 	stw	r4,12(r2)
  8013ec:	2980e436 	bltu	r5,r6,801780 <_realloc_r+0x548>
  8013f0:	008004c4 	movi	r2,19
  8013f4:	9009883a 	mov	r4,r18
  8013f8:	8011883a 	mov	r8,r16
  8013fc:	11800f2e 	bgeu	r2,r6,80143c <_realloc_r+0x204>
  801400:	90800017 	ldw	r2,0(r18)
  801404:	ba000404 	addi	r8,r23,16
  801408:	91000204 	addi	r4,r18,8
  80140c:	b8800215 	stw	r2,8(r23)
  801410:	90c00117 	ldw	r3,4(r18)
  801414:	008006c4 	movi	r2,27
  801418:	b8c00315 	stw	r3,12(r23)
  80141c:	1180072e 	bgeu	r2,r6,80143c <_realloc_r+0x204>
  801420:	90c00217 	ldw	r3,8(r18)
  801424:	ba000604 	addi	r8,r23,24
  801428:	91000404 	addi	r4,r18,16
  80142c:	b8c00415 	stw	r3,16(r23)
  801430:	90800317 	ldw	r2,12(r18)
  801434:	b8800515 	stw	r2,20(r23)
  801438:	3140e726 	beq	r6,r5,8017d8 <_realloc_r+0x5a0>
  80143c:	20800017 	ldw	r2,0(r4)
  801440:	dd000017 	ldw	r20,0(sp)
  801444:	b80f883a 	mov	r7,r23
  801448:	40800015 	stw	r2,0(r8)
  80144c:	20c00117 	ldw	r3,4(r4)
  801450:	40c00115 	stw	r3,4(r8)
  801454:	20800217 	ldw	r2,8(r4)
  801458:	40800215 	stw	r2,8(r8)
  80145c:	003f9706 	br	8012bc <_realloc_r+0x84>
  801460:	98a9883a 	add	r20,r19,r2
  801464:	a1c01f16 	blt	r20,r7,8014e4 <_realloc_r+0x2ac>
  801468:	b8c00317 	ldw	r3,12(r23)
  80146c:	b8800217 	ldw	r2,8(r23)
  801470:	99bfff04 	addi	r6,r19,-4
  801474:	01400904 	movi	r5,36
  801478:	b82b883a 	mov	r21,r23
  80147c:	18800215 	stw	r2,8(r3)
  801480:	10c00315 	stw	r3,12(r2)
  801484:	bc000204 	addi	r16,r23,8
  801488:	2980c336 	bltu	r5,r6,801798 <_realloc_r+0x560>
  80148c:	008004c4 	movi	r2,19
  801490:	9009883a 	mov	r4,r18
  801494:	8011883a 	mov	r8,r16
  801498:	11800f2e 	bgeu	r2,r6,8014d8 <_realloc_r+0x2a0>
  80149c:	90800017 	ldw	r2,0(r18)
  8014a0:	ba000404 	addi	r8,r23,16
  8014a4:	91000204 	addi	r4,r18,8
  8014a8:	b8800215 	stw	r2,8(r23)
  8014ac:	90c00117 	ldw	r3,4(r18)
  8014b0:	008006c4 	movi	r2,27
  8014b4:	b8c00315 	stw	r3,12(r23)
  8014b8:	1180072e 	bgeu	r2,r6,8014d8 <_realloc_r+0x2a0>
  8014bc:	90c00217 	ldw	r3,8(r18)
  8014c0:	ba000604 	addi	r8,r23,24
  8014c4:	91000404 	addi	r4,r18,16
  8014c8:	b8c00415 	stw	r3,16(r23)
  8014cc:	90800317 	ldw	r2,12(r18)
  8014d0:	b8800515 	stw	r2,20(r23)
  8014d4:	3140c726 	beq	r6,r5,8017f4 <_realloc_r+0x5bc>
  8014d8:	20800017 	ldw	r2,0(r4)
  8014dc:	b80f883a 	mov	r7,r23
  8014e0:	003fd906 	br	801448 <_realloc_r+0x210>
  8014e4:	880b883a 	mov	r5,r17
  8014e8:	b009883a 	mov	r4,r22
  8014ec:	08008940 	call	800894 <_malloc_r>
  8014f0:	1023883a 	mov	r17,r2
  8014f4:	10002526 	beq	r2,zero,80158c <_realloc_r+0x354>
  8014f8:	80800117 	ldw	r2,4(r16)
  8014fc:	00ffff84 	movi	r3,-2
  801500:	893ffe04 	addi	r4,r17,-8
  801504:	10c4703a 	and	r2,r2,r3
  801508:	8085883a 	add	r2,r16,r2
  80150c:	20809526 	beq	r4,r2,801764 <_realloc_r+0x52c>
  801510:	99bfff04 	addi	r6,r19,-4
  801514:	01c00904 	movi	r7,36
  801518:	39804536 	bltu	r7,r6,801630 <_realloc_r+0x3f8>
  80151c:	008004c4 	movi	r2,19
  801520:	9009883a 	mov	r4,r18
  801524:	880b883a 	mov	r5,r17
  801528:	11800f2e 	bgeu	r2,r6,801568 <_realloc_r+0x330>
  80152c:	90800017 	ldw	r2,0(r18)
  801530:	89400204 	addi	r5,r17,8
  801534:	91000204 	addi	r4,r18,8
  801538:	88800015 	stw	r2,0(r17)
  80153c:	90c00117 	ldw	r3,4(r18)
  801540:	008006c4 	movi	r2,27
  801544:	88c00115 	stw	r3,4(r17)
  801548:	1180072e 	bgeu	r2,r6,801568 <_realloc_r+0x330>
  80154c:	90c00217 	ldw	r3,8(r18)
  801550:	89400404 	addi	r5,r17,16
  801554:	91000404 	addi	r4,r18,16
  801558:	88c00215 	stw	r3,8(r17)
  80155c:	90800317 	ldw	r2,12(r18)
  801560:	88800315 	stw	r2,12(r17)
  801564:	31c09126 	beq	r6,r7,8017ac <_realloc_r+0x574>
  801568:	20800017 	ldw	r2,0(r4)
  80156c:	28800015 	stw	r2,0(r5)
  801570:	20c00117 	ldw	r3,4(r4)
  801574:	28c00115 	stw	r3,4(r5)
  801578:	20800217 	ldw	r2,8(r4)
  80157c:	28800215 	stw	r2,8(r5)
  801580:	900b883a 	mov	r5,r18
  801584:	b009883a 	mov	r4,r22
  801588:	08020280 	call	802028 <_free_r>
  80158c:	b009883a 	mov	r4,r22
  801590:	0802dc80 	call	802dc8 <__malloc_unlock>
  801594:	003f5e06 	br	801310 <_realloc_r+0xd8>
  801598:	300b883a 	mov	r5,r6
  80159c:	dfc00b17 	ldw	ra,44(sp)
  8015a0:	df000a17 	ldw	fp,40(sp)
  8015a4:	ddc00917 	ldw	r23,36(sp)
  8015a8:	dd800817 	ldw	r22,32(sp)
  8015ac:	dd400717 	ldw	r21,28(sp)
  8015b0:	dd000617 	ldw	r20,24(sp)
  8015b4:	dcc00517 	ldw	r19,20(sp)
  8015b8:	dc800417 	ldw	r18,16(sp)
  8015bc:	dc400317 	ldw	r17,12(sp)
  8015c0:	dc000217 	ldw	r16,8(sp)
  8015c4:	dec00c04 	addi	sp,sp,48
  8015c8:	08008941 	jmpi	800894 <_malloc_r>
  8015cc:	38800117 	ldw	r2,4(r7)
  8015d0:	e54b883a 	add	r5,fp,r21
  8015d4:	31000054 	ori	r4,r6,1
  8015d8:	1080004c 	andi	r2,r2,1
  8015dc:	1704b03a 	or	r2,r2,fp
  8015e0:	38800115 	stw	r2,4(r7)
  8015e4:	29000115 	stw	r4,4(r5)
  8015e8:	2987883a 	add	r3,r5,r6
  8015ec:	18800117 	ldw	r2,4(r3)
  8015f0:	29400204 	addi	r5,r5,8
  8015f4:	b009883a 	mov	r4,r22
  8015f8:	10800054 	ori	r2,r2,1
  8015fc:	18800115 	stw	r2,4(r3)
  801600:	08020280 	call	802028 <_free_r>
  801604:	003f3806 	br	8012e8 <_realloc_r+0xb0>
  801608:	000d883a 	mov	r6,zero
  80160c:	0009883a 	mov	r4,zero
  801610:	003f5d06 	br	801388 <_realloc_r+0x150>
  801614:	30c00217 	ldw	r3,8(r6)
  801618:	30800317 	ldw	r2,12(r6)
  80161c:	800f883a 	mov	r7,r16
  801620:	84000204 	addi	r16,r16,8
  801624:	10c00215 	stw	r3,8(r2)
  801628:	18800315 	stw	r2,12(r3)
  80162c:	003f2306 	br	8012bc <_realloc_r+0x84>
  801630:	8809883a 	mov	r4,r17
  801634:	900b883a 	mov	r5,r18
  801638:	08011580 	call	801158 <memmove>
  80163c:	003fd006 	br	801580 <_realloc_r+0x348>
  801640:	30800117 	ldw	r2,4(r6)
  801644:	e0c00404 	addi	r3,fp,16
  801648:	1108703a 	and	r4,r2,r4
  80164c:	9905883a 	add	r2,r19,r4
  801650:	10ff4d16 	blt	r2,r3,801388 <_realloc_r+0x150>
  801654:	1705c83a 	sub	r2,r2,fp
  801658:	870b883a 	add	r5,r16,fp
  80165c:	10800054 	ori	r2,r2,1
  801660:	28800115 	stw	r2,4(r5)
  801664:	80c00117 	ldw	r3,4(r16)
  801668:	00802074 	movhi	r2,129
  80166c:	10840204 	addi	r2,r2,4104
  801670:	b009883a 	mov	r4,r22
  801674:	18c0004c 	andi	r3,r3,1
  801678:	e0c6b03a 	or	r3,fp,r3
  80167c:	11400215 	stw	r5,8(r2)
  801680:	80c00115 	stw	r3,4(r16)
  801684:	0802dc80 	call	802dc8 <__malloc_unlock>
  801688:	84400204 	addi	r17,r16,8
  80168c:	003f2006 	br	801310 <_realloc_r+0xd8>
  801690:	98a9883a 	add	r20,r19,r2
  801694:	2509883a 	add	r4,r4,r20
  801698:	e0800404 	addi	r2,fp,16
  80169c:	d9000115 	stw	r4,4(sp)
  8016a0:	20bf7016 	blt	r4,r2,801464 <_realloc_r+0x22c>
  8016a4:	b8c00317 	ldw	r3,12(r23)
  8016a8:	b8800217 	ldw	r2,8(r23)
  8016ac:	99bfff04 	addi	r6,r19,-4
  8016b0:	01400904 	movi	r5,36
  8016b4:	18800215 	stw	r2,8(r3)
  8016b8:	10c00315 	stw	r3,12(r2)
  8016bc:	bc400204 	addi	r17,r23,8
  8016c0:	29804136 	bltu	r5,r6,8017c8 <_realloc_r+0x590>
  8016c4:	008004c4 	movi	r2,19
  8016c8:	9009883a 	mov	r4,r18
  8016cc:	880f883a 	mov	r7,r17
  8016d0:	11800f2e 	bgeu	r2,r6,801710 <_realloc_r+0x4d8>
  8016d4:	90800017 	ldw	r2,0(r18)
  8016d8:	b9c00404 	addi	r7,r23,16
  8016dc:	91000204 	addi	r4,r18,8
  8016e0:	b8800215 	stw	r2,8(r23)
  8016e4:	90c00117 	ldw	r3,4(r18)
  8016e8:	008006c4 	movi	r2,27
  8016ec:	b8c00315 	stw	r3,12(r23)
  8016f0:	1180072e 	bgeu	r2,r6,801710 <_realloc_r+0x4d8>
  8016f4:	90c00217 	ldw	r3,8(r18)
  8016f8:	b9c00604 	addi	r7,r23,24
  8016fc:	91000404 	addi	r4,r18,16
  801700:	b8c00415 	stw	r3,16(r23)
  801704:	90800317 	ldw	r2,12(r18)
  801708:	b8800515 	stw	r2,20(r23)
  80170c:	31404026 	beq	r6,r5,801810 <_realloc_r+0x5d8>
  801710:	20800017 	ldw	r2,0(r4)
  801714:	38800015 	stw	r2,0(r7)
  801718:	20c00117 	ldw	r3,4(r4)
  80171c:	38c00115 	stw	r3,4(r7)
  801720:	20800217 	ldw	r2,8(r4)
  801724:	38800215 	stw	r2,8(r7)
  801728:	d8c00117 	ldw	r3,4(sp)
  80172c:	bf0b883a 	add	r5,r23,fp
  801730:	b009883a 	mov	r4,r22
  801734:	1f05c83a 	sub	r2,r3,fp
  801738:	10800054 	ori	r2,r2,1
  80173c:	28800115 	stw	r2,4(r5)
  801740:	b8c00117 	ldw	r3,4(r23)
  801744:	00802074 	movhi	r2,129
  801748:	10840204 	addi	r2,r2,4104
  80174c:	11400215 	stw	r5,8(r2)
  801750:	18c0004c 	andi	r3,r3,1
  801754:	e0c6b03a 	or	r3,fp,r3
  801758:	b8c00115 	stw	r3,4(r23)
  80175c:	0802dc80 	call	802dc8 <__malloc_unlock>
  801760:	003eeb06 	br	801310 <_realloc_r+0xd8>
  801764:	20800117 	ldw	r2,4(r4)
  801768:	00ffff04 	movi	r3,-4
  80176c:	800f883a 	mov	r7,r16
  801770:	10c4703a 	and	r2,r2,r3
  801774:	98a9883a 	add	r20,r19,r2
  801778:	84000204 	addi	r16,r16,8
  80177c:	003ecf06 	br	8012bc <_realloc_r+0x84>
  801780:	900b883a 	mov	r5,r18
  801784:	8009883a 	mov	r4,r16
  801788:	08011580 	call	801158 <memmove>
  80178c:	dd000017 	ldw	r20,0(sp)
  801790:	b80f883a 	mov	r7,r23
  801794:	003ec906 	br	8012bc <_realloc_r+0x84>
  801798:	900b883a 	mov	r5,r18
  80179c:	8009883a 	mov	r4,r16
  8017a0:	08011580 	call	801158 <memmove>
  8017a4:	b80f883a 	mov	r7,r23
  8017a8:	003ec406 	br	8012bc <_realloc_r+0x84>
  8017ac:	90c00417 	ldw	r3,16(r18)
  8017b0:	89400604 	addi	r5,r17,24
  8017b4:	91000604 	addi	r4,r18,24
  8017b8:	88c00415 	stw	r3,16(r17)
  8017bc:	90800517 	ldw	r2,20(r18)
  8017c0:	88800515 	stw	r2,20(r17)
  8017c4:	003f6806 	br	801568 <_realloc_r+0x330>
  8017c8:	900b883a 	mov	r5,r18
  8017cc:	8809883a 	mov	r4,r17
  8017d0:	08011580 	call	801158 <memmove>
  8017d4:	003fd406 	br	801728 <_realloc_r+0x4f0>
  8017d8:	90c00417 	ldw	r3,16(r18)
  8017dc:	91000604 	addi	r4,r18,24
  8017e0:	ba000804 	addi	r8,r23,32
  8017e4:	b8c00615 	stw	r3,24(r23)
  8017e8:	90800517 	ldw	r2,20(r18)
  8017ec:	b8800715 	stw	r2,28(r23)
  8017f0:	003f1206 	br	80143c <_realloc_r+0x204>
  8017f4:	90c00417 	ldw	r3,16(r18)
  8017f8:	91000604 	addi	r4,r18,24
  8017fc:	ba000804 	addi	r8,r23,32
  801800:	b8c00615 	stw	r3,24(r23)
  801804:	90800517 	ldw	r2,20(r18)
  801808:	b8800715 	stw	r2,28(r23)
  80180c:	003f3206 	br	8014d8 <_realloc_r+0x2a0>
  801810:	90c00417 	ldw	r3,16(r18)
  801814:	91000604 	addi	r4,r18,24
  801818:	b9c00804 	addi	r7,r23,32
  80181c:	b8c00615 	stw	r3,24(r23)
  801820:	90800517 	ldw	r2,20(r18)
  801824:	b8800715 	stw	r2,28(r23)
  801828:	003fb906 	br	801710 <_realloc_r+0x4d8>

0080182c <_sbrk_r>:
  80182c:	defffd04 	addi	sp,sp,-12
  801830:	dc000015 	stw	r16,0(sp)
  801834:	04002074 	movhi	r16,129
  801838:	84103904 	addi	r16,r16,16612
  80183c:	dc400115 	stw	r17,4(sp)
  801840:	80000015 	stw	zero,0(r16)
  801844:	2023883a 	mov	r17,r4
  801848:	2809883a 	mov	r4,r5
  80184c:	dfc00215 	stw	ra,8(sp)
  801850:	08071c40 	call	8071c4 <sbrk>
  801854:	1007883a 	mov	r3,r2
  801858:	00bfffc4 	movi	r2,-1
  80185c:	18800626 	beq	r3,r2,801878 <_sbrk_r+0x4c>
  801860:	1805883a 	mov	r2,r3
  801864:	dfc00217 	ldw	ra,8(sp)
  801868:	dc400117 	ldw	r17,4(sp)
  80186c:	dc000017 	ldw	r16,0(sp)
  801870:	dec00304 	addi	sp,sp,12
  801874:	f800283a 	ret
  801878:	80800017 	ldw	r2,0(r16)
  80187c:	103ff826 	beq	r2,zero,801860 <_sbrk_r+0x34>
  801880:	88800015 	stw	r2,0(r17)
  801884:	1805883a 	mov	r2,r3
  801888:	dfc00217 	ldw	ra,8(sp)
  80188c:	dc400117 	ldw	r17,4(sp)
  801890:	dc000017 	ldw	r16,0(sp)
  801894:	dec00304 	addi	sp,sp,12
  801898:	f800283a 	ret

0080189c <__swsetup_r>:
  80189c:	00802074 	movhi	r2,129
  8018a0:	10898b04 	addi	r2,r2,9772
  8018a4:	10c00017 	ldw	r3,0(r2)
  8018a8:	defffd04 	addi	sp,sp,-12
  8018ac:	dc400115 	stw	r17,4(sp)
  8018b0:	dc000015 	stw	r16,0(sp)
  8018b4:	dfc00215 	stw	ra,8(sp)
  8018b8:	2023883a 	mov	r17,r4
  8018bc:	2821883a 	mov	r16,r5
  8018c0:	18000226 	beq	r3,zero,8018cc <__swsetup_r+0x30>
  8018c4:	18800e17 	ldw	r2,56(r3)
  8018c8:	10001f26 	beq	r2,zero,801948 <__swsetup_r+0xac>
  8018cc:	8100030b 	ldhu	r4,12(r16)
  8018d0:	2080020c 	andi	r2,r4,8
  8018d4:	10002826 	beq	r2,zero,801978 <__swsetup_r+0xdc>
  8018d8:	81400417 	ldw	r5,16(r16)
  8018dc:	28001d26 	beq	r5,zero,801954 <__swsetup_r+0xb8>
  8018e0:	2080004c 	andi	r2,r4,1
  8018e4:	1005003a 	cmpeq	r2,r2,zero
  8018e8:	10000b26 	beq	r2,zero,801918 <__swsetup_r+0x7c>
  8018ec:	2080008c 	andi	r2,r4,2
  8018f0:	10001226 	beq	r2,zero,80193c <__swsetup_r+0xa0>
  8018f4:	0005883a 	mov	r2,zero
  8018f8:	80800215 	stw	r2,8(r16)
  8018fc:	28000b26 	beq	r5,zero,80192c <__swsetup_r+0x90>
  801900:	0005883a 	mov	r2,zero
  801904:	dfc00217 	ldw	ra,8(sp)
  801908:	dc400117 	ldw	r17,4(sp)
  80190c:	dc000017 	ldw	r16,0(sp)
  801910:	dec00304 	addi	sp,sp,12
  801914:	f800283a 	ret
  801918:	80800517 	ldw	r2,20(r16)
  80191c:	80000215 	stw	zero,8(r16)
  801920:	0085c83a 	sub	r2,zero,r2
  801924:	80800615 	stw	r2,24(r16)
  801928:	283ff51e 	bne	r5,zero,801900 <__swsetup_r+0x64>
  80192c:	2080200c 	andi	r2,r4,128
  801930:	103ff326 	beq	r2,zero,801900 <__swsetup_r+0x64>
  801934:	00bfffc4 	movi	r2,-1
  801938:	003ff206 	br	801904 <__swsetup_r+0x68>
  80193c:	80800517 	ldw	r2,20(r16)
  801940:	80800215 	stw	r2,8(r16)
  801944:	003fed06 	br	8018fc <__swsetup_r+0x60>
  801948:	1809883a 	mov	r4,r3
  80194c:	0801c700 	call	801c70 <__sinit>
  801950:	003fde06 	br	8018cc <__swsetup_r+0x30>
  801954:	20c0a00c 	andi	r3,r4,640
  801958:	00808004 	movi	r2,512
  80195c:	18bfe026 	beq	r3,r2,8018e0 <__swsetup_r+0x44>
  801960:	8809883a 	mov	r4,r17
  801964:	800b883a 	mov	r5,r16
  801968:	08024bc0 	call	8024bc <__smakebuf_r>
  80196c:	8100030b 	ldhu	r4,12(r16)
  801970:	81400417 	ldw	r5,16(r16)
  801974:	003fda06 	br	8018e0 <__swsetup_r+0x44>
  801978:	2080040c 	andi	r2,r4,16
  80197c:	103fed26 	beq	r2,zero,801934 <__swsetup_r+0x98>
  801980:	2080010c 	andi	r2,r4,4
  801984:	10001226 	beq	r2,zero,8019d0 <__swsetup_r+0x134>
  801988:	81400c17 	ldw	r5,48(r16)
  80198c:	28000526 	beq	r5,zero,8019a4 <__swsetup_r+0x108>
  801990:	80801004 	addi	r2,r16,64
  801994:	28800226 	beq	r5,r2,8019a0 <__swsetup_r+0x104>
  801998:	8809883a 	mov	r4,r17
  80199c:	08020280 	call	802028 <_free_r>
  8019a0:	80000c15 	stw	zero,48(r16)
  8019a4:	8080030b 	ldhu	r2,12(r16)
  8019a8:	81400417 	ldw	r5,16(r16)
  8019ac:	80000115 	stw	zero,4(r16)
  8019b0:	10bff6cc 	andi	r2,r2,65499
  8019b4:	8080030d 	sth	r2,12(r16)
  8019b8:	81400015 	stw	r5,0(r16)
  8019bc:	8080030b 	ldhu	r2,12(r16)
  8019c0:	10800214 	ori	r2,r2,8
  8019c4:	113fffcc 	andi	r4,r2,65535
  8019c8:	8080030d 	sth	r2,12(r16)
  8019cc:	003fc306 	br	8018dc <__swsetup_r+0x40>
  8019d0:	81400417 	ldw	r5,16(r16)
  8019d4:	003ff906 	br	8019bc <__swsetup_r+0x120>

008019d8 <_fflush_r>:
  8019d8:	defffb04 	addi	sp,sp,-20
  8019dc:	dcc00315 	stw	r19,12(sp)
  8019e0:	dc800215 	stw	r18,8(sp)
  8019e4:	dfc00415 	stw	ra,16(sp)
  8019e8:	dc400115 	stw	r17,4(sp)
  8019ec:	dc000015 	stw	r16,0(sp)
  8019f0:	2027883a 	mov	r19,r4
  8019f4:	2825883a 	mov	r18,r5
  8019f8:	20000226 	beq	r4,zero,801a04 <_fflush_r+0x2c>
  8019fc:	20800e17 	ldw	r2,56(r4)
  801a00:	10005626 	beq	r2,zero,801b5c <_fflush_r+0x184>
  801a04:	9100030b 	ldhu	r4,12(r18)
  801a08:	20ffffcc 	andi	r3,r4,65535
  801a0c:	18e0001c 	xori	r3,r3,32768
  801a10:	18e00004 	addi	r3,r3,-32768
  801a14:	1880020c 	andi	r2,r3,8
  801a18:	1000261e 	bne	r2,zero,801ab4 <_fflush_r+0xdc>
  801a1c:	90c00117 	ldw	r3,4(r18)
  801a20:	20820014 	ori	r2,r4,2048
  801a24:	9080030d 	sth	r2,12(r18)
  801a28:	1009883a 	mov	r4,r2
  801a2c:	00c0400e 	bge	zero,r3,801b30 <_fflush_r+0x158>
  801a30:	92000a17 	ldw	r8,40(r18)
  801a34:	40004026 	beq	r8,zero,801b38 <_fflush_r+0x160>
  801a38:	2084000c 	andi	r2,r4,4096
  801a3c:	10005326 	beq	r2,zero,801b8c <_fflush_r+0x1b4>
  801a40:	94001417 	ldw	r16,80(r18)
  801a44:	9080030b 	ldhu	r2,12(r18)
  801a48:	1080010c 	andi	r2,r2,4
  801a4c:	1000481e 	bne	r2,zero,801b70 <_fflush_r+0x198>
  801a50:	91400717 	ldw	r5,28(r18)
  801a54:	9809883a 	mov	r4,r19
  801a58:	800d883a 	mov	r6,r16
  801a5c:	000f883a 	mov	r7,zero
  801a60:	403ee83a 	callr	r8
  801a64:	8080261e 	bne	r16,r2,801b00 <_fflush_r+0x128>
  801a68:	9080030b 	ldhu	r2,12(r18)
  801a6c:	91000417 	ldw	r4,16(r18)
  801a70:	90000115 	stw	zero,4(r18)
  801a74:	10bdffcc 	andi	r2,r2,63487
  801a78:	10ffffcc 	andi	r3,r2,65535
  801a7c:	18c4000c 	andi	r3,r3,4096
  801a80:	9080030d 	sth	r2,12(r18)
  801a84:	91000015 	stw	r4,0(r18)
  801a88:	18002b26 	beq	r3,zero,801b38 <_fflush_r+0x160>
  801a8c:	0007883a 	mov	r3,zero
  801a90:	1805883a 	mov	r2,r3
  801a94:	94001415 	stw	r16,80(r18)
  801a98:	dfc00417 	ldw	ra,16(sp)
  801a9c:	dcc00317 	ldw	r19,12(sp)
  801aa0:	dc800217 	ldw	r18,8(sp)
  801aa4:	dc400117 	ldw	r17,4(sp)
  801aa8:	dc000017 	ldw	r16,0(sp)
  801aac:	dec00504 	addi	sp,sp,20
  801ab0:	f800283a 	ret
  801ab4:	94400417 	ldw	r17,16(r18)
  801ab8:	88001f26 	beq	r17,zero,801b38 <_fflush_r+0x160>
  801abc:	90800017 	ldw	r2,0(r18)
  801ac0:	18c000cc 	andi	r3,r3,3
  801ac4:	94400015 	stw	r17,0(r18)
  801ac8:	1461c83a 	sub	r16,r2,r17
  801acc:	18002526 	beq	r3,zero,801b64 <_fflush_r+0x18c>
  801ad0:	0005883a 	mov	r2,zero
  801ad4:	90800215 	stw	r2,8(r18)
  801ad8:	0400170e 	bge	zero,r16,801b38 <_fflush_r+0x160>
  801adc:	90c00917 	ldw	r3,36(r18)
  801ae0:	91400717 	ldw	r5,28(r18)
  801ae4:	880d883a 	mov	r6,r17
  801ae8:	800f883a 	mov	r7,r16
  801aec:	9809883a 	mov	r4,r19
  801af0:	183ee83a 	callr	r3
  801af4:	88a3883a 	add	r17,r17,r2
  801af8:	80a1c83a 	sub	r16,r16,r2
  801afc:	00bff616 	blt	zero,r2,801ad8 <_fflush_r+0x100>
  801b00:	9080030b 	ldhu	r2,12(r18)
  801b04:	00ffffc4 	movi	r3,-1
  801b08:	10801014 	ori	r2,r2,64
  801b0c:	9080030d 	sth	r2,12(r18)
  801b10:	1805883a 	mov	r2,r3
  801b14:	dfc00417 	ldw	ra,16(sp)
  801b18:	dcc00317 	ldw	r19,12(sp)
  801b1c:	dc800217 	ldw	r18,8(sp)
  801b20:	dc400117 	ldw	r17,4(sp)
  801b24:	dc000017 	ldw	r16,0(sp)
  801b28:	dec00504 	addi	sp,sp,20
  801b2c:	f800283a 	ret
  801b30:	90800f17 	ldw	r2,60(r18)
  801b34:	00bfbe16 	blt	zero,r2,801a30 <_fflush_r+0x58>
  801b38:	0007883a 	mov	r3,zero
  801b3c:	1805883a 	mov	r2,r3
  801b40:	dfc00417 	ldw	ra,16(sp)
  801b44:	dcc00317 	ldw	r19,12(sp)
  801b48:	dc800217 	ldw	r18,8(sp)
  801b4c:	dc400117 	ldw	r17,4(sp)
  801b50:	dc000017 	ldw	r16,0(sp)
  801b54:	dec00504 	addi	sp,sp,20
  801b58:	f800283a 	ret
  801b5c:	0801c700 	call	801c70 <__sinit>
  801b60:	003fa806 	br	801a04 <_fflush_r+0x2c>
  801b64:	90800517 	ldw	r2,20(r18)
  801b68:	90800215 	stw	r2,8(r18)
  801b6c:	003fda06 	br	801ad8 <_fflush_r+0x100>
  801b70:	90800117 	ldw	r2,4(r18)
  801b74:	90c00c17 	ldw	r3,48(r18)
  801b78:	80a1c83a 	sub	r16,r16,r2
  801b7c:	183fb426 	beq	r3,zero,801a50 <_fflush_r+0x78>
  801b80:	90800f17 	ldw	r2,60(r18)
  801b84:	80a1c83a 	sub	r16,r16,r2
  801b88:	003fb106 	br	801a50 <_fflush_r+0x78>
  801b8c:	91400717 	ldw	r5,28(r18)
  801b90:	9809883a 	mov	r4,r19
  801b94:	000d883a 	mov	r6,zero
  801b98:	01c00044 	movi	r7,1
  801b9c:	403ee83a 	callr	r8
  801ba0:	1021883a 	mov	r16,r2
  801ba4:	00bfffc4 	movi	r2,-1
  801ba8:	80800226 	beq	r16,r2,801bb4 <_fflush_r+0x1dc>
  801bac:	92000a17 	ldw	r8,40(r18)
  801bb0:	003fa406 	br	801a44 <_fflush_r+0x6c>
  801bb4:	98c00017 	ldw	r3,0(r19)
  801bb8:	00800744 	movi	r2,29
  801bbc:	18bfde26 	beq	r3,r2,801b38 <_fflush_r+0x160>
  801bc0:	9080030b 	ldhu	r2,12(r18)
  801bc4:	8007883a 	mov	r3,r16
  801bc8:	10801014 	ori	r2,r2,64
  801bcc:	9080030d 	sth	r2,12(r18)
  801bd0:	003fcf06 	br	801b10 <_fflush_r+0x138>

00801bd4 <fflush>:
  801bd4:	01402034 	movhi	r5,128
  801bd8:	29467604 	addi	r5,r5,6616
  801bdc:	2007883a 	mov	r3,r4
  801be0:	20000526 	beq	r4,zero,801bf8 <fflush+0x24>
  801be4:	00802074 	movhi	r2,129
  801be8:	10898b04 	addi	r2,r2,9772
  801bec:	11000017 	ldw	r4,0(r2)
  801bf0:	180b883a 	mov	r5,r3
  801bf4:	08019d81 	jmpi	8019d8 <_fflush_r>
  801bf8:	00802074 	movhi	r2,129
  801bfc:	10898c04 	addi	r2,r2,9776
  801c00:	11000017 	ldw	r4,0(r2)
  801c04:	080233c1 	jmpi	80233c <_fwalk_reent>

00801c08 <std>:
  801c08:	00802034 	movhi	r2,128
  801c0c:	1089ba04 	addi	r2,r2,9960
  801c10:	20800b15 	stw	r2,44(r4)
  801c14:	00802034 	movhi	r2,128
  801c18:	1089f504 	addi	r2,r2,10196
  801c1c:	20800815 	stw	r2,32(r4)
  801c20:	00c02034 	movhi	r3,128
  801c24:	18c9d604 	addi	r3,r3,10072
  801c28:	00802034 	movhi	r2,128
  801c2c:	1089bc04 	addi	r2,r2,9968
  801c30:	2140030d 	sth	r5,12(r4)
  801c34:	2180038d 	sth	r6,14(r4)
  801c38:	20c00915 	stw	r3,36(r4)
  801c3c:	20800a15 	stw	r2,40(r4)
  801c40:	20000015 	stw	zero,0(r4)
  801c44:	20000115 	stw	zero,4(r4)
  801c48:	20000215 	stw	zero,8(r4)
  801c4c:	20000415 	stw	zero,16(r4)
  801c50:	20000515 	stw	zero,20(r4)
  801c54:	20000615 	stw	zero,24(r4)
  801c58:	21000715 	stw	r4,28(r4)
  801c5c:	f800283a 	ret

00801c60 <__sfp_lock_acquire>:
  801c60:	f800283a 	ret

00801c64 <__sfp_lock_release>:
  801c64:	f800283a 	ret

00801c68 <__sinit_lock_acquire>:
  801c68:	f800283a 	ret

00801c6c <__sinit_lock_release>:
  801c6c:	f800283a 	ret

00801c70 <__sinit>:
  801c70:	20800e17 	ldw	r2,56(r4)
  801c74:	defffd04 	addi	sp,sp,-12
  801c78:	dc400115 	stw	r17,4(sp)
  801c7c:	dc000015 	stw	r16,0(sp)
  801c80:	dfc00215 	stw	ra,8(sp)
  801c84:	04400044 	movi	r17,1
  801c88:	01400104 	movi	r5,4
  801c8c:	000d883a 	mov	r6,zero
  801c90:	2021883a 	mov	r16,r4
  801c94:	2200bb04 	addi	r8,r4,748
  801c98:	200f883a 	mov	r7,r4
  801c9c:	10000526 	beq	r2,zero,801cb4 <__sinit+0x44>
  801ca0:	dfc00217 	ldw	ra,8(sp)
  801ca4:	dc400117 	ldw	r17,4(sp)
  801ca8:	dc000017 	ldw	r16,0(sp)
  801cac:	dec00304 	addi	sp,sp,12
  801cb0:	f800283a 	ret
  801cb4:	21000117 	ldw	r4,4(r4)
  801cb8:	00802034 	movhi	r2,128
  801cbc:	10875504 	addi	r2,r2,7508
  801cc0:	00c000c4 	movi	r3,3
  801cc4:	80800f15 	stw	r2,60(r16)
  801cc8:	80c0b915 	stw	r3,740(r16)
  801ccc:	8200ba15 	stw	r8,744(r16)
  801cd0:	84400e15 	stw	r17,56(r16)
  801cd4:	8000b815 	stw	zero,736(r16)
  801cd8:	0801c080 	call	801c08 <std>
  801cdc:	81000217 	ldw	r4,8(r16)
  801ce0:	880d883a 	mov	r6,r17
  801ce4:	800f883a 	mov	r7,r16
  801ce8:	01400284 	movi	r5,10
  801cec:	0801c080 	call	801c08 <std>
  801cf0:	81000317 	ldw	r4,12(r16)
  801cf4:	800f883a 	mov	r7,r16
  801cf8:	01400484 	movi	r5,18
  801cfc:	01800084 	movi	r6,2
  801d00:	dfc00217 	ldw	ra,8(sp)
  801d04:	dc400117 	ldw	r17,4(sp)
  801d08:	dc000017 	ldw	r16,0(sp)
  801d0c:	dec00304 	addi	sp,sp,12
  801d10:	0801c081 	jmpi	801c08 <std>

00801d14 <__fp_lock>:
  801d14:	0005883a 	mov	r2,zero
  801d18:	f800283a 	ret

00801d1c <__fp_unlock>:
  801d1c:	0005883a 	mov	r2,zero
  801d20:	f800283a 	ret

00801d24 <__fp_unlock_all>:
  801d24:	00802074 	movhi	r2,129
  801d28:	10898b04 	addi	r2,r2,9772
  801d2c:	11000017 	ldw	r4,0(r2)
  801d30:	01402034 	movhi	r5,128
  801d34:	29474704 	addi	r5,r5,7452
  801d38:	08024041 	jmpi	802404 <_fwalk>

00801d3c <__fp_lock_all>:
  801d3c:	00802074 	movhi	r2,129
  801d40:	10898b04 	addi	r2,r2,9772
  801d44:	11000017 	ldw	r4,0(r2)
  801d48:	01402034 	movhi	r5,128
  801d4c:	29474504 	addi	r5,r5,7444
  801d50:	08024041 	jmpi	802404 <_fwalk>

00801d54 <_cleanup_r>:
  801d54:	01402034 	movhi	r5,128
  801d58:	294a8b04 	addi	r5,r5,10796
  801d5c:	08024041 	jmpi	802404 <_fwalk>

00801d60 <_cleanup>:
  801d60:	00802074 	movhi	r2,129
  801d64:	10898c04 	addi	r2,r2,9776
  801d68:	11000017 	ldw	r4,0(r2)
  801d6c:	0801d541 	jmpi	801d54 <_cleanup_r>

00801d70 <__sfmoreglue>:
  801d70:	defffc04 	addi	sp,sp,-16
  801d74:	dc000015 	stw	r16,0(sp)
  801d78:	2821883a 	mov	r16,r5
  801d7c:	dc400115 	stw	r17,4(sp)
  801d80:	01401704 	movi	r5,92
  801d84:	2023883a 	mov	r17,r4
  801d88:	8009883a 	mov	r4,r16
  801d8c:	dfc00315 	stw	ra,12(sp)
  801d90:	dcc00215 	stw	r19,8(sp)
  801d94:	0802c140 	call	802c14 <__mulsi3>
  801d98:	11400304 	addi	r5,r2,12
  801d9c:	8809883a 	mov	r4,r17
  801da0:	1027883a 	mov	r19,r2
  801da4:	08008940 	call	800894 <_malloc_r>
  801da8:	10c00304 	addi	r3,r2,12
  801dac:	1023883a 	mov	r17,r2
  801db0:	1809883a 	mov	r4,r3
  801db4:	980d883a 	mov	r6,r19
  801db8:	000b883a 	mov	r5,zero
  801dbc:	10000b26 	beq	r2,zero,801dec <__sfmoreglue+0x7c>
  801dc0:	14000115 	stw	r16,4(r2)
  801dc4:	10c00215 	stw	r3,8(r2)
  801dc8:	10000015 	stw	zero,0(r2)
  801dcc:	08026500 	call	802650 <memset>
  801dd0:	8805883a 	mov	r2,r17
  801dd4:	dfc00317 	ldw	ra,12(sp)
  801dd8:	dcc00217 	ldw	r19,8(sp)
  801ddc:	dc400117 	ldw	r17,4(sp)
  801de0:	dc000017 	ldw	r16,0(sp)
  801de4:	dec00404 	addi	sp,sp,16
  801de8:	f800283a 	ret
  801dec:	0023883a 	mov	r17,zero
  801df0:	8805883a 	mov	r2,r17
  801df4:	dfc00317 	ldw	ra,12(sp)
  801df8:	dcc00217 	ldw	r19,8(sp)
  801dfc:	dc400117 	ldw	r17,4(sp)
  801e00:	dc000017 	ldw	r16,0(sp)
  801e04:	dec00404 	addi	sp,sp,16
  801e08:	f800283a 	ret

00801e0c <__sfp>:
  801e0c:	defffd04 	addi	sp,sp,-12
  801e10:	00802074 	movhi	r2,129
  801e14:	10898c04 	addi	r2,r2,9776
  801e18:	dc000015 	stw	r16,0(sp)
  801e1c:	14000017 	ldw	r16,0(r2)
  801e20:	dc400115 	stw	r17,4(sp)
  801e24:	dfc00215 	stw	ra,8(sp)
  801e28:	80800e17 	ldw	r2,56(r16)
  801e2c:	2023883a 	mov	r17,r4
  801e30:	10002626 	beq	r2,zero,801ecc <__sfp+0xc0>
  801e34:	8400b804 	addi	r16,r16,736
  801e38:	80800117 	ldw	r2,4(r16)
  801e3c:	81000217 	ldw	r4,8(r16)
  801e40:	10ffffc4 	addi	r3,r2,-1
  801e44:	18000916 	blt	r3,zero,801e6c <__sfp+0x60>
  801e48:	2080030f 	ldh	r2,12(r4)
  801e4c:	10000b26 	beq	r2,zero,801e7c <__sfp+0x70>
  801e50:	017fffc4 	movi	r5,-1
  801e54:	00000206 	br	801e60 <__sfp+0x54>
  801e58:	2080030f 	ldh	r2,12(r4)
  801e5c:	10000726 	beq	r2,zero,801e7c <__sfp+0x70>
  801e60:	18ffffc4 	addi	r3,r3,-1
  801e64:	21001704 	addi	r4,r4,92
  801e68:	197ffb1e 	bne	r3,r5,801e58 <__sfp+0x4c>
  801e6c:	80800017 	ldw	r2,0(r16)
  801e70:	10001926 	beq	r2,zero,801ed8 <__sfp+0xcc>
  801e74:	1021883a 	mov	r16,r2
  801e78:	003fef06 	br	801e38 <__sfp+0x2c>
  801e7c:	00bfffc4 	movi	r2,-1
  801e80:	00c00044 	movi	r3,1
  801e84:	2080038d 	sth	r2,14(r4)
  801e88:	20c0030d 	sth	r3,12(r4)
  801e8c:	20000015 	stw	zero,0(r4)
  801e90:	20000215 	stw	zero,8(r4)
  801e94:	20000115 	stw	zero,4(r4)
  801e98:	20000415 	stw	zero,16(r4)
  801e9c:	20000515 	stw	zero,20(r4)
  801ea0:	20000615 	stw	zero,24(r4)
  801ea4:	20000c15 	stw	zero,48(r4)
  801ea8:	20000d15 	stw	zero,52(r4)
  801eac:	20001115 	stw	zero,68(r4)
  801eb0:	20001215 	stw	zero,72(r4)
  801eb4:	2005883a 	mov	r2,r4
  801eb8:	dfc00217 	ldw	ra,8(sp)
  801ebc:	dc400117 	ldw	r17,4(sp)
  801ec0:	dc000017 	ldw	r16,0(sp)
  801ec4:	dec00304 	addi	sp,sp,12
  801ec8:	f800283a 	ret
  801ecc:	8009883a 	mov	r4,r16
  801ed0:	0801c700 	call	801c70 <__sinit>
  801ed4:	003fd706 	br	801e34 <__sfp+0x28>
  801ed8:	8809883a 	mov	r4,r17
  801edc:	01400104 	movi	r5,4
  801ee0:	0801d700 	call	801d70 <__sfmoreglue>
  801ee4:	80800015 	stw	r2,0(r16)
  801ee8:	103fe21e 	bne	r2,zero,801e74 <__sfp+0x68>
  801eec:	00800304 	movi	r2,12
  801ef0:	0009883a 	mov	r4,zero
  801ef4:	88800015 	stw	r2,0(r17)
  801ef8:	003fee06 	br	801eb4 <__sfp+0xa8>

00801efc <_malloc_trim_r>:
  801efc:	defffb04 	addi	sp,sp,-20
  801f00:	dcc00315 	stw	r19,12(sp)
  801f04:	04c02074 	movhi	r19,129
  801f08:	9cc40204 	addi	r19,r19,4104
  801f0c:	dc800215 	stw	r18,8(sp)
  801f10:	dc400115 	stw	r17,4(sp)
  801f14:	dc000015 	stw	r16,0(sp)
  801f18:	2823883a 	mov	r17,r5
  801f1c:	2025883a 	mov	r18,r4
  801f20:	dfc00415 	stw	ra,16(sp)
  801f24:	0802d740 	call	802d74 <__malloc_lock>
  801f28:	98800217 	ldw	r2,8(r19)
  801f2c:	9009883a 	mov	r4,r18
  801f30:	000b883a 	mov	r5,zero
  801f34:	10c00117 	ldw	r3,4(r2)
  801f38:	00bfff04 	movi	r2,-4
  801f3c:	18a0703a 	and	r16,r3,r2
  801f40:	8463c83a 	sub	r17,r16,r17
  801f44:	8c43fbc4 	addi	r17,r17,4079
  801f48:	8822d33a 	srli	r17,r17,12
  801f4c:	0083ffc4 	movi	r2,4095
  801f50:	8c7fffc4 	addi	r17,r17,-1
  801f54:	8822933a 	slli	r17,r17,12
  801f58:	1440060e 	bge	r2,r17,801f74 <_malloc_trim_r+0x78>
  801f5c:	080182c0 	call	80182c <_sbrk_r>
  801f60:	98c00217 	ldw	r3,8(r19)
  801f64:	9009883a 	mov	r4,r18
  801f68:	044bc83a 	sub	r5,zero,r17
  801f6c:	80c7883a 	add	r3,r16,r3
  801f70:	10c00926 	beq	r2,r3,801f98 <_malloc_trim_r+0x9c>
  801f74:	0802dc80 	call	802dc8 <__malloc_unlock>
  801f78:	0005883a 	mov	r2,zero
  801f7c:	dfc00417 	ldw	ra,16(sp)
  801f80:	dcc00317 	ldw	r19,12(sp)
  801f84:	dc800217 	ldw	r18,8(sp)
  801f88:	dc400117 	ldw	r17,4(sp)
  801f8c:	dc000017 	ldw	r16,0(sp)
  801f90:	dec00504 	addi	sp,sp,20
  801f94:	f800283a 	ret
  801f98:	9009883a 	mov	r4,r18
  801f9c:	080182c0 	call	80182c <_sbrk_r>
  801fa0:	844dc83a 	sub	r6,r16,r17
  801fa4:	00ffffc4 	movi	r3,-1
  801fa8:	9009883a 	mov	r4,r18
  801fac:	000b883a 	mov	r5,zero
  801fb0:	01c02074 	movhi	r7,129
  801fb4:	39d05804 	addi	r7,r7,16736
  801fb8:	31800054 	ori	r6,r6,1
  801fbc:	10c00926 	beq	r2,r3,801fe4 <_malloc_trim_r+0xe8>
  801fc0:	38800017 	ldw	r2,0(r7)
  801fc4:	98c00217 	ldw	r3,8(r19)
  801fc8:	9009883a 	mov	r4,r18
  801fcc:	1445c83a 	sub	r2,r2,r17
  801fd0:	38800015 	stw	r2,0(r7)
  801fd4:	19800115 	stw	r6,4(r3)
  801fd8:	0802dc80 	call	802dc8 <__malloc_unlock>
  801fdc:	00800044 	movi	r2,1
  801fe0:	003fe606 	br	801f7c <_malloc_trim_r+0x80>
  801fe4:	080182c0 	call	80182c <_sbrk_r>
  801fe8:	99800217 	ldw	r6,8(r19)
  801fec:	100f883a 	mov	r7,r2
  801ff0:	9009883a 	mov	r4,r18
  801ff4:	1187c83a 	sub	r3,r2,r6
  801ff8:	008003c4 	movi	r2,15
  801ffc:	19400054 	ori	r5,r3,1
  802000:	10ffdc0e 	bge	r2,r3,801f74 <_malloc_trim_r+0x78>
  802004:	00802074 	movhi	r2,129
  802008:	10898e04 	addi	r2,r2,9784
  80200c:	10c00017 	ldw	r3,0(r2)
  802010:	00802074 	movhi	r2,129
  802014:	10905804 	addi	r2,r2,16736
  802018:	31400115 	stw	r5,4(r6)
  80201c:	38c7c83a 	sub	r3,r7,r3
  802020:	10c00015 	stw	r3,0(r2)
  802024:	003fd306 	br	801f74 <_malloc_trim_r+0x78>

00802028 <_free_r>:
  802028:	defffd04 	addi	sp,sp,-12
  80202c:	dc400115 	stw	r17,4(sp)
  802030:	dc000015 	stw	r16,0(sp)
  802034:	dfc00215 	stw	ra,8(sp)
  802038:	2821883a 	mov	r16,r5
  80203c:	2023883a 	mov	r17,r4
  802040:	28005a26 	beq	r5,zero,8021ac <_free_r+0x184>
  802044:	0802d740 	call	802d74 <__malloc_lock>
  802048:	823ffe04 	addi	r8,r16,-8
  80204c:	41400117 	ldw	r5,4(r8)
  802050:	00bfff84 	movi	r2,-2
  802054:	02802074 	movhi	r10,129
  802058:	52840204 	addi	r10,r10,4104
  80205c:	288e703a 	and	r7,r5,r2
  802060:	41cd883a 	add	r6,r8,r7
  802064:	30c00117 	ldw	r3,4(r6)
  802068:	51000217 	ldw	r4,8(r10)
  80206c:	00bfff04 	movi	r2,-4
  802070:	1892703a 	and	r9,r3,r2
  802074:	5017883a 	mov	r11,r10
  802078:	31006726 	beq	r6,r4,802218 <_free_r+0x1f0>
  80207c:	2880004c 	andi	r2,r5,1
  802080:	1005003a 	cmpeq	r2,r2,zero
  802084:	32400115 	stw	r9,4(r6)
  802088:	10001a1e 	bne	r2,zero,8020f4 <_free_r+0xcc>
  80208c:	000b883a 	mov	r5,zero
  802090:	3247883a 	add	r3,r6,r9
  802094:	18800117 	ldw	r2,4(r3)
  802098:	1080004c 	andi	r2,r2,1
  80209c:	1000231e 	bne	r2,zero,80212c <_free_r+0x104>
  8020a0:	280ac03a 	cmpne	r5,r5,zero
  8020a4:	3a4f883a 	add	r7,r7,r9
  8020a8:	2800451e 	bne	r5,zero,8021c0 <_free_r+0x198>
  8020ac:	31000217 	ldw	r4,8(r6)
  8020b0:	00802074 	movhi	r2,129
  8020b4:	10840404 	addi	r2,r2,4112
  8020b8:	20807b26 	beq	r4,r2,8022a8 <_free_r+0x280>
  8020bc:	30800317 	ldw	r2,12(r6)
  8020c0:	3a07883a 	add	r3,r7,r8
  8020c4:	19c00015 	stw	r7,0(r3)
  8020c8:	11000215 	stw	r4,8(r2)
  8020cc:	20800315 	stw	r2,12(r4)
  8020d0:	38800054 	ori	r2,r7,1
  8020d4:	40800115 	stw	r2,4(r8)
  8020d8:	28001a26 	beq	r5,zero,802144 <_free_r+0x11c>
  8020dc:	8809883a 	mov	r4,r17
  8020e0:	dfc00217 	ldw	ra,8(sp)
  8020e4:	dc400117 	ldw	r17,4(sp)
  8020e8:	dc000017 	ldw	r16,0(sp)
  8020ec:	dec00304 	addi	sp,sp,12
  8020f0:	0802dc81 	jmpi	802dc8 <__malloc_unlock>
  8020f4:	80bffe17 	ldw	r2,-8(r16)
  8020f8:	50c00204 	addi	r3,r10,8
  8020fc:	4091c83a 	sub	r8,r8,r2
  802100:	41000217 	ldw	r4,8(r8)
  802104:	388f883a 	add	r7,r7,r2
  802108:	20c06126 	beq	r4,r3,802290 <_free_r+0x268>
  80210c:	40800317 	ldw	r2,12(r8)
  802110:	3247883a 	add	r3,r6,r9
  802114:	000b883a 	mov	r5,zero
  802118:	11000215 	stw	r4,8(r2)
  80211c:	20800315 	stw	r2,12(r4)
  802120:	18800117 	ldw	r2,4(r3)
  802124:	1080004c 	andi	r2,r2,1
  802128:	103fdd26 	beq	r2,zero,8020a0 <_free_r+0x78>
  80212c:	38800054 	ori	r2,r7,1
  802130:	3a07883a 	add	r3,r7,r8
  802134:	280ac03a 	cmpne	r5,r5,zero
  802138:	40800115 	stw	r2,4(r8)
  80213c:	19c00015 	stw	r7,0(r3)
  802140:	283fe61e 	bne	r5,zero,8020dc <_free_r+0xb4>
  802144:	00807fc4 	movi	r2,511
  802148:	11c01f2e 	bgeu	r2,r7,8021c8 <_free_r+0x1a0>
  80214c:	3806d27a 	srli	r3,r7,9
  802150:	1800481e 	bne	r3,zero,802274 <_free_r+0x24c>
  802154:	3804d0fa 	srli	r2,r7,3
  802158:	100690fa 	slli	r3,r2,3
  80215c:	1acd883a 	add	r6,r3,r11
  802160:	31400217 	ldw	r5,8(r6)
  802164:	31405926 	beq	r6,r5,8022cc <_free_r+0x2a4>
  802168:	28800117 	ldw	r2,4(r5)
  80216c:	00ffff04 	movi	r3,-4
  802170:	10c4703a 	and	r2,r2,r3
  802174:	3880022e 	bgeu	r7,r2,802180 <_free_r+0x158>
  802178:	29400217 	ldw	r5,8(r5)
  80217c:	317ffa1e 	bne	r6,r5,802168 <_free_r+0x140>
  802180:	29800317 	ldw	r6,12(r5)
  802184:	41800315 	stw	r6,12(r8)
  802188:	41400215 	stw	r5,8(r8)
  80218c:	8809883a 	mov	r4,r17
  802190:	2a000315 	stw	r8,12(r5)
  802194:	32000215 	stw	r8,8(r6)
  802198:	dfc00217 	ldw	ra,8(sp)
  80219c:	dc400117 	ldw	r17,4(sp)
  8021a0:	dc000017 	ldw	r16,0(sp)
  8021a4:	dec00304 	addi	sp,sp,12
  8021a8:	0802dc81 	jmpi	802dc8 <__malloc_unlock>
  8021ac:	dfc00217 	ldw	ra,8(sp)
  8021b0:	dc400117 	ldw	r17,4(sp)
  8021b4:	dc000017 	ldw	r16,0(sp)
  8021b8:	dec00304 	addi	sp,sp,12
  8021bc:	f800283a 	ret
  8021c0:	31000217 	ldw	r4,8(r6)
  8021c4:	003fbd06 	br	8020bc <_free_r+0x94>
  8021c8:	3806d0fa 	srli	r3,r7,3
  8021cc:	00800044 	movi	r2,1
  8021d0:	51400117 	ldw	r5,4(r10)
  8021d4:	180890fa 	slli	r4,r3,3
  8021d8:	1807d0ba 	srai	r3,r3,2
  8021dc:	22c9883a 	add	r4,r4,r11
  8021e0:	21800217 	ldw	r6,8(r4)
  8021e4:	10c4983a 	sll	r2,r2,r3
  8021e8:	41000315 	stw	r4,12(r8)
  8021ec:	41800215 	stw	r6,8(r8)
  8021f0:	288ab03a 	or	r5,r5,r2
  8021f4:	22000215 	stw	r8,8(r4)
  8021f8:	8809883a 	mov	r4,r17
  8021fc:	51400115 	stw	r5,4(r10)
  802200:	32000315 	stw	r8,12(r6)
  802204:	dfc00217 	ldw	ra,8(sp)
  802208:	dc400117 	ldw	r17,4(sp)
  80220c:	dc000017 	ldw	r16,0(sp)
  802210:	dec00304 	addi	sp,sp,12
  802214:	0802dc81 	jmpi	802dc8 <__malloc_unlock>
  802218:	2880004c 	andi	r2,r5,1
  80221c:	3a4d883a 	add	r6,r7,r9
  802220:	1000071e 	bne	r2,zero,802240 <_free_r+0x218>
  802224:	80bffe17 	ldw	r2,-8(r16)
  802228:	4091c83a 	sub	r8,r8,r2
  80222c:	41000317 	ldw	r4,12(r8)
  802230:	40c00217 	ldw	r3,8(r8)
  802234:	308d883a 	add	r6,r6,r2
  802238:	20c00215 	stw	r3,8(r4)
  80223c:	19000315 	stw	r4,12(r3)
  802240:	00802074 	movhi	r2,129
  802244:	10898d04 	addi	r2,r2,9780
  802248:	11000017 	ldw	r4,0(r2)
  80224c:	30c00054 	ori	r3,r6,1
  802250:	52000215 	stw	r8,8(r10)
  802254:	40c00115 	stw	r3,4(r8)
  802258:	313fa036 	bltu	r6,r4,8020dc <_free_r+0xb4>
  80225c:	00802074 	movhi	r2,129
  802260:	10903604 	addi	r2,r2,16600
  802264:	11400017 	ldw	r5,0(r2)
  802268:	8809883a 	mov	r4,r17
  80226c:	0801efc0 	call	801efc <_malloc_trim_r>
  802270:	003f9a06 	br	8020dc <_free_r+0xb4>
  802274:	00800104 	movi	r2,4
  802278:	10c0072e 	bgeu	r2,r3,802298 <_free_r+0x270>
  80227c:	00800504 	movi	r2,20
  802280:	10c01936 	bltu	r2,r3,8022e8 <_free_r+0x2c0>
  802284:	188016c4 	addi	r2,r3,91
  802288:	100690fa 	slli	r3,r2,3
  80228c:	003fb306 	br	80215c <_free_r+0x134>
  802290:	01400044 	movi	r5,1
  802294:	003f7e06 	br	802090 <_free_r+0x68>
  802298:	3804d1ba 	srli	r2,r7,6
  80229c:	10800e04 	addi	r2,r2,56
  8022a0:	100690fa 	slli	r3,r2,3
  8022a4:	003fad06 	br	80215c <_free_r+0x134>
  8022a8:	22000315 	stw	r8,12(r4)
  8022ac:	22000215 	stw	r8,8(r4)
  8022b0:	3a05883a 	add	r2,r7,r8
  8022b4:	38c00054 	ori	r3,r7,1
  8022b8:	11c00015 	stw	r7,0(r2)
  8022bc:	41000215 	stw	r4,8(r8)
  8022c0:	40c00115 	stw	r3,4(r8)
  8022c4:	41000315 	stw	r4,12(r8)
  8022c8:	003f8406 	br	8020dc <_free_r+0xb4>
  8022cc:	1005d0ba 	srai	r2,r2,2
  8022d0:	00c00044 	movi	r3,1
  8022d4:	51000117 	ldw	r4,4(r10)
  8022d8:	1886983a 	sll	r3,r3,r2
  8022dc:	20c8b03a 	or	r4,r4,r3
  8022e0:	51000115 	stw	r4,4(r10)
  8022e4:	003fa706 	br	802184 <_free_r+0x15c>
  8022e8:	00801504 	movi	r2,84
  8022ec:	10c00436 	bltu	r2,r3,802300 <_free_r+0x2d8>
  8022f0:	3804d33a 	srli	r2,r7,12
  8022f4:	10801b84 	addi	r2,r2,110
  8022f8:	100690fa 	slli	r3,r2,3
  8022fc:	003f9706 	br	80215c <_free_r+0x134>
  802300:	00805504 	movi	r2,340
  802304:	10c00436 	bltu	r2,r3,802318 <_free_r+0x2f0>
  802308:	3804d3fa 	srli	r2,r7,15
  80230c:	10801dc4 	addi	r2,r2,119
  802310:	100690fa 	slli	r3,r2,3
  802314:	003f9106 	br	80215c <_free_r+0x134>
  802318:	00815504 	movi	r2,1364
  80231c:	10c0032e 	bgeu	r2,r3,80232c <_free_r+0x304>
  802320:	00801f84 	movi	r2,126
  802324:	00c0fc04 	movi	r3,1008
  802328:	003f8c06 	br	80215c <_free_r+0x134>
  80232c:	3804d4ba 	srli	r2,r7,18
  802330:	10801f04 	addi	r2,r2,124
  802334:	100690fa 	slli	r3,r2,3
  802338:	003f8806 	br	80215c <_free_r+0x134>

0080233c <_fwalk_reent>:
  80233c:	defff704 	addi	sp,sp,-36
  802340:	dcc00315 	stw	r19,12(sp)
  802344:	24c0b804 	addi	r19,r4,736
  802348:	dd800615 	stw	r22,24(sp)
  80234c:	dd400515 	stw	r21,20(sp)
  802350:	dfc00815 	stw	ra,32(sp)
  802354:	ddc00715 	stw	r23,28(sp)
  802358:	dd000415 	stw	r20,16(sp)
  80235c:	dc800215 	stw	r18,8(sp)
  802360:	dc400115 	stw	r17,4(sp)
  802364:	dc000015 	stw	r16,0(sp)
  802368:	202b883a 	mov	r21,r4
  80236c:	282d883a 	mov	r22,r5
  802370:	0801c600 	call	801c60 <__sfp_lock_acquire>
  802374:	98002126 	beq	r19,zero,8023fc <_fwalk_reent+0xc0>
  802378:	002f883a 	mov	r23,zero
  80237c:	9c800117 	ldw	r18,4(r19)
  802380:	9c000217 	ldw	r16,8(r19)
  802384:	90bfffc4 	addi	r2,r18,-1
  802388:	10000d16 	blt	r2,zero,8023c0 <_fwalk_reent+0x84>
  80238c:	0023883a 	mov	r17,zero
  802390:	053fffc4 	movi	r20,-1
  802394:	8080030f 	ldh	r2,12(r16)
  802398:	8c400044 	addi	r17,r17,1
  80239c:	10000626 	beq	r2,zero,8023b8 <_fwalk_reent+0x7c>
  8023a0:	8080038f 	ldh	r2,14(r16)
  8023a4:	800b883a 	mov	r5,r16
  8023a8:	a809883a 	mov	r4,r21
  8023ac:	15000226 	beq	r2,r20,8023b8 <_fwalk_reent+0x7c>
  8023b0:	b03ee83a 	callr	r22
  8023b4:	b8aeb03a 	or	r23,r23,r2
  8023b8:	84001704 	addi	r16,r16,92
  8023bc:	947ff51e 	bne	r18,r17,802394 <_fwalk_reent+0x58>
  8023c0:	9cc00017 	ldw	r19,0(r19)
  8023c4:	983fed1e 	bne	r19,zero,80237c <_fwalk_reent+0x40>
  8023c8:	0801c640 	call	801c64 <__sfp_lock_release>
  8023cc:	b805883a 	mov	r2,r23
  8023d0:	dfc00817 	ldw	ra,32(sp)
  8023d4:	ddc00717 	ldw	r23,28(sp)
  8023d8:	dd800617 	ldw	r22,24(sp)
  8023dc:	dd400517 	ldw	r21,20(sp)
  8023e0:	dd000417 	ldw	r20,16(sp)
  8023e4:	dcc00317 	ldw	r19,12(sp)
  8023e8:	dc800217 	ldw	r18,8(sp)
  8023ec:	dc400117 	ldw	r17,4(sp)
  8023f0:	dc000017 	ldw	r16,0(sp)
  8023f4:	dec00904 	addi	sp,sp,36
  8023f8:	f800283a 	ret
  8023fc:	002f883a 	mov	r23,zero
  802400:	003ff106 	br	8023c8 <_fwalk_reent+0x8c>

00802404 <_fwalk>:
  802404:	defff804 	addi	sp,sp,-32
  802408:	dcc00315 	stw	r19,12(sp)
  80240c:	24c0b804 	addi	r19,r4,736
  802410:	dd400515 	stw	r21,20(sp)
  802414:	dfc00715 	stw	ra,28(sp)
  802418:	dd800615 	stw	r22,24(sp)
  80241c:	dd000415 	stw	r20,16(sp)
  802420:	dc800215 	stw	r18,8(sp)
  802424:	dc400115 	stw	r17,4(sp)
  802428:	dc000015 	stw	r16,0(sp)
  80242c:	282b883a 	mov	r21,r5
  802430:	0801c600 	call	801c60 <__sfp_lock_acquire>
  802434:	98001f26 	beq	r19,zero,8024b4 <_fwalk+0xb0>
  802438:	002d883a 	mov	r22,zero
  80243c:	9c800117 	ldw	r18,4(r19)
  802440:	9c000217 	ldw	r16,8(r19)
  802444:	90bfffc4 	addi	r2,r18,-1
  802448:	10000c16 	blt	r2,zero,80247c <_fwalk+0x78>
  80244c:	0023883a 	mov	r17,zero
  802450:	053fffc4 	movi	r20,-1
  802454:	8080030f 	ldh	r2,12(r16)
  802458:	8c400044 	addi	r17,r17,1
  80245c:	10000526 	beq	r2,zero,802474 <_fwalk+0x70>
  802460:	8080038f 	ldh	r2,14(r16)
  802464:	8009883a 	mov	r4,r16
  802468:	15000226 	beq	r2,r20,802474 <_fwalk+0x70>
  80246c:	a83ee83a 	callr	r21
  802470:	b0acb03a 	or	r22,r22,r2
  802474:	84001704 	addi	r16,r16,92
  802478:	947ff61e 	bne	r18,r17,802454 <_fwalk+0x50>
  80247c:	9cc00017 	ldw	r19,0(r19)
  802480:	983fee1e 	bne	r19,zero,80243c <_fwalk+0x38>
  802484:	0801c640 	call	801c64 <__sfp_lock_release>
  802488:	b005883a 	mov	r2,r22
  80248c:	dfc00717 	ldw	ra,28(sp)
  802490:	dd800617 	ldw	r22,24(sp)
  802494:	dd400517 	ldw	r21,20(sp)
  802498:	dd000417 	ldw	r20,16(sp)
  80249c:	dcc00317 	ldw	r19,12(sp)
  8024a0:	dc800217 	ldw	r18,8(sp)
  8024a4:	dc400117 	ldw	r17,4(sp)
  8024a8:	dc000017 	ldw	r16,0(sp)
  8024ac:	dec00804 	addi	sp,sp,32
  8024b0:	f800283a 	ret
  8024b4:	002d883a 	mov	r22,zero
  8024b8:	003ff206 	br	802484 <_fwalk+0x80>

008024bc <__smakebuf_r>:
  8024bc:	2880030b 	ldhu	r2,12(r5)
  8024c0:	deffed04 	addi	sp,sp,-76
  8024c4:	dc401015 	stw	r17,64(sp)
  8024c8:	1080008c 	andi	r2,r2,2
  8024cc:	dc000f15 	stw	r16,60(sp)
  8024d0:	dfc01215 	stw	ra,72(sp)
  8024d4:	dc801115 	stw	r18,68(sp)
  8024d8:	2821883a 	mov	r16,r5
  8024dc:	2023883a 	mov	r17,r4
  8024e0:	10000b26 	beq	r2,zero,802510 <__smakebuf_r+0x54>
  8024e4:	28c010c4 	addi	r3,r5,67
  8024e8:	00800044 	movi	r2,1
  8024ec:	28800515 	stw	r2,20(r5)
  8024f0:	28c00415 	stw	r3,16(r5)
  8024f4:	28c00015 	stw	r3,0(r5)
  8024f8:	dfc01217 	ldw	ra,72(sp)
  8024fc:	dc801117 	ldw	r18,68(sp)
  802500:	dc401017 	ldw	r17,64(sp)
  802504:	dc000f17 	ldw	r16,60(sp)
  802508:	dec01304 	addi	sp,sp,76
  80250c:	f800283a 	ret
  802510:	2940038f 	ldh	r5,14(r5)
  802514:	28002116 	blt	r5,zero,80259c <__smakebuf_r+0xe0>
  802518:	d80d883a 	mov	r6,sp
  80251c:	0802a400 	call	802a40 <_fstat_r>
  802520:	10001e16 	blt	r2,zero,80259c <__smakebuf_r+0xe0>
  802524:	d8800117 	ldw	r2,4(sp)
  802528:	00e00014 	movui	r3,32768
  80252c:	113c000c 	andi	r4,r2,61440
  802530:	20c03126 	beq	r4,r3,8025f8 <__smakebuf_r+0x13c>
  802534:	8080030b 	ldhu	r2,12(r16)
  802538:	00c80004 	movi	r3,8192
  80253c:	10820014 	ori	r2,r2,2048
  802540:	8080030d 	sth	r2,12(r16)
  802544:	20c01e26 	beq	r4,r3,8025c0 <__smakebuf_r+0x104>
  802548:	04810004 	movi	r18,1024
  80254c:	8809883a 	mov	r4,r17
  802550:	900b883a 	mov	r5,r18
  802554:	08008940 	call	800894 <_malloc_r>
  802558:	1009883a 	mov	r4,r2
  80255c:	10003126 	beq	r2,zero,802624 <__smakebuf_r+0x168>
  802560:	80c0030b 	ldhu	r3,12(r16)
  802564:	00802034 	movhi	r2,128
  802568:	10875504 	addi	r2,r2,7508
  80256c:	88800f15 	stw	r2,60(r17)
  802570:	18c02014 	ori	r3,r3,128
  802574:	84800515 	stw	r18,20(r16)
  802578:	80c0030d 	sth	r3,12(r16)
  80257c:	81000415 	stw	r4,16(r16)
  802580:	81000015 	stw	r4,0(r16)
  802584:	dfc01217 	ldw	ra,72(sp)
  802588:	dc801117 	ldw	r18,68(sp)
  80258c:	dc401017 	ldw	r17,64(sp)
  802590:	dc000f17 	ldw	r16,60(sp)
  802594:	dec01304 	addi	sp,sp,76
  802598:	f800283a 	ret
  80259c:	80c0030b 	ldhu	r3,12(r16)
  8025a0:	1880200c 	andi	r2,r3,128
  8025a4:	10000426 	beq	r2,zero,8025b8 <__smakebuf_r+0xfc>
  8025a8:	04801004 	movi	r18,64
  8025ac:	18820014 	ori	r2,r3,2048
  8025b0:	8080030d 	sth	r2,12(r16)
  8025b4:	003fe506 	br	80254c <__smakebuf_r+0x90>
  8025b8:	04810004 	movi	r18,1024
  8025bc:	003ffb06 	br	8025ac <__smakebuf_r+0xf0>
  8025c0:	8140038f 	ldh	r5,14(r16)
  8025c4:	8809883a 	mov	r4,r17
  8025c8:	0802ab40 	call	802ab4 <_isatty_r>
  8025cc:	103fde26 	beq	r2,zero,802548 <__smakebuf_r+0x8c>
  8025d0:	8080030b 	ldhu	r2,12(r16)
  8025d4:	80c010c4 	addi	r3,r16,67
  8025d8:	04810004 	movi	r18,1024
  8025dc:	10800054 	ori	r2,r2,1
  8025e0:	8080030d 	sth	r2,12(r16)
  8025e4:	00800044 	movi	r2,1
  8025e8:	80c00415 	stw	r3,16(r16)
  8025ec:	80800515 	stw	r2,20(r16)
  8025f0:	80c00015 	stw	r3,0(r16)
  8025f4:	003fd506 	br	80254c <__smakebuf_r+0x90>
  8025f8:	80c00a17 	ldw	r3,40(r16)
  8025fc:	00802034 	movhi	r2,128
  802600:	1089bc04 	addi	r2,r2,9968
  802604:	18bfcb1e 	bne	r3,r2,802534 <__smakebuf_r+0x78>
  802608:	8080030b 	ldhu	r2,12(r16)
  80260c:	00c10004 	movi	r3,1024
  802610:	1825883a 	mov	r18,r3
  802614:	10c4b03a 	or	r2,r2,r3
  802618:	8080030d 	sth	r2,12(r16)
  80261c:	80c01315 	stw	r3,76(r16)
  802620:	003fca06 	br	80254c <__smakebuf_r+0x90>
  802624:	8100030b 	ldhu	r4,12(r16)
  802628:	2080800c 	andi	r2,r4,512
  80262c:	103fb21e 	bne	r2,zero,8024f8 <__smakebuf_r+0x3c>
  802630:	80c010c4 	addi	r3,r16,67
  802634:	21000094 	ori	r4,r4,2
  802638:	00800044 	movi	r2,1
  80263c:	80800515 	stw	r2,20(r16)
  802640:	8100030d 	sth	r4,12(r16)
  802644:	80c00415 	stw	r3,16(r16)
  802648:	80c00015 	stw	r3,0(r16)
  80264c:	003faa06 	br	8024f8 <__smakebuf_r+0x3c>

00802650 <memset>:
  802650:	008000c4 	movi	r2,3
  802654:	29403fcc 	andi	r5,r5,255
  802658:	2007883a 	mov	r3,r4
  80265c:	1180022e 	bgeu	r2,r6,802668 <memset+0x18>
  802660:	2084703a 	and	r2,r4,r2
  802664:	10000826 	beq	r2,zero,802688 <memset+0x38>
  802668:	30000526 	beq	r6,zero,802680 <memset+0x30>
  80266c:	2805883a 	mov	r2,r5
  802670:	30cd883a 	add	r6,r6,r3
  802674:	18800005 	stb	r2,0(r3)
  802678:	18c00044 	addi	r3,r3,1
  80267c:	19bffd1e 	bne	r3,r6,802674 <memset+0x24>
  802680:	2005883a 	mov	r2,r4
  802684:	f800283a 	ret
  802688:	2804923a 	slli	r2,r5,8
  80268c:	020003c4 	movi	r8,15
  802690:	200f883a 	mov	r7,r4
  802694:	2884b03a 	or	r2,r5,r2
  802698:	1006943a 	slli	r3,r2,16
  80269c:	10c6b03a 	or	r3,r2,r3
  8026a0:	41800a2e 	bgeu	r8,r6,8026cc <memset+0x7c>
  8026a4:	4005883a 	mov	r2,r8
  8026a8:	31bffc04 	addi	r6,r6,-16
  8026ac:	38c00015 	stw	r3,0(r7)
  8026b0:	38c00115 	stw	r3,4(r7)
  8026b4:	38c00215 	stw	r3,8(r7)
  8026b8:	38c00315 	stw	r3,12(r7)
  8026bc:	39c00404 	addi	r7,r7,16
  8026c0:	11bff936 	bltu	r2,r6,8026a8 <memset+0x58>
  8026c4:	008000c4 	movi	r2,3
  8026c8:	1180052e 	bgeu	r2,r6,8026e0 <memset+0x90>
  8026cc:	31bfff04 	addi	r6,r6,-4
  8026d0:	008000c4 	movi	r2,3
  8026d4:	38c00015 	stw	r3,0(r7)
  8026d8:	39c00104 	addi	r7,r7,4
  8026dc:	11bffb36 	bltu	r2,r6,8026cc <memset+0x7c>
  8026e0:	3807883a 	mov	r3,r7
  8026e4:	003fe006 	br	802668 <memset+0x18>

008026e8 <__sclose>:
  8026e8:	2940038f 	ldh	r5,14(r5)
  8026ec:	08028ac1 	jmpi	8028ac <_close_r>

008026f0 <__sseek>:
  8026f0:	defffe04 	addi	sp,sp,-8
  8026f4:	dc000015 	stw	r16,0(sp)
  8026f8:	2821883a 	mov	r16,r5
  8026fc:	2940038f 	ldh	r5,14(r5)
  802700:	dfc00115 	stw	ra,4(sp)
  802704:	0802b240 	call	802b24 <_lseek_r>
  802708:	1007883a 	mov	r3,r2
  80270c:	00bfffc4 	movi	r2,-1
  802710:	18800926 	beq	r3,r2,802738 <__sseek+0x48>
  802714:	8080030b 	ldhu	r2,12(r16)
  802718:	80c01415 	stw	r3,80(r16)
  80271c:	10840014 	ori	r2,r2,4096
  802720:	8080030d 	sth	r2,12(r16)
  802724:	1805883a 	mov	r2,r3
  802728:	dfc00117 	ldw	ra,4(sp)
  80272c:	dc000017 	ldw	r16,0(sp)
  802730:	dec00204 	addi	sp,sp,8
  802734:	f800283a 	ret
  802738:	8080030b 	ldhu	r2,12(r16)
  80273c:	10bbffcc 	andi	r2,r2,61439
  802740:	8080030d 	sth	r2,12(r16)
  802744:	1805883a 	mov	r2,r3
  802748:	dfc00117 	ldw	ra,4(sp)
  80274c:	dc000017 	ldw	r16,0(sp)
  802750:	dec00204 	addi	sp,sp,8
  802754:	f800283a 	ret

00802758 <__swrite>:
  802758:	2880030b 	ldhu	r2,12(r5)
  80275c:	defffb04 	addi	sp,sp,-20
  802760:	dcc00315 	stw	r19,12(sp)
  802764:	1080400c 	andi	r2,r2,256
  802768:	dc800215 	stw	r18,8(sp)
  80276c:	dc400115 	stw	r17,4(sp)
  802770:	dc000015 	stw	r16,0(sp)
  802774:	3027883a 	mov	r19,r6
  802778:	3825883a 	mov	r18,r7
  80277c:	dfc00415 	stw	ra,16(sp)
  802780:	2821883a 	mov	r16,r5
  802784:	000d883a 	mov	r6,zero
  802788:	01c00084 	movi	r7,2
  80278c:	2023883a 	mov	r17,r4
  802790:	10000226 	beq	r2,zero,80279c <__swrite+0x44>
  802794:	2940038f 	ldh	r5,14(r5)
  802798:	0802b240 	call	802b24 <_lseek_r>
  80279c:	8080030b 	ldhu	r2,12(r16)
  8027a0:	8140038f 	ldh	r5,14(r16)
  8027a4:	8809883a 	mov	r4,r17
  8027a8:	10bbffcc 	andi	r2,r2,61439
  8027ac:	980d883a 	mov	r6,r19
  8027b0:	900f883a 	mov	r7,r18
  8027b4:	8080030d 	sth	r2,12(r16)
  8027b8:	dfc00417 	ldw	ra,16(sp)
  8027bc:	dcc00317 	ldw	r19,12(sp)
  8027c0:	dc800217 	ldw	r18,8(sp)
  8027c4:	dc400117 	ldw	r17,4(sp)
  8027c8:	dc000017 	ldw	r16,0(sp)
  8027cc:	dec00504 	addi	sp,sp,20
  8027d0:	08028341 	jmpi	802834 <_write_r>

008027d4 <__sread>:
  8027d4:	defffe04 	addi	sp,sp,-8
  8027d8:	dc000015 	stw	r16,0(sp)
  8027dc:	2821883a 	mov	r16,r5
  8027e0:	2940038f 	ldh	r5,14(r5)
  8027e4:	dfc00115 	stw	ra,4(sp)
  8027e8:	0802b9c0 	call	802b9c <_read_r>
  8027ec:	1007883a 	mov	r3,r2
  8027f0:	10000816 	blt	r2,zero,802814 <__sread+0x40>
  8027f4:	80801417 	ldw	r2,80(r16)
  8027f8:	10c5883a 	add	r2,r2,r3
  8027fc:	80801415 	stw	r2,80(r16)
  802800:	1805883a 	mov	r2,r3
  802804:	dfc00117 	ldw	ra,4(sp)
  802808:	dc000017 	ldw	r16,0(sp)
  80280c:	dec00204 	addi	sp,sp,8
  802810:	f800283a 	ret
  802814:	8080030b 	ldhu	r2,12(r16)
  802818:	10bbffcc 	andi	r2,r2,61439
  80281c:	8080030d 	sth	r2,12(r16)
  802820:	1805883a 	mov	r2,r3
  802824:	dfc00117 	ldw	ra,4(sp)
  802828:	dc000017 	ldw	r16,0(sp)
  80282c:	dec00204 	addi	sp,sp,8
  802830:	f800283a 	ret

00802834 <_write_r>:
  802834:	defffd04 	addi	sp,sp,-12
  802838:	dc000015 	stw	r16,0(sp)
  80283c:	04002074 	movhi	r16,129
  802840:	84103904 	addi	r16,r16,16612
  802844:	dc400115 	stw	r17,4(sp)
  802848:	80000015 	stw	zero,0(r16)
  80284c:	2023883a 	mov	r17,r4
  802850:	2809883a 	mov	r4,r5
  802854:	300b883a 	mov	r5,r6
  802858:	380d883a 	mov	r6,r7
  80285c:	dfc00215 	stw	ra,8(sp)
  802860:	08072800 	call	807280 <write>
  802864:	1007883a 	mov	r3,r2
  802868:	00bfffc4 	movi	r2,-1
  80286c:	18800626 	beq	r3,r2,802888 <_write_r+0x54>
  802870:	1805883a 	mov	r2,r3
  802874:	dfc00217 	ldw	ra,8(sp)
  802878:	dc400117 	ldw	r17,4(sp)
  80287c:	dc000017 	ldw	r16,0(sp)
  802880:	dec00304 	addi	sp,sp,12
  802884:	f800283a 	ret
  802888:	80800017 	ldw	r2,0(r16)
  80288c:	103ff826 	beq	r2,zero,802870 <_write_r+0x3c>
  802890:	88800015 	stw	r2,0(r17)
  802894:	1805883a 	mov	r2,r3
  802898:	dfc00217 	ldw	ra,8(sp)
  80289c:	dc400117 	ldw	r17,4(sp)
  8028a0:	dc000017 	ldw	r16,0(sp)
  8028a4:	dec00304 	addi	sp,sp,12
  8028a8:	f800283a 	ret

008028ac <_close_r>:
  8028ac:	defffd04 	addi	sp,sp,-12
  8028b0:	dc000015 	stw	r16,0(sp)
  8028b4:	04002074 	movhi	r16,129
  8028b8:	84103904 	addi	r16,r16,16612
  8028bc:	dc400115 	stw	r17,4(sp)
  8028c0:	80000015 	stw	zero,0(r16)
  8028c4:	2023883a 	mov	r17,r4
  8028c8:	2809883a 	mov	r4,r5
  8028cc:	dfc00215 	stw	ra,8(sp)
  8028d0:	08064a40 	call	8064a4 <close>
  8028d4:	1007883a 	mov	r3,r2
  8028d8:	00bfffc4 	movi	r2,-1
  8028dc:	18800626 	beq	r3,r2,8028f8 <_close_r+0x4c>
  8028e0:	1805883a 	mov	r2,r3
  8028e4:	dfc00217 	ldw	ra,8(sp)
  8028e8:	dc400117 	ldw	r17,4(sp)
  8028ec:	dc000017 	ldw	r16,0(sp)
  8028f0:	dec00304 	addi	sp,sp,12
  8028f4:	f800283a 	ret
  8028f8:	80800017 	ldw	r2,0(r16)
  8028fc:	103ff826 	beq	r2,zero,8028e0 <_close_r+0x34>
  802900:	88800015 	stw	r2,0(r17)
  802904:	1805883a 	mov	r2,r3
  802908:	dfc00217 	ldw	ra,8(sp)
  80290c:	dc400117 	ldw	r17,4(sp)
  802910:	dc000017 	ldw	r16,0(sp)
  802914:	dec00304 	addi	sp,sp,12
  802918:	f800283a 	ret

0080291c <_fclose_r>:
  80291c:	defffc04 	addi	sp,sp,-16
  802920:	dc400115 	stw	r17,4(sp)
  802924:	dc000015 	stw	r16,0(sp)
  802928:	dfc00315 	stw	ra,12(sp)
  80292c:	dc800215 	stw	r18,8(sp)
  802930:	2821883a 	mov	r16,r5
  802934:	2023883a 	mov	r17,r4
  802938:	28002926 	beq	r5,zero,8029e0 <_fclose_r+0xc4>
  80293c:	0801c600 	call	801c60 <__sfp_lock_acquire>
  802940:	88000226 	beq	r17,zero,80294c <_fclose_r+0x30>
  802944:	88800e17 	ldw	r2,56(r17)
  802948:	10002d26 	beq	r2,zero,802a00 <_fclose_r+0xe4>
  80294c:	8080030f 	ldh	r2,12(r16)
  802950:	10002226 	beq	r2,zero,8029dc <_fclose_r+0xc0>
  802954:	8809883a 	mov	r4,r17
  802958:	800b883a 	mov	r5,r16
  80295c:	08019d80 	call	8019d8 <_fflush_r>
  802960:	1025883a 	mov	r18,r2
  802964:	80800b17 	ldw	r2,44(r16)
  802968:	10000426 	beq	r2,zero,80297c <_fclose_r+0x60>
  80296c:	81400717 	ldw	r5,28(r16)
  802970:	8809883a 	mov	r4,r17
  802974:	103ee83a 	callr	r2
  802978:	10002a16 	blt	r2,zero,802a24 <_fclose_r+0x108>
  80297c:	8080030b 	ldhu	r2,12(r16)
  802980:	1080200c 	andi	r2,r2,128
  802984:	1000231e 	bne	r2,zero,802a14 <_fclose_r+0xf8>
  802988:	81400c17 	ldw	r5,48(r16)
  80298c:	28000526 	beq	r5,zero,8029a4 <_fclose_r+0x88>
  802990:	80801004 	addi	r2,r16,64
  802994:	28800226 	beq	r5,r2,8029a0 <_fclose_r+0x84>
  802998:	8809883a 	mov	r4,r17
  80299c:	08020280 	call	802028 <_free_r>
  8029a0:	80000c15 	stw	zero,48(r16)
  8029a4:	81401117 	ldw	r5,68(r16)
  8029a8:	28000326 	beq	r5,zero,8029b8 <_fclose_r+0x9c>
  8029ac:	8809883a 	mov	r4,r17
  8029b0:	08020280 	call	802028 <_free_r>
  8029b4:	80001115 	stw	zero,68(r16)
  8029b8:	8000030d 	sth	zero,12(r16)
  8029bc:	0801c640 	call	801c64 <__sfp_lock_release>
  8029c0:	9005883a 	mov	r2,r18
  8029c4:	dfc00317 	ldw	ra,12(sp)
  8029c8:	dc800217 	ldw	r18,8(sp)
  8029cc:	dc400117 	ldw	r17,4(sp)
  8029d0:	dc000017 	ldw	r16,0(sp)
  8029d4:	dec00404 	addi	sp,sp,16
  8029d8:	f800283a 	ret
  8029dc:	0801c640 	call	801c64 <__sfp_lock_release>
  8029e0:	0025883a 	mov	r18,zero
  8029e4:	9005883a 	mov	r2,r18
  8029e8:	dfc00317 	ldw	ra,12(sp)
  8029ec:	dc800217 	ldw	r18,8(sp)
  8029f0:	dc400117 	ldw	r17,4(sp)
  8029f4:	dc000017 	ldw	r16,0(sp)
  8029f8:	dec00404 	addi	sp,sp,16
  8029fc:	f800283a 	ret
  802a00:	8809883a 	mov	r4,r17
  802a04:	0801c700 	call	801c70 <__sinit>
  802a08:	8080030f 	ldh	r2,12(r16)
  802a0c:	103fd11e 	bne	r2,zero,802954 <_fclose_r+0x38>
  802a10:	003ff206 	br	8029dc <_fclose_r+0xc0>
  802a14:	81400417 	ldw	r5,16(r16)
  802a18:	8809883a 	mov	r4,r17
  802a1c:	08020280 	call	802028 <_free_r>
  802a20:	003fd906 	br	802988 <_fclose_r+0x6c>
  802a24:	04bfffc4 	movi	r18,-1
  802a28:	003fd406 	br	80297c <_fclose_r+0x60>

00802a2c <fclose>:
  802a2c:	00802074 	movhi	r2,129
  802a30:	10898b04 	addi	r2,r2,9772
  802a34:	200b883a 	mov	r5,r4
  802a38:	11000017 	ldw	r4,0(r2)
  802a3c:	080291c1 	jmpi	80291c <_fclose_r>

00802a40 <_fstat_r>:
  802a40:	defffd04 	addi	sp,sp,-12
  802a44:	dc000015 	stw	r16,0(sp)
  802a48:	04002074 	movhi	r16,129
  802a4c:	84103904 	addi	r16,r16,16612
  802a50:	dc400115 	stw	r17,4(sp)
  802a54:	80000015 	stw	zero,0(r16)
  802a58:	2023883a 	mov	r17,r4
  802a5c:	2809883a 	mov	r4,r5
  802a60:	300b883a 	mov	r5,r6
  802a64:	dfc00215 	stw	ra,8(sp)
  802a68:	08066f80 	call	8066f8 <fstat>
  802a6c:	1007883a 	mov	r3,r2
  802a70:	00bfffc4 	movi	r2,-1
  802a74:	18800626 	beq	r3,r2,802a90 <_fstat_r+0x50>
  802a78:	1805883a 	mov	r2,r3
  802a7c:	dfc00217 	ldw	ra,8(sp)
  802a80:	dc400117 	ldw	r17,4(sp)
  802a84:	dc000017 	ldw	r16,0(sp)
  802a88:	dec00304 	addi	sp,sp,12
  802a8c:	f800283a 	ret
  802a90:	80800017 	ldw	r2,0(r16)
  802a94:	103ff826 	beq	r2,zero,802a78 <_fstat_r+0x38>
  802a98:	88800015 	stw	r2,0(r17)
  802a9c:	1805883a 	mov	r2,r3
  802aa0:	dfc00217 	ldw	ra,8(sp)
  802aa4:	dc400117 	ldw	r17,4(sp)
  802aa8:	dc000017 	ldw	r16,0(sp)
  802aac:	dec00304 	addi	sp,sp,12
  802ab0:	f800283a 	ret

00802ab4 <_isatty_r>:
  802ab4:	defffd04 	addi	sp,sp,-12
  802ab8:	dc000015 	stw	r16,0(sp)
  802abc:	04002074 	movhi	r16,129
  802ac0:	84103904 	addi	r16,r16,16612
  802ac4:	dc400115 	stw	r17,4(sp)
  802ac8:	80000015 	stw	zero,0(r16)
  802acc:	2023883a 	mov	r17,r4
  802ad0:	2809883a 	mov	r4,r5
  802ad4:	dfc00215 	stw	ra,8(sp)
  802ad8:	08069800 	call	806980 <isatty>
  802adc:	1007883a 	mov	r3,r2
  802ae0:	00bfffc4 	movi	r2,-1
  802ae4:	18800626 	beq	r3,r2,802b00 <_isatty_r+0x4c>
  802ae8:	1805883a 	mov	r2,r3
  802aec:	dfc00217 	ldw	ra,8(sp)
  802af0:	dc400117 	ldw	r17,4(sp)
  802af4:	dc000017 	ldw	r16,0(sp)
  802af8:	dec00304 	addi	sp,sp,12
  802afc:	f800283a 	ret
  802b00:	80800017 	ldw	r2,0(r16)
  802b04:	103ff826 	beq	r2,zero,802ae8 <_isatty_r+0x34>
  802b08:	88800015 	stw	r2,0(r17)
  802b0c:	1805883a 	mov	r2,r3
  802b10:	dfc00217 	ldw	ra,8(sp)
  802b14:	dc400117 	ldw	r17,4(sp)
  802b18:	dc000017 	ldw	r16,0(sp)
  802b1c:	dec00304 	addi	sp,sp,12
  802b20:	f800283a 	ret

00802b24 <_lseek_r>:
  802b24:	defffd04 	addi	sp,sp,-12
  802b28:	dc000015 	stw	r16,0(sp)
  802b2c:	04002074 	movhi	r16,129
  802b30:	84103904 	addi	r16,r16,16612
  802b34:	dc400115 	stw	r17,4(sp)
  802b38:	80000015 	stw	zero,0(r16)
  802b3c:	2023883a 	mov	r17,r4
  802b40:	2809883a 	mov	r4,r5
  802b44:	300b883a 	mov	r5,r6
  802b48:	380d883a 	mov	r6,r7
  802b4c:	dfc00215 	stw	ra,8(sp)
  802b50:	0806b900 	call	806b90 <lseek>
  802b54:	1007883a 	mov	r3,r2
  802b58:	00bfffc4 	movi	r2,-1
  802b5c:	18800626 	beq	r3,r2,802b78 <_lseek_r+0x54>
  802b60:	1805883a 	mov	r2,r3
  802b64:	dfc00217 	ldw	ra,8(sp)
  802b68:	dc400117 	ldw	r17,4(sp)
  802b6c:	dc000017 	ldw	r16,0(sp)
  802b70:	dec00304 	addi	sp,sp,12
  802b74:	f800283a 	ret
  802b78:	80800017 	ldw	r2,0(r16)
  802b7c:	103ff826 	beq	r2,zero,802b60 <_lseek_r+0x3c>
  802b80:	88800015 	stw	r2,0(r17)
  802b84:	1805883a 	mov	r2,r3
  802b88:	dfc00217 	ldw	ra,8(sp)
  802b8c:	dc400117 	ldw	r17,4(sp)
  802b90:	dc000017 	ldw	r16,0(sp)
  802b94:	dec00304 	addi	sp,sp,12
  802b98:	f800283a 	ret

00802b9c <_read_r>:
  802b9c:	defffd04 	addi	sp,sp,-12
  802ba0:	dc000015 	stw	r16,0(sp)
  802ba4:	04002074 	movhi	r16,129
  802ba8:	84103904 	addi	r16,r16,16612
  802bac:	dc400115 	stw	r17,4(sp)
  802bb0:	80000015 	stw	zero,0(r16)
  802bb4:	2023883a 	mov	r17,r4
  802bb8:	2809883a 	mov	r4,r5
  802bbc:	300b883a 	mov	r5,r6
  802bc0:	380d883a 	mov	r6,r7
  802bc4:	dfc00215 	stw	ra,8(sp)
  802bc8:	0806fc80 	call	806fc8 <read>
  802bcc:	1007883a 	mov	r3,r2
  802bd0:	00bfffc4 	movi	r2,-1
  802bd4:	18800626 	beq	r3,r2,802bf0 <_read_r+0x54>
  802bd8:	1805883a 	mov	r2,r3
  802bdc:	dfc00217 	ldw	ra,8(sp)
  802be0:	dc400117 	ldw	r17,4(sp)
  802be4:	dc000017 	ldw	r16,0(sp)
  802be8:	dec00304 	addi	sp,sp,12
  802bec:	f800283a 	ret
  802bf0:	80800017 	ldw	r2,0(r16)
  802bf4:	103ff826 	beq	r2,zero,802bd8 <_read_r+0x3c>
  802bf8:	88800015 	stw	r2,0(r17)
  802bfc:	1805883a 	mov	r2,r3
  802c00:	dfc00217 	ldw	ra,8(sp)
  802c04:	dc400117 	ldw	r17,4(sp)
  802c08:	dc000017 	ldw	r16,0(sp)
  802c0c:	dec00304 	addi	sp,sp,12
  802c10:	f800283a 	ret

00802c14 <__mulsi3>:
  802c14:	20000a26 	beq	r4,zero,802c40 <__mulsi3+0x2c>
  802c18:	0007883a 	mov	r3,zero
  802c1c:	2080004c 	andi	r2,r4,1
  802c20:	1005003a 	cmpeq	r2,r2,zero
  802c24:	2008d07a 	srli	r4,r4,1
  802c28:	1000011e 	bne	r2,zero,802c30 <__mulsi3+0x1c>
  802c2c:	1947883a 	add	r3,r3,r5
  802c30:	294b883a 	add	r5,r5,r5
  802c34:	203ff91e 	bne	r4,zero,802c1c <__mulsi3+0x8>
  802c38:	1805883a 	mov	r2,r3
  802c3c:	f800283a 	ret
  802c40:	0007883a 	mov	r3,zero
  802c44:	1805883a 	mov	r2,r3
  802c48:	f800283a 	ret

00802c4c <pre_constructors>:
  802c4c:	deffff04 	addi	sp,sp,-4
  802c50:	df000015 	stw	fp,0(sp)
  802c54:	d839883a 	mov	fp,sp
  802c58:	e037883a 	mov	sp,fp
  802c5c:	df000017 	ldw	fp,0(sp)
  802c60:	dec00104 	addi	sp,sp,4
  802c64:	f800283a 	ret

00802c68 <post_constructors>:
  802c68:	deffff04 	addi	sp,sp,-4
  802c6c:	df000015 	stw	fp,0(sp)
  802c70:	d839883a 	mov	fp,sp
  802c74:	e037883a 	mov	sp,fp
  802c78:	df000017 	ldw	fp,0(sp)
  802c7c:	dec00104 	addi	sp,sp,4
  802c80:	f800283a 	ret

00802c84 <alt_main>:
  802c84:	defffa04 	addi	sp,sp,-24
  802c88:	dfc00515 	stw	ra,20(sp)
  802c8c:	df000415 	stw	fp,16(sp)
  802c90:	df000404 	addi	fp,sp,16
  802c94:	0009883a 	mov	r4,zero
  802c98:	08074040 	call	807404 <alt_irq_init>
  802c9c:	01000104 	movi	r4,4
  802ca0:	08030080 	call	803008 <xQueueCreateMutex>
  802ca4:	1007883a 	mov	r3,r2
  802ca8:	00802074 	movhi	r2,129
  802cac:	10903d04 	addi	r2,r2,16628
  802cb0:	10c00015 	stw	r3,0(r2)
  802cb4:	01000104 	movi	r4,4
  802cb8:	08030080 	call	803008 <xQueueCreateMutex>
  802cbc:	1007883a 	mov	r3,r2
  802cc0:	00802074 	movhi	r2,129
  802cc4:	10905104 	addi	r2,r2,16708
  802cc8:	10c00015 	stw	r3,0(r2)
  802ccc:	00802074 	movhi	r2,129
  802cd0:	10905004 	addi	r2,r2,16704
  802cd4:	e0bffc15 	stw	r2,-16(fp)
  802cd8:	00800044 	movi	r2,1
  802cdc:	e0bffd0d 	sth	r2,-12(fp)
  802ce0:	e0bffd0b 	ldhu	r2,-12(fp)
  802ce4:	1005003a 	cmpeq	r2,r2,zero
  802ce8:	1000031e 	bne	r2,zero,802cf8 <alt_main+0x74>
  802cec:	e0bffd0b 	ldhu	r2,-12(fp)
  802cf0:	e0bfff15 	stw	r2,-4(fp)
  802cf4:	00000206 	br	802d00 <alt_main+0x7c>
  802cf8:	00800044 	movi	r2,1
  802cfc:	e0bfff15 	stw	r2,-4(fp)
  802d00:	e17ffd0b 	ldhu	r5,-12(fp)
  802d04:	e13fff17 	ldw	r4,-4(fp)
  802d08:	08032040 	call	803204 <xQueueCreateCountingSemaphore>
  802d0c:	1007883a 	mov	r3,r2
  802d10:	e0bffc17 	ldw	r2,-16(fp)
  802d14:	10c00015 	stw	r3,0(r2)
  802d18:	08074380 	call	807438 <alt_sys_init>
  802d1c:	01002074 	movhi	r4,129
  802d20:	21022c04 	addi	r4,r4,2224
  802d24:	01402074 	movhi	r5,129
  802d28:	29422c04 	addi	r5,r5,2224
  802d2c:	01802074 	movhi	r6,129
  802d30:	31822c04 	addi	r6,r6,2224
  802d34:	08069080 	call	806908 <alt_io_redirect>
  802d38:	0802c4c0 	call	802c4c <pre_constructors>
  802d3c:	08066300 	call	806630 <_do_ctors>
  802d40:	0802c680 	call	802c68 <post_constructors>
  802d44:	01002034 	movhi	r4,128
  802d48:	2119a504 	addi	r4,r4,26260
  802d4c:	08090c40 	call	8090c4 <atexit>
  802d50:	d126af17 	ldw	r4,-25924(gp)
  802d54:	d166b017 	ldw	r5,-25920(gp)
  802d58:	d1a6b117 	ldw	r6,-25916(gp)
  802d5c:	08002b00 	call	8002b0 <main>
  802d60:	e0bffe15 	stw	r2,-8(fp)
  802d64:	01000044 	movi	r4,1
  802d68:	08064a40 	call	8064a4 <close>
  802d6c:	e13ffe17 	ldw	r4,-8(fp)
  802d70:	08090e80 	call	8090e8 <exit>

00802d74 <__malloc_lock>:
  802d74:	defffd04 	addi	sp,sp,-12
  802d78:	dfc00215 	stw	ra,8(sp)
  802d7c:	df000115 	stw	fp,4(sp)
  802d80:	df000104 	addi	fp,sp,4
  802d84:	e13fff15 	stw	r4,-4(fp)
  802d88:	08059140 	call	805914 <xTaskGetSchedulerState>
  802d8c:	1005003a 	cmpeq	r2,r2,zero
  802d90:	1000081e 	bne	r2,zero,802db4 <__malloc_lock+0x40>
  802d94:	00000206 	br	802da0 <__malloc_lock+0x2c>
  802d98:	01000044 	movi	r4,1
  802d9c:	08042800 	call	804280 <vTaskDelay>
  802da0:	d126b217 	ldw	r4,-25912(gp)
  802da4:	01400284 	movi	r5,10
  802da8:	08031640 	call	803164 <xQueueTakeMutexRecursive>
  802dac:	10800058 	cmpnei	r2,r2,1
  802db0:	103ff91e 	bne	r2,zero,802d98 <__malloc_lock+0x24>
  802db4:	e037883a 	mov	sp,fp
  802db8:	dfc00117 	ldw	ra,4(sp)
  802dbc:	df000017 	ldw	fp,0(sp)
  802dc0:	dec00204 	addi	sp,sp,8
  802dc4:	f800283a 	ret

00802dc8 <__malloc_unlock>:
  802dc8:	defffd04 	addi	sp,sp,-12
  802dcc:	dfc00215 	stw	ra,8(sp)
  802dd0:	df000115 	stw	fp,4(sp)
  802dd4:	df000104 	addi	fp,sp,4
  802dd8:	e13fff15 	stw	r4,-4(fp)
  802ddc:	08059140 	call	805914 <xTaskGetSchedulerState>
  802de0:	1005003a 	cmpeq	r2,r2,zero
  802de4:	1000021e 	bne	r2,zero,802df0 <__malloc_unlock+0x28>
  802de8:	d126b217 	ldw	r4,-25912(gp)
  802dec:	08030d80 	call	8030d8 <xQueueGiveMutexRecursive>
  802df0:	e037883a 	mov	sp,fp
  802df4:	dfc00117 	ldw	ra,4(sp)
  802df8:	df000017 	ldw	fp,0(sp)
  802dfc:	dec00204 	addi	sp,sp,8
  802e00:	f800283a 	ret

00802e04 <xQueueGenericReset>:
  802e04:	defffb04 	addi	sp,sp,-20
  802e08:	dfc00415 	stw	ra,16(sp)
  802e0c:	df000315 	stw	fp,12(sp)
  802e10:	dc000215 	stw	r16,8(sp)
  802e14:	df000204 	addi	fp,sp,8
  802e18:	e13ffe15 	stw	r4,-8(fp)
  802e1c:	e17fff15 	stw	r5,-4(fp)
  802e20:	08059140 	call	805914 <xTaskGetSchedulerState>
  802e24:	1005003a 	cmpeq	r2,r2,zero
  802e28:	1000011e 	bne	r2,zero,802e30 <xQueueGenericReset+0x2c>
  802e2c:	0805b480 	call	805b48 <vTaskEnterCritical>
  802e30:	e0bffe17 	ldw	r2,-8(fp)
  802e34:	14000017 	ldw	r16,0(r2)
  802e38:	e0bffe17 	ldw	r2,-8(fp)
  802e3c:	11000f17 	ldw	r4,60(r2)
  802e40:	e0bffe17 	ldw	r2,-8(fp)
  802e44:	11401017 	ldw	r5,64(r2)
  802e48:	0802c140 	call	802c14 <__mulsi3>
  802e4c:	8087883a 	add	r3,r16,r2
  802e50:	e0bffe17 	ldw	r2,-8(fp)
  802e54:	10c00115 	stw	r3,4(r2)
  802e58:	e0bffe17 	ldw	r2,-8(fp)
  802e5c:	10000e15 	stw	zero,56(r2)
  802e60:	e0bffe17 	ldw	r2,-8(fp)
  802e64:	10c00017 	ldw	r3,0(r2)
  802e68:	e0bffe17 	ldw	r2,-8(fp)
  802e6c:	10c00215 	stw	r3,8(r2)
  802e70:	e0bffe17 	ldw	r2,-8(fp)
  802e74:	14000017 	ldw	r16,0(r2)
  802e78:	e0bffe17 	ldw	r2,-8(fp)
  802e7c:	10800f17 	ldw	r2,60(r2)
  802e80:	113fffc4 	addi	r4,r2,-1
  802e84:	e0bffe17 	ldw	r2,-8(fp)
  802e88:	11401017 	ldw	r5,64(r2)
  802e8c:	0802c140 	call	802c14 <__mulsi3>
  802e90:	8087883a 	add	r3,r16,r2
  802e94:	e0bffe17 	ldw	r2,-8(fp)
  802e98:	10c00315 	stw	r3,12(r2)
  802e9c:	e0fffe17 	ldw	r3,-8(fp)
  802ea0:	00bfffc4 	movi	r2,-1
  802ea4:	18801115 	stw	r2,68(r3)
  802ea8:	e0fffe17 	ldw	r3,-8(fp)
  802eac:	00bfffc4 	movi	r2,-1
  802eb0:	18801215 	stw	r2,72(r3)
  802eb4:	e0bfff17 	ldw	r2,-4(fp)
  802eb8:	1004c03a 	cmpne	r2,r2,zero
  802ebc:	10000b1e 	bne	r2,zero,802eec <xQueueGenericReset+0xe8>
  802ec0:	e0bffe17 	ldw	r2,-8(fp)
  802ec4:	10800417 	ldw	r2,16(r2)
  802ec8:	1005003a 	cmpeq	r2,r2,zero
  802ecc:	10000d1e 	bne	r2,zero,802f04 <xQueueGenericReset+0x100>
  802ed0:	e0bffe17 	ldw	r2,-8(fp)
  802ed4:	11000404 	addi	r4,r2,16
  802ed8:	08050380 	call	805038 <xTaskRemoveFromEventList>
  802edc:	10800058 	cmpnei	r2,r2,1
  802ee0:	1000081e 	bne	r2,zero,802f04 <xQueueGenericReset+0x100>
  802ee4:	003b683a 	trap	0
  802ee8:	00000606 	br	802f04 <xQueueGenericReset+0x100>
  802eec:	e0bffe17 	ldw	r2,-8(fp)
  802ef0:	11000404 	addi	r4,r2,16
  802ef4:	080829c0 	call	80829c <vListInitialise>
  802ef8:	e0bffe17 	ldw	r2,-8(fp)
  802efc:	11000904 	addi	r4,r2,36
  802f00:	080829c0 	call	80829c <vListInitialise>
  802f04:	08059140 	call	805914 <xTaskGetSchedulerState>
  802f08:	1005003a 	cmpeq	r2,r2,zero
  802f0c:	1000011e 	bne	r2,zero,802f14 <xQueueGenericReset+0x110>
  802f10:	0805b980 	call	805b98 <vTaskExitCritical>
  802f14:	00800044 	movi	r2,1
  802f18:	e037883a 	mov	sp,fp
  802f1c:	dfc00217 	ldw	ra,8(sp)
  802f20:	df000117 	ldw	fp,4(sp)
  802f24:	dc000017 	ldw	r16,0(sp)
  802f28:	dec00304 	addi	sp,sp,12
  802f2c:	f800283a 	ret

00802f30 <xQueueGenericCreate>:
  802f30:	defff804 	addi	sp,sp,-32
  802f34:	dfc00715 	stw	ra,28(sp)
  802f38:	df000615 	stw	fp,24(sp)
  802f3c:	df000604 	addi	fp,sp,24
  802f40:	e13ffd15 	stw	r4,-12(fp)
  802f44:	e17ffe15 	stw	r5,-8(fp)
  802f48:	e1bfff05 	stb	r6,-4(fp)
  802f4c:	e03ffa15 	stw	zero,-24(fp)
  802f50:	e0bffd17 	ldw	r2,-12(fp)
  802f54:	1005003a 	cmpeq	r2,r2,zero
  802f58:	1000251e 	bne	r2,zero,802ff0 <xQueueGenericCreate+0xc0>
  802f5c:	01001404 	movi	r4,80
  802f60:	08082180 	call	808218 <pvPortMalloc>
  802f64:	e0bffc15 	stw	r2,-16(fp)
  802f68:	e0bffc17 	ldw	r2,-16(fp)
  802f6c:	1005003a 	cmpeq	r2,r2,zero
  802f70:	10001f1e 	bne	r2,zero,802ff0 <xQueueGenericCreate+0xc0>
  802f74:	e13ffd17 	ldw	r4,-12(fp)
  802f78:	e17ffe17 	ldw	r5,-8(fp)
  802f7c:	0802c140 	call	802c14 <__mulsi3>
  802f80:	10800044 	addi	r2,r2,1
  802f84:	e0bffb15 	stw	r2,-20(fp)
  802f88:	e13ffb17 	ldw	r4,-20(fp)
  802f8c:	08082180 	call	808218 <pvPortMalloc>
  802f90:	1007883a 	mov	r3,r2
  802f94:	e0bffc17 	ldw	r2,-16(fp)
  802f98:	10c00015 	stw	r3,0(r2)
  802f9c:	e0bffc17 	ldw	r2,-16(fp)
  802fa0:	10800017 	ldw	r2,0(r2)
  802fa4:	1005003a 	cmpeq	r2,r2,zero
  802fa8:	10000f1e 	bne	r2,zero,802fe8 <xQueueGenericCreate+0xb8>
  802fac:	e0fffc17 	ldw	r3,-16(fp)
  802fb0:	e0bffd17 	ldw	r2,-12(fp)
  802fb4:	18800f15 	stw	r2,60(r3)
  802fb8:	e0fffc17 	ldw	r3,-16(fp)
  802fbc:	e0bffe17 	ldw	r2,-8(fp)
  802fc0:	18801015 	stw	r2,64(r3)
  802fc4:	e13ffc17 	ldw	r4,-16(fp)
  802fc8:	01400044 	movi	r5,1
  802fcc:	0802e040 	call	802e04 <xQueueGenericReset>
  802fd0:	e0fffc17 	ldw	r3,-16(fp)
  802fd4:	e0bfff03 	ldbu	r2,-4(fp)
  802fd8:	18801345 	stb	r2,77(r3)
  802fdc:	e0bffc17 	ldw	r2,-16(fp)
  802fe0:	e0bffa15 	stw	r2,-24(fp)
  802fe4:	00000206 	br	802ff0 <xQueueGenericCreate+0xc0>
  802fe8:	e13ffc17 	ldw	r4,-16(fp)
  802fec:	08082580 	call	808258 <vPortFree>
  802ff0:	e0bffa17 	ldw	r2,-24(fp)
  802ff4:	e037883a 	mov	sp,fp
  802ff8:	dfc00117 	ldw	ra,4(sp)
  802ffc:	df000017 	ldw	fp,0(sp)
  803000:	dec00204 	addi	sp,sp,8
  803004:	f800283a 	ret

00803008 <xQueueCreateMutex>:
  803008:	defffc04 	addi	sp,sp,-16
  80300c:	dfc00315 	stw	ra,12(sp)
  803010:	df000215 	stw	fp,8(sp)
  803014:	df000204 	addi	fp,sp,8
  803018:	e13fff05 	stb	r4,-4(fp)
  80301c:	01001404 	movi	r4,80
  803020:	08082180 	call	808218 <pvPortMalloc>
  803024:	e0bffe15 	stw	r2,-8(fp)
  803028:	e0bffe17 	ldw	r2,-8(fp)
  80302c:	1005003a 	cmpeq	r2,r2,zero
  803030:	1000231e 	bne	r2,zero,8030c0 <xQueueCreateMutex+0xb8>
  803034:	e0bffe17 	ldw	r2,-8(fp)
  803038:	10000115 	stw	zero,4(r2)
  80303c:	e0bffe17 	ldw	r2,-8(fp)
  803040:	10000015 	stw	zero,0(r2)
  803044:	e0bffe17 	ldw	r2,-8(fp)
  803048:	10000215 	stw	zero,8(r2)
  80304c:	e0bffe17 	ldw	r2,-8(fp)
  803050:	10000315 	stw	zero,12(r2)
  803054:	e0bffe17 	ldw	r2,-8(fp)
  803058:	10000e15 	stw	zero,56(r2)
  80305c:	e0fffe17 	ldw	r3,-8(fp)
  803060:	00800044 	movi	r2,1
  803064:	18800f15 	stw	r2,60(r3)
  803068:	e0bffe17 	ldw	r2,-8(fp)
  80306c:	10001015 	stw	zero,64(r2)
  803070:	e0fffe17 	ldw	r3,-8(fp)
  803074:	00bfffc4 	movi	r2,-1
  803078:	18801115 	stw	r2,68(r3)
  80307c:	e0fffe17 	ldw	r3,-8(fp)
  803080:	00bfffc4 	movi	r2,-1
  803084:	18801215 	stw	r2,72(r3)
  803088:	e0fffe17 	ldw	r3,-8(fp)
  80308c:	e0bfff03 	ldbu	r2,-4(fp)
  803090:	18801345 	stb	r2,77(r3)
  803094:	e0bffe17 	ldw	r2,-8(fp)
  803098:	11000404 	addi	r4,r2,16
  80309c:	080829c0 	call	80829c <vListInitialise>
  8030a0:	e0bffe17 	ldw	r2,-8(fp)
  8030a4:	11000904 	addi	r4,r2,36
  8030a8:	080829c0 	call	80829c <vListInitialise>
  8030ac:	e13ffe17 	ldw	r4,-8(fp)
  8030b0:	000b883a 	mov	r5,zero
  8030b4:	000d883a 	mov	r6,zero
  8030b8:	000f883a 	mov	r7,zero
  8030bc:	08032600 	call	803260 <xQueueGenericSend>
  8030c0:	e0bffe17 	ldw	r2,-8(fp)
  8030c4:	e037883a 	mov	sp,fp
  8030c8:	dfc00117 	ldw	ra,4(sp)
  8030cc:	df000017 	ldw	fp,0(sp)
  8030d0:	dec00204 	addi	sp,sp,8
  8030d4:	f800283a 	ret

008030d8 <xQueueGiveMutexRecursive>:
  8030d8:	defffb04 	addi	sp,sp,-20
  8030dc:	dfc00415 	stw	ra,16(sp)
  8030e0:	df000315 	stw	fp,12(sp)
  8030e4:	dc000215 	stw	r16,8(sp)
  8030e8:	df000204 	addi	fp,sp,8
  8030ec:	e13fff15 	stw	r4,-4(fp)
  8030f0:	e0bfff17 	ldw	r2,-4(fp)
  8030f4:	14000117 	ldw	r16,4(r2)
  8030f8:	08058ec0 	call	8058ec <xTaskGetCurrentTaskHandle>
  8030fc:	8080111e 	bne	r16,r2,803144 <xQueueGiveMutexRecursive+0x6c>
  803100:	e0bfff17 	ldw	r2,-4(fp)
  803104:	10800317 	ldw	r2,12(r2)
  803108:	10ffffc4 	addi	r3,r2,-1
  80310c:	e0bfff17 	ldw	r2,-4(fp)
  803110:	10c00315 	stw	r3,12(r2)
  803114:	e0bfff17 	ldw	r2,-4(fp)
  803118:	10800317 	ldw	r2,12(r2)
  80311c:	1004c03a 	cmpne	r2,r2,zero
  803120:	1000051e 	bne	r2,zero,803138 <xQueueGiveMutexRecursive+0x60>
  803124:	e13fff17 	ldw	r4,-4(fp)
  803128:	000b883a 	mov	r5,zero
  80312c:	000d883a 	mov	r6,zero
  803130:	000f883a 	mov	r7,zero
  803134:	08032600 	call	803260 <xQueueGenericSend>
  803138:	00800044 	movi	r2,1
  80313c:	e0bffe15 	stw	r2,-8(fp)
  803140:	00000106 	br	803148 <xQueueGiveMutexRecursive+0x70>
  803144:	e03ffe15 	stw	zero,-8(fp)
  803148:	e0bffe17 	ldw	r2,-8(fp)
  80314c:	e037883a 	mov	sp,fp
  803150:	dfc00217 	ldw	ra,8(sp)
  803154:	df000117 	ldw	fp,4(sp)
  803158:	dc000017 	ldw	r16,0(sp)
  80315c:	dec00304 	addi	sp,sp,12
  803160:	f800283a 	ret

00803164 <xQueueTakeMutexRecursive>:
  803164:	defffa04 	addi	sp,sp,-24
  803168:	dfc00515 	stw	ra,20(sp)
  80316c:	df000415 	stw	fp,16(sp)
  803170:	dc000315 	stw	r16,12(sp)
  803174:	df000304 	addi	fp,sp,12
  803178:	e13ffe15 	stw	r4,-8(fp)
  80317c:	e17fff15 	stw	r5,-4(fp)
  803180:	e0bffe17 	ldw	r2,-8(fp)
  803184:	14000117 	ldw	r16,4(r2)
  803188:	08058ec0 	call	8058ec <xTaskGetCurrentTaskHandle>
  80318c:	8080081e 	bne	r16,r2,8031b0 <xQueueTakeMutexRecursive+0x4c>
  803190:	e0bffe17 	ldw	r2,-8(fp)
  803194:	10800317 	ldw	r2,12(r2)
  803198:	10c00044 	addi	r3,r2,1
  80319c:	e0bffe17 	ldw	r2,-8(fp)
  8031a0:	10c00315 	stw	r3,12(r2)
  8031a4:	00800044 	movi	r2,1
  8031a8:	e0bffd15 	stw	r2,-12(fp)
  8031ac:	00000e06 	br	8031e8 <xQueueTakeMutexRecursive+0x84>
  8031b0:	e13ffe17 	ldw	r4,-8(fp)
  8031b4:	000b883a 	mov	r5,zero
  8031b8:	e1bfff17 	ldw	r6,-4(fp)
  8031bc:	000f883a 	mov	r7,zero
  8031c0:	08035000 	call	803500 <xQueueGenericReceive>
  8031c4:	e0bffd15 	stw	r2,-12(fp)
  8031c8:	e0bffd17 	ldw	r2,-12(fp)
  8031cc:	10800058 	cmpnei	r2,r2,1
  8031d0:	1000051e 	bne	r2,zero,8031e8 <xQueueTakeMutexRecursive+0x84>
  8031d4:	e0bffe17 	ldw	r2,-8(fp)
  8031d8:	10800317 	ldw	r2,12(r2)
  8031dc:	10c00044 	addi	r3,r2,1
  8031e0:	e0bffe17 	ldw	r2,-8(fp)
  8031e4:	10c00315 	stw	r3,12(r2)
  8031e8:	e0bffd17 	ldw	r2,-12(fp)
  8031ec:	e037883a 	mov	sp,fp
  8031f0:	dfc00217 	ldw	ra,8(sp)
  8031f4:	df000117 	ldw	fp,4(sp)
  8031f8:	dc000017 	ldw	r16,0(sp)
  8031fc:	dec00304 	addi	sp,sp,12
  803200:	f800283a 	ret

00803204 <xQueueCreateCountingSemaphore>:
  803204:	defffb04 	addi	sp,sp,-20
  803208:	dfc00415 	stw	ra,16(sp)
  80320c:	df000315 	stw	fp,12(sp)
  803210:	df000304 	addi	fp,sp,12
  803214:	e13ffe15 	stw	r4,-8(fp)
  803218:	e17fff15 	stw	r5,-4(fp)
  80321c:	e13ffe17 	ldw	r4,-8(fp)
  803220:	000b883a 	mov	r5,zero
  803224:	01800084 	movi	r6,2
  803228:	0802f300 	call	802f30 <xQueueGenericCreate>
  80322c:	e0bffd15 	stw	r2,-12(fp)
  803230:	e0bffd17 	ldw	r2,-12(fp)
  803234:	1005003a 	cmpeq	r2,r2,zero
  803238:	1000031e 	bne	r2,zero,803248 <xQueueCreateCountingSemaphore+0x44>
  80323c:	e0fffd17 	ldw	r3,-12(fp)
  803240:	e0bfff17 	ldw	r2,-4(fp)
  803244:	18800e15 	stw	r2,56(r3)
  803248:	e0bffd17 	ldw	r2,-12(fp)
  80324c:	e037883a 	mov	sp,fp
  803250:	dfc00117 	ldw	ra,4(sp)
  803254:	df000017 	ldw	fp,0(sp)
  803258:	dec00204 	addi	sp,sp,8
  80325c:	f800283a 	ret

00803260 <xQueueGenericSend>:
  803260:	defff604 	addi	sp,sp,-40
  803264:	dfc00915 	stw	ra,36(sp)
  803268:	df000815 	stw	fp,32(sp)
  80326c:	df000804 	addi	fp,sp,32
  803270:	e13ffb15 	stw	r4,-20(fp)
  803274:	e17ffc15 	stw	r5,-16(fp)
  803278:	e1bffd15 	stw	r6,-12(fp)
  80327c:	e1fffe15 	stw	r7,-8(fp)
  803280:	e03ff815 	stw	zero,-32(fp)
  803284:	00000006 	br	803288 <xQueueGenericSend+0x28>
  803288:	08059140 	call	805914 <xTaskGetSchedulerState>
  80328c:	1005003a 	cmpeq	r2,r2,zero
  803290:	1000011e 	bne	r2,zero,803298 <xQueueGenericSend+0x38>
  803294:	0805b480 	call	805b48 <vTaskEnterCritical>
  803298:	e0bffb17 	ldw	r2,-20(fp)
  80329c:	10c00e17 	ldw	r3,56(r2)
  8032a0:	e0bffb17 	ldw	r2,-20(fp)
  8032a4:	10800f17 	ldw	r2,60(r2)
  8032a8:	1880152e 	bgeu	r3,r2,803300 <xQueueGenericSend+0xa0>
  8032ac:	e13ffb17 	ldw	r4,-20(fp)
  8032b0:	e17ffc17 	ldw	r5,-16(fp)
  8032b4:	e1bffe17 	ldw	r6,-8(fp)
  8032b8:	08039b00 	call	8039b0 <prvCopyDataToQueue>
  8032bc:	e0bffb17 	ldw	r2,-20(fp)
  8032c0:	10800917 	ldw	r2,36(r2)
  8032c4:	1005003a 	cmpeq	r2,r2,zero
  8032c8:	1000061e 	bne	r2,zero,8032e4 <xQueueGenericSend+0x84>
  8032cc:	e0bffb17 	ldw	r2,-20(fp)
  8032d0:	11000904 	addi	r4,r2,36
  8032d4:	08050380 	call	805038 <xTaskRemoveFromEventList>
  8032d8:	10800058 	cmpnei	r2,r2,1
  8032dc:	1000011e 	bne	r2,zero,8032e4 <xQueueGenericSend+0x84>
  8032e0:	003b683a 	trap	0
  8032e4:	08059140 	call	805914 <xTaskGetSchedulerState>
  8032e8:	1005003a 	cmpeq	r2,r2,zero
  8032ec:	1000011e 	bne	r2,zero,8032f4 <xQueueGenericSend+0x94>
  8032f0:	0805b980 	call	805b98 <vTaskExitCritical>
  8032f4:	00800044 	movi	r2,1
  8032f8:	e0bfff15 	stw	r2,-4(fp)
  8032fc:	00004506 	br	803414 <xQueueGenericSend+0x1b4>
  803300:	e0bffd17 	ldw	r2,-12(fp)
  803304:	1004c03a 	cmpne	r2,r2,zero
  803308:	1000061e 	bne	r2,zero,803324 <xQueueGenericSend+0xc4>
  80330c:	08059140 	call	805914 <xTaskGetSchedulerState>
  803310:	1005003a 	cmpeq	r2,r2,zero
  803314:	1000011e 	bne	r2,zero,80331c <xQueueGenericSend+0xbc>
  803318:	0805b980 	call	805b98 <vTaskExitCritical>
  80331c:	e03fff15 	stw	zero,-4(fp)
  803320:	00003c06 	br	803414 <xQueueGenericSend+0x1b4>
  803324:	e0bff817 	ldw	r2,-32(fp)
  803328:	1004c03a 	cmpne	r2,r2,zero
  80332c:	1000041e 	bne	r2,zero,803340 <xQueueGenericSend+0xe0>
  803330:	e13ff904 	addi	r4,fp,-28
  803334:	080511c0 	call	80511c <vTaskSetTimeOutState>
  803338:	00800044 	movi	r2,1
  80333c:	e0bff815 	stw	r2,-32(fp)
  803340:	08059140 	call	805914 <xTaskGetSchedulerState>
  803344:	1005003a 	cmpeq	r2,r2,zero
  803348:	1000011e 	bne	r2,zero,803350 <xQueueGenericSend+0xf0>
  80334c:	0805b980 	call	805b98 <vTaskExitCritical>
  803350:	08049500 	call	804950 <vTaskSuspendAll>
  803354:	08059140 	call	805914 <xTaskGetSchedulerState>
  803358:	1005003a 	cmpeq	r2,r2,zero
  80335c:	1000011e 	bne	r2,zero,803364 <xQueueGenericSend+0x104>
  803360:	0805b480 	call	805b48 <vTaskEnterCritical>
  803364:	e0bffb17 	ldw	r2,-20(fp)
  803368:	10801117 	ldw	r2,68(r2)
  80336c:	10bfffd8 	cmpnei	r2,r2,-1
  803370:	1000021e 	bne	r2,zero,80337c <xQueueGenericSend+0x11c>
  803374:	e0bffb17 	ldw	r2,-20(fp)
  803378:	10001115 	stw	zero,68(r2)
  80337c:	e0bffb17 	ldw	r2,-20(fp)
  803380:	10801217 	ldw	r2,72(r2)
  803384:	10bfffd8 	cmpnei	r2,r2,-1
  803388:	1000021e 	bne	r2,zero,803394 <xQueueGenericSend+0x134>
  80338c:	e0bffb17 	ldw	r2,-20(fp)
  803390:	10001215 	stw	zero,72(r2)
  803394:	08059140 	call	805914 <xTaskGetSchedulerState>
  803398:	1005003a 	cmpeq	r2,r2,zero
  80339c:	1000011e 	bne	r2,zero,8033a4 <xQueueGenericSend+0x144>
  8033a0:	0805b980 	call	805b98 <vTaskExitCritical>
  8033a4:	e13ff904 	addi	r4,fp,-28
  8033a8:	e17ffd04 	addi	r5,fp,-12
  8033ac:	08051540 	call	805154 <xTaskCheckForTimeOut>
  8033b0:	1004c03a 	cmpne	r2,r2,zero
  8033b4:	1000131e 	bne	r2,zero,803404 <xQueueGenericSend+0x1a4>
  8033b8:	e13ffb17 	ldw	r4,-20(fp)
  8033bc:	0803d580 	call	803d58 <prvIsQueueFull>
  8033c0:	1005003a 	cmpeq	r2,r2,zero
  8033c4:	10000b1e 	bne	r2,zero,8033f4 <xQueueGenericSend+0x194>
  8033c8:	e0bffb17 	ldw	r2,-20(fp)
  8033cc:	11000404 	addi	r4,r2,16
  8033d0:	e17ffd17 	ldw	r5,-12(fp)
  8033d4:	0804f540 	call	804f54 <vTaskPlaceOnEventList>
  8033d8:	e13ffb17 	ldw	r4,-20(fp)
  8033dc:	0803ba80 	call	803ba8 <prvUnlockQueue>
  8033e0:	08049780 	call	804978 <xTaskResumeAll>
  8033e4:	1004c03a 	cmpne	r2,r2,zero
  8033e8:	103fa71e 	bne	r2,zero,803288 <xQueueGenericSend+0x28>
  8033ec:	003b683a 	trap	0
  8033f0:	003fa506 	br	803288 <xQueueGenericSend+0x28>
  8033f4:	e13ffb17 	ldw	r4,-20(fp)
  8033f8:	0803ba80 	call	803ba8 <prvUnlockQueue>
  8033fc:	08049780 	call	804978 <xTaskResumeAll>
  803400:	003fa106 	br	803288 <xQueueGenericSend+0x28>
  803404:	e13ffb17 	ldw	r4,-20(fp)
  803408:	0803ba80 	call	803ba8 <prvUnlockQueue>
  80340c:	08049780 	call	804978 <xTaskResumeAll>
  803410:	e03fff15 	stw	zero,-4(fp)
  803414:	e0bfff17 	ldw	r2,-4(fp)
  803418:	e037883a 	mov	sp,fp
  80341c:	dfc00117 	ldw	ra,4(sp)
  803420:	df000017 	ldw	fp,0(sp)
  803424:	dec00204 	addi	sp,sp,8
  803428:	f800283a 	ret

0080342c <xQueueGenericSendFromISR>:
  80342c:	defff804 	addi	sp,sp,-32
  803430:	dfc00715 	stw	ra,28(sp)
  803434:	df000615 	stw	fp,24(sp)
  803438:	df000604 	addi	fp,sp,24
  80343c:	e13ffc15 	stw	r4,-16(fp)
  803440:	e17ffd15 	stw	r5,-12(fp)
  803444:	e1bffe15 	stw	r6,-8(fp)
  803448:	e1ffff15 	stw	r7,-4(fp)
  80344c:	e03ffa15 	stw	zero,-24(fp)
  803450:	e0bffc17 	ldw	r2,-16(fp)
  803454:	10c00e17 	ldw	r3,56(r2)
  803458:	e0bffc17 	ldw	r2,-16(fp)
  80345c:	10800f17 	ldw	r2,60(r2)
  803460:	1880202e 	bgeu	r3,r2,8034e4 <xQueueGenericSendFromISR+0xb8>
  803464:	e13ffc17 	ldw	r4,-16(fp)
  803468:	e17ffd17 	ldw	r5,-12(fp)
  80346c:	e1bfff17 	ldw	r6,-4(fp)
  803470:	08039b00 	call	8039b0 <prvCopyDataToQueue>
  803474:	e0bffc17 	ldw	r2,-16(fp)
  803478:	10801217 	ldw	r2,72(r2)
  80347c:	10bfffd8 	cmpnei	r2,r2,-1
  803480:	1000101e 	bne	r2,zero,8034c4 <xQueueGenericSendFromISR+0x98>
  803484:	e0bffc17 	ldw	r2,-16(fp)
  803488:	10800917 	ldw	r2,36(r2)
  80348c:	1005003a 	cmpeq	r2,r2,zero
  803490:	1000111e 	bne	r2,zero,8034d8 <xQueueGenericSendFromISR+0xac>
  803494:	e0bffc17 	ldw	r2,-16(fp)
  803498:	11000904 	addi	r4,r2,36
  80349c:	08050380 	call	805038 <xTaskRemoveFromEventList>
  8034a0:	1005003a 	cmpeq	r2,r2,zero
  8034a4:	10000c1e 	bne	r2,zero,8034d8 <xQueueGenericSendFromISR+0xac>
  8034a8:	e0bffe17 	ldw	r2,-8(fp)
  8034ac:	1005003a 	cmpeq	r2,r2,zero
  8034b0:	1000091e 	bne	r2,zero,8034d8 <xQueueGenericSendFromISR+0xac>
  8034b4:	e0fffe17 	ldw	r3,-8(fp)
  8034b8:	00800044 	movi	r2,1
  8034bc:	18800015 	stw	r2,0(r3)
  8034c0:	00000506 	br	8034d8 <xQueueGenericSendFromISR+0xac>
  8034c4:	e0bffc17 	ldw	r2,-16(fp)
  8034c8:	10801217 	ldw	r2,72(r2)
  8034cc:	10c00044 	addi	r3,r2,1
  8034d0:	e0bffc17 	ldw	r2,-16(fp)
  8034d4:	10c01215 	stw	r3,72(r2)
  8034d8:	00800044 	movi	r2,1
  8034dc:	e0bffb15 	stw	r2,-20(fp)
  8034e0:	00000106 	br	8034e8 <xQueueGenericSendFromISR+0xbc>
  8034e4:	e03ffb15 	stw	zero,-20(fp)
  8034e8:	e0bffb17 	ldw	r2,-20(fp)
  8034ec:	e037883a 	mov	sp,fp
  8034f0:	dfc00117 	ldw	ra,4(sp)
  8034f4:	df000017 	ldw	fp,0(sp)
  8034f8:	dec00204 	addi	sp,sp,8
  8034fc:	f800283a 	ret

00803500 <xQueueGenericReceive>:
  803500:	defff504 	addi	sp,sp,-44
  803504:	dfc00a15 	stw	ra,40(sp)
  803508:	df000915 	stw	fp,36(sp)
  80350c:	df000904 	addi	fp,sp,36
  803510:	e13ffb15 	stw	r4,-20(fp)
  803514:	e17ffc15 	stw	r5,-16(fp)
  803518:	e1bffd15 	stw	r6,-12(fp)
  80351c:	e1fffe15 	stw	r7,-8(fp)
  803520:	e03ff815 	stw	zero,-32(fp)
  803524:	00000006 	br	803528 <xQueueGenericReceive+0x28>
  803528:	08059140 	call	805914 <xTaskGetSchedulerState>
  80352c:	1005003a 	cmpeq	r2,r2,zero
  803530:	1000011e 	bne	r2,zero,803538 <xQueueGenericReceive+0x38>
  803534:	0805b480 	call	805b48 <vTaskEnterCritical>
  803538:	e0bffb17 	ldw	r2,-20(fp)
  80353c:	10800e17 	ldw	r2,56(r2)
  803540:	1005003a 	cmpeq	r2,r2,zero
  803544:	1000351e 	bne	r2,zero,80361c <xQueueGenericReceive+0x11c>
  803548:	e0bffb17 	ldw	r2,-20(fp)
  80354c:	10800317 	ldw	r2,12(r2)
  803550:	e0bff715 	stw	r2,-36(fp)
  803554:	e13ffb17 	ldw	r4,-20(fp)
  803558:	e17ffc17 	ldw	r5,-16(fp)
  80355c:	0803b0c0 	call	803b0c <prvCopyDataFromQueue>
  803560:	e0bffe17 	ldw	r2,-8(fp)
  803564:	1004c03a 	cmpne	r2,r2,zero
  803568:	1000181e 	bne	r2,zero,8035cc <xQueueGenericReceive+0xcc>
  80356c:	e0bffb17 	ldw	r2,-20(fp)
  803570:	10800e17 	ldw	r2,56(r2)
  803574:	10ffffc4 	addi	r3,r2,-1
  803578:	e0bffb17 	ldw	r2,-20(fp)
  80357c:	10c00e15 	stw	r3,56(r2)
  803580:	e0bffb17 	ldw	r2,-20(fp)
  803584:	10800017 	ldw	r2,0(r2)
  803588:	1004c03a 	cmpne	r2,r2,zero
  80358c:	1000041e 	bne	r2,zero,8035a0 <xQueueGenericReceive+0xa0>
  803590:	08058ec0 	call	8058ec <xTaskGetCurrentTaskHandle>
  803594:	1007883a 	mov	r3,r2
  803598:	e0bffb17 	ldw	r2,-20(fp)
  80359c:	10c00115 	stw	r3,4(r2)
  8035a0:	e0bffb17 	ldw	r2,-20(fp)
  8035a4:	10800417 	ldw	r2,16(r2)
  8035a8:	1005003a 	cmpeq	r2,r2,zero
  8035ac:	1000141e 	bne	r2,zero,803600 <xQueueGenericReceive+0x100>
  8035b0:	e0bffb17 	ldw	r2,-20(fp)
  8035b4:	11000404 	addi	r4,r2,16
  8035b8:	08050380 	call	805038 <xTaskRemoveFromEventList>
  8035bc:	10800058 	cmpnei	r2,r2,1
  8035c0:	10000f1e 	bne	r2,zero,803600 <xQueueGenericReceive+0x100>
  8035c4:	003b683a 	trap	0
  8035c8:	00000d06 	br	803600 <xQueueGenericReceive+0x100>
  8035cc:	e0fffb17 	ldw	r3,-20(fp)
  8035d0:	e0bff717 	ldw	r2,-36(fp)
  8035d4:	18800315 	stw	r2,12(r3)
  8035d8:	e0bffb17 	ldw	r2,-20(fp)
  8035dc:	10800917 	ldw	r2,36(r2)
  8035e0:	1005003a 	cmpeq	r2,r2,zero
  8035e4:	1000061e 	bne	r2,zero,803600 <xQueueGenericReceive+0x100>
  8035e8:	e0bffb17 	ldw	r2,-20(fp)
  8035ec:	11000904 	addi	r4,r2,36
  8035f0:	08050380 	call	805038 <xTaskRemoveFromEventList>
  8035f4:	1005003a 	cmpeq	r2,r2,zero
  8035f8:	1000011e 	bne	r2,zero,803600 <xQueueGenericReceive+0x100>
  8035fc:	003b683a 	trap	0
  803600:	08059140 	call	805914 <xTaskGetSchedulerState>
  803604:	1005003a 	cmpeq	r2,r2,zero
  803608:	1000011e 	bne	r2,zero,803610 <xQueueGenericReceive+0x110>
  80360c:	0805b980 	call	805b98 <vTaskExitCritical>
  803610:	00800044 	movi	r2,1
  803614:	e0bfff15 	stw	r2,-4(fp)
  803618:	00005506 	br	803770 <xQueueGenericReceive+0x270>
  80361c:	e0bffd17 	ldw	r2,-12(fp)
  803620:	1004c03a 	cmpne	r2,r2,zero
  803624:	1000061e 	bne	r2,zero,803640 <xQueueGenericReceive+0x140>
  803628:	08059140 	call	805914 <xTaskGetSchedulerState>
  80362c:	1005003a 	cmpeq	r2,r2,zero
  803630:	1000011e 	bne	r2,zero,803638 <xQueueGenericReceive+0x138>
  803634:	0805b980 	call	805b98 <vTaskExitCritical>
  803638:	e03fff15 	stw	zero,-4(fp)
  80363c:	00004c06 	br	803770 <xQueueGenericReceive+0x270>
  803640:	e0bff817 	ldw	r2,-32(fp)
  803644:	1004c03a 	cmpne	r2,r2,zero
  803648:	1000041e 	bne	r2,zero,80365c <xQueueGenericReceive+0x15c>
  80364c:	e13ff904 	addi	r4,fp,-28
  803650:	080511c0 	call	80511c <vTaskSetTimeOutState>
  803654:	00800044 	movi	r2,1
  803658:	e0bff815 	stw	r2,-32(fp)
  80365c:	08059140 	call	805914 <xTaskGetSchedulerState>
  803660:	1005003a 	cmpeq	r2,r2,zero
  803664:	1000011e 	bne	r2,zero,80366c <xQueueGenericReceive+0x16c>
  803668:	0805b980 	call	805b98 <vTaskExitCritical>
  80366c:	08049500 	call	804950 <vTaskSuspendAll>
  803670:	08059140 	call	805914 <xTaskGetSchedulerState>
  803674:	1005003a 	cmpeq	r2,r2,zero
  803678:	1000011e 	bne	r2,zero,803680 <xQueueGenericReceive+0x180>
  80367c:	0805b480 	call	805b48 <vTaskEnterCritical>
  803680:	e0bffb17 	ldw	r2,-20(fp)
  803684:	10801117 	ldw	r2,68(r2)
  803688:	10bfffd8 	cmpnei	r2,r2,-1
  80368c:	1000021e 	bne	r2,zero,803698 <xQueueGenericReceive+0x198>
  803690:	e0bffb17 	ldw	r2,-20(fp)
  803694:	10001115 	stw	zero,68(r2)
  803698:	e0bffb17 	ldw	r2,-20(fp)
  80369c:	10801217 	ldw	r2,72(r2)
  8036a0:	10bfffd8 	cmpnei	r2,r2,-1
  8036a4:	1000021e 	bne	r2,zero,8036b0 <xQueueGenericReceive+0x1b0>
  8036a8:	e0bffb17 	ldw	r2,-20(fp)
  8036ac:	10001215 	stw	zero,72(r2)
  8036b0:	08059140 	call	805914 <xTaskGetSchedulerState>
  8036b4:	1005003a 	cmpeq	r2,r2,zero
  8036b8:	1000011e 	bne	r2,zero,8036c0 <xQueueGenericReceive+0x1c0>
  8036bc:	0805b980 	call	805b98 <vTaskExitCritical>
  8036c0:	e13ff904 	addi	r4,fp,-28
  8036c4:	e17ffd04 	addi	r5,fp,-12
  8036c8:	08051540 	call	805154 <xTaskCheckForTimeOut>
  8036cc:	1004c03a 	cmpne	r2,r2,zero
  8036d0:	1000231e 	bne	r2,zero,803760 <xQueueGenericReceive+0x260>
  8036d4:	e13ffb17 	ldw	r4,-20(fp)
  8036d8:	0803cc80 	call	803cc8 <prvIsQueueEmpty>
  8036dc:	1005003a 	cmpeq	r2,r2,zero
  8036e0:	10001b1e 	bne	r2,zero,803750 <xQueueGenericReceive+0x250>
  8036e4:	e0bffb17 	ldw	r2,-20(fp)
  8036e8:	10800017 	ldw	r2,0(r2)
  8036ec:	1004c03a 	cmpne	r2,r2,zero
  8036f0:	10000c1e 	bne	r2,zero,803724 <xQueueGenericReceive+0x224>
  8036f4:	08059140 	call	805914 <xTaskGetSchedulerState>
  8036f8:	1005003a 	cmpeq	r2,r2,zero
  8036fc:	1000011e 	bne	r2,zero,803704 <xQueueGenericReceive+0x204>
  803700:	0805b480 	call	805b48 <vTaskEnterCritical>
  803704:	e0bffb17 	ldw	r2,-20(fp)
  803708:	10800117 	ldw	r2,4(r2)
  80370c:	1009883a 	mov	r4,r2
  803710:	08059680 	call	805968 <vTaskPriorityInherit>
  803714:	08059140 	call	805914 <xTaskGetSchedulerState>
  803718:	1005003a 	cmpeq	r2,r2,zero
  80371c:	1000011e 	bne	r2,zero,803724 <xQueueGenericReceive+0x224>
  803720:	0805b980 	call	805b98 <vTaskExitCritical>
  803724:	e0bffb17 	ldw	r2,-20(fp)
  803728:	11000904 	addi	r4,r2,36
  80372c:	e17ffd17 	ldw	r5,-12(fp)
  803730:	0804f540 	call	804f54 <vTaskPlaceOnEventList>
  803734:	e13ffb17 	ldw	r4,-20(fp)
  803738:	0803ba80 	call	803ba8 <prvUnlockQueue>
  80373c:	08049780 	call	804978 <xTaskResumeAll>
  803740:	1004c03a 	cmpne	r2,r2,zero
  803744:	103f781e 	bne	r2,zero,803528 <xQueueGenericReceive+0x28>
  803748:	003b683a 	trap	0
  80374c:	003f7606 	br	803528 <xQueueGenericReceive+0x28>
  803750:	e13ffb17 	ldw	r4,-20(fp)
  803754:	0803ba80 	call	803ba8 <prvUnlockQueue>
  803758:	08049780 	call	804978 <xTaskResumeAll>
  80375c:	003f7206 	br	803528 <xQueueGenericReceive+0x28>
  803760:	e13ffb17 	ldw	r4,-20(fp)
  803764:	0803ba80 	call	803ba8 <prvUnlockQueue>
  803768:	08049780 	call	804978 <xTaskResumeAll>
  80376c:	e03fff15 	stw	zero,-4(fp)
  803770:	e0bfff17 	ldw	r2,-4(fp)
  803774:	e037883a 	mov	sp,fp
  803778:	dfc00117 	ldw	ra,4(sp)
  80377c:	df000017 	ldw	fp,0(sp)
  803780:	dec00204 	addi	sp,sp,8
  803784:	f800283a 	ret

00803788 <xQueueReceiveFromISR>:
  803788:	defff904 	addi	sp,sp,-28
  80378c:	dfc00615 	stw	ra,24(sp)
  803790:	df000515 	stw	fp,20(sp)
  803794:	df000504 	addi	fp,sp,20
  803798:	e13ffd15 	stw	r4,-12(fp)
  80379c:	e17ffe15 	stw	r5,-8(fp)
  8037a0:	e1bfff15 	stw	r6,-4(fp)
  8037a4:	e03ffb15 	stw	zero,-20(fp)
  8037a8:	e0bffd17 	ldw	r2,-12(fp)
  8037ac:	10800e17 	ldw	r2,56(r2)
  8037b0:	1005003a 	cmpeq	r2,r2,zero
  8037b4:	1000241e 	bne	r2,zero,803848 <xQueueReceiveFromISR+0xc0>
  8037b8:	e13ffd17 	ldw	r4,-12(fp)
  8037bc:	e17ffe17 	ldw	r5,-8(fp)
  8037c0:	0803b0c0 	call	803b0c <prvCopyDataFromQueue>
  8037c4:	e0bffd17 	ldw	r2,-12(fp)
  8037c8:	10800e17 	ldw	r2,56(r2)
  8037cc:	10ffffc4 	addi	r3,r2,-1
  8037d0:	e0bffd17 	ldw	r2,-12(fp)
  8037d4:	10c00e15 	stw	r3,56(r2)
  8037d8:	e0bffd17 	ldw	r2,-12(fp)
  8037dc:	10801117 	ldw	r2,68(r2)
  8037e0:	10bfffd8 	cmpnei	r2,r2,-1
  8037e4:	1000101e 	bne	r2,zero,803828 <xQueueReceiveFromISR+0xa0>
  8037e8:	e0bffd17 	ldw	r2,-12(fp)
  8037ec:	10800417 	ldw	r2,16(r2)
  8037f0:	1005003a 	cmpeq	r2,r2,zero
  8037f4:	1000111e 	bne	r2,zero,80383c <xQueueReceiveFromISR+0xb4>
  8037f8:	e0bffd17 	ldw	r2,-12(fp)
  8037fc:	11000404 	addi	r4,r2,16
  803800:	08050380 	call	805038 <xTaskRemoveFromEventList>
  803804:	1005003a 	cmpeq	r2,r2,zero
  803808:	10000c1e 	bne	r2,zero,80383c <xQueueReceiveFromISR+0xb4>
  80380c:	e0bfff17 	ldw	r2,-4(fp)
  803810:	1005003a 	cmpeq	r2,r2,zero
  803814:	1000091e 	bne	r2,zero,80383c <xQueueReceiveFromISR+0xb4>
  803818:	e0ffff17 	ldw	r3,-4(fp)
  80381c:	00800044 	movi	r2,1
  803820:	18800015 	stw	r2,0(r3)
  803824:	00000506 	br	80383c <xQueueReceiveFromISR+0xb4>
  803828:	e0bffd17 	ldw	r2,-12(fp)
  80382c:	10801117 	ldw	r2,68(r2)
  803830:	10c00044 	addi	r3,r2,1
  803834:	e0bffd17 	ldw	r2,-12(fp)
  803838:	10c01115 	stw	r3,68(r2)
  80383c:	00800044 	movi	r2,1
  803840:	e0bffc15 	stw	r2,-16(fp)
  803844:	00000106 	br	80384c <xQueueReceiveFromISR+0xc4>
  803848:	e03ffc15 	stw	zero,-16(fp)
  80384c:	e0bffc17 	ldw	r2,-16(fp)
  803850:	e037883a 	mov	sp,fp
  803854:	dfc00117 	ldw	ra,4(sp)
  803858:	df000017 	ldw	fp,0(sp)
  80385c:	dec00204 	addi	sp,sp,8
  803860:	f800283a 	ret

00803864 <uxQueueMessagesWaiting>:
  803864:	defffc04 	addi	sp,sp,-16
  803868:	dfc00315 	stw	ra,12(sp)
  80386c:	df000215 	stw	fp,8(sp)
  803870:	df000204 	addi	fp,sp,8
  803874:	e13fff15 	stw	r4,-4(fp)
  803878:	08059140 	call	805914 <xTaskGetSchedulerState>
  80387c:	1005003a 	cmpeq	r2,r2,zero
  803880:	1000011e 	bne	r2,zero,803888 <uxQueueMessagesWaiting+0x24>
  803884:	0805b480 	call	805b48 <vTaskEnterCritical>
  803888:	e0bfff17 	ldw	r2,-4(fp)
  80388c:	10800e17 	ldw	r2,56(r2)
  803890:	e0bffe15 	stw	r2,-8(fp)
  803894:	08059140 	call	805914 <xTaskGetSchedulerState>
  803898:	1005003a 	cmpeq	r2,r2,zero
  80389c:	1000011e 	bne	r2,zero,8038a4 <uxQueueMessagesWaiting+0x40>
  8038a0:	0805b980 	call	805b98 <vTaskExitCritical>
  8038a4:	e0bffe17 	ldw	r2,-8(fp)
  8038a8:	e037883a 	mov	sp,fp
  8038ac:	dfc00117 	ldw	ra,4(sp)
  8038b0:	df000017 	ldw	fp,0(sp)
  8038b4:	dec00204 	addi	sp,sp,8
  8038b8:	f800283a 	ret

008038bc <uxQueueMessagesWaitingFromISR>:
  8038bc:	defffd04 	addi	sp,sp,-12
  8038c0:	df000215 	stw	fp,8(sp)
  8038c4:	df000204 	addi	fp,sp,8
  8038c8:	e13fff15 	stw	r4,-4(fp)
  8038cc:	e0bfff17 	ldw	r2,-4(fp)
  8038d0:	10800e17 	ldw	r2,56(r2)
  8038d4:	e0bffe15 	stw	r2,-8(fp)
  8038d8:	e0bffe17 	ldw	r2,-8(fp)
  8038dc:	e037883a 	mov	sp,fp
  8038e0:	df000017 	ldw	fp,0(sp)
  8038e4:	dec00104 	addi	sp,sp,4
  8038e8:	f800283a 	ret

008038ec <vQueueDelete>:
  8038ec:	defffd04 	addi	sp,sp,-12
  8038f0:	dfc00215 	stw	ra,8(sp)
  8038f4:	df000115 	stw	fp,4(sp)
  8038f8:	df000104 	addi	fp,sp,4
  8038fc:	e13fff15 	stw	r4,-4(fp)
  803900:	e0bfff17 	ldw	r2,-4(fp)
  803904:	11000017 	ldw	r4,0(r2)
  803908:	08082580 	call	808258 <vPortFree>
  80390c:	e13fff17 	ldw	r4,-4(fp)
  803910:	08082580 	call	808258 <vPortFree>
  803914:	e037883a 	mov	sp,fp
  803918:	dfc00117 	ldw	ra,4(sp)
  80391c:	df000017 	ldw	fp,0(sp)
  803920:	dec00204 	addi	sp,sp,8
  803924:	f800283a 	ret

00803928 <ucQueueGetQueueNumber>:
  803928:	defffe04 	addi	sp,sp,-8
  80392c:	df000115 	stw	fp,4(sp)
  803930:	df000104 	addi	fp,sp,4
  803934:	e13fff15 	stw	r4,-4(fp)
  803938:	e0bfff17 	ldw	r2,-4(fp)
  80393c:	10801303 	ldbu	r2,76(r2)
  803940:	10803fcc 	andi	r2,r2,255
  803944:	e037883a 	mov	sp,fp
  803948:	df000017 	ldw	fp,0(sp)
  80394c:	dec00104 	addi	sp,sp,4
  803950:	f800283a 	ret

00803954 <vQueueSetQueueNumber>:
  803954:	defffd04 	addi	sp,sp,-12
  803958:	df000215 	stw	fp,8(sp)
  80395c:	df000204 	addi	fp,sp,8
  803960:	e13ffe15 	stw	r4,-8(fp)
  803964:	e17fff05 	stb	r5,-4(fp)
  803968:	e0fffe17 	ldw	r3,-8(fp)
  80396c:	e0bfff03 	ldbu	r2,-4(fp)
  803970:	18801305 	stb	r2,76(r3)
  803974:	e037883a 	mov	sp,fp
  803978:	df000017 	ldw	fp,0(sp)
  80397c:	dec00104 	addi	sp,sp,4
  803980:	f800283a 	ret

00803984 <ucQueueGetQueueType>:
  803984:	defffe04 	addi	sp,sp,-8
  803988:	df000115 	stw	fp,4(sp)
  80398c:	df000104 	addi	fp,sp,4
  803990:	e13fff15 	stw	r4,-4(fp)
  803994:	e0bfff17 	ldw	r2,-4(fp)
  803998:	10801343 	ldbu	r2,77(r2)
  80399c:	10803fcc 	andi	r2,r2,255
  8039a0:	e037883a 	mov	sp,fp
  8039a4:	df000017 	ldw	fp,0(sp)
  8039a8:	dec00104 	addi	sp,sp,4
  8039ac:	f800283a 	ret

008039b0 <prvCopyDataToQueue>:
  8039b0:	defffb04 	addi	sp,sp,-20
  8039b4:	dfc00415 	stw	ra,16(sp)
  8039b8:	df000315 	stw	fp,12(sp)
  8039bc:	df000304 	addi	fp,sp,12
  8039c0:	e13ffd15 	stw	r4,-12(fp)
  8039c4:	e17ffe15 	stw	r5,-8(fp)
  8039c8:	e1bfff15 	stw	r6,-4(fp)
  8039cc:	e0bffd17 	ldw	r2,-12(fp)
  8039d0:	10801017 	ldw	r2,64(r2)
  8039d4:	1004c03a 	cmpne	r2,r2,zero
  8039d8:	10000b1e 	bne	r2,zero,803a08 <prvCopyDataToQueue+0x58>
  8039dc:	e0bffd17 	ldw	r2,-12(fp)
  8039e0:	10800017 	ldw	r2,0(r2)
  8039e4:	1004c03a 	cmpne	r2,r2,zero
  8039e8:	10003e1e 	bne	r2,zero,803ae4 <prvCopyDataToQueue+0x134>
  8039ec:	e0bffd17 	ldw	r2,-12(fp)
  8039f0:	10800117 	ldw	r2,4(r2)
  8039f4:	1009883a 	mov	r4,r2
  8039f8:	0805a7c0 	call	805a7c <vTaskPriorityDisinherit>
  8039fc:	e0bffd17 	ldw	r2,-12(fp)
  803a00:	10000115 	stw	zero,4(r2)
  803a04:	00003706 	br	803ae4 <prvCopyDataToQueue+0x134>
  803a08:	e0bfff17 	ldw	r2,-4(fp)
  803a0c:	1004c03a 	cmpne	r2,r2,zero
  803a10:	1000191e 	bne	r2,zero,803a78 <prvCopyDataToQueue+0xc8>
  803a14:	e0bffd17 	ldw	r2,-12(fp)
  803a18:	10c00217 	ldw	r3,8(r2)
  803a1c:	e0bffd17 	ldw	r2,-12(fp)
  803a20:	11801017 	ldw	r6,64(r2)
  803a24:	e0bffe17 	ldw	r2,-8(fp)
  803a28:	1809883a 	mov	r4,r3
  803a2c:	100b883a 	mov	r5,r2
  803a30:	08010b80 	call	8010b8 <memcpy>
  803a34:	e0bffd17 	ldw	r2,-12(fp)
  803a38:	10c00217 	ldw	r3,8(r2)
  803a3c:	e0bffd17 	ldw	r2,-12(fp)
  803a40:	10801017 	ldw	r2,64(r2)
  803a44:	1887883a 	add	r3,r3,r2
  803a48:	e0bffd17 	ldw	r2,-12(fp)
  803a4c:	10c00215 	stw	r3,8(r2)
  803a50:	e0bffd17 	ldw	r2,-12(fp)
  803a54:	10c00217 	ldw	r3,8(r2)
  803a58:	e0bffd17 	ldw	r2,-12(fp)
  803a5c:	10800117 	ldw	r2,4(r2)
  803a60:	18802036 	bltu	r3,r2,803ae4 <prvCopyDataToQueue+0x134>
  803a64:	e0bffd17 	ldw	r2,-12(fp)
  803a68:	10c00017 	ldw	r3,0(r2)
  803a6c:	e0bffd17 	ldw	r2,-12(fp)
  803a70:	10c00215 	stw	r3,8(r2)
  803a74:	00001b06 	br	803ae4 <prvCopyDataToQueue+0x134>
  803a78:	e0bffd17 	ldw	r2,-12(fp)
  803a7c:	10c00317 	ldw	r3,12(r2)
  803a80:	e0bffd17 	ldw	r2,-12(fp)
  803a84:	11801017 	ldw	r6,64(r2)
  803a88:	e0bffe17 	ldw	r2,-8(fp)
  803a8c:	1809883a 	mov	r4,r3
  803a90:	100b883a 	mov	r5,r2
  803a94:	08010b80 	call	8010b8 <memcpy>
  803a98:	e0bffd17 	ldw	r2,-12(fp)
  803a9c:	10c00317 	ldw	r3,12(r2)
  803aa0:	e0bffd17 	ldw	r2,-12(fp)
  803aa4:	10801017 	ldw	r2,64(r2)
  803aa8:	1887c83a 	sub	r3,r3,r2
  803aac:	e0bffd17 	ldw	r2,-12(fp)
  803ab0:	10c00315 	stw	r3,12(r2)
  803ab4:	e0bffd17 	ldw	r2,-12(fp)
  803ab8:	10c00317 	ldw	r3,12(r2)
  803abc:	e0bffd17 	ldw	r2,-12(fp)
  803ac0:	10800017 	ldw	r2,0(r2)
  803ac4:	1880072e 	bgeu	r3,r2,803ae4 <prvCopyDataToQueue+0x134>
  803ac8:	e0bffd17 	ldw	r2,-12(fp)
  803acc:	10c00117 	ldw	r3,4(r2)
  803ad0:	e0bffd17 	ldw	r2,-12(fp)
  803ad4:	10801017 	ldw	r2,64(r2)
  803ad8:	1887c83a 	sub	r3,r3,r2
  803adc:	e0bffd17 	ldw	r2,-12(fp)
  803ae0:	10c00315 	stw	r3,12(r2)
  803ae4:	e0bffd17 	ldw	r2,-12(fp)
  803ae8:	10800e17 	ldw	r2,56(r2)
  803aec:	10c00044 	addi	r3,r2,1
  803af0:	e0bffd17 	ldw	r2,-12(fp)
  803af4:	10c00e15 	stw	r3,56(r2)
  803af8:	e037883a 	mov	sp,fp
  803afc:	dfc00117 	ldw	ra,4(sp)
  803b00:	df000017 	ldw	fp,0(sp)
  803b04:	dec00204 	addi	sp,sp,8
  803b08:	f800283a 	ret

00803b0c <prvCopyDataFromQueue>:
  803b0c:	defffc04 	addi	sp,sp,-16
  803b10:	dfc00315 	stw	ra,12(sp)
  803b14:	df000215 	stw	fp,8(sp)
  803b18:	df000204 	addi	fp,sp,8
  803b1c:	e13ffe15 	stw	r4,-8(fp)
  803b20:	e17fff15 	stw	r5,-4(fp)
  803b24:	e0bffe17 	ldw	r2,-8(fp)
  803b28:	10800017 	ldw	r2,0(r2)
  803b2c:	1005003a 	cmpeq	r2,r2,zero
  803b30:	1000181e 	bne	r2,zero,803b94 <prvCopyDataFromQueue+0x88>
  803b34:	e0bffe17 	ldw	r2,-8(fp)
  803b38:	10c00317 	ldw	r3,12(r2)
  803b3c:	e0bffe17 	ldw	r2,-8(fp)
  803b40:	10801017 	ldw	r2,64(r2)
  803b44:	1887883a 	add	r3,r3,r2
  803b48:	e0bffe17 	ldw	r2,-8(fp)
  803b4c:	10c00315 	stw	r3,12(r2)
  803b50:	e0bffe17 	ldw	r2,-8(fp)
  803b54:	10c00317 	ldw	r3,12(r2)
  803b58:	e0bffe17 	ldw	r2,-8(fp)
  803b5c:	10800117 	ldw	r2,4(r2)
  803b60:	18800436 	bltu	r3,r2,803b74 <prvCopyDataFromQueue+0x68>
  803b64:	e0bffe17 	ldw	r2,-8(fp)
  803b68:	10c00017 	ldw	r3,0(r2)
  803b6c:	e0bffe17 	ldw	r2,-8(fp)
  803b70:	10c00315 	stw	r3,12(r2)
  803b74:	e0bffe17 	ldw	r2,-8(fp)
  803b78:	10c00317 	ldw	r3,12(r2)
  803b7c:	e0bffe17 	ldw	r2,-8(fp)
  803b80:	11801017 	ldw	r6,64(r2)
  803b84:	e0bfff17 	ldw	r2,-4(fp)
  803b88:	1009883a 	mov	r4,r2
  803b8c:	180b883a 	mov	r5,r3
  803b90:	08010b80 	call	8010b8 <memcpy>
  803b94:	e037883a 	mov	sp,fp
  803b98:	dfc00117 	ldw	ra,4(sp)
  803b9c:	df000017 	ldw	fp,0(sp)
  803ba0:	dec00204 	addi	sp,sp,8
  803ba4:	f800283a 	ret

00803ba8 <prvUnlockQueue>:
  803ba8:	defffd04 	addi	sp,sp,-12
  803bac:	dfc00215 	stw	ra,8(sp)
  803bb0:	df000115 	stw	fp,4(sp)
  803bb4:	df000104 	addi	fp,sp,4
  803bb8:	e13fff15 	stw	r4,-4(fp)
  803bbc:	08059140 	call	805914 <xTaskGetSchedulerState>
  803bc0:	1005003a 	cmpeq	r2,r2,zero
  803bc4:	1000111e 	bne	r2,zero,803c0c <prvUnlockQueue+0x64>
  803bc8:	0805b480 	call	805b48 <vTaskEnterCritical>
  803bcc:	00000f06 	br	803c0c <prvUnlockQueue+0x64>
  803bd0:	e0bfff17 	ldw	r2,-4(fp)
  803bd4:	10800917 	ldw	r2,36(r2)
  803bd8:	1005003a 	cmpeq	r2,r2,zero
  803bdc:	10000f1e 	bne	r2,zero,803c1c <prvUnlockQueue+0x74>
  803be0:	e0bfff17 	ldw	r2,-4(fp)
  803be4:	11000904 	addi	r4,r2,36
  803be8:	08050380 	call	805038 <xTaskRemoveFromEventList>
  803bec:	1005003a 	cmpeq	r2,r2,zero
  803bf0:	1000011e 	bne	r2,zero,803bf8 <prvUnlockQueue+0x50>
  803bf4:	08052400 	call	805240 <vTaskMissedYield>
  803bf8:	e0bfff17 	ldw	r2,-4(fp)
  803bfc:	10801217 	ldw	r2,72(r2)
  803c00:	10ffffc4 	addi	r3,r2,-1
  803c04:	e0bfff17 	ldw	r2,-4(fp)
  803c08:	10c01215 	stw	r3,72(r2)
  803c0c:	e0bfff17 	ldw	r2,-4(fp)
  803c10:	10801217 	ldw	r2,72(r2)
  803c14:	10800048 	cmpgei	r2,r2,1
  803c18:	103fed1e 	bne	r2,zero,803bd0 <prvUnlockQueue+0x28>
  803c1c:	e0ffff17 	ldw	r3,-4(fp)
  803c20:	00bfffc4 	movi	r2,-1
  803c24:	18801215 	stw	r2,72(r3)
  803c28:	08059140 	call	805914 <xTaskGetSchedulerState>
  803c2c:	1005003a 	cmpeq	r2,r2,zero
  803c30:	1000011e 	bne	r2,zero,803c38 <prvUnlockQueue+0x90>
  803c34:	0805b980 	call	805b98 <vTaskExitCritical>
  803c38:	08059140 	call	805914 <xTaskGetSchedulerState>
  803c3c:	1005003a 	cmpeq	r2,r2,zero
  803c40:	1000111e 	bne	r2,zero,803c88 <prvUnlockQueue+0xe0>
  803c44:	0805b480 	call	805b48 <vTaskEnterCritical>
  803c48:	00000f06 	br	803c88 <prvUnlockQueue+0xe0>
  803c4c:	e0bfff17 	ldw	r2,-4(fp)
  803c50:	10800417 	ldw	r2,16(r2)
  803c54:	1005003a 	cmpeq	r2,r2,zero
  803c58:	10000f1e 	bne	r2,zero,803c98 <prvUnlockQueue+0xf0>
  803c5c:	e0bfff17 	ldw	r2,-4(fp)
  803c60:	11000404 	addi	r4,r2,16
  803c64:	08050380 	call	805038 <xTaskRemoveFromEventList>
  803c68:	1005003a 	cmpeq	r2,r2,zero
  803c6c:	1000011e 	bne	r2,zero,803c74 <prvUnlockQueue+0xcc>
  803c70:	08052400 	call	805240 <vTaskMissedYield>
  803c74:	e0bfff17 	ldw	r2,-4(fp)
  803c78:	10801117 	ldw	r2,68(r2)
  803c7c:	10ffffc4 	addi	r3,r2,-1
  803c80:	e0bfff17 	ldw	r2,-4(fp)
  803c84:	10c01115 	stw	r3,68(r2)
  803c88:	e0bfff17 	ldw	r2,-4(fp)
  803c8c:	10801117 	ldw	r2,68(r2)
  803c90:	10800048 	cmpgei	r2,r2,1
  803c94:	103fed1e 	bne	r2,zero,803c4c <prvUnlockQueue+0xa4>
  803c98:	e0ffff17 	ldw	r3,-4(fp)
  803c9c:	00bfffc4 	movi	r2,-1
  803ca0:	18801115 	stw	r2,68(r3)
  803ca4:	08059140 	call	805914 <xTaskGetSchedulerState>
  803ca8:	1005003a 	cmpeq	r2,r2,zero
  803cac:	1000011e 	bne	r2,zero,803cb4 <prvUnlockQueue+0x10c>
  803cb0:	0805b980 	call	805b98 <vTaskExitCritical>
  803cb4:	e037883a 	mov	sp,fp
  803cb8:	dfc00117 	ldw	ra,4(sp)
  803cbc:	df000017 	ldw	fp,0(sp)
  803cc0:	dec00204 	addi	sp,sp,8
  803cc4:	f800283a 	ret

00803cc8 <prvIsQueueEmpty>:
  803cc8:	defffc04 	addi	sp,sp,-16
  803ccc:	dfc00315 	stw	ra,12(sp)
  803cd0:	df000215 	stw	fp,8(sp)
  803cd4:	df000204 	addi	fp,sp,8
  803cd8:	e13fff15 	stw	r4,-4(fp)
  803cdc:	08059140 	call	805914 <xTaskGetSchedulerState>
  803ce0:	1005003a 	cmpeq	r2,r2,zero
  803ce4:	1000011e 	bne	r2,zero,803cec <prvIsQueueEmpty+0x24>
  803ce8:	0805b480 	call	805b48 <vTaskEnterCritical>
  803cec:	e0bfff17 	ldw	r2,-4(fp)
  803cf0:	10800e17 	ldw	r2,56(r2)
  803cf4:	1005003a 	cmpeq	r2,r2,zero
  803cf8:	e0bffe15 	stw	r2,-8(fp)
  803cfc:	08059140 	call	805914 <xTaskGetSchedulerState>
  803d00:	1005003a 	cmpeq	r2,r2,zero
  803d04:	1000011e 	bne	r2,zero,803d0c <prvIsQueueEmpty+0x44>
  803d08:	0805b980 	call	805b98 <vTaskExitCritical>
  803d0c:	e0bffe17 	ldw	r2,-8(fp)
  803d10:	e037883a 	mov	sp,fp
  803d14:	dfc00117 	ldw	ra,4(sp)
  803d18:	df000017 	ldw	fp,0(sp)
  803d1c:	dec00204 	addi	sp,sp,8
  803d20:	f800283a 	ret

00803d24 <xQueueIsQueueEmptyFromISR>:
  803d24:	defffd04 	addi	sp,sp,-12
  803d28:	df000215 	stw	fp,8(sp)
  803d2c:	df000204 	addi	fp,sp,8
  803d30:	e13fff15 	stw	r4,-4(fp)
  803d34:	e0bfff17 	ldw	r2,-4(fp)
  803d38:	10800e17 	ldw	r2,56(r2)
  803d3c:	1005003a 	cmpeq	r2,r2,zero
  803d40:	e0bffe15 	stw	r2,-8(fp)
  803d44:	e0bffe17 	ldw	r2,-8(fp)
  803d48:	e037883a 	mov	sp,fp
  803d4c:	df000017 	ldw	fp,0(sp)
  803d50:	dec00104 	addi	sp,sp,4
  803d54:	f800283a 	ret

00803d58 <prvIsQueueFull>:
  803d58:	defffc04 	addi	sp,sp,-16
  803d5c:	dfc00315 	stw	ra,12(sp)
  803d60:	df000215 	stw	fp,8(sp)
  803d64:	df000204 	addi	fp,sp,8
  803d68:	e13fff15 	stw	r4,-4(fp)
  803d6c:	08059140 	call	805914 <xTaskGetSchedulerState>
  803d70:	1005003a 	cmpeq	r2,r2,zero
  803d74:	1000011e 	bne	r2,zero,803d7c <prvIsQueueFull+0x24>
  803d78:	0805b480 	call	805b48 <vTaskEnterCritical>
  803d7c:	e0bfff17 	ldw	r2,-4(fp)
  803d80:	10c00e17 	ldw	r3,56(r2)
  803d84:	e0bfff17 	ldw	r2,-4(fp)
  803d88:	10800f17 	ldw	r2,60(r2)
  803d8c:	1885003a 	cmpeq	r2,r3,r2
  803d90:	e0bffe15 	stw	r2,-8(fp)
  803d94:	08059140 	call	805914 <xTaskGetSchedulerState>
  803d98:	1005003a 	cmpeq	r2,r2,zero
  803d9c:	1000011e 	bne	r2,zero,803da4 <prvIsQueueFull+0x4c>
  803da0:	0805b980 	call	805b98 <vTaskExitCritical>
  803da4:	e0bffe17 	ldw	r2,-8(fp)
  803da8:	e037883a 	mov	sp,fp
  803dac:	dfc00117 	ldw	ra,4(sp)
  803db0:	df000017 	ldw	fp,0(sp)
  803db4:	dec00204 	addi	sp,sp,8
  803db8:	f800283a 	ret

00803dbc <xQueueIsQueueFullFromISR>:
  803dbc:	defffd04 	addi	sp,sp,-12
  803dc0:	df000215 	stw	fp,8(sp)
  803dc4:	df000204 	addi	fp,sp,8
  803dc8:	e13fff15 	stw	r4,-4(fp)
  803dcc:	e0bfff17 	ldw	r2,-4(fp)
  803dd0:	10c00e17 	ldw	r3,56(r2)
  803dd4:	e0bfff17 	ldw	r2,-4(fp)
  803dd8:	10800f17 	ldw	r2,60(r2)
  803ddc:	1885003a 	cmpeq	r2,r3,r2
  803de0:	e0bffe15 	stw	r2,-8(fp)
  803de4:	e0bffe17 	ldw	r2,-8(fp)
  803de8:	e037883a 	mov	sp,fp
  803dec:	df000017 	ldw	fp,0(sp)
  803df0:	dec00104 	addi	sp,sp,4
  803df4:	f800283a 	ret

00803df8 <vQueueWaitForMessageRestricted>:
  803df8:	defffc04 	addi	sp,sp,-16
  803dfc:	dfc00315 	stw	ra,12(sp)
  803e00:	df000215 	stw	fp,8(sp)
  803e04:	df000204 	addi	fp,sp,8
  803e08:	e13ffe15 	stw	r4,-8(fp)
  803e0c:	e17fff15 	stw	r5,-4(fp)
  803e10:	08059140 	call	805914 <xTaskGetSchedulerState>
  803e14:	1005003a 	cmpeq	r2,r2,zero
  803e18:	1000011e 	bne	r2,zero,803e20 <vQueueWaitForMessageRestricted+0x28>
  803e1c:	0805b480 	call	805b48 <vTaskEnterCritical>
  803e20:	e0bffe17 	ldw	r2,-8(fp)
  803e24:	10801117 	ldw	r2,68(r2)
  803e28:	10bfffd8 	cmpnei	r2,r2,-1
  803e2c:	1000021e 	bne	r2,zero,803e38 <vQueueWaitForMessageRestricted+0x40>
  803e30:	e0bffe17 	ldw	r2,-8(fp)
  803e34:	10001115 	stw	zero,68(r2)
  803e38:	e0bffe17 	ldw	r2,-8(fp)
  803e3c:	10801217 	ldw	r2,72(r2)
  803e40:	10bfffd8 	cmpnei	r2,r2,-1
  803e44:	1000021e 	bne	r2,zero,803e50 <vQueueWaitForMessageRestricted+0x58>
  803e48:	e0bffe17 	ldw	r2,-8(fp)
  803e4c:	10001215 	stw	zero,72(r2)
  803e50:	08059140 	call	805914 <xTaskGetSchedulerState>
  803e54:	1005003a 	cmpeq	r2,r2,zero
  803e58:	1000011e 	bne	r2,zero,803e60 <vQueueWaitForMessageRestricted+0x68>
  803e5c:	0805b980 	call	805b98 <vTaskExitCritical>
  803e60:	e0bffe17 	ldw	r2,-8(fp)
  803e64:	10800e17 	ldw	r2,56(r2)
  803e68:	1004c03a 	cmpne	r2,r2,zero
  803e6c:	1000041e 	bne	r2,zero,803e80 <vQueueWaitForMessageRestricted+0x88>
  803e70:	e0bffe17 	ldw	r2,-8(fp)
  803e74:	11000904 	addi	r4,r2,36
  803e78:	e17fff17 	ldw	r5,-4(fp)
  803e7c:	0804fd80 	call	804fd8 <vTaskPlaceOnEventListRestricted>
  803e80:	e13ffe17 	ldw	r4,-8(fp)
  803e84:	0803ba80 	call	803ba8 <prvUnlockQueue>
  803e88:	e037883a 	mov	sp,fp
  803e8c:	dfc00117 	ldw	ra,4(sp)
  803e90:	df000017 	ldw	fp,0(sp)
  803e94:	dec00204 	addi	sp,sp,8
  803e98:	f800283a 	ret

00803e9c <xTaskGenericCreate>:
  803e9c:	defff604 	addi	sp,sp,-40
  803ea0:	dfc00915 	stw	ra,36(sp)
  803ea4:	df000815 	stw	fp,32(sp)
  803ea8:	df000804 	addi	fp,sp,32
  803eac:	e13ffc15 	stw	r4,-16(fp)
  803eb0:	e17ffd15 	stw	r5,-12(fp)
  803eb4:	e1ffff15 	stw	r7,-4(fp)
  803eb8:	e1bffe0d 	sth	r6,-8(fp)
  803ebc:	e13ffe0b 	ldhu	r4,-8(fp)
  803ec0:	e1400417 	ldw	r5,16(fp)
  803ec4:	08055d00 	call	8055d0 <prvAllocateTCBAndStack>
  803ec8:	e0bffa15 	stw	r2,-24(fp)
  803ecc:	e0bffa17 	ldw	r2,-24(fp)
  803ed0:	1005003a 	cmpeq	r2,r2,zero
  803ed4:	1000611e 	bne	r2,zero,80405c <xTaskGenericCreate+0x1c0>
  803ed8:	e0bffa17 	ldw	r2,-24(fp)
  803edc:	10c00c17 	ldw	r3,48(r2)
  803ee0:	e0bffe0b 	ldhu	r2,-8(fp)
  803ee4:	1085883a 	add	r2,r2,r2
  803ee8:	1085883a 	add	r2,r2,r2
  803eec:	1885883a 	add	r2,r3,r2
  803ef0:	10bfff04 	addi	r2,r2,-4
  803ef4:	e0bff915 	stw	r2,-28(fp)
  803ef8:	e0bff917 	ldw	r2,-28(fp)
  803efc:	1007883a 	mov	r3,r2
  803f00:	00bfff04 	movi	r2,-4
  803f04:	1884703a 	and	r2,r3,r2
  803f08:	e0bff915 	stw	r2,-28(fp)
  803f0c:	e0bffe0b 	ldhu	r2,-8(fp)
  803f10:	d8800015 	stw	r2,0(sp)
  803f14:	e13ffa17 	ldw	r4,-24(fp)
  803f18:	e17ffd17 	ldw	r5,-12(fp)
  803f1c:	e1800217 	ldw	r6,8(fp)
  803f20:	e1c00517 	ldw	r7,20(fp)
  803f24:	08053100 	call	805310 <prvInitialiseTCBVariables>
  803f28:	e13ff917 	ldw	r4,-28(fp)
  803f2c:	e17ffc17 	ldw	r5,-16(fp)
  803f30:	e1bfff17 	ldw	r6,-4(fp)
  803f34:	08085380 	call	808538 <pxPortInitialiseStack>
  803f38:	1007883a 	mov	r3,r2
  803f3c:	e0bffa17 	ldw	r2,-24(fp)
  803f40:	10c00015 	stw	r3,0(r2)
  803f44:	e0800317 	ldw	r2,12(fp)
  803f48:	1005003a 	cmpeq	r2,r2,zero
  803f4c:	1000031e 	bne	r2,zero,803f5c <xTaskGenericCreate+0xc0>
  803f50:	e0c00317 	ldw	r3,12(fp)
  803f54:	e0bffa17 	ldw	r2,-24(fp)
  803f58:	18800015 	stw	r2,0(r3)
  803f5c:	08059140 	call	805914 <xTaskGetSchedulerState>
  803f60:	1005003a 	cmpeq	r2,r2,zero
  803f64:	1000011e 	bne	r2,zero,803f6c <xTaskGenericCreate+0xd0>
  803f68:	0805b480 	call	805b48 <vTaskEnterCritical>
  803f6c:	d0a6b517 	ldw	r2,-25900(gp)
  803f70:	10800044 	addi	r2,r2,1
  803f74:	d0a6b515 	stw	r2,-25900(gp)
  803f78:	d0a6b317 	ldw	r2,-25908(gp)
  803f7c:	1004c03a 	cmpne	r2,r2,zero
  803f80:	1000071e 	bne	r2,zero,803fa0 <xTaskGenericCreate+0x104>
  803f84:	e0bffa17 	ldw	r2,-24(fp)
  803f88:	d0a6b315 	stw	r2,-25908(gp)
  803f8c:	d0a6b517 	ldw	r2,-25900(gp)
  803f90:	10800058 	cmpnei	r2,r2,1
  803f94:	10000b1e 	bne	r2,zero,803fc4 <xTaskGenericCreate+0x128>
  803f98:	08053e40 	call	8053e4 <prvInitialiseTaskLists>
  803f9c:	00000906 	br	803fc4 <xTaskGenericCreate+0x128>
  803fa0:	d0a6b917 	ldw	r2,-25884(gp)
  803fa4:	1004c03a 	cmpne	r2,r2,zero
  803fa8:	1000061e 	bne	r2,zero,803fc4 <xTaskGenericCreate+0x128>
  803fac:	d0a6b317 	ldw	r2,-25908(gp)
  803fb0:	10c00b17 	ldw	r3,44(r2)
  803fb4:	e0800217 	ldw	r2,8(fp)
  803fb8:	10c00236 	bltu	r2,r3,803fc4 <xTaskGenericCreate+0x128>
  803fbc:	e0bffa17 	ldw	r2,-24(fp)
  803fc0:	d0a6b315 	stw	r2,-25908(gp)
  803fc4:	e0bffa17 	ldw	r2,-24(fp)
  803fc8:	10c00b17 	ldw	r3,44(r2)
  803fcc:	d0a6b717 	ldw	r2,-25892(gp)
  803fd0:	10c0032e 	bgeu	r2,r3,803fe0 <xTaskGenericCreate+0x144>
  803fd4:	e0bffa17 	ldw	r2,-24(fp)
  803fd8:	10800b17 	ldw	r2,44(r2)
  803fdc:	d0a6b715 	stw	r2,-25892(gp)
  803fe0:	d0e6be17 	ldw	r3,-25864(gp)
  803fe4:	e0bffa17 	ldw	r2,-24(fp)
  803fe8:	10c01815 	stw	r3,96(r2)
  803fec:	d0a6be17 	ldw	r2,-25864(gp)
  803ff0:	10800044 	addi	r2,r2,1
  803ff4:	d0a6be15 	stw	r2,-25864(gp)
  803ff8:	e0bffa17 	ldw	r2,-24(fp)
  803ffc:	10c00b17 	ldw	r3,44(r2)
  804000:	d0a6b817 	ldw	r2,-25888(gp)
  804004:	10c0032e 	bgeu	r2,r3,804014 <xTaskGenericCreate+0x178>
  804008:	e0bffa17 	ldw	r2,-24(fp)
  80400c:	10800b17 	ldw	r2,44(r2)
  804010:	d0a6b815 	stw	r2,-25888(gp)
  804014:	e0bffa17 	ldw	r2,-24(fp)
  804018:	11000b17 	ldw	r4,44(r2)
  80401c:	01400504 	movi	r5,20
  804020:	0802c140 	call	802c14 <__mulsi3>
  804024:	1007883a 	mov	r3,r2
  804028:	00802074 	movhi	r2,129
  80402c:	10907404 	addi	r2,r2,16848
  804030:	1889883a 	add	r4,r3,r2
  804034:	e0bffa17 	ldw	r2,-24(fp)
  804038:	11400104 	addi	r5,r2,4
  80403c:	08083340 	call	808334 <vListInsertEnd>
  804040:	00800044 	movi	r2,1
  804044:	e0bffb15 	stw	r2,-20(fp)
  804048:	08059140 	call	805914 <xTaskGetSchedulerState>
  80404c:	1005003a 	cmpeq	r2,r2,zero
  804050:	1000041e 	bne	r2,zero,804064 <xTaskGenericCreate+0x1c8>
  804054:	0805b980 	call	805b98 <vTaskExitCritical>
  804058:	00000206 	br	804064 <xTaskGenericCreate+0x1c8>
  80405c:	00bfffc4 	movi	r2,-1
  804060:	e0bffb15 	stw	r2,-20(fp)
  804064:	e0bffb17 	ldw	r2,-20(fp)
  804068:	10800058 	cmpnei	r2,r2,1
  80406c:	1000081e 	bne	r2,zero,804090 <xTaskGenericCreate+0x1f4>
  804070:	d0a6b917 	ldw	r2,-25884(gp)
  804074:	1005003a 	cmpeq	r2,r2,zero
  804078:	1000051e 	bne	r2,zero,804090 <xTaskGenericCreate+0x1f4>
  80407c:	d0a6b317 	ldw	r2,-25908(gp)
  804080:	10c00b17 	ldw	r3,44(r2)
  804084:	e0800217 	ldw	r2,8(fp)
  804088:	1880012e 	bgeu	r3,r2,804090 <xTaskGenericCreate+0x1f4>
  80408c:	003b683a 	trap	0
  804090:	e0bffb17 	ldw	r2,-20(fp)
  804094:	e037883a 	mov	sp,fp
  804098:	dfc00117 	ldw	ra,4(sp)
  80409c:	df000017 	ldw	fp,0(sp)
  8040a0:	dec00204 	addi	sp,sp,8
  8040a4:	f800283a 	ret

008040a8 <vTaskDelete>:
  8040a8:	defffb04 	addi	sp,sp,-20
  8040ac:	dfc00415 	stw	ra,16(sp)
  8040b0:	df000315 	stw	fp,12(sp)
  8040b4:	df000304 	addi	fp,sp,12
  8040b8:	e13ffe15 	stw	r4,-8(fp)
  8040bc:	08059140 	call	805914 <xTaskGetSchedulerState>
  8040c0:	1005003a 	cmpeq	r2,r2,zero
  8040c4:	1000011e 	bne	r2,zero,8040cc <vTaskDelete+0x24>
  8040c8:	0805b480 	call	805b48 <vTaskEnterCritical>
  8040cc:	d0e6b317 	ldw	r3,-25908(gp)
  8040d0:	e0bffe17 	ldw	r2,-8(fp)
  8040d4:	10c0011e 	bne	r2,r3,8040dc <vTaskDelete+0x34>
  8040d8:	e03ffe15 	stw	zero,-8(fp)
  8040dc:	e0bffe17 	ldw	r2,-8(fp)
  8040e0:	1004c03a 	cmpne	r2,r2,zero
  8040e4:	1000031e 	bne	r2,zero,8040f4 <vTaskDelete+0x4c>
  8040e8:	d0a6b317 	ldw	r2,-25908(gp)
  8040ec:	e0bfff15 	stw	r2,-4(fp)
  8040f0:	00000206 	br	8040fc <vTaskDelete+0x54>
  8040f4:	e0bffe17 	ldw	r2,-8(fp)
  8040f8:	e0bfff15 	stw	r2,-4(fp)
  8040fc:	e0bfff17 	ldw	r2,-4(fp)
  804100:	e0bffd15 	stw	r2,-12(fp)
  804104:	e0bffd17 	ldw	r2,-12(fp)
  804108:	11000104 	addi	r4,r2,4
  80410c:	08084a00 	call	8084a0 <uxListRemove>
  804110:	e0bffd17 	ldw	r2,-12(fp)
  804114:	10800a17 	ldw	r2,40(r2)
  804118:	1005003a 	cmpeq	r2,r2,zero
  80411c:	1000031e 	bne	r2,zero,80412c <vTaskDelete+0x84>
  804120:	e0bffd17 	ldw	r2,-12(fp)
  804124:	11000604 	addi	r4,r2,24
  804128:	08084a00 	call	8084a0 <uxListRemove>
  80412c:	e0bffd17 	ldw	r2,-12(fp)
  804130:	11400104 	addi	r5,r2,4
  804134:	01002074 	movhi	r4,129
  804138:	21109c04 	addi	r4,r4,17008
  80413c:	08083340 	call	808334 <vListInsertEnd>
  804140:	d0a6b417 	ldw	r2,-25904(gp)
  804144:	10800044 	addi	r2,r2,1
  804148:	d0a6b415 	stw	r2,-25904(gp)
  80414c:	d0a6be17 	ldw	r2,-25864(gp)
  804150:	10800044 	addi	r2,r2,1
  804154:	d0a6be15 	stw	r2,-25864(gp)
  804158:	08059140 	call	805914 <xTaskGetSchedulerState>
  80415c:	1005003a 	cmpeq	r2,r2,zero
  804160:	1000011e 	bne	r2,zero,804168 <vTaskDelete+0xc0>
  804164:	0805b980 	call	805b98 <vTaskExitCritical>
  804168:	d0a6b917 	ldw	r2,-25884(gp)
  80416c:	1005003a 	cmpeq	r2,r2,zero
  804170:	1000041e 	bne	r2,zero,804184 <vTaskDelete+0xdc>
  804174:	e0bffe17 	ldw	r2,-8(fp)
  804178:	1004c03a 	cmpne	r2,r2,zero
  80417c:	1000011e 	bne	r2,zero,804184 <vTaskDelete+0xdc>
  804180:	003b683a 	trap	0
  804184:	e037883a 	mov	sp,fp
  804188:	dfc00117 	ldw	ra,4(sp)
  80418c:	df000017 	ldw	fp,0(sp)
  804190:	dec00204 	addi	sp,sp,8
  804194:	f800283a 	ret

00804198 <vTaskDelayUntil>:
  804198:	defff904 	addi	sp,sp,-28
  80419c:	dfc00615 	stw	ra,24(sp)
  8041a0:	df000515 	stw	fp,20(sp)
  8041a4:	df000504 	addi	fp,sp,20
  8041a8:	e13ffe15 	stw	r4,-8(fp)
  8041ac:	e17fff15 	stw	r5,-4(fp)
  8041b0:	e03ffb15 	stw	zero,-20(fp)
  8041b4:	08049500 	call	804950 <vTaskSuspendAll>
  8041b8:	e0bffe17 	ldw	r2,-8(fp)
  8041bc:	10c00017 	ldw	r3,0(r2)
  8041c0:	e0bfff17 	ldw	r2,-4(fp)
  8041c4:	1885883a 	add	r2,r3,r2
  8041c8:	e0bffd15 	stw	r2,-12(fp)
  8041cc:	e0bffe17 	ldw	r2,-8(fp)
  8041d0:	10c00017 	ldw	r3,0(r2)
  8041d4:	d0a6b617 	ldw	r2,-25896(gp)
  8041d8:	10c00a2e 	bgeu	r2,r3,804204 <vTaskDelayUntil+0x6c>
  8041dc:	e0bffe17 	ldw	r2,-8(fp)
  8041e0:	10c00017 	ldw	r3,0(r2)
  8041e4:	e0bffd17 	ldw	r2,-12(fp)
  8041e8:	10c00f2e 	bgeu	r2,r3,804228 <vTaskDelayUntil+0x90>
  8041ec:	d0e6b617 	ldw	r3,-25896(gp)
  8041f0:	e0bffd17 	ldw	r2,-12(fp)
  8041f4:	18800c2e 	bgeu	r3,r2,804228 <vTaskDelayUntil+0x90>
  8041f8:	00800044 	movi	r2,1
  8041fc:	e0bffb15 	stw	r2,-20(fp)
  804200:	00000906 	br	804228 <vTaskDelayUntil+0x90>
  804204:	e0bffe17 	ldw	r2,-8(fp)
  804208:	10c00017 	ldw	r3,0(r2)
  80420c:	e0bffd17 	ldw	r2,-12(fp)
  804210:	10c00336 	bltu	r2,r3,804220 <vTaskDelayUntil+0x88>
  804214:	d0e6b617 	ldw	r3,-25896(gp)
  804218:	e0bffd17 	ldw	r2,-12(fp)
  80421c:	1880022e 	bgeu	r3,r2,804228 <vTaskDelayUntil+0x90>
  804220:	00800044 	movi	r2,1
  804224:	e0bffb15 	stw	r2,-20(fp)
  804228:	e0fffe17 	ldw	r3,-8(fp)
  80422c:	e0bffd17 	ldw	r2,-12(fp)
  804230:	18800015 	stw	r2,0(r3)
  804234:	e0bffb17 	ldw	r2,-20(fp)
  804238:	1005003a 	cmpeq	r2,r2,zero
  80423c:	1000051e 	bne	r2,zero,804254 <vTaskDelayUntil+0xbc>
  804240:	d0a6b317 	ldw	r2,-25908(gp)
  804244:	11000104 	addi	r4,r2,4
  804248:	08084a00 	call	8084a0 <uxListRemove>
  80424c:	e13ffd17 	ldw	r4,-12(fp)
  804250:	08055580 	call	805558 <prvAddCurrentTaskToDelayedList>
  804254:	08049780 	call	804978 <xTaskResumeAll>
  804258:	e0bffc15 	stw	r2,-16(fp)
  80425c:	e0bffc17 	ldw	r2,-16(fp)
  804260:	1004c03a 	cmpne	r2,r2,zero
  804264:	1000011e 	bne	r2,zero,80426c <vTaskDelayUntil+0xd4>
  804268:	003b683a 	trap	0
  80426c:	e037883a 	mov	sp,fp
  804270:	dfc00117 	ldw	ra,4(sp)
  804274:	df000017 	ldw	fp,0(sp)
  804278:	dec00204 	addi	sp,sp,8
  80427c:	f800283a 	ret

00804280 <vTaskDelay>:
  804280:	defffb04 	addi	sp,sp,-20
  804284:	dfc00415 	stw	ra,16(sp)
  804288:	df000315 	stw	fp,12(sp)
  80428c:	df000304 	addi	fp,sp,12
  804290:	e13fff15 	stw	r4,-4(fp)
  804294:	e03ffd15 	stw	zero,-12(fp)
  804298:	e0bfff17 	ldw	r2,-4(fp)
  80429c:	1005003a 	cmpeq	r2,r2,zero
  8042a0:	10000c1e 	bne	r2,zero,8042d4 <vTaskDelay+0x54>
  8042a4:	08049500 	call	804950 <vTaskSuspendAll>
  8042a8:	d0e6b617 	ldw	r3,-25896(gp)
  8042ac:	e0bfff17 	ldw	r2,-4(fp)
  8042b0:	1885883a 	add	r2,r3,r2
  8042b4:	e0bffe15 	stw	r2,-8(fp)
  8042b8:	d0a6b317 	ldw	r2,-25908(gp)
  8042bc:	11000104 	addi	r4,r2,4
  8042c0:	08084a00 	call	8084a0 <uxListRemove>
  8042c4:	e13ffe17 	ldw	r4,-8(fp)
  8042c8:	08055580 	call	805558 <prvAddCurrentTaskToDelayedList>
  8042cc:	08049780 	call	804978 <xTaskResumeAll>
  8042d0:	e0bffd15 	stw	r2,-12(fp)
  8042d4:	e0bffd17 	ldw	r2,-12(fp)
  8042d8:	1004c03a 	cmpne	r2,r2,zero
  8042dc:	1000011e 	bne	r2,zero,8042e4 <vTaskDelay+0x64>
  8042e0:	003b683a 	trap	0
  8042e4:	e037883a 	mov	sp,fp
  8042e8:	dfc00117 	ldw	ra,4(sp)
  8042ec:	df000017 	ldw	fp,0(sp)
  8042f0:	dec00204 	addi	sp,sp,8
  8042f4:	f800283a 	ret

008042f8 <uxTaskPriorityGet>:
  8042f8:	defffa04 	addi	sp,sp,-24
  8042fc:	dfc00515 	stw	ra,20(sp)
  804300:	df000415 	stw	fp,16(sp)
  804304:	df000404 	addi	fp,sp,16
  804308:	e13ffe15 	stw	r4,-8(fp)
  80430c:	08059140 	call	805914 <xTaskGetSchedulerState>
  804310:	1005003a 	cmpeq	r2,r2,zero
  804314:	1000011e 	bne	r2,zero,80431c <uxTaskPriorityGet+0x24>
  804318:	0805b480 	call	805b48 <vTaskEnterCritical>
  80431c:	e0bffe17 	ldw	r2,-8(fp)
  804320:	1004c03a 	cmpne	r2,r2,zero
  804324:	1000031e 	bne	r2,zero,804334 <uxTaskPriorityGet+0x3c>
  804328:	d0a6b317 	ldw	r2,-25908(gp)
  80432c:	e0bfff15 	stw	r2,-4(fp)
  804330:	00000206 	br	80433c <uxTaskPriorityGet+0x44>
  804334:	e0bffe17 	ldw	r2,-8(fp)
  804338:	e0bfff15 	stw	r2,-4(fp)
  80433c:	e0bfff17 	ldw	r2,-4(fp)
  804340:	e0bffd15 	stw	r2,-12(fp)
  804344:	e0bffd17 	ldw	r2,-12(fp)
  804348:	10800b17 	ldw	r2,44(r2)
  80434c:	e0bffc15 	stw	r2,-16(fp)
  804350:	08059140 	call	805914 <xTaskGetSchedulerState>
  804354:	1005003a 	cmpeq	r2,r2,zero
  804358:	1000011e 	bne	r2,zero,804360 <uxTaskPriorityGet+0x68>
  80435c:	0805b980 	call	805b98 <vTaskExitCritical>
  804360:	e0bffc17 	ldw	r2,-16(fp)
  804364:	e037883a 	mov	sp,fp
  804368:	dfc00117 	ldw	ra,4(sp)
  80436c:	df000017 	ldw	fp,0(sp)
  804370:	dec00204 	addi	sp,sp,8
  804374:	f800283a 	ret

00804378 <vTaskPrioritySet>:
  804378:	defff604 	addi	sp,sp,-40
  80437c:	dfc00915 	stw	ra,36(sp)
  804380:	df000815 	stw	fp,32(sp)
  804384:	dc000715 	stw	r16,28(sp)
  804388:	df000704 	addi	fp,sp,28
  80438c:	e13ffd15 	stw	r4,-12(fp)
  804390:	e17ffe15 	stw	r5,-8(fp)
  804394:	e03ff915 	stw	zero,-28(fp)
  804398:	e0bffe17 	ldw	r2,-8(fp)
  80439c:	10800170 	cmpltui	r2,r2,5
  8043a0:	1000021e 	bne	r2,zero,8043ac <vTaskPrioritySet+0x34>
  8043a4:	00800104 	movi	r2,4
  8043a8:	e0bffe15 	stw	r2,-8(fp)
  8043ac:	08059140 	call	805914 <xTaskGetSchedulerState>
  8043b0:	1005003a 	cmpeq	r2,r2,zero
  8043b4:	1000011e 	bne	r2,zero,8043bc <vTaskPrioritySet+0x44>
  8043b8:	0805b480 	call	805b48 <vTaskEnterCritical>
  8043bc:	d0e6b317 	ldw	r3,-25908(gp)
  8043c0:	e0bffd17 	ldw	r2,-12(fp)
  8043c4:	10c0011e 	bne	r2,r3,8043cc <vTaskPrioritySet+0x54>
  8043c8:	e03ffd15 	stw	zero,-12(fp)
  8043cc:	e0bffd17 	ldw	r2,-12(fp)
  8043d0:	1004c03a 	cmpne	r2,r2,zero
  8043d4:	1000031e 	bne	r2,zero,8043e4 <vTaskPrioritySet+0x6c>
  8043d8:	d0a6b317 	ldw	r2,-25908(gp)
  8043dc:	e0bfff15 	stw	r2,-4(fp)
  8043e0:	00000206 	br	8043ec <vTaskPrioritySet+0x74>
  8043e4:	e0bffd17 	ldw	r2,-12(fp)
  8043e8:	e0bfff15 	stw	r2,-4(fp)
  8043ec:	e0bfff17 	ldw	r2,-4(fp)
  8043f0:	e0bffc15 	stw	r2,-16(fp)
  8043f4:	e0bffc17 	ldw	r2,-16(fp)
  8043f8:	10801a17 	ldw	r2,104(r2)
  8043fc:	e0bffb15 	stw	r2,-20(fp)
  804400:	e0fffb17 	ldw	r3,-20(fp)
  804404:	e0bffe17 	ldw	r2,-8(fp)
  804408:	18804426 	beq	r3,r2,80451c <vTaskPrioritySet+0x1a4>
  80440c:	e0fffe17 	ldw	r3,-8(fp)
  804410:	e0bffb17 	ldw	r2,-20(fp)
  804414:	10c0062e 	bgeu	r2,r3,804430 <vTaskPrioritySet+0xb8>
  804418:	e0bffd17 	ldw	r2,-12(fp)
  80441c:	1005003a 	cmpeq	r2,r2,zero
  804420:	1000081e 	bne	r2,zero,804444 <vTaskPrioritySet+0xcc>
  804424:	00800044 	movi	r2,1
  804428:	e0bff915 	stw	r2,-28(fp)
  80442c:	00000506 	br	804444 <vTaskPrioritySet+0xcc>
  804430:	e0bffd17 	ldw	r2,-12(fp)
  804434:	1004c03a 	cmpne	r2,r2,zero
  804438:	1000021e 	bne	r2,zero,804444 <vTaskPrioritySet+0xcc>
  80443c:	00800044 	movi	r2,1
  804440:	e0bff915 	stw	r2,-28(fp)
  804444:	e0bffc17 	ldw	r2,-16(fp)
  804448:	10800b17 	ldw	r2,44(r2)
  80444c:	e0bffa15 	stw	r2,-24(fp)
  804450:	e0bffc17 	ldw	r2,-16(fp)
  804454:	10c01a17 	ldw	r3,104(r2)
  804458:	e0bffc17 	ldw	r2,-16(fp)
  80445c:	10800b17 	ldw	r2,44(r2)
  804460:	1880031e 	bne	r3,r2,804470 <vTaskPrioritySet+0xf8>
  804464:	e0fffc17 	ldw	r3,-16(fp)
  804468:	e0bffe17 	ldw	r2,-8(fp)
  80446c:	18800b15 	stw	r2,44(r3)
  804470:	e0fffc17 	ldw	r3,-16(fp)
  804474:	e0bffe17 	ldw	r2,-8(fp)
  804478:	18801a15 	stw	r2,104(r3)
  80447c:	00c00144 	movi	r3,5
  804480:	e0bffe17 	ldw	r2,-8(fp)
  804484:	1887c83a 	sub	r3,r3,r2
  804488:	e0bffc17 	ldw	r2,-16(fp)
  80448c:	10c00615 	stw	r3,24(r2)
  804490:	e0bffc17 	ldw	r2,-16(fp)
  804494:	14000517 	ldw	r16,20(r2)
  804498:	e13ffb17 	ldw	r4,-20(fp)
  80449c:	01400504 	movi	r5,20
  8044a0:	0802c140 	call	802c14 <__mulsi3>
  8044a4:	1007883a 	mov	r3,r2
  8044a8:	00802074 	movhi	r2,129
  8044ac:	10907404 	addi	r2,r2,16848
  8044b0:	1885883a 	add	r2,r3,r2
  8044b4:	8080151e 	bne	r16,r2,80450c <vTaskPrioritySet+0x194>
  8044b8:	e0bffc17 	ldw	r2,-16(fp)
  8044bc:	11000104 	addi	r4,r2,4
  8044c0:	08084a00 	call	8084a0 <uxListRemove>
  8044c4:	e0bffc17 	ldw	r2,-16(fp)
  8044c8:	10c00b17 	ldw	r3,44(r2)
  8044cc:	d0a6b817 	ldw	r2,-25888(gp)
  8044d0:	10c0032e 	bgeu	r2,r3,8044e0 <vTaskPrioritySet+0x168>
  8044d4:	e0bffc17 	ldw	r2,-16(fp)
  8044d8:	10800b17 	ldw	r2,44(r2)
  8044dc:	d0a6b815 	stw	r2,-25888(gp)
  8044e0:	e0bffc17 	ldw	r2,-16(fp)
  8044e4:	11000b17 	ldw	r4,44(r2)
  8044e8:	01400504 	movi	r5,20
  8044ec:	0802c140 	call	802c14 <__mulsi3>
  8044f0:	1007883a 	mov	r3,r2
  8044f4:	00802074 	movhi	r2,129
  8044f8:	10907404 	addi	r2,r2,16848
  8044fc:	1889883a 	add	r4,r3,r2
  804500:	e0bffc17 	ldw	r2,-16(fp)
  804504:	11400104 	addi	r5,r2,4
  804508:	08083340 	call	808334 <vListInsertEnd>
  80450c:	e0bff917 	ldw	r2,-28(fp)
  804510:	10800058 	cmpnei	r2,r2,1
  804514:	1000011e 	bne	r2,zero,80451c <vTaskPrioritySet+0x1a4>
  804518:	003b683a 	trap	0
  80451c:	08059140 	call	805914 <xTaskGetSchedulerState>
  804520:	1005003a 	cmpeq	r2,r2,zero
  804524:	1000011e 	bne	r2,zero,80452c <vTaskPrioritySet+0x1b4>
  804528:	0805b980 	call	805b98 <vTaskExitCritical>
  80452c:	e037883a 	mov	sp,fp
  804530:	dfc00217 	ldw	ra,8(sp)
  804534:	df000117 	ldw	fp,4(sp)
  804538:	dc000017 	ldw	r16,0(sp)
  80453c:	dec00304 	addi	sp,sp,12
  804540:	f800283a 	ret

00804544 <vTaskSuspend>:
  804544:	defffb04 	addi	sp,sp,-20
  804548:	dfc00415 	stw	ra,16(sp)
  80454c:	df000315 	stw	fp,12(sp)
  804550:	df000304 	addi	fp,sp,12
  804554:	e13ffe15 	stw	r4,-8(fp)
  804558:	08059140 	call	805914 <xTaskGetSchedulerState>
  80455c:	1005003a 	cmpeq	r2,r2,zero
  804560:	1000011e 	bne	r2,zero,804568 <vTaskSuspend+0x24>
  804564:	0805b480 	call	805b48 <vTaskEnterCritical>
  804568:	d0e6b317 	ldw	r3,-25908(gp)
  80456c:	e0bffe17 	ldw	r2,-8(fp)
  804570:	10c0011e 	bne	r2,r3,804578 <vTaskSuspend+0x34>
  804574:	e03ffe15 	stw	zero,-8(fp)
  804578:	e0bffe17 	ldw	r2,-8(fp)
  80457c:	1004c03a 	cmpne	r2,r2,zero
  804580:	1000031e 	bne	r2,zero,804590 <vTaskSuspend+0x4c>
  804584:	d0a6b317 	ldw	r2,-25908(gp)
  804588:	e0bfff15 	stw	r2,-4(fp)
  80458c:	00000206 	br	804598 <vTaskSuspend+0x54>
  804590:	e0bffe17 	ldw	r2,-8(fp)
  804594:	e0bfff15 	stw	r2,-4(fp)
  804598:	e0bfff17 	ldw	r2,-4(fp)
  80459c:	e0bffd15 	stw	r2,-12(fp)
  8045a0:	e0bffd17 	ldw	r2,-12(fp)
  8045a4:	11000104 	addi	r4,r2,4
  8045a8:	08084a00 	call	8084a0 <uxListRemove>
  8045ac:	e0bffd17 	ldw	r2,-12(fp)
  8045b0:	10800a17 	ldw	r2,40(r2)
  8045b4:	1005003a 	cmpeq	r2,r2,zero
  8045b8:	1000031e 	bne	r2,zero,8045c8 <vTaskSuspend+0x84>
  8045bc:	e0bffd17 	ldw	r2,-12(fp)
  8045c0:	11000604 	addi	r4,r2,24
  8045c4:	08084a00 	call	8084a0 <uxListRemove>
  8045c8:	e0bffd17 	ldw	r2,-12(fp)
  8045cc:	11400104 	addi	r5,r2,4
  8045d0:	01002074 	movhi	r4,129
  8045d4:	2110a104 	addi	r4,r4,17028
  8045d8:	08083340 	call	808334 <vListInsertEnd>
  8045dc:	08059140 	call	805914 <xTaskGetSchedulerState>
  8045e0:	1005003a 	cmpeq	r2,r2,zero
  8045e4:	1000011e 	bne	r2,zero,8045ec <vTaskSuspend+0xa8>
  8045e8:	0805b980 	call	805b98 <vTaskExitCritical>
  8045ec:	e0bffe17 	ldw	r2,-8(fp)
  8045f0:	1004c03a 	cmpne	r2,r2,zero
  8045f4:	10000d1e 	bne	r2,zero,80462c <vTaskSuspend+0xe8>
  8045f8:	d0a6b917 	ldw	r2,-25884(gp)
  8045fc:	1005003a 	cmpeq	r2,r2,zero
  804600:	1000021e 	bne	r2,zero,80460c <vTaskSuspend+0xc8>
  804604:	003b683a 	trap	0
  804608:	00000806 	br	80462c <vTaskSuspend+0xe8>
  80460c:	00802074 	movhi	r2,129
  804610:	1090a104 	addi	r2,r2,17028
  804614:	10c00017 	ldw	r3,0(r2)
  804618:	d0a6b517 	ldw	r2,-25900(gp)
  80461c:	1880021e 	bne	r3,r2,804628 <vTaskSuspend+0xe4>
  804620:	d026b315 	stw	zero,-25908(gp)
  804624:	00000106 	br	80462c <vTaskSuspend+0xe8>
  804628:	0804e780 	call	804e78 <vTaskSwitchContext>
  80462c:	e037883a 	mov	sp,fp
  804630:	dfc00117 	ldw	ra,4(sp)
  804634:	df000017 	ldw	fp,0(sp)
  804638:	dec00204 	addi	sp,sp,8
  80463c:	f800283a 	ret

00804640 <xTaskIsTaskSuspended>:
  804640:	defffc04 	addi	sp,sp,-16
  804644:	df000315 	stw	fp,12(sp)
  804648:	df000304 	addi	fp,sp,12
  80464c:	e13fff15 	stw	r4,-4(fp)
  804650:	e03ffe15 	stw	zero,-8(fp)
  804654:	e0bfff17 	ldw	r2,-4(fp)
  804658:	e0bffd15 	stw	r2,-12(fp)
  80465c:	e0bffd17 	ldw	r2,-12(fp)
  804660:	10c00517 	ldw	r3,20(r2)
  804664:	00802074 	movhi	r2,129
  804668:	1090a104 	addi	r2,r2,17028
  80466c:	18800b1e 	bne	r3,r2,80469c <xTaskIsTaskSuspended+0x5c>
  804670:	e0bffd17 	ldw	r2,-12(fp)
  804674:	10c00a17 	ldw	r3,40(r2)
  804678:	00802074 	movhi	r2,129
  80467c:	10909704 	addi	r2,r2,16988
  804680:	18800626 	beq	r3,r2,80469c <xTaskIsTaskSuspended+0x5c>
  804684:	e0bffd17 	ldw	r2,-12(fp)
  804688:	10800a17 	ldw	r2,40(r2)
  80468c:	1004c03a 	cmpne	r2,r2,zero
  804690:	1000021e 	bne	r2,zero,80469c <xTaskIsTaskSuspended+0x5c>
  804694:	00800044 	movi	r2,1
  804698:	e0bffe15 	stw	r2,-8(fp)
  80469c:	e0bffe17 	ldw	r2,-8(fp)
  8046a0:	e037883a 	mov	sp,fp
  8046a4:	df000017 	ldw	fp,0(sp)
  8046a8:	dec00104 	addi	sp,sp,4
  8046ac:	f800283a 	ret

008046b0 <vTaskResume>:
  8046b0:	defffc04 	addi	sp,sp,-16
  8046b4:	dfc00315 	stw	ra,12(sp)
  8046b8:	df000215 	stw	fp,8(sp)
  8046bc:	df000204 	addi	fp,sp,8
  8046c0:	e13fff15 	stw	r4,-4(fp)
  8046c4:	e0bfff17 	ldw	r2,-4(fp)
  8046c8:	e0bffe15 	stw	r2,-8(fp)
  8046cc:	e0bffe17 	ldw	r2,-8(fp)
  8046d0:	1005003a 	cmpeq	r2,r2,zero
  8046d4:	10002a1e 	bne	r2,zero,804780 <vTaskResume+0xd0>
  8046d8:	d0e6b317 	ldw	r3,-25908(gp)
  8046dc:	e0bffe17 	ldw	r2,-8(fp)
  8046e0:	10c02726 	beq	r2,r3,804780 <vTaskResume+0xd0>
  8046e4:	08059140 	call	805914 <xTaskGetSchedulerState>
  8046e8:	1005003a 	cmpeq	r2,r2,zero
  8046ec:	1000011e 	bne	r2,zero,8046f4 <vTaskResume+0x44>
  8046f0:	0805b480 	call	805b48 <vTaskEnterCritical>
  8046f4:	e13ffe17 	ldw	r4,-8(fp)
  8046f8:	08046400 	call	804640 <xTaskIsTaskSuspended>
  8046fc:	10800058 	cmpnei	r2,r2,1
  804700:	10001b1e 	bne	r2,zero,804770 <vTaskResume+0xc0>
  804704:	e0bffe17 	ldw	r2,-8(fp)
  804708:	11000104 	addi	r4,r2,4
  80470c:	08084a00 	call	8084a0 <uxListRemove>
  804710:	e0bffe17 	ldw	r2,-8(fp)
  804714:	10c00b17 	ldw	r3,44(r2)
  804718:	d0a6b817 	ldw	r2,-25888(gp)
  80471c:	10c0032e 	bgeu	r2,r3,80472c <vTaskResume+0x7c>
  804720:	e0bffe17 	ldw	r2,-8(fp)
  804724:	10800b17 	ldw	r2,44(r2)
  804728:	d0a6b815 	stw	r2,-25888(gp)
  80472c:	e0bffe17 	ldw	r2,-8(fp)
  804730:	11000b17 	ldw	r4,44(r2)
  804734:	01400504 	movi	r5,20
  804738:	0802c140 	call	802c14 <__mulsi3>
  80473c:	1007883a 	mov	r3,r2
  804740:	00802074 	movhi	r2,129
  804744:	10907404 	addi	r2,r2,16848
  804748:	1889883a 	add	r4,r3,r2
  80474c:	e0bffe17 	ldw	r2,-8(fp)
  804750:	11400104 	addi	r5,r2,4
  804754:	08083340 	call	808334 <vListInsertEnd>
  804758:	e0bffe17 	ldw	r2,-8(fp)
  80475c:	10c00b17 	ldw	r3,44(r2)
  804760:	d0a6b317 	ldw	r2,-25908(gp)
  804764:	10800b17 	ldw	r2,44(r2)
  804768:	18800136 	bltu	r3,r2,804770 <vTaskResume+0xc0>
  80476c:	003b683a 	trap	0
  804770:	08059140 	call	805914 <xTaskGetSchedulerState>
  804774:	1005003a 	cmpeq	r2,r2,zero
  804778:	1000011e 	bne	r2,zero,804780 <vTaskResume+0xd0>
  80477c:	0805b980 	call	805b98 <vTaskExitCritical>
  804780:	e037883a 	mov	sp,fp
  804784:	dfc00117 	ldw	ra,4(sp)
  804788:	df000017 	ldw	fp,0(sp)
  80478c:	dec00204 	addi	sp,sp,8
  804790:	f800283a 	ret

00804794 <xTaskResumeFromISR>:
  804794:	defffa04 	addi	sp,sp,-24
  804798:	dfc00515 	stw	ra,20(sp)
  80479c:	df000415 	stw	fp,16(sp)
  8047a0:	df000404 	addi	fp,sp,16
  8047a4:	e13fff15 	stw	r4,-4(fp)
  8047a8:	e03ffe15 	stw	zero,-8(fp)
  8047ac:	e0bfff17 	ldw	r2,-4(fp)
  8047b0:	e0bffd15 	stw	r2,-12(fp)
  8047b4:	e03ffc15 	stw	zero,-16(fp)
  8047b8:	e13ffd17 	ldw	r4,-12(fp)
  8047bc:	08046400 	call	804640 <xTaskIsTaskSuspended>
  8047c0:	10800058 	cmpnei	r2,r2,1
  8047c4:	1000241e 	bne	r2,zero,804858 <xTaskResumeFromISR+0xc4>
  8047c8:	d0a6ba17 	ldw	r2,-25880(gp)
  8047cc:	1004c03a 	cmpne	r2,r2,zero
  8047d0:	10001c1e 	bne	r2,zero,804844 <xTaskResumeFromISR+0xb0>
  8047d4:	e0bffd17 	ldw	r2,-12(fp)
  8047d8:	10c00b17 	ldw	r3,44(r2)
  8047dc:	d0a6b317 	ldw	r2,-25908(gp)
  8047e0:	10800b17 	ldw	r2,44(r2)
  8047e4:	1885403a 	cmpgeu	r2,r3,r2
  8047e8:	e0bffe15 	stw	r2,-8(fp)
  8047ec:	e0bffd17 	ldw	r2,-12(fp)
  8047f0:	11000104 	addi	r4,r2,4
  8047f4:	08084a00 	call	8084a0 <uxListRemove>
  8047f8:	e0bffd17 	ldw	r2,-12(fp)
  8047fc:	10c00b17 	ldw	r3,44(r2)
  804800:	d0a6b817 	ldw	r2,-25888(gp)
  804804:	10c0032e 	bgeu	r2,r3,804814 <xTaskResumeFromISR+0x80>
  804808:	e0bffd17 	ldw	r2,-12(fp)
  80480c:	10800b17 	ldw	r2,44(r2)
  804810:	d0a6b815 	stw	r2,-25888(gp)
  804814:	e0bffd17 	ldw	r2,-12(fp)
  804818:	11000b17 	ldw	r4,44(r2)
  80481c:	01400504 	movi	r5,20
  804820:	0802c140 	call	802c14 <__mulsi3>
  804824:	1007883a 	mov	r3,r2
  804828:	00802074 	movhi	r2,129
  80482c:	10907404 	addi	r2,r2,16848
  804830:	1889883a 	add	r4,r3,r2
  804834:	e0bffd17 	ldw	r2,-12(fp)
  804838:	11400104 	addi	r5,r2,4
  80483c:	08083340 	call	808334 <vListInsertEnd>
  804840:	00000506 	br	804858 <xTaskResumeFromISR+0xc4>
  804844:	e0bffd17 	ldw	r2,-12(fp)
  804848:	11400604 	addi	r5,r2,24
  80484c:	01002074 	movhi	r4,129
  804850:	21109704 	addi	r4,r4,16988
  804854:	08083340 	call	808334 <vListInsertEnd>
  804858:	e0bffe17 	ldw	r2,-8(fp)
  80485c:	e037883a 	mov	sp,fp
  804860:	dfc00117 	ldw	ra,4(sp)
  804864:	df000017 	ldw	fp,0(sp)
  804868:	dec00204 	addi	sp,sp,8
  80486c:	f800283a 	ret

00804870 <vTaskStartScheduler>:
  804870:	defff804 	addi	sp,sp,-32
  804874:	dfc00715 	stw	ra,28(sp)
  804878:	df000615 	stw	fp,24(sp)
  80487c:	df000604 	addi	fp,sp,24
  804880:	01402074 	movhi	r5,129
  804884:	29423004 	addi	r5,r5,2240
  804888:	d8000015 	stw	zero,0(sp)
  80488c:	d8000115 	stw	zero,4(sp)
  804890:	d8000215 	stw	zero,8(sp)
  804894:	d8000315 	stw	zero,12(sp)
  804898:	01002034 	movhi	r4,128
  80489c:	2114bd04 	addi	r4,r4,21236
  8048a0:	01810004 	movi	r6,1024
  8048a4:	000f883a 	mov	r7,zero
  8048a8:	0803e9c0 	call	803e9c <xTaskGenericCreate>
  8048ac:	e0bfff15 	stw	r2,-4(fp)
  8048b0:	e0bfff17 	ldw	r2,-4(fp)
  8048b4:	10800058 	cmpnei	r2,r2,1
  8048b8:	1000021e 	bne	r2,zero,8048c4 <vTaskStartScheduler+0x54>
  8048bc:	0805c000 	call	805c00 <xTimerCreateTimerTask>
  8048c0:	e0bfff15 	stw	r2,-4(fp)
  8048c4:	e0bfff17 	ldw	r2,-4(fp)
  8048c8:	10800058 	cmpnei	r2,r2,1
  8048cc:	10000a1e 	bne	r2,zero,8048f8 <vTaskStartScheduler+0x88>
  8048d0:	0005303a 	rdctl	r2,status
  8048d4:	e0bffe15 	stw	r2,-8(fp)
  8048d8:	e0fffe17 	ldw	r3,-8(fp)
  8048dc:	00bfff84 	movi	r2,-2
  8048e0:	1884703a 	and	r2,r3,r2
  8048e4:	1001703a 	wrctl	status,r2
  8048e8:	00800044 	movi	r2,1
  8048ec:	d0a6b915 	stw	r2,-25884(gp)
  8048f0:	d026b615 	stw	zero,-25896(gp)
  8048f4:	08086480 	call	808648 <xPortStartScheduler>
  8048f8:	e037883a 	mov	sp,fp
  8048fc:	dfc00117 	ldw	ra,4(sp)
  804900:	df000017 	ldw	fp,0(sp)
  804904:	dec00204 	addi	sp,sp,8
  804908:	f800283a 	ret

0080490c <vTaskEndScheduler>:
  80490c:	defffd04 	addi	sp,sp,-12
  804910:	dfc00215 	stw	ra,8(sp)
  804914:	df000115 	stw	fp,4(sp)
  804918:	df000104 	addi	fp,sp,4
  80491c:	0005303a 	rdctl	r2,status
  804920:	e0bfff15 	stw	r2,-4(fp)
  804924:	e0ffff17 	ldw	r3,-4(fp)
  804928:	00bfff84 	movi	r2,-2
  80492c:	1884703a 	and	r2,r3,r2
  804930:	1001703a 	wrctl	status,r2
  804934:	d026b915 	stw	zero,-25884(gp)
  804938:	08086740 	call	808674 <vPortEndScheduler>
  80493c:	e037883a 	mov	sp,fp
  804940:	dfc00117 	ldw	ra,4(sp)
  804944:	df000017 	ldw	fp,0(sp)
  804948:	dec00204 	addi	sp,sp,8
  80494c:	f800283a 	ret

00804950 <vTaskSuspendAll>:
  804950:	deffff04 	addi	sp,sp,-4
  804954:	df000015 	stw	fp,0(sp)
  804958:	d839883a 	mov	fp,sp
  80495c:	d0a6ba17 	ldw	r2,-25880(gp)
  804960:	10800044 	addi	r2,r2,1
  804964:	d0a6ba15 	stw	r2,-25880(gp)
  804968:	e037883a 	mov	sp,fp
  80496c:	df000017 	ldw	fp,0(sp)
  804970:	dec00104 	addi	sp,sp,4
  804974:	f800283a 	ret

00804978 <xTaskResumeAll>:
  804978:	defffb04 	addi	sp,sp,-20
  80497c:	dfc00415 	stw	ra,16(sp)
  804980:	df000315 	stw	fp,12(sp)
  804984:	df000304 	addi	fp,sp,12
  804988:	e03ffe15 	stw	zero,-8(fp)
  80498c:	08059140 	call	805914 <xTaskGetSchedulerState>
  804990:	1005003a 	cmpeq	r2,r2,zero
  804994:	1000011e 	bne	r2,zero,80499c <xTaskResumeAll+0x24>
  804998:	0805b480 	call	805b48 <vTaskEnterCritical>
  80499c:	d0a6ba17 	ldw	r2,-25880(gp)
  8049a0:	10bfffc4 	addi	r2,r2,-1
  8049a4:	d0a6ba15 	stw	r2,-25880(gp)
  8049a8:	d0a6ba17 	ldw	r2,-25880(gp)
  8049ac:	1004c03a 	cmpne	r2,r2,zero
  8049b0:	1000451e 	bne	r2,zero,804ac8 <xTaskResumeAll+0x150>
  8049b4:	d0a6b517 	ldw	r2,-25900(gp)
  8049b8:	1005003a 	cmpeq	r2,r2,zero
  8049bc:	1000421e 	bne	r2,zero,804ac8 <xTaskResumeAll+0x150>
  8049c0:	e03ffd15 	stw	zero,-12(fp)
  8049c4:	00002406 	br	804a58 <xTaskResumeAll+0xe0>
  8049c8:	00802074 	movhi	r2,129
  8049cc:	10909704 	addi	r2,r2,16988
  8049d0:	10800317 	ldw	r2,12(r2)
  8049d4:	10800317 	ldw	r2,12(r2)
  8049d8:	e0bfff15 	stw	r2,-4(fp)
  8049dc:	e0bfff17 	ldw	r2,-4(fp)
  8049e0:	11000604 	addi	r4,r2,24
  8049e4:	08084a00 	call	8084a0 <uxListRemove>
  8049e8:	e0ffff17 	ldw	r3,-4(fp)
  8049ec:	19000104 	addi	r4,r3,4
  8049f0:	08084a00 	call	8084a0 <uxListRemove>
  8049f4:	e0bfff17 	ldw	r2,-4(fp)
  8049f8:	10c00b17 	ldw	r3,44(r2)
  8049fc:	d0a6b817 	ldw	r2,-25888(gp)
  804a00:	10c0032e 	bgeu	r2,r3,804a10 <xTaskResumeAll+0x98>
  804a04:	e0ffff17 	ldw	r3,-4(fp)
  804a08:	18800b17 	ldw	r2,44(r3)
  804a0c:	d0a6b815 	stw	r2,-25888(gp)
  804a10:	e0bfff17 	ldw	r2,-4(fp)
  804a14:	11000b17 	ldw	r4,44(r2)
  804a18:	01400504 	movi	r5,20
  804a1c:	0802c140 	call	802c14 <__mulsi3>
  804a20:	1007883a 	mov	r3,r2
  804a24:	00802074 	movhi	r2,129
  804a28:	10907404 	addi	r2,r2,16848
  804a2c:	1889883a 	add	r4,r3,r2
  804a30:	e0ffff17 	ldw	r3,-4(fp)
  804a34:	19400104 	addi	r5,r3,4
  804a38:	08083340 	call	808334 <vListInsertEnd>
  804a3c:	e0bfff17 	ldw	r2,-4(fp)
  804a40:	10c00b17 	ldw	r3,44(r2)
  804a44:	d0a6b317 	ldw	r2,-25908(gp)
  804a48:	10800b17 	ldw	r2,44(r2)
  804a4c:	18800236 	bltu	r3,r2,804a58 <xTaskResumeAll+0xe0>
  804a50:	00800044 	movi	r2,1
  804a54:	e0bffd15 	stw	r2,-12(fp)
  804a58:	00802074 	movhi	r2,129
  804a5c:	10909704 	addi	r2,r2,16988
  804a60:	10800017 	ldw	r2,0(r2)
  804a64:	1004c03a 	cmpne	r2,r2,zero
  804a68:	103fd71e 	bne	r2,zero,8049c8 <xTaskResumeAll+0x50>
  804a6c:	d0a6bb17 	ldw	r2,-25876(gp)
  804a70:	1005003a 	cmpeq	r2,r2,zero
  804a74:	10000a1e 	bne	r2,zero,804aa0 <xTaskResumeAll+0x128>
  804a78:	00000406 	br	804a8c <xTaskResumeAll+0x114>
  804a7c:	0804cf80 	call	804cf8 <vTaskIncrementTick>
  804a80:	d0a6bb17 	ldw	r2,-25876(gp)
  804a84:	10bfffc4 	addi	r2,r2,-1
  804a88:	d0a6bb15 	stw	r2,-25876(gp)
  804a8c:	d0a6bb17 	ldw	r2,-25876(gp)
  804a90:	1004c03a 	cmpne	r2,r2,zero
  804a94:	103ff91e 	bne	r2,zero,804a7c <xTaskResumeAll+0x104>
  804a98:	00800044 	movi	r2,1
  804a9c:	e0bffd15 	stw	r2,-12(fp)
  804aa0:	e0bffd17 	ldw	r2,-12(fp)
  804aa4:	10800060 	cmpeqi	r2,r2,1
  804aa8:	1000031e 	bne	r2,zero,804ab8 <xTaskResumeAll+0x140>
  804aac:	d0a6bc17 	ldw	r2,-25872(gp)
  804ab0:	10800058 	cmpnei	r2,r2,1
  804ab4:	1000041e 	bne	r2,zero,804ac8 <xTaskResumeAll+0x150>
  804ab8:	00800044 	movi	r2,1
  804abc:	e0bffe15 	stw	r2,-8(fp)
  804ac0:	d026bc15 	stw	zero,-25872(gp)
  804ac4:	003b683a 	trap	0
  804ac8:	08059140 	call	805914 <xTaskGetSchedulerState>
  804acc:	1005003a 	cmpeq	r2,r2,zero
  804ad0:	1000011e 	bne	r2,zero,804ad8 <xTaskResumeAll+0x160>
  804ad4:	0805b980 	call	805b98 <vTaskExitCritical>
  804ad8:	e0bffe17 	ldw	r2,-8(fp)
  804adc:	e037883a 	mov	sp,fp
  804ae0:	dfc00117 	ldw	ra,4(sp)
  804ae4:	df000017 	ldw	fp,0(sp)
  804ae8:	dec00204 	addi	sp,sp,8
  804aec:	f800283a 	ret

00804af0 <xTaskGetTickCount>:
  804af0:	defffd04 	addi	sp,sp,-12
  804af4:	dfc00215 	stw	ra,8(sp)
  804af8:	df000115 	stw	fp,4(sp)
  804afc:	df000104 	addi	fp,sp,4
  804b00:	08059140 	call	805914 <xTaskGetSchedulerState>
  804b04:	1005003a 	cmpeq	r2,r2,zero
  804b08:	1000011e 	bne	r2,zero,804b10 <xTaskGetTickCount+0x20>
  804b0c:	0805b480 	call	805b48 <vTaskEnterCritical>
  804b10:	d0a6b617 	ldw	r2,-25896(gp)
  804b14:	e0bfff15 	stw	r2,-4(fp)
  804b18:	08059140 	call	805914 <xTaskGetSchedulerState>
  804b1c:	1005003a 	cmpeq	r2,r2,zero
  804b20:	1000011e 	bne	r2,zero,804b28 <xTaskGetTickCount+0x38>
  804b24:	0805b980 	call	805b98 <vTaskExitCritical>
  804b28:	e0bfff17 	ldw	r2,-4(fp)
  804b2c:	e037883a 	mov	sp,fp
  804b30:	dfc00117 	ldw	ra,4(sp)
  804b34:	df000017 	ldw	fp,0(sp)
  804b38:	dec00204 	addi	sp,sp,8
  804b3c:	f800283a 	ret

00804b40 <xTaskGetTickCountFromISR>:
  804b40:	defffd04 	addi	sp,sp,-12
  804b44:	df000215 	stw	fp,8(sp)
  804b48:	df000204 	addi	fp,sp,8
  804b4c:	e03ffe15 	stw	zero,-8(fp)
  804b50:	d0a6b617 	ldw	r2,-25896(gp)
  804b54:	e0bfff15 	stw	r2,-4(fp)
  804b58:	e0bfff17 	ldw	r2,-4(fp)
  804b5c:	e037883a 	mov	sp,fp
  804b60:	df000017 	ldw	fp,0(sp)
  804b64:	dec00104 	addi	sp,sp,4
  804b68:	f800283a 	ret

00804b6c <uxTaskGetNumberOfTasks>:
  804b6c:	deffff04 	addi	sp,sp,-4
  804b70:	df000015 	stw	fp,0(sp)
  804b74:	d839883a 	mov	fp,sp
  804b78:	d0a6b517 	ldw	r2,-25900(gp)
  804b7c:	e037883a 	mov	sp,fp
  804b80:	df000017 	ldw	fp,0(sp)
  804b84:	dec00104 	addi	sp,sp,4
  804b88:	f800283a 	ret

00804b8c <vTaskList>:
  804b8c:	defffb04 	addi	sp,sp,-20
  804b90:	dfc00415 	stw	ra,16(sp)
  804b94:	df000315 	stw	fp,12(sp)
  804b98:	dc000215 	stw	r16,8(sp)
  804b9c:	df000204 	addi	fp,sp,8
  804ba0:	e13fff15 	stw	r4,-4(fp)
  804ba4:	08049500 	call	804950 <vTaskSuspendAll>
  804ba8:	e0bfff17 	ldw	r2,-4(fp)
  804bac:	10000005 	stb	zero,0(r2)
  804bb0:	e43fff17 	ldw	r16,-4(fp)
  804bb4:	8009883a 	mov	r4,r16
  804bb8:	08003840 	call	800384 <strlen>
  804bbc:	1405883a 	add	r2,r2,r16
  804bc0:	1007883a 	mov	r3,r2
  804bc4:	00800344 	movi	r2,13
  804bc8:	18800005 	stb	r2,0(r3)
  804bcc:	00800284 	movi	r2,10
  804bd0:	18800045 	stb	r2,1(r3)
  804bd4:	18000085 	stb	zero,2(r3)
  804bd8:	d0a6b717 	ldw	r2,-25892(gp)
  804bdc:	10800044 	addi	r2,r2,1
  804be0:	e0bffe15 	stw	r2,-8(fp)
  804be4:	e0bffe17 	ldw	r2,-8(fp)
  804be8:	10bfffc4 	addi	r2,r2,-1
  804bec:	e0bffe15 	stw	r2,-8(fp)
  804bf0:	e13ffe17 	ldw	r4,-8(fp)
  804bf4:	01400504 	movi	r5,20
  804bf8:	0802c140 	call	802c14 <__mulsi3>
  804bfc:	1007883a 	mov	r3,r2
  804c00:	00802074 	movhi	r2,129
  804c04:	10907404 	addi	r2,r2,16848
  804c08:	1885883a 	add	r2,r3,r2
  804c0c:	10800017 	ldw	r2,0(r2)
  804c10:	1005003a 	cmpeq	r2,r2,zero
  804c14:	10000a1e 	bne	r2,zero,804c40 <vTaskList+0xb4>
  804c18:	e13ffe17 	ldw	r4,-8(fp)
  804c1c:	01400504 	movi	r5,20
  804c20:	0802c140 	call	802c14 <__mulsi3>
  804c24:	1007883a 	mov	r3,r2
  804c28:	00802074 	movhi	r2,129
  804c2c:	10907404 	addi	r2,r2,16848
  804c30:	188b883a 	add	r5,r3,r2
  804c34:	e13fff17 	ldw	r4,-4(fp)
  804c38:	01801484 	movi	r6,82
  804c3c:	08056940 	call	805694 <prvListTaskWithinSingleList>
  804c40:	e0bffe17 	ldw	r2,-8(fp)
  804c44:	1004c03a 	cmpne	r2,r2,zero
  804c48:	103fe61e 	bne	r2,zero,804be4 <vTaskList+0x58>
  804c4c:	d0a6bf17 	ldw	r2,-25860(gp)
  804c50:	10800017 	ldw	r2,0(r2)
  804c54:	1005003a 	cmpeq	r2,r2,zero
  804c58:	1000041e 	bne	r2,zero,804c6c <vTaskList+0xe0>
  804c5c:	d166bf17 	ldw	r5,-25860(gp)
  804c60:	e13fff17 	ldw	r4,-4(fp)
  804c64:	01801084 	movi	r6,66
  804c68:	08056940 	call	805694 <prvListTaskWithinSingleList>
  804c6c:	d0a6c017 	ldw	r2,-25856(gp)
  804c70:	10800017 	ldw	r2,0(r2)
  804c74:	1005003a 	cmpeq	r2,r2,zero
  804c78:	1000041e 	bne	r2,zero,804c8c <vTaskList+0x100>
  804c7c:	d166c017 	ldw	r5,-25856(gp)
  804c80:	e13fff17 	ldw	r4,-4(fp)
  804c84:	01801084 	movi	r6,66
  804c88:	08056940 	call	805694 <prvListTaskWithinSingleList>
  804c8c:	00802074 	movhi	r2,129
  804c90:	10909c04 	addi	r2,r2,17008
  804c94:	10800017 	ldw	r2,0(r2)
  804c98:	1005003a 	cmpeq	r2,r2,zero
  804c9c:	1000051e 	bne	r2,zero,804cb4 <vTaskList+0x128>
  804ca0:	e13fff17 	ldw	r4,-4(fp)
  804ca4:	01402074 	movhi	r5,129
  804ca8:	29509c04 	addi	r5,r5,17008
  804cac:	01801104 	movi	r6,68
  804cb0:	08056940 	call	805694 <prvListTaskWithinSingleList>
  804cb4:	00802074 	movhi	r2,129
  804cb8:	1090a104 	addi	r2,r2,17028
  804cbc:	10800017 	ldw	r2,0(r2)
  804cc0:	1005003a 	cmpeq	r2,r2,zero
  804cc4:	1000051e 	bne	r2,zero,804cdc <vTaskList+0x150>
  804cc8:	e13fff17 	ldw	r4,-4(fp)
  804ccc:	01402074 	movhi	r5,129
  804cd0:	2950a104 	addi	r5,r5,17028
  804cd4:	018014c4 	movi	r6,83
  804cd8:	08056940 	call	805694 <prvListTaskWithinSingleList>
  804cdc:	08049780 	call	804978 <xTaskResumeAll>
  804ce0:	e037883a 	mov	sp,fp
  804ce4:	dfc00217 	ldw	ra,8(sp)
  804ce8:	df000117 	ldw	fp,4(sp)
  804cec:	dc000017 	ldw	r16,0(sp)
  804cf0:	dec00304 	addi	sp,sp,12
  804cf4:	f800283a 	ret

00804cf8 <vTaskIncrementTick>:
  804cf8:	defffb04 	addi	sp,sp,-20
  804cfc:	dfc00415 	stw	ra,16(sp)
  804d00:	df000315 	stw	fp,12(sp)
  804d04:	df000304 	addi	fp,sp,12
  804d08:	d0a6ba17 	ldw	r2,-25880(gp)
  804d0c:	1004c03a 	cmpne	r2,r2,zero
  804d10:	1000511e 	bne	r2,zero,804e58 <vTaskIncrementTick+0x160>
  804d14:	d0a6b617 	ldw	r2,-25896(gp)
  804d18:	10800044 	addi	r2,r2,1
  804d1c:	d0a6b615 	stw	r2,-25896(gp)
  804d20:	d0a6b617 	ldw	r2,-25896(gp)
  804d24:	1004c03a 	cmpne	r2,r2,zero
  804d28:	1000171e 	bne	r2,zero,804d88 <vTaskIncrementTick+0x90>
  804d2c:	d0a6bf17 	ldw	r2,-25860(gp)
  804d30:	e0bffe15 	stw	r2,-8(fp)
  804d34:	d0a6c017 	ldw	r2,-25856(gp)
  804d38:	d0a6bf15 	stw	r2,-25860(gp)
  804d3c:	e0bffe17 	ldw	r2,-8(fp)
  804d40:	d0a6c015 	stw	r2,-25856(gp)
  804d44:	d0a6bd17 	ldw	r2,-25868(gp)
  804d48:	10800044 	addi	r2,r2,1
  804d4c:	d0a6bd15 	stw	r2,-25868(gp)
  804d50:	d0a6bf17 	ldw	r2,-25860(gp)
  804d54:	10800017 	ldw	r2,0(r2)
  804d58:	1004c03a 	cmpne	r2,r2,zero
  804d5c:	1000031e 	bne	r2,zero,804d6c <vTaskIncrementTick+0x74>
  804d60:	00bfffc4 	movi	r2,-1
  804d64:	d0a00415 	stw	r2,-32752(gp)
  804d68:	00000706 	br	804d88 <vTaskIncrementTick+0x90>
  804d6c:	d0a6bf17 	ldw	r2,-25860(gp)
  804d70:	10800317 	ldw	r2,12(r2)
  804d74:	10800317 	ldw	r2,12(r2)
  804d78:	e0bfff15 	stw	r2,-4(fp)
  804d7c:	e0bfff17 	ldw	r2,-4(fp)
  804d80:	10800117 	ldw	r2,4(r2)
  804d84:	d0a00415 	stw	r2,-32752(gp)
  804d88:	d0e6b617 	ldw	r3,-25896(gp)
  804d8c:	d0a00417 	ldw	r2,-32752(gp)
  804d90:	18803436 	bltu	r3,r2,804e64 <vTaskIncrementTick+0x16c>
  804d94:	d0a6bf17 	ldw	r2,-25860(gp)
  804d98:	10800017 	ldw	r2,0(r2)
  804d9c:	1004c03a 	cmpne	r2,r2,zero
  804da0:	1000031e 	bne	r2,zero,804db0 <vTaskIncrementTick+0xb8>
  804da4:	00bfffc4 	movi	r2,-1
  804da8:	d0a00415 	stw	r2,-32752(gp)
  804dac:	00002d06 	br	804e64 <vTaskIncrementTick+0x16c>
  804db0:	d0a6bf17 	ldw	r2,-25860(gp)
  804db4:	10800317 	ldw	r2,12(r2)
  804db8:	10800317 	ldw	r2,12(r2)
  804dbc:	e0bfff15 	stw	r2,-4(fp)
  804dc0:	e0bfff17 	ldw	r2,-4(fp)
  804dc4:	10800117 	ldw	r2,4(r2)
  804dc8:	e0bffd15 	stw	r2,-12(fp)
  804dcc:	d0e6b617 	ldw	r3,-25896(gp)
  804dd0:	e0bffd17 	ldw	r2,-12(fp)
  804dd4:	1880032e 	bgeu	r3,r2,804de4 <vTaskIncrementTick+0xec>
  804dd8:	e0bffd17 	ldw	r2,-12(fp)
  804ddc:	d0a00415 	stw	r2,-32752(gp)
  804de0:	00002006 	br	804e64 <vTaskIncrementTick+0x16c>
  804de4:	e0bfff17 	ldw	r2,-4(fp)
  804de8:	11000104 	addi	r4,r2,4
  804dec:	08084a00 	call	8084a0 <uxListRemove>
  804df0:	e0bfff17 	ldw	r2,-4(fp)
  804df4:	10800a17 	ldw	r2,40(r2)
  804df8:	1005003a 	cmpeq	r2,r2,zero
  804dfc:	1000031e 	bne	r2,zero,804e0c <vTaskIncrementTick+0x114>
  804e00:	e0bfff17 	ldw	r2,-4(fp)
  804e04:	11000604 	addi	r4,r2,24
  804e08:	08084a00 	call	8084a0 <uxListRemove>
  804e0c:	e0bfff17 	ldw	r2,-4(fp)
  804e10:	10c00b17 	ldw	r3,44(r2)
  804e14:	d0a6b817 	ldw	r2,-25888(gp)
  804e18:	10c0032e 	bgeu	r2,r3,804e28 <vTaskIncrementTick+0x130>
  804e1c:	e0bfff17 	ldw	r2,-4(fp)
  804e20:	10800b17 	ldw	r2,44(r2)
  804e24:	d0a6b815 	stw	r2,-25888(gp)
  804e28:	e0bfff17 	ldw	r2,-4(fp)
  804e2c:	11000b17 	ldw	r4,44(r2)
  804e30:	01400504 	movi	r5,20
  804e34:	0802c140 	call	802c14 <__mulsi3>
  804e38:	1007883a 	mov	r3,r2
  804e3c:	00802074 	movhi	r2,129
  804e40:	10907404 	addi	r2,r2,16848
  804e44:	1889883a 	add	r4,r3,r2
  804e48:	e0bfff17 	ldw	r2,-4(fp)
  804e4c:	11400104 	addi	r5,r2,4
  804e50:	08083340 	call	808334 <vListInsertEnd>
  804e54:	003fcf06 	br	804d94 <vTaskIncrementTick+0x9c>
  804e58:	d0a6bb17 	ldw	r2,-25876(gp)
  804e5c:	10800044 	addi	r2,r2,1
  804e60:	d0a6bb15 	stw	r2,-25876(gp)
  804e64:	e037883a 	mov	sp,fp
  804e68:	dfc00117 	ldw	ra,4(sp)
  804e6c:	df000017 	ldw	fp,0(sp)
  804e70:	dec00204 	addi	sp,sp,8
  804e74:	f800283a 	ret

00804e78 <vTaskSwitchContext>:
  804e78:	defffd04 	addi	sp,sp,-12
  804e7c:	dfc00215 	stw	ra,8(sp)
  804e80:	df000115 	stw	fp,4(sp)
  804e84:	df000104 	addi	fp,sp,4
  804e88:	d0a6ba17 	ldw	r2,-25880(gp)
  804e8c:	1005003a 	cmpeq	r2,r2,zero
  804e90:	1000061e 	bne	r2,zero,804eac <vTaskSwitchContext+0x34>
  804e94:	00800044 	movi	r2,1
  804e98:	d0a6bc15 	stw	r2,-25872(gp)
  804e9c:	00002806 	br	804f40 <vTaskSwitchContext+0xc8>
  804ea0:	d0a6b817 	ldw	r2,-25888(gp)
  804ea4:	10bfffc4 	addi	r2,r2,-1
  804ea8:	d0a6b815 	stw	r2,-25888(gp)
  804eac:	d126b817 	ldw	r4,-25888(gp)
  804eb0:	01400504 	movi	r5,20
  804eb4:	0802c140 	call	802c14 <__mulsi3>
  804eb8:	1007883a 	mov	r3,r2
  804ebc:	00802074 	movhi	r2,129
  804ec0:	10907404 	addi	r2,r2,16848
  804ec4:	1885883a 	add	r2,r3,r2
  804ec8:	10800017 	ldw	r2,0(r2)
  804ecc:	1005003a 	cmpeq	r2,r2,zero
  804ed0:	103ff31e 	bne	r2,zero,804ea0 <vTaskSwitchContext+0x28>
  804ed4:	d126b817 	ldw	r4,-25888(gp)
  804ed8:	01400504 	movi	r5,20
  804edc:	0802c140 	call	802c14 <__mulsi3>
  804ee0:	1007883a 	mov	r3,r2
  804ee4:	00802074 	movhi	r2,129
  804ee8:	10907404 	addi	r2,r2,16848
  804eec:	1885883a 	add	r2,r3,r2
  804ef0:	e0bfff15 	stw	r2,-4(fp)
  804ef4:	e0bfff17 	ldw	r2,-4(fp)
  804ef8:	10800117 	ldw	r2,4(r2)
  804efc:	10c00117 	ldw	r3,4(r2)
  804f00:	e0bfff17 	ldw	r2,-4(fp)
  804f04:	10c00115 	stw	r3,4(r2)
  804f08:	e0bfff17 	ldw	r2,-4(fp)
  804f0c:	10c00117 	ldw	r3,4(r2)
  804f10:	e0bfff17 	ldw	r2,-4(fp)
  804f14:	10800204 	addi	r2,r2,8
  804f18:	1880051e 	bne	r3,r2,804f30 <vTaskSwitchContext+0xb8>
  804f1c:	e0bfff17 	ldw	r2,-4(fp)
  804f20:	10800117 	ldw	r2,4(r2)
  804f24:	10c00117 	ldw	r3,4(r2)
  804f28:	e0bfff17 	ldw	r2,-4(fp)
  804f2c:	10c00115 	stw	r3,4(r2)
  804f30:	e0bfff17 	ldw	r2,-4(fp)
  804f34:	10800117 	ldw	r2,4(r2)
  804f38:	10800317 	ldw	r2,12(r2)
  804f3c:	d0a6b315 	stw	r2,-25908(gp)
  804f40:	e037883a 	mov	sp,fp
  804f44:	dfc00117 	ldw	ra,4(sp)
  804f48:	df000017 	ldw	fp,0(sp)
  804f4c:	dec00204 	addi	sp,sp,8
  804f50:	f800283a 	ret

00804f54 <vTaskPlaceOnEventList>:
  804f54:	defffb04 	addi	sp,sp,-20
  804f58:	dfc00415 	stw	ra,16(sp)
  804f5c:	df000315 	stw	fp,12(sp)
  804f60:	df000304 	addi	fp,sp,12
  804f64:	e13ffe15 	stw	r4,-8(fp)
  804f68:	e17fff15 	stw	r5,-4(fp)
  804f6c:	d0a6b317 	ldw	r2,-25908(gp)
  804f70:	11400604 	addi	r5,r2,24
  804f74:	e13ffe17 	ldw	r4,-8(fp)
  804f78:	08083cc0 	call	8083cc <vListInsert>
  804f7c:	d0a6b317 	ldw	r2,-25908(gp)
  804f80:	11000104 	addi	r4,r2,4
  804f84:	08084a00 	call	8084a0 <uxListRemove>
  804f88:	e0bfff17 	ldw	r2,-4(fp)
  804f8c:	10bfffd8 	cmpnei	r2,r2,-1
  804f90:	1000061e 	bne	r2,zero,804fac <vTaskPlaceOnEventList+0x58>
  804f94:	d0a6b317 	ldw	r2,-25908(gp)
  804f98:	11400104 	addi	r5,r2,4
  804f9c:	01002074 	movhi	r4,129
  804fa0:	2110a104 	addi	r4,r4,17028
  804fa4:	08083340 	call	808334 <vListInsertEnd>
  804fa8:	00000606 	br	804fc4 <vTaskPlaceOnEventList+0x70>
  804fac:	d0a6b617 	ldw	r2,-25896(gp)
  804fb0:	e0ffff17 	ldw	r3,-4(fp)
  804fb4:	10c5883a 	add	r2,r2,r3
  804fb8:	e0bffd15 	stw	r2,-12(fp)
  804fbc:	e13ffd17 	ldw	r4,-12(fp)
  804fc0:	08055580 	call	805558 <prvAddCurrentTaskToDelayedList>
  804fc4:	e037883a 	mov	sp,fp
  804fc8:	dfc00117 	ldw	ra,4(sp)
  804fcc:	df000017 	ldw	fp,0(sp)
  804fd0:	dec00204 	addi	sp,sp,8
  804fd4:	f800283a 	ret

00804fd8 <vTaskPlaceOnEventListRestricted>:
  804fd8:	defffb04 	addi	sp,sp,-20
  804fdc:	dfc00415 	stw	ra,16(sp)
  804fe0:	df000315 	stw	fp,12(sp)
  804fe4:	df000304 	addi	fp,sp,12
  804fe8:	e13ffe15 	stw	r4,-8(fp)
  804fec:	e17fff15 	stw	r5,-4(fp)
  804ff0:	d0a6b317 	ldw	r2,-25908(gp)
  804ff4:	11400604 	addi	r5,r2,24
  804ff8:	e13ffe17 	ldw	r4,-8(fp)
  804ffc:	08083340 	call	808334 <vListInsertEnd>
  805000:	d0a6b317 	ldw	r2,-25908(gp)
  805004:	11000104 	addi	r4,r2,4
  805008:	08084a00 	call	8084a0 <uxListRemove>
  80500c:	d0e6b617 	ldw	r3,-25896(gp)
  805010:	e0bfff17 	ldw	r2,-4(fp)
  805014:	1885883a 	add	r2,r3,r2
  805018:	e0bffd15 	stw	r2,-12(fp)
  80501c:	e13ffd17 	ldw	r4,-12(fp)
  805020:	08055580 	call	805558 <prvAddCurrentTaskToDelayedList>
  805024:	e037883a 	mov	sp,fp
  805028:	dfc00117 	ldw	ra,4(sp)
  80502c:	df000017 	ldw	fp,0(sp)
  805030:	dec00204 	addi	sp,sp,8
  805034:	f800283a 	ret

00805038 <xTaskRemoveFromEventList>:
  805038:	defffb04 	addi	sp,sp,-20
  80503c:	dfc00415 	stw	ra,16(sp)
  805040:	df000315 	stw	fp,12(sp)
  805044:	df000304 	addi	fp,sp,12
  805048:	e13fff15 	stw	r4,-4(fp)
  80504c:	e0bfff17 	ldw	r2,-4(fp)
  805050:	10800317 	ldw	r2,12(r2)
  805054:	10800317 	ldw	r2,12(r2)
  805058:	e0bffe15 	stw	r2,-8(fp)
  80505c:	e0bffe17 	ldw	r2,-8(fp)
  805060:	11000604 	addi	r4,r2,24
  805064:	08084a00 	call	8084a0 <uxListRemove>
  805068:	d0a6ba17 	ldw	r2,-25880(gp)
  80506c:	1004c03a 	cmpne	r2,r2,zero
  805070:	1000161e 	bne	r2,zero,8050cc <xTaskRemoveFromEventList+0x94>
  805074:	e0bffe17 	ldw	r2,-8(fp)
  805078:	11000104 	addi	r4,r2,4
  80507c:	08084a00 	call	8084a0 <uxListRemove>
  805080:	e0bffe17 	ldw	r2,-8(fp)
  805084:	10c00b17 	ldw	r3,44(r2)
  805088:	d0a6b817 	ldw	r2,-25888(gp)
  80508c:	10c0032e 	bgeu	r2,r3,80509c <xTaskRemoveFromEventList+0x64>
  805090:	e0bffe17 	ldw	r2,-8(fp)
  805094:	10800b17 	ldw	r2,44(r2)
  805098:	d0a6b815 	stw	r2,-25888(gp)
  80509c:	e0bffe17 	ldw	r2,-8(fp)
  8050a0:	11000b17 	ldw	r4,44(r2)
  8050a4:	01400504 	movi	r5,20
  8050a8:	0802c140 	call	802c14 <__mulsi3>
  8050ac:	1007883a 	mov	r3,r2
  8050b0:	00802074 	movhi	r2,129
  8050b4:	10907404 	addi	r2,r2,16848
  8050b8:	1889883a 	add	r4,r3,r2
  8050bc:	e0bffe17 	ldw	r2,-8(fp)
  8050c0:	11400104 	addi	r5,r2,4
  8050c4:	08083340 	call	808334 <vListInsertEnd>
  8050c8:	00000506 	br	8050e0 <xTaskRemoveFromEventList+0xa8>
  8050cc:	e0bffe17 	ldw	r2,-8(fp)
  8050d0:	11400604 	addi	r5,r2,24
  8050d4:	01002074 	movhi	r4,129
  8050d8:	21109704 	addi	r4,r4,16988
  8050dc:	08083340 	call	808334 <vListInsertEnd>
  8050e0:	e0bffe17 	ldw	r2,-8(fp)
  8050e4:	10c00b17 	ldw	r3,44(r2)
  8050e8:	d0a6b317 	ldw	r2,-25908(gp)
  8050ec:	10800b17 	ldw	r2,44(r2)
  8050f0:	18800336 	bltu	r3,r2,805100 <xTaskRemoveFromEventList+0xc8>
  8050f4:	00800044 	movi	r2,1
  8050f8:	e0bffd15 	stw	r2,-12(fp)
  8050fc:	00000106 	br	805104 <xTaskRemoveFromEventList+0xcc>
  805100:	e03ffd15 	stw	zero,-12(fp)
  805104:	e0bffd17 	ldw	r2,-12(fp)
  805108:	e037883a 	mov	sp,fp
  80510c:	dfc00117 	ldw	ra,4(sp)
  805110:	df000017 	ldw	fp,0(sp)
  805114:	dec00204 	addi	sp,sp,8
  805118:	f800283a 	ret

0080511c <vTaskSetTimeOutState>:
  80511c:	defffe04 	addi	sp,sp,-8
  805120:	df000115 	stw	fp,4(sp)
  805124:	df000104 	addi	fp,sp,4
  805128:	e13fff15 	stw	r4,-4(fp)
  80512c:	d0e6bd17 	ldw	r3,-25868(gp)
  805130:	e0bfff17 	ldw	r2,-4(fp)
  805134:	10c00015 	stw	r3,0(r2)
  805138:	d0e6b617 	ldw	r3,-25896(gp)
  80513c:	e0bfff17 	ldw	r2,-4(fp)
  805140:	10c00115 	stw	r3,4(r2)
  805144:	e037883a 	mov	sp,fp
  805148:	df000017 	ldw	fp,0(sp)
  80514c:	dec00104 	addi	sp,sp,4
  805150:	f800283a 	ret

00805154 <xTaskCheckForTimeOut>:
  805154:	defffb04 	addi	sp,sp,-20
  805158:	dfc00415 	stw	ra,16(sp)
  80515c:	df000315 	stw	fp,12(sp)
  805160:	df000304 	addi	fp,sp,12
  805164:	e13ffe15 	stw	r4,-8(fp)
  805168:	e17fff15 	stw	r5,-4(fp)
  80516c:	08059140 	call	805914 <xTaskGetSchedulerState>
  805170:	1005003a 	cmpeq	r2,r2,zero
  805174:	1000011e 	bne	r2,zero,80517c <xTaskCheckForTimeOut+0x28>
  805178:	0805b480 	call	805b48 <vTaskEnterCritical>
  80517c:	e0bfff17 	ldw	r2,-4(fp)
  805180:	10800017 	ldw	r2,0(r2)
  805184:	10bfffd8 	cmpnei	r2,r2,-1
  805188:	1000021e 	bne	r2,zero,805194 <xTaskCheckForTimeOut+0x40>
  80518c:	e03ffd15 	stw	zero,-12(fp)
  805190:	00002106 	br	805218 <xTaskCheckForTimeOut+0xc4>
  805194:	e0bffe17 	ldw	r2,-8(fp)
  805198:	10c00017 	ldw	r3,0(r2)
  80519c:	d0a6bd17 	ldw	r2,-25868(gp)
  8051a0:	18800726 	beq	r3,r2,8051c0 <xTaskCheckForTimeOut+0x6c>
  8051a4:	e0bffe17 	ldw	r2,-8(fp)
  8051a8:	10c00117 	ldw	r3,4(r2)
  8051ac:	d0a6b617 	ldw	r2,-25896(gp)
  8051b0:	10c00336 	bltu	r2,r3,8051c0 <xTaskCheckForTimeOut+0x6c>
  8051b4:	00800044 	movi	r2,1
  8051b8:	e0bffd15 	stw	r2,-12(fp)
  8051bc:	00001606 	br	805218 <xTaskCheckForTimeOut+0xc4>
  8051c0:	d0e6b617 	ldw	r3,-25896(gp)
  8051c4:	e0bffe17 	ldw	r2,-8(fp)
  8051c8:	10800117 	ldw	r2,4(r2)
  8051cc:	1887c83a 	sub	r3,r3,r2
  8051d0:	e0bfff17 	ldw	r2,-4(fp)
  8051d4:	10800017 	ldw	r2,0(r2)
  8051d8:	18800d2e 	bgeu	r3,r2,805210 <xTaskCheckForTimeOut+0xbc>
  8051dc:	e0bfff17 	ldw	r2,-4(fp)
  8051e0:	11000017 	ldw	r4,0(r2)
  8051e4:	d0e6b617 	ldw	r3,-25896(gp)
  8051e8:	e0bffe17 	ldw	r2,-8(fp)
  8051ec:	10800117 	ldw	r2,4(r2)
  8051f0:	1885c83a 	sub	r2,r3,r2
  8051f4:	2087c83a 	sub	r3,r4,r2
  8051f8:	e0bfff17 	ldw	r2,-4(fp)
  8051fc:	10c00015 	stw	r3,0(r2)
  805200:	e13ffe17 	ldw	r4,-8(fp)
  805204:	080511c0 	call	80511c <vTaskSetTimeOutState>
  805208:	e03ffd15 	stw	zero,-12(fp)
  80520c:	00000206 	br	805218 <xTaskCheckForTimeOut+0xc4>
  805210:	00800044 	movi	r2,1
  805214:	e0bffd15 	stw	r2,-12(fp)
  805218:	08059140 	call	805914 <xTaskGetSchedulerState>
  80521c:	1005003a 	cmpeq	r2,r2,zero
  805220:	1000011e 	bne	r2,zero,805228 <xTaskCheckForTimeOut+0xd4>
  805224:	0805b980 	call	805b98 <vTaskExitCritical>
  805228:	e0bffd17 	ldw	r2,-12(fp)
  80522c:	e037883a 	mov	sp,fp
  805230:	dfc00117 	ldw	ra,4(sp)
  805234:	df000017 	ldw	fp,0(sp)
  805238:	dec00204 	addi	sp,sp,8
  80523c:	f800283a 	ret

00805240 <vTaskMissedYield>:
  805240:	deffff04 	addi	sp,sp,-4
  805244:	df000015 	stw	fp,0(sp)
  805248:	d839883a 	mov	fp,sp
  80524c:	00800044 	movi	r2,1
  805250:	d0a6bc15 	stw	r2,-25872(gp)
  805254:	e037883a 	mov	sp,fp
  805258:	df000017 	ldw	fp,0(sp)
  80525c:	dec00104 	addi	sp,sp,4
  805260:	f800283a 	ret

00805264 <uxTaskGetTaskNumber>:
  805264:	defffc04 	addi	sp,sp,-16
  805268:	df000315 	stw	fp,12(sp)
  80526c:	df000304 	addi	fp,sp,12
  805270:	e13fff15 	stw	r4,-4(fp)
  805274:	e0bfff17 	ldw	r2,-4(fp)
  805278:	1005003a 	cmpeq	r2,r2,zero
  80527c:	1000061e 	bne	r2,zero,805298 <uxTaskGetTaskNumber+0x34>
  805280:	e0bfff17 	ldw	r2,-4(fp)
  805284:	e0bffd15 	stw	r2,-12(fp)
  805288:	e0bffd17 	ldw	r2,-12(fp)
  80528c:	10801917 	ldw	r2,100(r2)
  805290:	e0bffe15 	stw	r2,-8(fp)
  805294:	00000106 	br	80529c <uxTaskGetTaskNumber+0x38>
  805298:	e03ffe15 	stw	zero,-8(fp)
  80529c:	e0bffe17 	ldw	r2,-8(fp)
  8052a0:	e037883a 	mov	sp,fp
  8052a4:	df000017 	ldw	fp,0(sp)
  8052a8:	dec00104 	addi	sp,sp,4
  8052ac:	f800283a 	ret

008052b0 <vTaskSetTaskNumber>:
  8052b0:	defffc04 	addi	sp,sp,-16
  8052b4:	df000315 	stw	fp,12(sp)
  8052b8:	df000304 	addi	fp,sp,12
  8052bc:	e13ffe15 	stw	r4,-8(fp)
  8052c0:	e17fff15 	stw	r5,-4(fp)
  8052c4:	e0bffe17 	ldw	r2,-8(fp)
  8052c8:	1005003a 	cmpeq	r2,r2,zero
  8052cc:	1000051e 	bne	r2,zero,8052e4 <vTaskSetTaskNumber+0x34>
  8052d0:	e0bffe17 	ldw	r2,-8(fp)
  8052d4:	e0bffd15 	stw	r2,-12(fp)
  8052d8:	e0fffd17 	ldw	r3,-12(fp)
  8052dc:	e0bfff17 	ldw	r2,-4(fp)
  8052e0:	18801915 	stw	r2,100(r3)
  8052e4:	e037883a 	mov	sp,fp
  8052e8:	df000017 	ldw	fp,0(sp)
  8052ec:	dec00104 	addi	sp,sp,4
  8052f0:	f800283a 	ret

008052f4 <prvIdleTask>:
  8052f4:	defffd04 	addi	sp,sp,-12
  8052f8:	dfc00215 	stw	ra,8(sp)
  8052fc:	df000115 	stw	fp,4(sp)
  805300:	df000104 	addi	fp,sp,4
  805304:	e13fff15 	stw	r4,-4(fp)
  805308:	080549c0 	call	80549c <prvCheckTasksWaitingTermination>
  80530c:	003ffe06 	br	805308 <prvIdleTask+0x14>

00805310 <prvInitialiseTCBVariables>:
  805310:	defff904 	addi	sp,sp,-28
  805314:	dfc00615 	stw	ra,24(sp)
  805318:	df000515 	stw	fp,20(sp)
  80531c:	df000504 	addi	fp,sp,20
  805320:	e13ffb15 	stw	r4,-20(fp)
  805324:	e17ffc15 	stw	r5,-16(fp)
  805328:	e1bffd15 	stw	r6,-12(fp)
  80532c:	e1fffe15 	stw	r7,-8(fp)
  805330:	e0800217 	ldw	r2,8(fp)
  805334:	e0bfff0d 	sth	r2,-4(fp)
  805338:	e0bffb17 	ldw	r2,-20(fp)
  80533c:	10800d04 	addi	r2,r2,52
  805340:	1009883a 	mov	r4,r2
  805344:	e17ffc17 	ldw	r5,-16(fp)
  805348:	01800a04 	movi	r6,40
  80534c:	08093ac0 	call	8093ac <strncpy>
  805350:	e0bffb17 	ldw	r2,-20(fp)
  805354:	100016c5 	stb	zero,91(r2)
  805358:	e0bffd17 	ldw	r2,-12(fp)
  80535c:	10800170 	cmpltui	r2,r2,5
  805360:	1000021e 	bne	r2,zero,80536c <prvInitialiseTCBVariables+0x5c>
  805364:	00800104 	movi	r2,4
  805368:	e0bffd15 	stw	r2,-12(fp)
  80536c:	e0fffb17 	ldw	r3,-20(fp)
  805370:	e0bffd17 	ldw	r2,-12(fp)
  805374:	18800b15 	stw	r2,44(r3)
  805378:	e0fffb17 	ldw	r3,-20(fp)
  80537c:	e0bffd17 	ldw	r2,-12(fp)
  805380:	18801a15 	stw	r2,104(r3)
  805384:	e0bffb17 	ldw	r2,-20(fp)
  805388:	11000104 	addi	r4,r2,4
  80538c:	080830c0 	call	80830c <vListInitialiseItem>
  805390:	e0bffb17 	ldw	r2,-20(fp)
  805394:	11000604 	addi	r4,r2,24
  805398:	080830c0 	call	80830c <vListInitialiseItem>
  80539c:	e0fffb17 	ldw	r3,-20(fp)
  8053a0:	e0bffb17 	ldw	r2,-20(fp)
  8053a4:	18800415 	stw	r2,16(r3)
  8053a8:	00c00144 	movi	r3,5
  8053ac:	e0bffd17 	ldw	r2,-12(fp)
  8053b0:	1887c83a 	sub	r3,r3,r2
  8053b4:	e0bffb17 	ldw	r2,-20(fp)
  8053b8:	10c00615 	stw	r3,24(r2)
  8053bc:	e0fffb17 	ldw	r3,-20(fp)
  8053c0:	e0bffb17 	ldw	r2,-20(fp)
  8053c4:	18800915 	stw	r2,36(r3)
  8053c8:	e0bffb17 	ldw	r2,-20(fp)
  8053cc:	10001715 	stw	zero,92(r2)
  8053d0:	e037883a 	mov	sp,fp
  8053d4:	dfc00117 	ldw	ra,4(sp)
  8053d8:	df000017 	ldw	fp,0(sp)
  8053dc:	dec00204 	addi	sp,sp,8
  8053e0:	f800283a 	ret

008053e4 <prvInitialiseTaskLists>:
  8053e4:	defffd04 	addi	sp,sp,-12
  8053e8:	dfc00215 	stw	ra,8(sp)
  8053ec:	df000115 	stw	fp,4(sp)
  8053f0:	df000104 	addi	fp,sp,4
  8053f4:	e03fff15 	stw	zero,-4(fp)
  8053f8:	00000b06 	br	805428 <prvInitialiseTaskLists+0x44>
  8053fc:	e13fff17 	ldw	r4,-4(fp)
  805400:	01400504 	movi	r5,20
  805404:	0802c140 	call	802c14 <__mulsi3>
  805408:	1007883a 	mov	r3,r2
  80540c:	00802074 	movhi	r2,129
  805410:	10907404 	addi	r2,r2,16848
  805414:	1889883a 	add	r4,r3,r2
  805418:	080829c0 	call	80829c <vListInitialise>
  80541c:	e0bfff17 	ldw	r2,-4(fp)
  805420:	10800044 	addi	r2,r2,1
  805424:	e0bfff15 	stw	r2,-4(fp)
  805428:	e0bfff17 	ldw	r2,-4(fp)
  80542c:	10800170 	cmpltui	r2,r2,5
  805430:	103ff21e 	bne	r2,zero,8053fc <prvInitialiseTaskLists+0x18>
  805434:	01002074 	movhi	r4,129
  805438:	21108d04 	addi	r4,r4,16948
  80543c:	080829c0 	call	80829c <vListInitialise>
  805440:	01002074 	movhi	r4,129
  805444:	21109204 	addi	r4,r4,16968
  805448:	080829c0 	call	80829c <vListInitialise>
  80544c:	01002074 	movhi	r4,129
  805450:	21109704 	addi	r4,r4,16988
  805454:	080829c0 	call	80829c <vListInitialise>
  805458:	01002074 	movhi	r4,129
  80545c:	21109c04 	addi	r4,r4,17008
  805460:	080829c0 	call	80829c <vListInitialise>
  805464:	01002074 	movhi	r4,129
  805468:	2110a104 	addi	r4,r4,17028
  80546c:	080829c0 	call	80829c <vListInitialise>
  805470:	00802074 	movhi	r2,129
  805474:	10908d04 	addi	r2,r2,16948
  805478:	d0a6bf15 	stw	r2,-25860(gp)
  80547c:	00802074 	movhi	r2,129
  805480:	10909204 	addi	r2,r2,16968
  805484:	d0a6c015 	stw	r2,-25856(gp)
  805488:	e037883a 	mov	sp,fp
  80548c:	dfc00117 	ldw	ra,4(sp)
  805490:	df000017 	ldw	fp,0(sp)
  805494:	dec00204 	addi	sp,sp,8
  805498:	f800283a 	ret

0080549c <prvCheckTasksWaitingTermination>:
  80549c:	defffc04 	addi	sp,sp,-16
  8054a0:	dfc00315 	stw	ra,12(sp)
  8054a4:	df000215 	stw	fp,8(sp)
  8054a8:	df000204 	addi	fp,sp,8
  8054ac:	00002206 	br	805538 <prvCheckTasksWaitingTermination+0x9c>
  8054b0:	08049500 	call	804950 <vTaskSuspendAll>
  8054b4:	00802074 	movhi	r2,129
  8054b8:	10909c04 	addi	r2,r2,17008
  8054bc:	10800017 	ldw	r2,0(r2)
  8054c0:	1005003a 	cmpeq	r2,r2,zero
  8054c4:	e0bfff15 	stw	r2,-4(fp)
  8054c8:	08049780 	call	804978 <xTaskResumeAll>
  8054cc:	e0bfff17 	ldw	r2,-4(fp)
  8054d0:	1004c03a 	cmpne	r2,r2,zero
  8054d4:	1000181e 	bne	r2,zero,805538 <prvCheckTasksWaitingTermination+0x9c>
  8054d8:	08059140 	call	805914 <xTaskGetSchedulerState>
  8054dc:	1005003a 	cmpeq	r2,r2,zero
  8054e0:	1000011e 	bne	r2,zero,8054e8 <prvCheckTasksWaitingTermination+0x4c>
  8054e4:	0805b480 	call	805b48 <vTaskEnterCritical>
  8054e8:	00802074 	movhi	r2,129
  8054ec:	10909c04 	addi	r2,r2,17008
  8054f0:	10800317 	ldw	r2,12(r2)
  8054f4:	10800317 	ldw	r2,12(r2)
  8054f8:	e0bffe15 	stw	r2,-8(fp)
  8054fc:	e0bffe17 	ldw	r2,-8(fp)
  805500:	11000104 	addi	r4,r2,4
  805504:	08084a00 	call	8084a0 <uxListRemove>
  805508:	d0a6b517 	ldw	r2,-25900(gp)
  80550c:	10bfffc4 	addi	r2,r2,-1
  805510:	d0a6b515 	stw	r2,-25900(gp)
  805514:	d0a6b417 	ldw	r2,-25904(gp)
  805518:	10bfffc4 	addi	r2,r2,-1
  80551c:	d0a6b415 	stw	r2,-25904(gp)
  805520:	08059140 	call	805914 <xTaskGetSchedulerState>
  805524:	1005003a 	cmpeq	r2,r2,zero
  805528:	1000011e 	bne	r2,zero,805530 <prvCheckTasksWaitingTermination+0x94>
  80552c:	0805b980 	call	805b98 <vTaskExitCritical>
  805530:	e13ffe17 	ldw	r4,-8(fp)
  805534:	08058b00 	call	8058b0 <prvDeleteTCB>
  805538:	d0a6b417 	ldw	r2,-25904(gp)
  80553c:	1004c03a 	cmpne	r2,r2,zero
  805540:	103fdb1e 	bne	r2,zero,8054b0 <prvCheckTasksWaitingTermination+0x14>
  805544:	e037883a 	mov	sp,fp
  805548:	dfc00117 	ldw	ra,4(sp)
  80554c:	df000017 	ldw	fp,0(sp)
  805550:	dec00204 	addi	sp,sp,8
  805554:	f800283a 	ret

00805558 <prvAddCurrentTaskToDelayedList>:
  805558:	defffd04 	addi	sp,sp,-12
  80555c:	dfc00215 	stw	ra,8(sp)
  805560:	df000115 	stw	fp,4(sp)
  805564:	df000104 	addi	fp,sp,4
  805568:	e13fff15 	stw	r4,-4(fp)
  80556c:	d0e6b317 	ldw	r3,-25908(gp)
  805570:	e0bfff17 	ldw	r2,-4(fp)
  805574:	18800115 	stw	r2,4(r3)
  805578:	d0e6b617 	ldw	r3,-25896(gp)
  80557c:	e0bfff17 	ldw	r2,-4(fp)
  805580:	10c0052e 	bgeu	r2,r3,805598 <prvAddCurrentTaskToDelayedList+0x40>
  805584:	d126c017 	ldw	r4,-25856(gp)
  805588:	d0a6b317 	ldw	r2,-25908(gp)
  80558c:	11400104 	addi	r5,r2,4
  805590:	08083cc0 	call	8083cc <vListInsert>
  805594:	00000906 	br	8055bc <prvAddCurrentTaskToDelayedList+0x64>
  805598:	d126bf17 	ldw	r4,-25860(gp)
  80559c:	d0a6b317 	ldw	r2,-25908(gp)
  8055a0:	11400104 	addi	r5,r2,4
  8055a4:	08083cc0 	call	8083cc <vListInsert>
  8055a8:	d0e00417 	ldw	r3,-32752(gp)
  8055ac:	e0bfff17 	ldw	r2,-4(fp)
  8055b0:	10c0022e 	bgeu	r2,r3,8055bc <prvAddCurrentTaskToDelayedList+0x64>
  8055b4:	e0bfff17 	ldw	r2,-4(fp)
  8055b8:	d0a00415 	stw	r2,-32752(gp)
  8055bc:	e037883a 	mov	sp,fp
  8055c0:	dfc00117 	ldw	ra,4(sp)
  8055c4:	df000017 	ldw	fp,0(sp)
  8055c8:	dec00204 	addi	sp,sp,8
  8055cc:	f800283a 	ret

008055d0 <prvAllocateTCBAndStack>:
  8055d0:	defffa04 	addi	sp,sp,-24
  8055d4:	dfc00515 	stw	ra,20(sp)
  8055d8:	df000415 	stw	fp,16(sp)
  8055dc:	df000404 	addi	fp,sp,16
  8055e0:	e17ffe15 	stw	r5,-8(fp)
  8055e4:	e13ffd0d 	sth	r4,-12(fp)
  8055e8:	01001b04 	movi	r4,108
  8055ec:	08082180 	call	808218 <pvPortMalloc>
  8055f0:	e0bffc15 	stw	r2,-16(fp)
  8055f4:	e0bffc17 	ldw	r2,-16(fp)
  8055f8:	1005003a 	cmpeq	r2,r2,zero
  8055fc:	10001f1e 	bne	r2,zero,80567c <prvAllocateTCBAndStack+0xac>
  805600:	e0bffe17 	ldw	r2,-8(fp)
  805604:	1004c03a 	cmpne	r2,r2,zero
  805608:	1000071e 	bne	r2,zero,805628 <prvAllocateTCBAndStack+0x58>
  80560c:	e0bffd0b 	ldhu	r2,-12(fp)
  805610:	1085883a 	add	r2,r2,r2
  805614:	1085883a 	add	r2,r2,r2
  805618:	1009883a 	mov	r4,r2
  80561c:	08082180 	call	808218 <pvPortMalloc>
  805620:	e0bfff15 	stw	r2,-4(fp)
  805624:	00000206 	br	805630 <prvAllocateTCBAndStack+0x60>
  805628:	e0bffe17 	ldw	r2,-8(fp)
  80562c:	e0bfff15 	stw	r2,-4(fp)
  805630:	e0bffc17 	ldw	r2,-16(fp)
  805634:	e0ffff17 	ldw	r3,-4(fp)
  805638:	10c00c15 	stw	r3,48(r2)
  80563c:	e0bffc17 	ldw	r2,-16(fp)
  805640:	10800c17 	ldw	r2,48(r2)
  805644:	1004c03a 	cmpne	r2,r2,zero
  805648:	1000041e 	bne	r2,zero,80565c <prvAllocateTCBAndStack+0x8c>
  80564c:	e13ffc17 	ldw	r4,-16(fp)
  805650:	08082580 	call	808258 <vPortFree>
  805654:	e03ffc15 	stw	zero,-16(fp)
  805658:	00000806 	br	80567c <prvAllocateTCBAndStack+0xac>
  80565c:	e0bffc17 	ldw	r2,-16(fp)
  805660:	11000c17 	ldw	r4,48(r2)
  805664:	e0bffd0b 	ldhu	r2,-12(fp)
  805668:	1085883a 	add	r2,r2,r2
  80566c:	1085883a 	add	r2,r2,r2
  805670:	100d883a 	mov	r6,r2
  805674:	01402944 	movi	r5,165
  805678:	08026500 	call	802650 <memset>
  80567c:	e0bffc17 	ldw	r2,-16(fp)
  805680:	e037883a 	mov	sp,fp
  805684:	dfc00117 	ldw	ra,4(sp)
  805688:	df000017 	ldw	fp,0(sp)
  80568c:	dec00204 	addi	sp,sp,8
  805690:	f800283a 	ret

00805694 <prvListTaskWithinSingleList>:
  805694:	defff304 	addi	sp,sp,-52
  805698:	dfc00c15 	stw	ra,48(sp)
  80569c:	df000b15 	stw	fp,44(sp)
  8056a0:	df000b04 	addi	fp,sp,44
  8056a4:	e13ffd15 	stw	r4,-12(fp)
  8056a8:	e17ffe15 	stw	r5,-8(fp)
  8056ac:	e1bfff05 	stb	r6,-4(fp)
  8056b0:	e0bffe17 	ldw	r2,-8(fp)
  8056b4:	e0bff915 	stw	r2,-28(fp)
  8056b8:	e0bff917 	ldw	r2,-28(fp)
  8056bc:	10800117 	ldw	r2,4(r2)
  8056c0:	10c00117 	ldw	r3,4(r2)
  8056c4:	e0bff917 	ldw	r2,-28(fp)
  8056c8:	10c00115 	stw	r3,4(r2)
  8056cc:	e0bff917 	ldw	r2,-28(fp)
  8056d0:	10c00117 	ldw	r3,4(r2)
  8056d4:	e0bff917 	ldw	r2,-28(fp)
  8056d8:	10800204 	addi	r2,r2,8
  8056dc:	1880051e 	bne	r3,r2,8056f4 <prvListTaskWithinSingleList+0x60>
  8056e0:	e0bff917 	ldw	r2,-28(fp)
  8056e4:	10800117 	ldw	r2,4(r2)
  8056e8:	10c00117 	ldw	r3,4(r2)
  8056ec:	e0bff917 	ldw	r2,-28(fp)
  8056f0:	10c00115 	stw	r3,4(r2)
  8056f4:	e0bff917 	ldw	r2,-28(fp)
  8056f8:	10800117 	ldw	r2,4(r2)
  8056fc:	10800317 	ldw	r2,12(r2)
  805700:	e0bffb15 	stw	r2,-20(fp)
  805704:	e0bffe17 	ldw	r2,-8(fp)
  805708:	e0bff815 	stw	r2,-32(fp)
  80570c:	e0bff817 	ldw	r2,-32(fp)
  805710:	10800117 	ldw	r2,4(r2)
  805714:	10c00117 	ldw	r3,4(r2)
  805718:	e0bff817 	ldw	r2,-32(fp)
  80571c:	10c00115 	stw	r3,4(r2)
  805720:	e0bff817 	ldw	r2,-32(fp)
  805724:	10c00117 	ldw	r3,4(r2)
  805728:	e0bff817 	ldw	r2,-32(fp)
  80572c:	10800204 	addi	r2,r2,8
  805730:	1880051e 	bne	r3,r2,805748 <prvListTaskWithinSingleList+0xb4>
  805734:	e0bff817 	ldw	r2,-32(fp)
  805738:	10800117 	ldw	r2,4(r2)
  80573c:	10c00117 	ldw	r3,4(r2)
  805740:	e0bff817 	ldw	r2,-32(fp)
  805744:	10c00115 	stw	r3,4(r2)
  805748:	e0bff817 	ldw	r2,-32(fp)
  80574c:	10800117 	ldw	r2,4(r2)
  805750:	10800317 	ldw	r2,12(r2)
  805754:	e0bffc15 	stw	r2,-16(fp)
  805758:	e0bffc17 	ldw	r2,-16(fp)
  80575c:	10800c17 	ldw	r2,48(r2)
  805760:	1009883a 	mov	r4,r2
  805764:	08057dc0 	call	8057dc <usTaskCheckFreeStackSpace>
  805768:	e0bffa0d 	sth	r2,-24(fp)
  80576c:	e0bffc17 	ldw	r2,-16(fp)
  805770:	11800d04 	addi	r6,r2,52
  805774:	e1ffff07 	ldb	r7,-4(fp)
  805778:	e0bffc17 	ldw	r2,-16(fp)
  80577c:	10c00b17 	ldw	r3,44(r2)
  805780:	e13ffa0b 	ldhu	r4,-24(fp)
  805784:	e0bffc17 	ldw	r2,-16(fp)
  805788:	10801817 	ldw	r2,96(r2)
  80578c:	d8c00015 	stw	r3,0(sp)
  805790:	d9000115 	stw	r4,4(sp)
  805794:	d8800215 	stw	r2,8(sp)
  805798:	01002074 	movhi	r4,129
  80579c:	21106204 	addi	r4,r4,16776
  8057a0:	01402074 	movhi	r5,129
  8057a4:	29423204 	addi	r5,r5,2248
  8057a8:	08091bc0 	call	8091bc <sprintf>
  8057ac:	e13ffd17 	ldw	r4,-12(fp)
  8057b0:	01402074 	movhi	r5,129
  8057b4:	29506204 	addi	r5,r5,16776
  8057b8:	08092900 	call	809290 <strcat>
  8057bc:	e0fffc17 	ldw	r3,-16(fp)
  8057c0:	e0bffb17 	ldw	r2,-20(fp)
  8057c4:	18bfcf1e 	bne	r3,r2,805704 <prvListTaskWithinSingleList+0x70>
  8057c8:	e037883a 	mov	sp,fp
  8057cc:	dfc00117 	ldw	ra,4(sp)
  8057d0:	df000017 	ldw	fp,0(sp)
  8057d4:	dec00204 	addi	sp,sp,8
  8057d8:	f800283a 	ret

008057dc <usTaskCheckFreeStackSpace>:
  8057dc:	defffd04 	addi	sp,sp,-12
  8057e0:	df000215 	stw	fp,8(sp)
  8057e4:	df000204 	addi	fp,sp,8
  8057e8:	e13ffe15 	stw	r4,-8(fp)
  8057ec:	e03fff0d 	sth	zero,-4(fp)
  8057f0:	00000606 	br	80580c <usTaskCheckFreeStackSpace+0x30>
  8057f4:	e0bffe17 	ldw	r2,-8(fp)
  8057f8:	10800044 	addi	r2,r2,1
  8057fc:	e0bffe15 	stw	r2,-8(fp)
  805800:	e0ffff0b 	ldhu	r3,-4(fp)
  805804:	18800044 	addi	r2,r3,1
  805808:	e0bfff0d 	sth	r2,-4(fp)
  80580c:	e0bffe17 	ldw	r2,-8(fp)
  805810:	10800003 	ldbu	r2,0(r2)
  805814:	10803fcc 	andi	r2,r2,255
  805818:	10802960 	cmpeqi	r2,r2,165
  80581c:	103ff51e 	bne	r2,zero,8057f4 <usTaskCheckFreeStackSpace+0x18>
  805820:	e0bfff0b 	ldhu	r2,-4(fp)
  805824:	1004d0ba 	srli	r2,r2,2
  805828:	e0bfff0d 	sth	r2,-4(fp)
  80582c:	e0bfff0b 	ldhu	r2,-4(fp)
  805830:	e037883a 	mov	sp,fp
  805834:	df000017 	ldw	fp,0(sp)
  805838:	dec00104 	addi	sp,sp,4
  80583c:	f800283a 	ret

00805840 <uxTaskGetStackHighWaterMark>:
  805840:	defff904 	addi	sp,sp,-28
  805844:	dfc00615 	stw	ra,24(sp)
  805848:	df000515 	stw	fp,20(sp)
  80584c:	df000504 	addi	fp,sp,20
  805850:	e13ffe15 	stw	r4,-8(fp)
  805854:	e0bffe17 	ldw	r2,-8(fp)
  805858:	1004c03a 	cmpne	r2,r2,zero
  80585c:	1000031e 	bne	r2,zero,80586c <uxTaskGetStackHighWaterMark+0x2c>
  805860:	d0a6b317 	ldw	r2,-25908(gp)
  805864:	e0bfff15 	stw	r2,-4(fp)
  805868:	00000206 	br	805874 <uxTaskGetStackHighWaterMark+0x34>
  80586c:	e0bffe17 	ldw	r2,-8(fp)
  805870:	e0bfff15 	stw	r2,-4(fp)
  805874:	e0bfff17 	ldw	r2,-4(fp)
  805878:	e0bffd15 	stw	r2,-12(fp)
  80587c:	e0bffd17 	ldw	r2,-12(fp)
  805880:	10800c17 	ldw	r2,48(r2)
  805884:	e0bffc15 	stw	r2,-16(fp)
  805888:	e13ffc17 	ldw	r4,-16(fp)
  80588c:	08057dc0 	call	8057dc <usTaskCheckFreeStackSpace>
  805890:	10bfffcc 	andi	r2,r2,65535
  805894:	e0bffb15 	stw	r2,-20(fp)
  805898:	e0bffb17 	ldw	r2,-20(fp)
  80589c:	e037883a 	mov	sp,fp
  8058a0:	dfc00117 	ldw	ra,4(sp)
  8058a4:	df000017 	ldw	fp,0(sp)
  8058a8:	dec00204 	addi	sp,sp,8
  8058ac:	f800283a 	ret

008058b0 <prvDeleteTCB>:
  8058b0:	defffd04 	addi	sp,sp,-12
  8058b4:	dfc00215 	stw	ra,8(sp)
  8058b8:	df000115 	stw	fp,4(sp)
  8058bc:	df000104 	addi	fp,sp,4
  8058c0:	e13fff15 	stw	r4,-4(fp)
  8058c4:	e0bfff17 	ldw	r2,-4(fp)
  8058c8:	11000c17 	ldw	r4,48(r2)
  8058cc:	08082580 	call	808258 <vPortFree>
  8058d0:	e13fff17 	ldw	r4,-4(fp)
  8058d4:	08082580 	call	808258 <vPortFree>
  8058d8:	e037883a 	mov	sp,fp
  8058dc:	dfc00117 	ldw	ra,4(sp)
  8058e0:	df000017 	ldw	fp,0(sp)
  8058e4:	dec00204 	addi	sp,sp,8
  8058e8:	f800283a 	ret

008058ec <xTaskGetCurrentTaskHandle>:
  8058ec:	defffe04 	addi	sp,sp,-8
  8058f0:	df000115 	stw	fp,4(sp)
  8058f4:	df000104 	addi	fp,sp,4
  8058f8:	d0a6b317 	ldw	r2,-25908(gp)
  8058fc:	e0bfff15 	stw	r2,-4(fp)
  805900:	e0bfff17 	ldw	r2,-4(fp)
  805904:	e037883a 	mov	sp,fp
  805908:	df000017 	ldw	fp,0(sp)
  80590c:	dec00104 	addi	sp,sp,4
  805910:	f800283a 	ret

00805914 <xTaskGetSchedulerState>:
  805914:	defffe04 	addi	sp,sp,-8
  805918:	df000115 	stw	fp,4(sp)
  80591c:	df000104 	addi	fp,sp,4
  805920:	d0a6b917 	ldw	r2,-25884(gp)
  805924:	1004c03a 	cmpne	r2,r2,zero
  805928:	1000021e 	bne	r2,zero,805934 <xTaskGetSchedulerState+0x20>
  80592c:	e03fff15 	stw	zero,-4(fp)
  805930:	00000806 	br	805954 <xTaskGetSchedulerState+0x40>
  805934:	d0a6ba17 	ldw	r2,-25880(gp)
  805938:	1004c03a 	cmpne	r2,r2,zero
  80593c:	1000031e 	bne	r2,zero,80594c <xTaskGetSchedulerState+0x38>
  805940:	00800044 	movi	r2,1
  805944:	e0bfff15 	stw	r2,-4(fp)
  805948:	00000206 	br	805954 <xTaskGetSchedulerState+0x40>
  80594c:	00800084 	movi	r2,2
  805950:	e0bfff15 	stw	r2,-4(fp)
  805954:	e0bfff17 	ldw	r2,-4(fp)
  805958:	e037883a 	mov	sp,fp
  80595c:	df000017 	ldw	fp,0(sp)
  805960:	dec00104 	addi	sp,sp,4
  805964:	f800283a 	ret

00805968 <vTaskPriorityInherit>:
  805968:	defffb04 	addi	sp,sp,-20
  80596c:	dfc00415 	stw	ra,16(sp)
  805970:	df000315 	stw	fp,12(sp)
  805974:	dc000215 	stw	r16,8(sp)
  805978:	df000204 	addi	fp,sp,8
  80597c:	e13fff15 	stw	r4,-4(fp)
  805980:	e0bfff17 	ldw	r2,-4(fp)
  805984:	e0bffe15 	stw	r2,-8(fp)
  805988:	e0bfff17 	ldw	r2,-4(fp)
  80598c:	1005003a 	cmpeq	r2,r2,zero
  805990:	1000341e 	bne	r2,zero,805a64 <vTaskPriorityInherit+0xfc>
  805994:	e0bffe17 	ldw	r2,-8(fp)
  805998:	10c00b17 	ldw	r3,44(r2)
  80599c:	d0a6b317 	ldw	r2,-25908(gp)
  8059a0:	10800b17 	ldw	r2,44(r2)
  8059a4:	18802f2e 	bgeu	r3,r2,805a64 <vTaskPriorityInherit+0xfc>
  8059a8:	d0a6b317 	ldw	r2,-25908(gp)
  8059ac:	10c00b17 	ldw	r3,44(r2)
  8059b0:	00800144 	movi	r2,5
  8059b4:	10c7c83a 	sub	r3,r2,r3
  8059b8:	e0bffe17 	ldw	r2,-8(fp)
  8059bc:	10c00615 	stw	r3,24(r2)
  8059c0:	e0bffe17 	ldw	r2,-8(fp)
  8059c4:	14000517 	ldw	r16,20(r2)
  8059c8:	e0bffe17 	ldw	r2,-8(fp)
  8059cc:	11000b17 	ldw	r4,44(r2)
  8059d0:	01400504 	movi	r5,20
  8059d4:	0802c140 	call	802c14 <__mulsi3>
  8059d8:	1007883a 	mov	r3,r2
  8059dc:	00802074 	movhi	r2,129
  8059e0:	10907404 	addi	r2,r2,16848
  8059e4:	1885883a 	add	r2,r3,r2
  8059e8:	80801a1e 	bne	r16,r2,805a54 <vTaskPriorityInherit+0xec>
  8059ec:	e0bffe17 	ldw	r2,-8(fp)
  8059f0:	11000104 	addi	r4,r2,4
  8059f4:	08084a00 	call	8084a0 <uxListRemove>
  8059f8:	d0a6b317 	ldw	r2,-25908(gp)
  8059fc:	10c00b17 	ldw	r3,44(r2)
  805a00:	e0bffe17 	ldw	r2,-8(fp)
  805a04:	10c00b15 	stw	r3,44(r2)
  805a08:	e0bffe17 	ldw	r2,-8(fp)
  805a0c:	10c00b17 	ldw	r3,44(r2)
  805a10:	d0a6b817 	ldw	r2,-25888(gp)
  805a14:	10c0032e 	bgeu	r2,r3,805a24 <vTaskPriorityInherit+0xbc>
  805a18:	e0bffe17 	ldw	r2,-8(fp)
  805a1c:	10800b17 	ldw	r2,44(r2)
  805a20:	d0a6b815 	stw	r2,-25888(gp)
  805a24:	e0bffe17 	ldw	r2,-8(fp)
  805a28:	11000b17 	ldw	r4,44(r2)
  805a2c:	01400504 	movi	r5,20
  805a30:	0802c140 	call	802c14 <__mulsi3>
  805a34:	1007883a 	mov	r3,r2
  805a38:	00802074 	movhi	r2,129
  805a3c:	10907404 	addi	r2,r2,16848
  805a40:	1889883a 	add	r4,r3,r2
  805a44:	e0bffe17 	ldw	r2,-8(fp)
  805a48:	11400104 	addi	r5,r2,4
  805a4c:	08083340 	call	808334 <vListInsertEnd>
  805a50:	00000406 	br	805a64 <vTaskPriorityInherit+0xfc>
  805a54:	d0a6b317 	ldw	r2,-25908(gp)
  805a58:	10c00b17 	ldw	r3,44(r2)
  805a5c:	e0bffe17 	ldw	r2,-8(fp)
  805a60:	10c00b15 	stw	r3,44(r2)
  805a64:	e037883a 	mov	sp,fp
  805a68:	dfc00217 	ldw	ra,8(sp)
  805a6c:	df000117 	ldw	fp,4(sp)
  805a70:	dc000017 	ldw	r16,0(sp)
  805a74:	dec00304 	addi	sp,sp,12
  805a78:	f800283a 	ret

00805a7c <vTaskPriorityDisinherit>:
  805a7c:	defffc04 	addi	sp,sp,-16
  805a80:	dfc00315 	stw	ra,12(sp)
  805a84:	df000215 	stw	fp,8(sp)
  805a88:	df000204 	addi	fp,sp,8
  805a8c:	e13fff15 	stw	r4,-4(fp)
  805a90:	e0bfff17 	ldw	r2,-4(fp)
  805a94:	e0bffe15 	stw	r2,-8(fp)
  805a98:	e0bfff17 	ldw	r2,-4(fp)
  805a9c:	1005003a 	cmpeq	r2,r2,zero
  805aa0:	1000241e 	bne	r2,zero,805b34 <vTaskPriorityDisinherit+0xb8>
  805aa4:	e0bffe17 	ldw	r2,-8(fp)
  805aa8:	10c00b17 	ldw	r3,44(r2)
  805aac:	e0bffe17 	ldw	r2,-8(fp)
  805ab0:	10801a17 	ldw	r2,104(r2)
  805ab4:	18801f26 	beq	r3,r2,805b34 <vTaskPriorityDisinherit+0xb8>
  805ab8:	e0bffe17 	ldw	r2,-8(fp)
  805abc:	11000104 	addi	r4,r2,4
  805ac0:	08084a00 	call	8084a0 <uxListRemove>
  805ac4:	e0bffe17 	ldw	r2,-8(fp)
  805ac8:	10c01a17 	ldw	r3,104(r2)
  805acc:	e0bffe17 	ldw	r2,-8(fp)
  805ad0:	10c00b15 	stw	r3,44(r2)
  805ad4:	e0bffe17 	ldw	r2,-8(fp)
  805ad8:	10c00b17 	ldw	r3,44(r2)
  805adc:	00800144 	movi	r2,5
  805ae0:	10c7c83a 	sub	r3,r2,r3
  805ae4:	e0bffe17 	ldw	r2,-8(fp)
  805ae8:	10c00615 	stw	r3,24(r2)
  805aec:	e0bffe17 	ldw	r2,-8(fp)
  805af0:	10c00b17 	ldw	r3,44(r2)
  805af4:	d0a6b817 	ldw	r2,-25888(gp)
  805af8:	10c0032e 	bgeu	r2,r3,805b08 <vTaskPriorityDisinherit+0x8c>
  805afc:	e0bffe17 	ldw	r2,-8(fp)
  805b00:	10800b17 	ldw	r2,44(r2)
  805b04:	d0a6b815 	stw	r2,-25888(gp)
  805b08:	e0bffe17 	ldw	r2,-8(fp)
  805b0c:	11000b17 	ldw	r4,44(r2)
  805b10:	01400504 	movi	r5,20
  805b14:	0802c140 	call	802c14 <__mulsi3>
  805b18:	1007883a 	mov	r3,r2
  805b1c:	00802074 	movhi	r2,129
  805b20:	10907404 	addi	r2,r2,16848
  805b24:	1889883a 	add	r4,r3,r2
  805b28:	e0bffe17 	ldw	r2,-8(fp)
  805b2c:	11400104 	addi	r5,r2,4
  805b30:	08083340 	call	808334 <vListInsertEnd>
  805b34:	e037883a 	mov	sp,fp
  805b38:	dfc00117 	ldw	ra,4(sp)
  805b3c:	df000017 	ldw	fp,0(sp)
  805b40:	dec00204 	addi	sp,sp,8
  805b44:	f800283a 	ret

00805b48 <vTaskEnterCritical>:
  805b48:	defffe04 	addi	sp,sp,-8
  805b4c:	df000115 	stw	fp,4(sp)
  805b50:	df000104 	addi	fp,sp,4
  805b54:	0005303a 	rdctl	r2,status
  805b58:	e0bfff15 	stw	r2,-4(fp)
  805b5c:	e0ffff17 	ldw	r3,-4(fp)
  805b60:	00bfff84 	movi	r2,-2
  805b64:	1884703a 	and	r2,r3,r2
  805b68:	1001703a 	wrctl	status,r2
  805b6c:	d0a6b917 	ldw	r2,-25884(gp)
  805b70:	1005003a 	cmpeq	r2,r2,zero
  805b74:	1000041e 	bne	r2,zero,805b88 <vTaskEnterCritical+0x40>
  805b78:	d0a6b317 	ldw	r2,-25908(gp)
  805b7c:	10c01717 	ldw	r3,92(r2)
  805b80:	18c00044 	addi	r3,r3,1
  805b84:	10c01715 	stw	r3,92(r2)
  805b88:	e037883a 	mov	sp,fp
  805b8c:	df000017 	ldw	fp,0(sp)
  805b90:	dec00104 	addi	sp,sp,4
  805b94:	f800283a 	ret

00805b98 <vTaskExitCritical>:
  805b98:	defffe04 	addi	sp,sp,-8
  805b9c:	df000115 	stw	fp,4(sp)
  805ba0:	df000104 	addi	fp,sp,4
  805ba4:	d0a6b917 	ldw	r2,-25884(gp)
  805ba8:	1005003a 	cmpeq	r2,r2,zero
  805bac:	1000101e 	bne	r2,zero,805bf0 <vTaskExitCritical+0x58>
  805bb0:	d0a6b317 	ldw	r2,-25908(gp)
  805bb4:	10801717 	ldw	r2,92(r2)
  805bb8:	1005003a 	cmpeq	r2,r2,zero
  805bbc:	10000c1e 	bne	r2,zero,805bf0 <vTaskExitCritical+0x58>
  805bc0:	d0e6b317 	ldw	r3,-25908(gp)
  805bc4:	18801717 	ldw	r2,92(r3)
  805bc8:	10bfffc4 	addi	r2,r2,-1
  805bcc:	18801715 	stw	r2,92(r3)
  805bd0:	d0a6b317 	ldw	r2,-25908(gp)
  805bd4:	10801717 	ldw	r2,92(r2)
  805bd8:	1004c03a 	cmpne	r2,r2,zero
  805bdc:	1000041e 	bne	r2,zero,805bf0 <vTaskExitCritical+0x58>
  805be0:	00800044 	movi	r2,1
  805be4:	e0bfff15 	stw	r2,-4(fp)
  805be8:	e0bfff17 	ldw	r2,-4(fp)
  805bec:	1001703a 	wrctl	status,r2
  805bf0:	e037883a 	mov	sp,fp
  805bf4:	df000017 	ldw	fp,0(sp)
  805bf8:	dec00104 	addi	sp,sp,4
  805bfc:	f800283a 	ret

00805c00 <xTimerCreateTimerTask>:
  805c00:	defff904 	addi	sp,sp,-28
  805c04:	dfc00615 	stw	ra,24(sp)
  805c08:	df000515 	stw	fp,20(sp)
  805c0c:	df000504 	addi	fp,sp,20
  805c10:	e03fff15 	stw	zero,-4(fp)
  805c14:	080637c0 	call	80637c <prvCheckForValidListAndQueue>
  805c18:	d0a6c117 	ldw	r2,-25852(gp)
  805c1c:	1005003a 	cmpeq	r2,r2,zero
  805c20:	10000d1e 	bne	r2,zero,805c58 <xTimerCreateTimerTask+0x58>
  805c24:	01402074 	movhi	r5,129
  805c28:	29423704 	addi	r5,r5,2268
  805c2c:	00800144 	movi	r2,5
  805c30:	d8800015 	stw	r2,0(sp)
  805c34:	d8000115 	stw	zero,4(sp)
  805c38:	d8000215 	stw	zero,8(sp)
  805c3c:	d8000315 	stw	zero,12(sp)
  805c40:	01002034 	movhi	r4,128
  805c44:	2117a504 	addi	r4,r4,24212
  805c48:	01810004 	movi	r6,1024
  805c4c:	000f883a 	mov	r7,zero
  805c50:	0803e9c0 	call	803e9c <xTaskGenericCreate>
  805c54:	e0bfff15 	stw	r2,-4(fp)
  805c58:	e0bfff17 	ldw	r2,-4(fp)
  805c5c:	e037883a 	mov	sp,fp
  805c60:	dfc00117 	ldw	ra,4(sp)
  805c64:	df000017 	ldw	fp,0(sp)
  805c68:	dec00204 	addi	sp,sp,8
  805c6c:	f800283a 	ret

00805c70 <xTimerCreate>:
  805c70:	defff904 	addi	sp,sp,-28
  805c74:	dfc00615 	stw	ra,24(sp)
  805c78:	df000515 	stw	fp,20(sp)
  805c7c:	df000504 	addi	fp,sp,20
  805c80:	e13ffc15 	stw	r4,-16(fp)
  805c84:	e17ffd15 	stw	r5,-12(fp)
  805c88:	e1bffe15 	stw	r6,-8(fp)
  805c8c:	e1ffff15 	stw	r7,-4(fp)
  805c90:	e0bffd17 	ldw	r2,-12(fp)
  805c94:	1004c03a 	cmpne	r2,r2,zero
  805c98:	1000021e 	bne	r2,zero,805ca4 <xTimerCreate+0x34>
  805c9c:	e03ffb15 	stw	zero,-20(fp)
  805ca0:	00001906 	br	805d08 <xTimerCreate+0x98>
  805ca4:	01000a04 	movi	r4,40
  805ca8:	08082180 	call	808218 <pvPortMalloc>
  805cac:	e0bffb15 	stw	r2,-20(fp)
  805cb0:	e0bffb17 	ldw	r2,-20(fp)
  805cb4:	1005003a 	cmpeq	r2,r2,zero
  805cb8:	1000131e 	bne	r2,zero,805d08 <xTimerCreate+0x98>
  805cbc:	080637c0 	call	80637c <prvCheckForValidListAndQueue>
  805cc0:	e0fffb17 	ldw	r3,-20(fp)
  805cc4:	e0bffc17 	ldw	r2,-16(fp)
  805cc8:	18800015 	stw	r2,0(r3)
  805ccc:	e0fffb17 	ldw	r3,-20(fp)
  805cd0:	e0bffd17 	ldw	r2,-12(fp)
  805cd4:	18800615 	stw	r2,24(r3)
  805cd8:	e0fffb17 	ldw	r3,-20(fp)
  805cdc:	e0bffe17 	ldw	r2,-8(fp)
  805ce0:	18800715 	stw	r2,28(r3)
  805ce4:	e0fffb17 	ldw	r3,-20(fp)
  805ce8:	e0bfff17 	ldw	r2,-4(fp)
  805cec:	18800815 	stw	r2,32(r3)
  805cf0:	e0fffb17 	ldw	r3,-20(fp)
  805cf4:	e0800217 	ldw	r2,8(fp)
  805cf8:	18800915 	stw	r2,36(r3)
  805cfc:	e0bffb17 	ldw	r2,-20(fp)
  805d00:	11000104 	addi	r4,r2,4
  805d04:	080830c0 	call	80830c <vListInitialiseItem>
  805d08:	e0bffb17 	ldw	r2,-20(fp)
  805d0c:	e037883a 	mov	sp,fp
  805d10:	dfc00117 	ldw	ra,4(sp)
  805d14:	df000017 	ldw	fp,0(sp)
  805d18:	dec00204 	addi	sp,sp,8
  805d1c:	f800283a 	ret

00805d20 <xTimerGenericCommand>:
  805d20:	defff604 	addi	sp,sp,-40
  805d24:	dfc00915 	stw	ra,36(sp)
  805d28:	df000815 	stw	fp,32(sp)
  805d2c:	df000804 	addi	fp,sp,32
  805d30:	e13ffc15 	stw	r4,-16(fp)
  805d34:	e17ffd15 	stw	r5,-12(fp)
  805d38:	e1bffe15 	stw	r6,-8(fp)
  805d3c:	e1ffff15 	stw	r7,-4(fp)
  805d40:	e03ff815 	stw	zero,-32(fp)
  805d44:	d0a6c117 	ldw	r2,-25852(gp)
  805d48:	1005003a 	cmpeq	r2,r2,zero
  805d4c:	1000201e 	bne	r2,zero,805dd0 <xTimerGenericCommand+0xb0>
  805d50:	e0bffd17 	ldw	r2,-12(fp)
  805d54:	e0bff915 	stw	r2,-28(fp)
  805d58:	e0bffe17 	ldw	r2,-8(fp)
  805d5c:	e0bffa15 	stw	r2,-24(fp)
  805d60:	e0bffc17 	ldw	r2,-16(fp)
  805d64:	e0bffb15 	stw	r2,-20(fp)
  805d68:	e0bfff17 	ldw	r2,-4(fp)
  805d6c:	1004c03a 	cmpne	r2,r2,zero
  805d70:	1000111e 	bne	r2,zero,805db8 <xTimerGenericCommand+0x98>
  805d74:	08059140 	call	805914 <xTaskGetSchedulerState>
  805d78:	10800058 	cmpnei	r2,r2,1
  805d7c:	1000071e 	bne	r2,zero,805d9c <xTimerGenericCommand+0x7c>
  805d80:	d126c117 	ldw	r4,-25852(gp)
  805d84:	e17ff904 	addi	r5,fp,-28
  805d88:	e1800217 	ldw	r6,8(fp)
  805d8c:	000f883a 	mov	r7,zero
  805d90:	08032600 	call	803260 <xQueueGenericSend>
  805d94:	e0bff815 	stw	r2,-32(fp)
  805d98:	00000d06 	br	805dd0 <xTimerGenericCommand+0xb0>
  805d9c:	d126c117 	ldw	r4,-25852(gp)
  805da0:	e17ff904 	addi	r5,fp,-28
  805da4:	000d883a 	mov	r6,zero
  805da8:	000f883a 	mov	r7,zero
  805dac:	08032600 	call	803260 <xQueueGenericSend>
  805db0:	e0bff815 	stw	r2,-32(fp)
  805db4:	00000606 	br	805dd0 <xTimerGenericCommand+0xb0>
  805db8:	d126c117 	ldw	r4,-25852(gp)
  805dbc:	e17ff904 	addi	r5,fp,-28
  805dc0:	e1bfff17 	ldw	r6,-4(fp)
  805dc4:	000f883a 	mov	r7,zero
  805dc8:	080342c0 	call	80342c <xQueueGenericSendFromISR>
  805dcc:	e0bff815 	stw	r2,-32(fp)
  805dd0:	e0bff817 	ldw	r2,-32(fp)
  805dd4:	e037883a 	mov	sp,fp
  805dd8:	dfc00117 	ldw	ra,4(sp)
  805ddc:	df000017 	ldw	fp,0(sp)
  805de0:	dec00204 	addi	sp,sp,8
  805de4:	f800283a 	ret

00805de8 <prvProcessExpiredTimer>:
  805de8:	defff904 	addi	sp,sp,-28
  805dec:	dfc00615 	stw	ra,24(sp)
  805df0:	df000515 	stw	fp,20(sp)
  805df4:	df000504 	addi	fp,sp,20
  805df8:	e13ffe15 	stw	r4,-8(fp)
  805dfc:	e17fff15 	stw	r5,-4(fp)
  805e00:	d0a6c317 	ldw	r2,-25844(gp)
  805e04:	10800317 	ldw	r2,12(r2)
  805e08:	10800317 	ldw	r2,12(r2)
  805e0c:	e0bffd15 	stw	r2,-12(fp)
  805e10:	e0bffd17 	ldw	r2,-12(fp)
  805e14:	11000104 	addi	r4,r2,4
  805e18:	08084a00 	call	8084a0 <uxListRemove>
  805e1c:	e0bffd17 	ldw	r2,-12(fp)
  805e20:	10800717 	ldw	r2,28(r2)
  805e24:	10800058 	cmpnei	r2,r2,1
  805e28:	1000111e 	bne	r2,zero,805e70 <prvProcessExpiredTimer+0x88>
  805e2c:	e0bffd17 	ldw	r2,-12(fp)
  805e30:	10c00617 	ldw	r3,24(r2)
  805e34:	e0bffe17 	ldw	r2,-8(fp)
  805e38:	188b883a 	add	r5,r3,r2
  805e3c:	e13ffd17 	ldw	r4,-12(fp)
  805e40:	e1bfff17 	ldw	r6,-4(fp)
  805e44:	e1fffe17 	ldw	r7,-8(fp)
  805e48:	08060300 	call	806030 <prvInsertTimerInActiveList>
  805e4c:	10800058 	cmpnei	r2,r2,1
  805e50:	1000071e 	bne	r2,zero,805e70 <prvProcessExpiredTimer+0x88>
  805e54:	d8000015 	stw	zero,0(sp)
  805e58:	e13ffd17 	ldw	r4,-12(fp)
  805e5c:	000b883a 	mov	r5,zero
  805e60:	e1bffe17 	ldw	r6,-8(fp)
  805e64:	000f883a 	mov	r7,zero
  805e68:	0805d200 	call	805d20 <xTimerGenericCommand>
  805e6c:	e0bffc15 	stw	r2,-16(fp)
  805e70:	e0bffd17 	ldw	r2,-12(fp)
  805e74:	10800917 	ldw	r2,36(r2)
  805e78:	e13ffd17 	ldw	r4,-12(fp)
  805e7c:	103ee83a 	callr	r2
  805e80:	e037883a 	mov	sp,fp
  805e84:	dfc00117 	ldw	ra,4(sp)
  805e88:	df000017 	ldw	fp,0(sp)
  805e8c:	dec00204 	addi	sp,sp,8
  805e90:	f800283a 	ret

00805e94 <prvTimerTask>:
  805e94:	defffb04 	addi	sp,sp,-20
  805e98:	dfc00415 	stw	ra,16(sp)
  805e9c:	df000315 	stw	fp,12(sp)
  805ea0:	df000304 	addi	fp,sp,12
  805ea4:	e13fff15 	stw	r4,-4(fp)
  805ea8:	e13ffe04 	addi	r4,fp,-8
  805eac:	0805f680 	call	805f68 <prvGetNextExpireTime>
  805eb0:	e0bffd15 	stw	r2,-12(fp)
  805eb4:	e17ffe17 	ldw	r5,-8(fp)
  805eb8:	e13ffd17 	ldw	r4,-12(fp)
  805ebc:	0805ec80 	call	805ec8 <prvProcessTimerOrBlockTask>
  805ec0:	08060fc0 	call	8060fc <prvProcessReceivedCommands>
  805ec4:	003ff806 	br	805ea8 <prvTimerTask+0x14>

00805ec8 <prvProcessTimerOrBlockTask>:
  805ec8:	defffa04 	addi	sp,sp,-24
  805ecc:	dfc00515 	stw	ra,20(sp)
  805ed0:	df000415 	stw	fp,16(sp)
  805ed4:	df000404 	addi	fp,sp,16
  805ed8:	e13ffe15 	stw	r4,-8(fp)
  805edc:	e17fff15 	stw	r5,-4(fp)
  805ee0:	08049500 	call	804950 <vTaskSuspendAll>
  805ee4:	e13ffd04 	addi	r4,fp,-12
  805ee8:	0805fc80 	call	805fc8 <prvSampleTimeNow>
  805eec:	e0bffc15 	stw	r2,-16(fp)
  805ef0:	e0bffd17 	ldw	r2,-12(fp)
  805ef4:	1004c03a 	cmpne	r2,r2,zero
  805ef8:	1000151e 	bne	r2,zero,805f50 <prvProcessTimerOrBlockTask+0x88>
  805efc:	e0bfff17 	ldw	r2,-4(fp)
  805f00:	1004c03a 	cmpne	r2,r2,zero
  805f04:	1000081e 	bne	r2,zero,805f28 <prvProcessTimerOrBlockTask+0x60>
  805f08:	e0fffe17 	ldw	r3,-8(fp)
  805f0c:	e0bffc17 	ldw	r2,-16(fp)
  805f10:	10c00536 	bltu	r2,r3,805f28 <prvProcessTimerOrBlockTask+0x60>
  805f14:	08049780 	call	804978 <xTaskResumeAll>
  805f18:	e13ffe17 	ldw	r4,-8(fp)
  805f1c:	e17ffc17 	ldw	r5,-16(fp)
  805f20:	0805de80 	call	805de8 <prvProcessExpiredTimer>
  805f24:	00000b06 	br	805f54 <prvProcessTimerOrBlockTask+0x8c>
  805f28:	d126c117 	ldw	r4,-25852(gp)
  805f2c:	e0fffe17 	ldw	r3,-8(fp)
  805f30:	e0bffc17 	ldw	r2,-16(fp)
  805f34:	188bc83a 	sub	r5,r3,r2
  805f38:	0803df80 	call	803df8 <vQueueWaitForMessageRestricted>
  805f3c:	08049780 	call	804978 <xTaskResumeAll>
  805f40:	1004c03a 	cmpne	r2,r2,zero
  805f44:	1000031e 	bne	r2,zero,805f54 <prvProcessTimerOrBlockTask+0x8c>
  805f48:	003b683a 	trap	0
  805f4c:	00000106 	br	805f54 <prvProcessTimerOrBlockTask+0x8c>
  805f50:	08049780 	call	804978 <xTaskResumeAll>
  805f54:	e037883a 	mov	sp,fp
  805f58:	dfc00117 	ldw	ra,4(sp)
  805f5c:	df000017 	ldw	fp,0(sp)
  805f60:	dec00204 	addi	sp,sp,8
  805f64:	f800283a 	ret

00805f68 <prvGetNextExpireTime>:
  805f68:	defffd04 	addi	sp,sp,-12
  805f6c:	df000215 	stw	fp,8(sp)
  805f70:	df000204 	addi	fp,sp,8
  805f74:	e13fff15 	stw	r4,-4(fp)
  805f78:	d0a6c317 	ldw	r2,-25844(gp)
  805f7c:	10800017 	ldw	r2,0(r2)
  805f80:	1007003a 	cmpeq	r3,r2,zero
  805f84:	e0bfff17 	ldw	r2,-4(fp)
  805f88:	10c00015 	stw	r3,0(r2)
  805f8c:	e0bfff17 	ldw	r2,-4(fp)
  805f90:	10800017 	ldw	r2,0(r2)
  805f94:	1004c03a 	cmpne	r2,r2,zero
  805f98:	1000051e 	bne	r2,zero,805fb0 <prvGetNextExpireTime+0x48>
  805f9c:	d0a6c317 	ldw	r2,-25844(gp)
  805fa0:	10800317 	ldw	r2,12(r2)
  805fa4:	10800017 	ldw	r2,0(r2)
  805fa8:	e0bffe15 	stw	r2,-8(fp)
  805fac:	00000106 	br	805fb4 <prvGetNextExpireTime+0x4c>
  805fb0:	e03ffe15 	stw	zero,-8(fp)
  805fb4:	e0bffe17 	ldw	r2,-8(fp)
  805fb8:	e037883a 	mov	sp,fp
  805fbc:	df000017 	ldw	fp,0(sp)
  805fc0:	dec00104 	addi	sp,sp,4
  805fc4:	f800283a 	ret

00805fc8 <prvSampleTimeNow>:
  805fc8:	defffc04 	addi	sp,sp,-16
  805fcc:	dfc00315 	stw	ra,12(sp)
  805fd0:	df000215 	stw	fp,8(sp)
  805fd4:	df000204 	addi	fp,sp,8
  805fd8:	e13fff15 	stw	r4,-4(fp)
  805fdc:	0804af00 	call	804af0 <xTaskGetTickCount>
  805fe0:	e0bffe15 	stw	r2,-8(fp)
  805fe4:	d0e6c217 	ldw	r3,-25848(gp)
  805fe8:	e0bffe17 	ldw	r2,-8(fp)
  805fec:	10c0062e 	bgeu	r2,r3,806008 <prvSampleTimeNow+0x40>
  805ff0:	d126c217 	ldw	r4,-25848(gp)
  805ff4:	08062740 	call	806274 <prvSwitchTimerLists>
  805ff8:	e0ffff17 	ldw	r3,-4(fp)
  805ffc:	00800044 	movi	r2,1
  806000:	18800015 	stw	r2,0(r3)
  806004:	00000206 	br	806010 <prvSampleTimeNow+0x48>
  806008:	e0bfff17 	ldw	r2,-4(fp)
  80600c:	10000015 	stw	zero,0(r2)
  806010:	e0bffe17 	ldw	r2,-8(fp)
  806014:	d0a6c215 	stw	r2,-25848(gp)
  806018:	e0bffe17 	ldw	r2,-8(fp)
  80601c:	e037883a 	mov	sp,fp
  806020:	dfc00117 	ldw	ra,4(sp)
  806024:	df000017 	ldw	fp,0(sp)
  806028:	dec00204 	addi	sp,sp,8
  80602c:	f800283a 	ret

00806030 <prvInsertTimerInActiveList>:
  806030:	defff904 	addi	sp,sp,-28
  806034:	dfc00615 	stw	ra,24(sp)
  806038:	df000515 	stw	fp,20(sp)
  80603c:	df000504 	addi	fp,sp,20
  806040:	e13ffc15 	stw	r4,-16(fp)
  806044:	e17ffd15 	stw	r5,-12(fp)
  806048:	e1bffe15 	stw	r6,-8(fp)
  80604c:	e1ffff15 	stw	r7,-4(fp)
  806050:	e03ffb15 	stw	zero,-20(fp)
  806054:	e0fffc17 	ldw	r3,-16(fp)
  806058:	e0bffd17 	ldw	r2,-12(fp)
  80605c:	18800115 	stw	r2,4(r3)
  806060:	e0fffc17 	ldw	r3,-16(fp)
  806064:	e0bffc17 	ldw	r2,-16(fp)
  806068:	18800415 	stw	r2,16(r3)
  80606c:	e0fffd17 	ldw	r3,-12(fp)
  806070:	e0bffe17 	ldw	r2,-8(fp)
  806074:	10c00e36 	bltu	r2,r3,8060b0 <prvInsertTimerInActiveList+0x80>
  806078:	e0fffe17 	ldw	r3,-8(fp)
  80607c:	e0bfff17 	ldw	r2,-4(fp)
  806080:	1887c83a 	sub	r3,r3,r2
  806084:	e0bffc17 	ldw	r2,-16(fp)
  806088:	10800617 	ldw	r2,24(r2)
  80608c:	18800336 	bltu	r3,r2,80609c <prvInsertTimerInActiveList+0x6c>
  806090:	00800044 	movi	r2,1
  806094:	e0bffb15 	stw	r2,-20(fp)
  806098:	00001206 	br	8060e4 <prvInsertTimerInActiveList+0xb4>
  80609c:	d126c417 	ldw	r4,-25840(gp)
  8060a0:	e0bffc17 	ldw	r2,-16(fp)
  8060a4:	11400104 	addi	r5,r2,4
  8060a8:	08083cc0 	call	8083cc <vListInsert>
  8060ac:	00000d06 	br	8060e4 <prvInsertTimerInActiveList+0xb4>
  8060b0:	e0fffe17 	ldw	r3,-8(fp)
  8060b4:	e0bfff17 	ldw	r2,-4(fp)
  8060b8:	1880062e 	bgeu	r3,r2,8060d4 <prvInsertTimerInActiveList+0xa4>
  8060bc:	e0fffd17 	ldw	r3,-12(fp)
  8060c0:	e0bfff17 	ldw	r2,-4(fp)
  8060c4:	18800336 	bltu	r3,r2,8060d4 <prvInsertTimerInActiveList+0xa4>
  8060c8:	00800044 	movi	r2,1
  8060cc:	e0bffb15 	stw	r2,-20(fp)
  8060d0:	00000406 	br	8060e4 <prvInsertTimerInActiveList+0xb4>
  8060d4:	d126c317 	ldw	r4,-25844(gp)
  8060d8:	e0bffc17 	ldw	r2,-16(fp)
  8060dc:	11400104 	addi	r5,r2,4
  8060e0:	08083cc0 	call	8083cc <vListInsert>
  8060e4:	e0bffb17 	ldw	r2,-20(fp)
  8060e8:	e037883a 	mov	sp,fp
  8060ec:	dfc00117 	ldw	ra,4(sp)
  8060f0:	df000017 	ldw	fp,0(sp)
  8060f4:	dec00204 	addi	sp,sp,8
  8060f8:	f800283a 	ret

008060fc <prvProcessReceivedCommands>:
  8060fc:	defff504 	addi	sp,sp,-44
  806100:	dfc00a15 	stw	ra,40(sp)
  806104:	df000915 	stw	fp,36(sp)
  806108:	df000904 	addi	fp,sp,36
  80610c:	e13ffe04 	addi	r4,fp,-8
  806110:	0805fc80 	call	805fc8 <prvSampleTimeNow>
  806114:	e0bff815 	stw	r2,-32(fp)
  806118:	00004a06 	br	806244 <prvProcessReceivedCommands+0x148>
  80611c:	e0bffd17 	ldw	r2,-12(fp)
  806120:	e0bffa15 	stw	r2,-24(fp)
  806124:	e0bffa17 	ldw	r2,-24(fp)
  806128:	1005003a 	cmpeq	r2,r2,zero
  80612c:	1000071e 	bne	r2,zero,80614c <prvProcessReceivedCommands+0x50>
  806130:	e0bffa17 	ldw	r2,-24(fp)
  806134:	10800517 	ldw	r2,20(r2)
  806138:	1005003a 	cmpeq	r2,r2,zero
  80613c:	1000031e 	bne	r2,zero,80614c <prvProcessReceivedCommands+0x50>
  806140:	e0bffa17 	ldw	r2,-24(fp)
  806144:	11000104 	addi	r4,r2,4
  806148:	08084a00 	call	8084a0 <uxListRemove>
  80614c:	e0bffb17 	ldw	r2,-20(fp)
  806150:	e0bfff15 	stw	r2,-4(fp)
  806154:	e0ffff17 	ldw	r3,-4(fp)
  806158:	18800060 	cmpeqi	r2,r3,1
  80615c:	1000391e 	bne	r2,zero,806244 <prvProcessReceivedCommands+0x148>
  806160:	e0ffff17 	ldw	r3,-4(fp)
  806164:	18800088 	cmpgei	r2,r3,2
  806168:	1000041e 	bne	r2,zero,80617c <prvProcessReceivedCommands+0x80>
  80616c:	e0ffff17 	ldw	r3,-4(fp)
  806170:	1805003a 	cmpeq	r2,r3,zero
  806174:	1000081e 	bne	r2,zero,806198 <prvProcessReceivedCommands+0x9c>
  806178:	00003206 	br	806244 <prvProcessReceivedCommands+0x148>
  80617c:	e0ffff17 	ldw	r3,-4(fp)
  806180:	188000a0 	cmpeqi	r2,r3,2
  806184:	1000211e 	bne	r2,zero,80620c <prvProcessReceivedCommands+0x110>
  806188:	e0ffff17 	ldw	r3,-4(fp)
  80618c:	188000e0 	cmpeqi	r2,r3,3
  806190:	10002a1e 	bne	r2,zero,80623c <prvProcessReceivedCommands+0x140>
  806194:	00002b06 	br	806244 <prvProcessReceivedCommands+0x148>
  806198:	e0fffc17 	ldw	r3,-16(fp)
  80619c:	e0bffa17 	ldw	r2,-24(fp)
  8061a0:	10800617 	ldw	r2,24(r2)
  8061a4:	188b883a 	add	r5,r3,r2
  8061a8:	e1fffc17 	ldw	r7,-16(fp)
  8061ac:	e13ffa17 	ldw	r4,-24(fp)
  8061b0:	e1bff817 	ldw	r6,-32(fp)
  8061b4:	08060300 	call	806030 <prvInsertTimerInActiveList>
  8061b8:	10800058 	cmpnei	r2,r2,1
  8061bc:	1000211e 	bne	r2,zero,806244 <prvProcessReceivedCommands+0x148>
  8061c0:	e0bffa17 	ldw	r2,-24(fp)
  8061c4:	10800917 	ldw	r2,36(r2)
  8061c8:	e13ffa17 	ldw	r4,-24(fp)
  8061cc:	103ee83a 	callr	r2
  8061d0:	e0bffa17 	ldw	r2,-24(fp)
  8061d4:	10800717 	ldw	r2,28(r2)
  8061d8:	10800058 	cmpnei	r2,r2,1
  8061dc:	1000191e 	bne	r2,zero,806244 <prvProcessReceivedCommands+0x148>
  8061e0:	e0fffc17 	ldw	r3,-16(fp)
  8061e4:	e0bffa17 	ldw	r2,-24(fp)
  8061e8:	10800617 	ldw	r2,24(r2)
  8061ec:	188d883a 	add	r6,r3,r2
  8061f0:	d8000015 	stw	zero,0(sp)
  8061f4:	e13ffa17 	ldw	r4,-24(fp)
  8061f8:	000b883a 	mov	r5,zero
  8061fc:	000f883a 	mov	r7,zero
  806200:	0805d200 	call	805d20 <xTimerGenericCommand>
  806204:	e0bff915 	stw	r2,-28(fp)
  806208:	00000e06 	br	806244 <prvProcessReceivedCommands+0x148>
  80620c:	e0fffc17 	ldw	r3,-16(fp)
  806210:	e0bffa17 	ldw	r2,-24(fp)
  806214:	10c00615 	stw	r3,24(r2)
  806218:	e0bffa17 	ldw	r2,-24(fp)
  80621c:	10c00617 	ldw	r3,24(r2)
  806220:	e0bff817 	ldw	r2,-32(fp)
  806224:	188b883a 	add	r5,r3,r2
  806228:	e13ffa17 	ldw	r4,-24(fp)
  80622c:	e1bff817 	ldw	r6,-32(fp)
  806230:	e1fff817 	ldw	r7,-32(fp)
  806234:	08060300 	call	806030 <prvInsertTimerInActiveList>
  806238:	00000206 	br	806244 <prvProcessReceivedCommands+0x148>
  80623c:	e13ffa17 	ldw	r4,-24(fp)
  806240:	08082580 	call	808258 <vPortFree>
  806244:	d126c117 	ldw	r4,-25852(gp)
  806248:	e17ffb04 	addi	r5,fp,-20
  80624c:	000d883a 	mov	r6,zero
  806250:	000f883a 	mov	r7,zero
  806254:	08035000 	call	803500 <xQueueGenericReceive>
  806258:	1004c03a 	cmpne	r2,r2,zero
  80625c:	103faf1e 	bne	r2,zero,80611c <prvProcessReceivedCommands+0x20>
  806260:	e037883a 	mov	sp,fp
  806264:	dfc00117 	ldw	ra,4(sp)
  806268:	df000017 	ldw	fp,0(sp)
  80626c:	dec00204 	addi	sp,sp,8
  806270:	f800283a 	ret

00806274 <prvSwitchTimerLists>:
  806274:	defff704 	addi	sp,sp,-36
  806278:	dfc00815 	stw	ra,32(sp)
  80627c:	df000715 	stw	fp,28(sp)
  806280:	df000704 	addi	fp,sp,28
  806284:	e13fff15 	stw	r4,-4(fp)
  806288:	00002d06 	br	806340 <prvSwitchTimerLists+0xcc>
  80628c:	d0a6c317 	ldw	r2,-25844(gp)
  806290:	10800317 	ldw	r2,12(r2)
  806294:	10800017 	ldw	r2,0(r2)
  806298:	e0bffe15 	stw	r2,-8(fp)
  80629c:	d0a6c317 	ldw	r2,-25844(gp)
  8062a0:	10800317 	ldw	r2,12(r2)
  8062a4:	10800317 	ldw	r2,12(r2)
  8062a8:	e0bffb15 	stw	r2,-20(fp)
  8062ac:	e0bffb17 	ldw	r2,-20(fp)
  8062b0:	11000104 	addi	r4,r2,4
  8062b4:	08084a00 	call	8084a0 <uxListRemove>
  8062b8:	e0bffb17 	ldw	r2,-20(fp)
  8062bc:	10800917 	ldw	r2,36(r2)
  8062c0:	e13ffb17 	ldw	r4,-20(fp)
  8062c4:	103ee83a 	callr	r2
  8062c8:	e0bffb17 	ldw	r2,-20(fp)
  8062cc:	10800717 	ldw	r2,28(r2)
  8062d0:	10800058 	cmpnei	r2,r2,1
  8062d4:	10001a1e 	bne	r2,zero,806340 <prvSwitchTimerLists+0xcc>
  8062d8:	e0bffb17 	ldw	r2,-20(fp)
  8062dc:	10c00617 	ldw	r3,24(r2)
  8062e0:	e0bffe17 	ldw	r2,-8(fp)
  8062e4:	1885883a 	add	r2,r3,r2
  8062e8:	e0bffd15 	stw	r2,-12(fp)
  8062ec:	e0fffd17 	ldw	r3,-12(fp)
  8062f0:	e0bffe17 	ldw	r2,-8(fp)
  8062f4:	10c00b2e 	bgeu	r2,r3,806324 <prvSwitchTimerLists+0xb0>
  8062f8:	e0fffb17 	ldw	r3,-20(fp)
  8062fc:	e0bffd17 	ldw	r2,-12(fp)
  806300:	18800115 	stw	r2,4(r3)
  806304:	e0fffb17 	ldw	r3,-20(fp)
  806308:	e0bffb17 	ldw	r2,-20(fp)
  80630c:	18800415 	stw	r2,16(r3)
  806310:	d126c317 	ldw	r4,-25844(gp)
  806314:	e0bffb17 	ldw	r2,-20(fp)
  806318:	11400104 	addi	r5,r2,4
  80631c:	08083cc0 	call	8083cc <vListInsert>
  806320:	00000706 	br	806340 <prvSwitchTimerLists+0xcc>
  806324:	d8000015 	stw	zero,0(sp)
  806328:	e13ffb17 	ldw	r4,-20(fp)
  80632c:	000b883a 	mov	r5,zero
  806330:	e1bffe17 	ldw	r6,-8(fp)
  806334:	000f883a 	mov	r7,zero
  806338:	0805d200 	call	805d20 <xTimerGenericCommand>
  80633c:	e0bffa15 	stw	r2,-24(fp)
  806340:	d0a6c317 	ldw	r2,-25844(gp)
  806344:	10800017 	ldw	r2,0(r2)
  806348:	1004c03a 	cmpne	r2,r2,zero
  80634c:	103fcf1e 	bne	r2,zero,80628c <prvSwitchTimerLists+0x18>
  806350:	d0a6c317 	ldw	r2,-25844(gp)
  806354:	e0bffc15 	stw	r2,-16(fp)
  806358:	d0a6c417 	ldw	r2,-25840(gp)
  80635c:	d0a6c315 	stw	r2,-25844(gp)
  806360:	e0bffc17 	ldw	r2,-16(fp)
  806364:	d0a6c415 	stw	r2,-25840(gp)
  806368:	e037883a 	mov	sp,fp
  80636c:	dfc00117 	ldw	ra,4(sp)
  806370:	df000017 	ldw	fp,0(sp)
  806374:	dec00204 	addi	sp,sp,8
  806378:	f800283a 	ret

0080637c <prvCheckForValidListAndQueue>:
  80637c:	defffe04 	addi	sp,sp,-8
  806380:	dfc00115 	stw	ra,4(sp)
  806384:	df000015 	stw	fp,0(sp)
  806388:	d839883a 	mov	fp,sp
  80638c:	08059140 	call	805914 <xTaskGetSchedulerState>
  806390:	1005003a 	cmpeq	r2,r2,zero
  806394:	1000011e 	bne	r2,zero,80639c <prvCheckForValidListAndQueue+0x20>
  806398:	0805b480 	call	805b48 <vTaskEnterCritical>
  80639c:	d0a6c117 	ldw	r2,-25852(gp)
  8063a0:	1004c03a 	cmpne	r2,r2,zero
  8063a4:	1000111e 	bne	r2,zero,8063ec <prvCheckForValidListAndQueue+0x70>
  8063a8:	01002074 	movhi	r4,129
  8063ac:	2110a604 	addi	r4,r4,17048
  8063b0:	080829c0 	call	80829c <vListInitialise>
  8063b4:	01002074 	movhi	r4,129
  8063b8:	2110ab04 	addi	r4,r4,17068
  8063bc:	080829c0 	call	80829c <vListInitialise>
  8063c0:	00802074 	movhi	r2,129
  8063c4:	1090a604 	addi	r2,r2,17048
  8063c8:	d0a6c315 	stw	r2,-25844(gp)
  8063cc:	00802074 	movhi	r2,129
  8063d0:	1090ab04 	addi	r2,r2,17068
  8063d4:	d0a6c415 	stw	r2,-25840(gp)
  8063d8:	01000284 	movi	r4,10
  8063dc:	01400304 	movi	r5,12
  8063e0:	000d883a 	mov	r6,zero
  8063e4:	0802f300 	call	802f30 <xQueueGenericCreate>
  8063e8:	d0a6c115 	stw	r2,-25852(gp)
  8063ec:	08059140 	call	805914 <xTaskGetSchedulerState>
  8063f0:	1005003a 	cmpeq	r2,r2,zero
  8063f4:	1000011e 	bne	r2,zero,8063fc <prvCheckForValidListAndQueue+0x80>
  8063f8:	0805b980 	call	805b98 <vTaskExitCritical>
  8063fc:	e037883a 	mov	sp,fp
  806400:	dfc00117 	ldw	ra,4(sp)
  806404:	df000017 	ldw	fp,0(sp)
  806408:	dec00204 	addi	sp,sp,8
  80640c:	f800283a 	ret

00806410 <xTimerIsTimerActive>:
  806410:	defffb04 	addi	sp,sp,-20
  806414:	dfc00415 	stw	ra,16(sp)
  806418:	df000315 	stw	fp,12(sp)
  80641c:	df000304 	addi	fp,sp,12
  806420:	e13fff15 	stw	r4,-4(fp)
  806424:	e0bfff17 	ldw	r2,-4(fp)
  806428:	e0bffd15 	stw	r2,-12(fp)
  80642c:	08059140 	call	805914 <xTaskGetSchedulerState>
  806430:	1005003a 	cmpeq	r2,r2,zero
  806434:	1000011e 	bne	r2,zero,80643c <xTimerIsTimerActive+0x2c>
  806438:	0805b480 	call	805b48 <vTaskEnterCritical>
  80643c:	e0bffd17 	ldw	r2,-12(fp)
  806440:	10800517 	ldw	r2,20(r2)
  806444:	1004c03a 	cmpne	r2,r2,zero
  806448:	e0bffe15 	stw	r2,-8(fp)
  80644c:	08059140 	call	805914 <xTaskGetSchedulerState>
  806450:	1005003a 	cmpeq	r2,r2,zero
  806454:	1000011e 	bne	r2,zero,80645c <xTimerIsTimerActive+0x4c>
  806458:	0805b980 	call	805b98 <vTaskExitCritical>
  80645c:	e0bffe17 	ldw	r2,-8(fp)
  806460:	e037883a 	mov	sp,fp
  806464:	dfc00117 	ldw	ra,4(sp)
  806468:	df000017 	ldw	fp,0(sp)
  80646c:	dec00204 	addi	sp,sp,8
  806470:	f800283a 	ret

00806474 <pvTimerGetTimerID>:
  806474:	defffd04 	addi	sp,sp,-12
  806478:	df000215 	stw	fp,8(sp)
  80647c:	df000204 	addi	fp,sp,8
  806480:	e13fff15 	stw	r4,-4(fp)
  806484:	e0bfff17 	ldw	r2,-4(fp)
  806488:	e0bffe15 	stw	r2,-8(fp)
  80648c:	e0bffe17 	ldw	r2,-8(fp)
  806490:	10800817 	ldw	r2,32(r2)
  806494:	e037883a 	mov	sp,fp
  806498:	df000017 	ldw	fp,0(sp)
  80649c:	dec00104 	addi	sp,sp,4
  8064a0:	f800283a 	ret

008064a4 <close>:
  8064a4:	defff804 	addi	sp,sp,-32
  8064a8:	dfc00715 	stw	ra,28(sp)
  8064ac:	df000615 	stw	fp,24(sp)
  8064b0:	df000604 	addi	fp,sp,24
  8064b4:	e13ffc15 	stw	r4,-16(fp)
  8064b8:	e0bffc17 	ldw	r2,-16(fp)
  8064bc:	1004803a 	cmplt	r2,r2,zero
  8064c0:	1000091e 	bne	r2,zero,8064e8 <close+0x44>
  8064c4:	e13ffc17 	ldw	r4,-16(fp)
  8064c8:	01400304 	movi	r5,12
  8064cc:	0802c140 	call	802c14 <__mulsi3>
  8064d0:	1007883a 	mov	r3,r2
  8064d4:	00802074 	movhi	r2,129
  8064d8:	10850e04 	addi	r2,r2,5176
  8064dc:	1887883a 	add	r3,r3,r2
  8064e0:	e0ffff15 	stw	r3,-4(fp)
  8064e4:	00000106 	br	8064ec <close+0x48>
  8064e8:	e03fff15 	stw	zero,-4(fp)
  8064ec:	e0bfff17 	ldw	r2,-4(fp)
  8064f0:	e0bffb15 	stw	r2,-20(fp)
  8064f4:	e0bffb17 	ldw	r2,-20(fp)
  8064f8:	1005003a 	cmpeq	r2,r2,zero
  8064fc:	10001d1e 	bne	r2,zero,806574 <close+0xd0>
  806500:	e0bffb17 	ldw	r2,-20(fp)
  806504:	10800017 	ldw	r2,0(r2)
  806508:	10800417 	ldw	r2,16(r2)
  80650c:	1005003a 	cmpeq	r2,r2,zero
  806510:	1000071e 	bne	r2,zero,806530 <close+0x8c>
  806514:	e0bffb17 	ldw	r2,-20(fp)
  806518:	10800017 	ldw	r2,0(r2)
  80651c:	10800417 	ldw	r2,16(r2)
  806520:	e13ffb17 	ldw	r4,-20(fp)
  806524:	103ee83a 	callr	r2
  806528:	e0bffe15 	stw	r2,-8(fp)
  80652c:	00000106 	br	806534 <close+0x90>
  806530:	e03ffe15 	stw	zero,-8(fp)
  806534:	e0bffe17 	ldw	r2,-8(fp)
  806538:	e0bffa15 	stw	r2,-24(fp)
  80653c:	e13ffc17 	ldw	r4,-16(fp)
  806540:	080714c0 	call	80714c <alt_release_fd>
  806544:	e0bffa17 	ldw	r2,-24(fp)
  806548:	1004403a 	cmpge	r2,r2,zero
  80654c:	1000071e 	bne	r2,zero,80656c <close+0xc8>
  806550:	08065a40 	call	8065a4 <alt_get_errno>
  806554:	e0fffa17 	ldw	r3,-24(fp)
  806558:	00c7c83a 	sub	r3,zero,r3
  80655c:	10c00015 	stw	r3,0(r2)
  806560:	00bfffc4 	movi	r2,-1
  806564:	e0bffd15 	stw	r2,-12(fp)
  806568:	00000806 	br	80658c <close+0xe8>
  80656c:	e03ffd15 	stw	zero,-12(fp)
  806570:	00000606 	br	80658c <close+0xe8>
  806574:	08065a40 	call	8065a4 <alt_get_errno>
  806578:	1007883a 	mov	r3,r2
  80657c:	00801444 	movi	r2,81
  806580:	18800015 	stw	r2,0(r3)
  806584:	00bfffc4 	movi	r2,-1
  806588:	e0bffd15 	stw	r2,-12(fp)
  80658c:	e0bffd17 	ldw	r2,-12(fp)
  806590:	e037883a 	mov	sp,fp
  806594:	dfc00117 	ldw	ra,4(sp)
  806598:	df000017 	ldw	fp,0(sp)
  80659c:	dec00204 	addi	sp,sp,8
  8065a0:	f800283a 	ret

008065a4 <alt_get_errno>:
  8065a4:	defffd04 	addi	sp,sp,-12
  8065a8:	dfc00215 	stw	ra,8(sp)
  8065ac:	df000115 	stw	fp,4(sp)
  8065b0:	df000104 	addi	fp,sp,4
  8065b4:	00802074 	movhi	r2,129
  8065b8:	10899504 	addi	r2,r2,9812
  8065bc:	10800017 	ldw	r2,0(r2)
  8065c0:	1005003a 	cmpeq	r2,r2,zero
  8065c4:	1000061e 	bne	r2,zero,8065e0 <alt_get_errno+0x3c>
  8065c8:	00802074 	movhi	r2,129
  8065cc:	10899504 	addi	r2,r2,9812
  8065d0:	10800017 	ldw	r2,0(r2)
  8065d4:	103ee83a 	callr	r2
  8065d8:	e0bfff15 	stw	r2,-4(fp)
  8065dc:	00000306 	br	8065ec <alt_get_errno+0x48>
  8065e0:	00802074 	movhi	r2,129
  8065e4:	10903904 	addi	r2,r2,16612
  8065e8:	e0bfff15 	stw	r2,-4(fp)
  8065ec:	e0bfff17 	ldw	r2,-4(fp)
  8065f0:	e037883a 	mov	sp,fp
  8065f4:	dfc00117 	ldw	ra,4(sp)
  8065f8:	df000017 	ldw	fp,0(sp)
  8065fc:	dec00204 	addi	sp,sp,8
  806600:	f800283a 	ret

00806604 <alt_dev_null_write>:
  806604:	defffc04 	addi	sp,sp,-16
  806608:	df000315 	stw	fp,12(sp)
  80660c:	df000304 	addi	fp,sp,12
  806610:	e13ffd15 	stw	r4,-12(fp)
  806614:	e17ffe15 	stw	r5,-8(fp)
  806618:	e1bfff15 	stw	r6,-4(fp)
  80661c:	e0bfff17 	ldw	r2,-4(fp)
  806620:	e037883a 	mov	sp,fp
  806624:	df000017 	ldw	fp,0(sp)
  806628:	dec00104 	addi	sp,sp,4
  80662c:	f800283a 	ret

00806630 <_do_ctors>:
  806630:	defffd04 	addi	sp,sp,-12
  806634:	dfc00215 	stw	ra,8(sp)
  806638:	df000115 	stw	fp,4(sp)
  80663c:	df000104 	addi	fp,sp,4
  806640:	00bfff04 	movi	r2,-4
  806644:	00c02074 	movhi	r3,129
  806648:	18c22604 	addi	r3,r3,2200
  80664c:	1885883a 	add	r2,r3,r2
  806650:	e0bfff15 	stw	r2,-4(fp)
  806654:	00000606 	br	806670 <_do_ctors+0x40>
  806658:	e0bfff17 	ldw	r2,-4(fp)
  80665c:	10800017 	ldw	r2,0(r2)
  806660:	103ee83a 	callr	r2
  806664:	e0bfff17 	ldw	r2,-4(fp)
  806668:	10bfff04 	addi	r2,r2,-4
  80666c:	e0bfff15 	stw	r2,-4(fp)
  806670:	e0ffff17 	ldw	r3,-4(fp)
  806674:	00802074 	movhi	r2,129
  806678:	10822504 	addi	r2,r2,2196
  80667c:	18bff62e 	bgeu	r3,r2,806658 <_do_ctors+0x28>
  806680:	e037883a 	mov	sp,fp
  806684:	dfc00117 	ldw	ra,4(sp)
  806688:	df000017 	ldw	fp,0(sp)
  80668c:	dec00204 	addi	sp,sp,8
  806690:	f800283a 	ret

00806694 <_do_dtors>:
  806694:	defffd04 	addi	sp,sp,-12
  806698:	dfc00215 	stw	ra,8(sp)
  80669c:	df000115 	stw	fp,4(sp)
  8066a0:	df000104 	addi	fp,sp,4
  8066a4:	00bfff04 	movi	r2,-4
  8066a8:	00c02074 	movhi	r3,129
  8066ac:	18c22604 	addi	r3,r3,2200
  8066b0:	1885883a 	add	r2,r3,r2
  8066b4:	e0bfff15 	stw	r2,-4(fp)
  8066b8:	00000606 	br	8066d4 <_do_dtors+0x40>
  8066bc:	e0bfff17 	ldw	r2,-4(fp)
  8066c0:	10800017 	ldw	r2,0(r2)
  8066c4:	103ee83a 	callr	r2
  8066c8:	e0bfff17 	ldw	r2,-4(fp)
  8066cc:	10bfff04 	addi	r2,r2,-4
  8066d0:	e0bfff15 	stw	r2,-4(fp)
  8066d4:	e0ffff17 	ldw	r3,-4(fp)
  8066d8:	00802074 	movhi	r2,129
  8066dc:	10822604 	addi	r2,r2,2200
  8066e0:	18bff62e 	bgeu	r3,r2,8066bc <_do_dtors+0x28>
  8066e4:	e037883a 	mov	sp,fp
  8066e8:	dfc00117 	ldw	ra,4(sp)
  8066ec:	df000017 	ldw	fp,0(sp)
  8066f0:	dec00204 	addi	sp,sp,8
  8066f4:	f800283a 	ret

008066f8 <fstat>:
  8066f8:	defff904 	addi	sp,sp,-28
  8066fc:	dfc00615 	stw	ra,24(sp)
  806700:	df000515 	stw	fp,20(sp)
  806704:	df000504 	addi	fp,sp,20
  806708:	e13ffc15 	stw	r4,-16(fp)
  80670c:	e17ffd15 	stw	r5,-12(fp)
  806710:	e0bffc17 	ldw	r2,-16(fp)
  806714:	1004803a 	cmplt	r2,r2,zero
  806718:	1000091e 	bne	r2,zero,806740 <fstat+0x48>
  80671c:	e13ffc17 	ldw	r4,-16(fp)
  806720:	01400304 	movi	r5,12
  806724:	0802c140 	call	802c14 <__mulsi3>
  806728:	1007883a 	mov	r3,r2
  80672c:	00802074 	movhi	r2,129
  806730:	10850e04 	addi	r2,r2,5176
  806734:	1887883a 	add	r3,r3,r2
  806738:	e0ffff15 	stw	r3,-4(fp)
  80673c:	00000106 	br	806744 <fstat+0x4c>
  806740:	e03fff15 	stw	zero,-4(fp)
  806744:	e0bfff17 	ldw	r2,-4(fp)
  806748:	e0bffb15 	stw	r2,-20(fp)
  80674c:	e0bffb17 	ldw	r2,-20(fp)
  806750:	1005003a 	cmpeq	r2,r2,zero
  806754:	1000121e 	bne	r2,zero,8067a0 <fstat+0xa8>
  806758:	e0bffb17 	ldw	r2,-20(fp)
  80675c:	10800017 	ldw	r2,0(r2)
  806760:	10800817 	ldw	r2,32(r2)
  806764:	1005003a 	cmpeq	r2,r2,zero
  806768:	1000081e 	bne	r2,zero,80678c <fstat+0x94>
  80676c:	e0bffb17 	ldw	r2,-20(fp)
  806770:	10800017 	ldw	r2,0(r2)
  806774:	10800817 	ldw	r2,32(r2)
  806778:	e13ffb17 	ldw	r4,-20(fp)
  80677c:	e17ffd17 	ldw	r5,-12(fp)
  806780:	103ee83a 	callr	r2
  806784:	e0bffe15 	stw	r2,-8(fp)
  806788:	00000b06 	br	8067b8 <fstat+0xc0>
  80678c:	e0fffd17 	ldw	r3,-12(fp)
  806790:	00880004 	movi	r2,8192
  806794:	18800115 	stw	r2,4(r3)
  806798:	e03ffe15 	stw	zero,-8(fp)
  80679c:	00000606 	br	8067b8 <fstat+0xc0>
  8067a0:	08067d00 	call	8067d0 <alt_get_errno>
  8067a4:	1007883a 	mov	r3,r2
  8067a8:	00801444 	movi	r2,81
  8067ac:	18800015 	stw	r2,0(r3)
  8067b0:	00bfffc4 	movi	r2,-1
  8067b4:	e0bffe15 	stw	r2,-8(fp)
  8067b8:	e0bffe17 	ldw	r2,-8(fp)
  8067bc:	e037883a 	mov	sp,fp
  8067c0:	dfc00117 	ldw	ra,4(sp)
  8067c4:	df000017 	ldw	fp,0(sp)
  8067c8:	dec00204 	addi	sp,sp,8
  8067cc:	f800283a 	ret

008067d0 <alt_get_errno>:
  8067d0:	defffd04 	addi	sp,sp,-12
  8067d4:	dfc00215 	stw	ra,8(sp)
  8067d8:	df000115 	stw	fp,4(sp)
  8067dc:	df000104 	addi	fp,sp,4
  8067e0:	00802074 	movhi	r2,129
  8067e4:	10899504 	addi	r2,r2,9812
  8067e8:	10800017 	ldw	r2,0(r2)
  8067ec:	1005003a 	cmpeq	r2,r2,zero
  8067f0:	1000061e 	bne	r2,zero,80680c <alt_get_errno+0x3c>
  8067f4:	00802074 	movhi	r2,129
  8067f8:	10899504 	addi	r2,r2,9812
  8067fc:	10800017 	ldw	r2,0(r2)
  806800:	103ee83a 	callr	r2
  806804:	e0bfff15 	stw	r2,-4(fp)
  806808:	00000306 	br	806818 <alt_get_errno+0x48>
  80680c:	00802074 	movhi	r2,129
  806810:	10903904 	addi	r2,r2,16612
  806814:	e0bfff15 	stw	r2,-4(fp)
  806818:	e0bfff17 	ldw	r2,-4(fp)
  80681c:	e037883a 	mov	sp,fp
  806820:	dfc00117 	ldw	ra,4(sp)
  806824:	df000017 	ldw	fp,0(sp)
  806828:	dec00204 	addi	sp,sp,8
  80682c:	f800283a 	ret

00806830 <alt_open_fd>:
  806830:	defff804 	addi	sp,sp,-32
  806834:	dfc00715 	stw	ra,28(sp)
  806838:	df000615 	stw	fp,24(sp)
  80683c:	dc000515 	stw	r16,20(sp)
  806840:	df000504 	addi	fp,sp,20
  806844:	e13ffc15 	stw	r4,-16(fp)
  806848:	e17ffd15 	stw	r5,-12(fp)
  80684c:	e1bffe15 	stw	r6,-8(fp)
  806850:	e1ffff15 	stw	r7,-4(fp)
  806854:	e13ffd17 	ldw	r4,-12(fp)
  806858:	e17ffe17 	ldw	r5,-8(fp)
  80685c:	e1bfff17 	ldw	r6,-4(fp)
  806860:	0806ddc0 	call	806ddc <open>
  806864:	e0bffb15 	stw	r2,-20(fp)
  806868:	e0bffb17 	ldw	r2,-20(fp)
  80686c:	1004803a 	cmplt	r2,r2,zero
  806870:	10001f1e 	bne	r2,zero,8068f0 <alt_open_fd+0xc0>
  806874:	e13ffb17 	ldw	r4,-20(fp)
  806878:	04002074 	movhi	r16,129
  80687c:	84050e04 	addi	r16,r16,5176
  806880:	01400304 	movi	r5,12
  806884:	0802c140 	call	802c14 <__mulsi3>
  806888:	1405883a 	add	r2,r2,r16
  80688c:	10c00017 	ldw	r3,0(r2)
  806890:	e0bffc17 	ldw	r2,-16(fp)
  806894:	10c00015 	stw	r3,0(r2)
  806898:	e13ffb17 	ldw	r4,-20(fp)
  80689c:	04002074 	movhi	r16,129
  8068a0:	84050e04 	addi	r16,r16,5176
  8068a4:	01400304 	movi	r5,12
  8068a8:	0802c140 	call	802c14 <__mulsi3>
  8068ac:	1405883a 	add	r2,r2,r16
  8068b0:	10800104 	addi	r2,r2,4
  8068b4:	10c00017 	ldw	r3,0(r2)
  8068b8:	e0bffc17 	ldw	r2,-16(fp)
  8068bc:	10c00115 	stw	r3,4(r2)
  8068c0:	e13ffb17 	ldw	r4,-20(fp)
  8068c4:	04002074 	movhi	r16,129
  8068c8:	84050e04 	addi	r16,r16,5176
  8068cc:	01400304 	movi	r5,12
  8068d0:	0802c140 	call	802c14 <__mulsi3>
  8068d4:	1405883a 	add	r2,r2,r16
  8068d8:	10800204 	addi	r2,r2,8
  8068dc:	10c00017 	ldw	r3,0(r2)
  8068e0:	e0bffc17 	ldw	r2,-16(fp)
  8068e4:	10c00215 	stw	r3,8(r2)
  8068e8:	e13ffb17 	ldw	r4,-20(fp)
  8068ec:	080714c0 	call	80714c <alt_release_fd>
  8068f0:	e037883a 	mov	sp,fp
  8068f4:	dfc00217 	ldw	ra,8(sp)
  8068f8:	df000117 	ldw	fp,4(sp)
  8068fc:	dc000017 	ldw	r16,0(sp)
  806900:	dec00304 	addi	sp,sp,12
  806904:	f800283a 	ret

00806908 <alt_io_redirect>:
  806908:	defffb04 	addi	sp,sp,-20
  80690c:	dfc00415 	stw	ra,16(sp)
  806910:	df000315 	stw	fp,12(sp)
  806914:	df000304 	addi	fp,sp,12
  806918:	e13ffd15 	stw	r4,-12(fp)
  80691c:	e17ffe15 	stw	r5,-8(fp)
  806920:	e1bfff15 	stw	r6,-4(fp)
  806924:	01002074 	movhi	r4,129
  806928:	21051104 	addi	r4,r4,5188
  80692c:	e17ffd17 	ldw	r5,-12(fp)
  806930:	01800044 	movi	r6,1
  806934:	01c07fc4 	movi	r7,511
  806938:	08068300 	call	806830 <alt_open_fd>
  80693c:	01002074 	movhi	r4,129
  806940:	21050e04 	addi	r4,r4,5176
  806944:	e17ffe17 	ldw	r5,-8(fp)
  806948:	000d883a 	mov	r6,zero
  80694c:	01c07fc4 	movi	r7,511
  806950:	08068300 	call	806830 <alt_open_fd>
  806954:	01002074 	movhi	r4,129
  806958:	21051404 	addi	r4,r4,5200
  80695c:	e17fff17 	ldw	r5,-4(fp)
  806960:	01800044 	movi	r6,1
  806964:	01c07fc4 	movi	r7,511
  806968:	08068300 	call	806830 <alt_open_fd>
  80696c:	e037883a 	mov	sp,fp
  806970:	dfc00117 	ldw	ra,4(sp)
  806974:	df000017 	ldw	fp,0(sp)
  806978:	dec00204 	addi	sp,sp,8
  80697c:	f800283a 	ret

00806980 <isatty>:
  806980:	deffeb04 	addi	sp,sp,-84
  806984:	dfc01415 	stw	ra,80(sp)
  806988:	df001315 	stw	fp,76(sp)
  80698c:	df001304 	addi	fp,sp,76
  806990:	e13ffd15 	stw	r4,-12(fp)
  806994:	e0bffd17 	ldw	r2,-12(fp)
  806998:	1004803a 	cmplt	r2,r2,zero
  80699c:	1000091e 	bne	r2,zero,8069c4 <isatty+0x44>
  8069a0:	e13ffd17 	ldw	r4,-12(fp)
  8069a4:	01400304 	movi	r5,12
  8069a8:	0802c140 	call	802c14 <__mulsi3>
  8069ac:	1007883a 	mov	r3,r2
  8069b0:	00802074 	movhi	r2,129
  8069b4:	10850e04 	addi	r2,r2,5176
  8069b8:	1887883a 	add	r3,r3,r2
  8069bc:	e0ffff15 	stw	r3,-4(fp)
  8069c0:	00000106 	br	8069c8 <isatty+0x48>
  8069c4:	e03fff15 	stw	zero,-4(fp)
  8069c8:	e0bfff17 	ldw	r2,-4(fp)
  8069cc:	e0bfed15 	stw	r2,-76(fp)
  8069d0:	e0bfed17 	ldw	r2,-76(fp)
  8069d4:	1005003a 	cmpeq	r2,r2,zero
  8069d8:	10000f1e 	bne	r2,zero,806a18 <isatty+0x98>
  8069dc:	e0bfed17 	ldw	r2,-76(fp)
  8069e0:	10800017 	ldw	r2,0(r2)
  8069e4:	10800817 	ldw	r2,32(r2)
  8069e8:	1004c03a 	cmpne	r2,r2,zero
  8069ec:	1000031e 	bne	r2,zero,8069fc <isatty+0x7c>
  8069f0:	00800044 	movi	r2,1
  8069f4:	e0bffe15 	stw	r2,-8(fp)
  8069f8:	00000c06 	br	806a2c <isatty+0xac>
  8069fc:	e17fee04 	addi	r5,fp,-72
  806a00:	e13ffd17 	ldw	r4,-12(fp)
  806a04:	08066f80 	call	8066f8 <fstat>
  806a08:	e0bfef17 	ldw	r2,-68(fp)
  806a0c:	10880020 	cmpeqi	r2,r2,8192
  806a10:	e0bffe15 	stw	r2,-8(fp)
  806a14:	00000506 	br	806a2c <isatty+0xac>
  806a18:	0806a440 	call	806a44 <alt_get_errno>
  806a1c:	1007883a 	mov	r3,r2
  806a20:	00801444 	movi	r2,81
  806a24:	18800015 	stw	r2,0(r3)
  806a28:	e03ffe15 	stw	zero,-8(fp)
  806a2c:	e0bffe17 	ldw	r2,-8(fp)
  806a30:	e037883a 	mov	sp,fp
  806a34:	dfc00117 	ldw	ra,4(sp)
  806a38:	df000017 	ldw	fp,0(sp)
  806a3c:	dec00204 	addi	sp,sp,8
  806a40:	f800283a 	ret

00806a44 <alt_get_errno>:
  806a44:	defffd04 	addi	sp,sp,-12
  806a48:	dfc00215 	stw	ra,8(sp)
  806a4c:	df000115 	stw	fp,4(sp)
  806a50:	df000104 	addi	fp,sp,4
  806a54:	00802074 	movhi	r2,129
  806a58:	10899504 	addi	r2,r2,9812
  806a5c:	10800017 	ldw	r2,0(r2)
  806a60:	1005003a 	cmpeq	r2,r2,zero
  806a64:	1000061e 	bne	r2,zero,806a80 <alt_get_errno+0x3c>
  806a68:	00802074 	movhi	r2,129
  806a6c:	10899504 	addi	r2,r2,9812
  806a70:	10800017 	ldw	r2,0(r2)
  806a74:	103ee83a 	callr	r2
  806a78:	e0bfff15 	stw	r2,-4(fp)
  806a7c:	00000306 	br	806a8c <alt_get_errno+0x48>
  806a80:	00802074 	movhi	r2,129
  806a84:	10903904 	addi	r2,r2,16612
  806a88:	e0bfff15 	stw	r2,-4(fp)
  806a8c:	e0bfff17 	ldw	r2,-4(fp)
  806a90:	e037883a 	mov	sp,fp
  806a94:	dfc00117 	ldw	ra,4(sp)
  806a98:	df000017 	ldw	fp,0(sp)
  806a9c:	dec00204 	addi	sp,sp,8
  806aa0:	f800283a 	ret

00806aa4 <alt_load>:
  806aa4:	defffe04 	addi	sp,sp,-8
  806aa8:	dfc00115 	stw	ra,4(sp)
  806aac:	df000015 	stw	fp,0(sp)
  806ab0:	d839883a 	mov	fp,sp
  806ab4:	01002074 	movhi	r4,129
  806ab8:	21099c04 	addi	r4,r4,9840
  806abc:	01402074 	movhi	r5,129
  806ac0:	29430204 	addi	r5,r5,3080
  806ac4:	01802074 	movhi	r6,129
  806ac8:	31899c04 	addi	r6,r6,9840
  806acc:	0806b240 	call	806b24 <alt_load_section>
  806ad0:	01002034 	movhi	r4,128
  806ad4:	21000804 	addi	r4,r4,32
  806ad8:	01402034 	movhi	r5,128
  806adc:	29400804 	addi	r5,r5,32
  806ae0:	01802034 	movhi	r6,128
  806ae4:	31809d04 	addi	r6,r6,628
  806ae8:	0806b240 	call	806b24 <alt_load_section>
  806aec:	01002074 	movhi	r4,129
  806af0:	21022604 	addi	r4,r4,2200
  806af4:	01402074 	movhi	r5,129
  806af8:	29422604 	addi	r5,r5,2200
  806afc:	01802074 	movhi	r6,129
  806b00:	31830204 	addi	r6,r6,3080
  806b04:	0806b240 	call	806b24 <alt_load_section>
  806b08:	080881c0 	call	80881c <alt_dcache_flush_all>
  806b0c:	0808c140 	call	808c14 <alt_icache_flush_all>
  806b10:	e037883a 	mov	sp,fp
  806b14:	dfc00117 	ldw	ra,4(sp)
  806b18:	df000017 	ldw	fp,0(sp)
  806b1c:	dec00204 	addi	sp,sp,8
  806b20:	f800283a 	ret

00806b24 <alt_load_section>:
  806b24:	defffc04 	addi	sp,sp,-16
  806b28:	df000315 	stw	fp,12(sp)
  806b2c:	df000304 	addi	fp,sp,12
  806b30:	e13ffd15 	stw	r4,-12(fp)
  806b34:	e17ffe15 	stw	r5,-8(fp)
  806b38:	e1bfff15 	stw	r6,-4(fp)
  806b3c:	e0fffe17 	ldw	r3,-8(fp)
  806b40:	e0bffd17 	ldw	r2,-12(fp)
  806b44:	18800e26 	beq	r3,r2,806b80 <alt_load_section+0x5c>
  806b48:	00000a06 	br	806b74 <alt_load_section+0x50>
  806b4c:	e0bffd17 	ldw	r2,-12(fp)
  806b50:	10c00017 	ldw	r3,0(r2)
  806b54:	e0bffe17 	ldw	r2,-8(fp)
  806b58:	10c00015 	stw	r3,0(r2)
  806b5c:	e0bffe17 	ldw	r2,-8(fp)
  806b60:	10800104 	addi	r2,r2,4
  806b64:	e0bffe15 	stw	r2,-8(fp)
  806b68:	e0bffd17 	ldw	r2,-12(fp)
  806b6c:	10800104 	addi	r2,r2,4
  806b70:	e0bffd15 	stw	r2,-12(fp)
  806b74:	e0fffe17 	ldw	r3,-8(fp)
  806b78:	e0bfff17 	ldw	r2,-4(fp)
  806b7c:	18bff31e 	bne	r3,r2,806b4c <alt_load_section+0x28>
  806b80:	e037883a 	mov	sp,fp
  806b84:	df000017 	ldw	fp,0(sp)
  806b88:	dec00104 	addi	sp,sp,4
  806b8c:	f800283a 	ret

00806b90 <lseek>:
  806b90:	defff804 	addi	sp,sp,-32
  806b94:	dfc00715 	stw	ra,28(sp)
  806b98:	df000615 	stw	fp,24(sp)
  806b9c:	df000604 	addi	fp,sp,24
  806ba0:	e13ffc15 	stw	r4,-16(fp)
  806ba4:	e17ffd15 	stw	r5,-12(fp)
  806ba8:	e1bffe15 	stw	r6,-8(fp)
  806bac:	e03ffa15 	stw	zero,-24(fp)
  806bb0:	e0bffc17 	ldw	r2,-16(fp)
  806bb4:	1004803a 	cmplt	r2,r2,zero
  806bb8:	1000091e 	bne	r2,zero,806be0 <lseek+0x50>
  806bbc:	e13ffc17 	ldw	r4,-16(fp)
  806bc0:	01400304 	movi	r5,12
  806bc4:	0802c140 	call	802c14 <__mulsi3>
  806bc8:	1007883a 	mov	r3,r2
  806bcc:	00802074 	movhi	r2,129
  806bd0:	10850e04 	addi	r2,r2,5176
  806bd4:	1887883a 	add	r3,r3,r2
  806bd8:	e0ffff15 	stw	r3,-4(fp)
  806bdc:	00000106 	br	806be4 <lseek+0x54>
  806be0:	e03fff15 	stw	zero,-4(fp)
  806be4:	e0bfff17 	ldw	r2,-4(fp)
  806be8:	e0bffb15 	stw	r2,-20(fp)
  806bec:	e0bffb17 	ldw	r2,-20(fp)
  806bf0:	1005003a 	cmpeq	r2,r2,zero
  806bf4:	1000111e 	bne	r2,zero,806c3c <lseek+0xac>
  806bf8:	e0bffb17 	ldw	r2,-20(fp)
  806bfc:	10800017 	ldw	r2,0(r2)
  806c00:	10800717 	ldw	r2,28(r2)
  806c04:	1005003a 	cmpeq	r2,r2,zero
  806c08:	1000091e 	bne	r2,zero,806c30 <lseek+0xa0>
  806c0c:	e0bffb17 	ldw	r2,-20(fp)
  806c10:	10800017 	ldw	r2,0(r2)
  806c14:	10800717 	ldw	r2,28(r2)
  806c18:	e13ffb17 	ldw	r4,-20(fp)
  806c1c:	e17ffd17 	ldw	r5,-12(fp)
  806c20:	e1bffe17 	ldw	r6,-8(fp)
  806c24:	103ee83a 	callr	r2
  806c28:	e0bffa15 	stw	r2,-24(fp)
  806c2c:	00000506 	br	806c44 <lseek+0xb4>
  806c30:	00bfde84 	movi	r2,-134
  806c34:	e0bffa15 	stw	r2,-24(fp)
  806c38:	00000206 	br	806c44 <lseek+0xb4>
  806c3c:	00bfebc4 	movi	r2,-81
  806c40:	e0bffa15 	stw	r2,-24(fp)
  806c44:	e0bffa17 	ldw	r2,-24(fp)
  806c48:	1004403a 	cmpge	r2,r2,zero
  806c4c:	1000071e 	bne	r2,zero,806c6c <lseek+0xdc>
  806c50:	0806c840 	call	806c84 <alt_get_errno>
  806c54:	1007883a 	mov	r3,r2
  806c58:	e0bffa17 	ldw	r2,-24(fp)
  806c5c:	0085c83a 	sub	r2,zero,r2
  806c60:	18800015 	stw	r2,0(r3)
  806c64:	00bfffc4 	movi	r2,-1
  806c68:	e0bffa15 	stw	r2,-24(fp)
  806c6c:	e0bffa17 	ldw	r2,-24(fp)
  806c70:	e037883a 	mov	sp,fp
  806c74:	dfc00117 	ldw	ra,4(sp)
  806c78:	df000017 	ldw	fp,0(sp)
  806c7c:	dec00204 	addi	sp,sp,8
  806c80:	f800283a 	ret

00806c84 <alt_get_errno>:
  806c84:	defffd04 	addi	sp,sp,-12
  806c88:	dfc00215 	stw	ra,8(sp)
  806c8c:	df000115 	stw	fp,4(sp)
  806c90:	df000104 	addi	fp,sp,4
  806c94:	00802074 	movhi	r2,129
  806c98:	10899504 	addi	r2,r2,9812
  806c9c:	10800017 	ldw	r2,0(r2)
  806ca0:	1005003a 	cmpeq	r2,r2,zero
  806ca4:	1000061e 	bne	r2,zero,806cc0 <alt_get_errno+0x3c>
  806ca8:	00802074 	movhi	r2,129
  806cac:	10899504 	addi	r2,r2,9812
  806cb0:	10800017 	ldw	r2,0(r2)
  806cb4:	103ee83a 	callr	r2
  806cb8:	e0bfff15 	stw	r2,-4(fp)
  806cbc:	00000306 	br	806ccc <alt_get_errno+0x48>
  806cc0:	00802074 	movhi	r2,129
  806cc4:	10903904 	addi	r2,r2,16612
  806cc8:	e0bfff15 	stw	r2,-4(fp)
  806ccc:	e0bfff17 	ldw	r2,-4(fp)
  806cd0:	e037883a 	mov	sp,fp
  806cd4:	dfc00117 	ldw	ra,4(sp)
  806cd8:	df000017 	ldw	fp,0(sp)
  806cdc:	dec00204 	addi	sp,sp,8
  806ce0:	f800283a 	ret

00806ce4 <alt_file_locked>:
  806ce4:	defffa04 	addi	sp,sp,-24
  806ce8:	dfc00515 	stw	ra,20(sp)
  806cec:	df000415 	stw	fp,16(sp)
  806cf0:	dc000315 	stw	r16,12(sp)
  806cf4:	df000304 	addi	fp,sp,12
  806cf8:	e13ffe15 	stw	r4,-8(fp)
  806cfc:	e0bffe17 	ldw	r2,-8(fp)
  806d00:	10800217 	ldw	r2,8(r2)
  806d04:	10d00034 	orhi	r3,r2,16384
  806d08:	e0bffe17 	ldw	r2,-8(fp)
  806d0c:	10c00215 	stw	r3,8(r2)
  806d10:	e03ffd15 	stw	zero,-12(fp)
  806d14:	00002306 	br	806da4 <alt_file_locked+0xc0>
  806d18:	e13ffd17 	ldw	r4,-12(fp)
  806d1c:	04002074 	movhi	r16,129
  806d20:	84050e04 	addi	r16,r16,5176
  806d24:	01400304 	movi	r5,12
  806d28:	0802c140 	call	802c14 <__mulsi3>
  806d2c:	1405883a 	add	r2,r2,r16
  806d30:	10c00017 	ldw	r3,0(r2)
  806d34:	e0bffe17 	ldw	r2,-8(fp)
  806d38:	10800017 	ldw	r2,0(r2)
  806d3c:	1880161e 	bne	r3,r2,806d98 <alt_file_locked+0xb4>
  806d40:	e13ffd17 	ldw	r4,-12(fp)
  806d44:	04002074 	movhi	r16,129
  806d48:	84050e04 	addi	r16,r16,5176
  806d4c:	01400304 	movi	r5,12
  806d50:	0802c140 	call	802c14 <__mulsi3>
  806d54:	1405883a 	add	r2,r2,r16
  806d58:	10800204 	addi	r2,r2,8
  806d5c:	10800017 	ldw	r2,0(r2)
  806d60:	1004403a 	cmpge	r2,r2,zero
  806d64:	10000c1e 	bne	r2,zero,806d98 <alt_file_locked+0xb4>
  806d68:	e13ffd17 	ldw	r4,-12(fp)
  806d6c:	01400304 	movi	r5,12
  806d70:	0802c140 	call	802c14 <__mulsi3>
  806d74:	1007883a 	mov	r3,r2
  806d78:	00802074 	movhi	r2,129
  806d7c:	10850e04 	addi	r2,r2,5176
  806d80:	1887883a 	add	r3,r3,r2
  806d84:	e0bffe17 	ldw	r2,-8(fp)
  806d88:	18800326 	beq	r3,r2,806d98 <alt_file_locked+0xb4>
  806d8c:	00bffcc4 	movi	r2,-13
  806d90:	e0bfff15 	stw	r2,-4(fp)
  806d94:	00000a06 	br	806dc0 <alt_file_locked+0xdc>
  806d98:	e0bffd17 	ldw	r2,-12(fp)
  806d9c:	10800044 	addi	r2,r2,1
  806da0:	e0bffd15 	stw	r2,-12(fp)
  806da4:	00802074 	movhi	r2,129
  806da8:	10899404 	addi	r2,r2,9808
  806dac:	10800017 	ldw	r2,0(r2)
  806db0:	1007883a 	mov	r3,r2
  806db4:	e0bffd17 	ldw	r2,-12(fp)
  806db8:	18bfd72e 	bgeu	r3,r2,806d18 <alt_file_locked+0x34>
  806dbc:	e03fff15 	stw	zero,-4(fp)
  806dc0:	e0bfff17 	ldw	r2,-4(fp)
  806dc4:	e037883a 	mov	sp,fp
  806dc8:	dfc00217 	ldw	ra,8(sp)
  806dcc:	df000117 	ldw	fp,4(sp)
  806dd0:	dc000017 	ldw	r16,0(sp)
  806dd4:	dec00304 	addi	sp,sp,12
  806dd8:	f800283a 	ret

00806ddc <open>:
  806ddc:	defff404 	addi	sp,sp,-48
  806de0:	dfc00b15 	stw	ra,44(sp)
  806de4:	df000a15 	stw	fp,40(sp)
  806de8:	df000a04 	addi	fp,sp,40
  806dec:	e13ffb15 	stw	r4,-20(fp)
  806df0:	e17ffc15 	stw	r5,-16(fp)
  806df4:	e1bffd15 	stw	r6,-12(fp)
  806df8:	00bfffc4 	movi	r2,-1
  806dfc:	e0bff815 	stw	r2,-32(fp)
  806e00:	00bffb44 	movi	r2,-19
  806e04:	e0bff715 	stw	r2,-36(fp)
  806e08:	e03ff615 	stw	zero,-40(fp)
  806e0c:	e13ffb17 	ldw	r4,-20(fp)
  806e10:	01402074 	movhi	r5,129
  806e14:	29499204 	addi	r5,r5,9800
  806e18:	080894c0 	call	80894c <alt_find_dev>
  806e1c:	e0bffa15 	stw	r2,-24(fp)
  806e20:	e0bffa17 	ldw	r2,-24(fp)
  806e24:	1004c03a 	cmpne	r2,r2,zero
  806e28:	1000051e 	bne	r2,zero,806e40 <open+0x64>
  806e2c:	e13ffb17 	ldw	r4,-20(fp)
  806e30:	08089e00 	call	8089e0 <alt_find_file>
  806e34:	e0bffa15 	stw	r2,-24(fp)
  806e38:	00800044 	movi	r2,1
  806e3c:	e0bff615 	stw	r2,-40(fp)
  806e40:	e0bffa17 	ldw	r2,-24(fp)
  806e44:	1005003a 	cmpeq	r2,r2,zero
  806e48:	1000311e 	bne	r2,zero,806f10 <open+0x134>
  806e4c:	e13ffa17 	ldw	r4,-24(fp)
  806e50:	0808b000 	call	808b00 <alt_get_fd>
  806e54:	e0bff815 	stw	r2,-32(fp)
  806e58:	e0bff817 	ldw	r2,-32(fp)
  806e5c:	1004403a 	cmpge	r2,r2,zero
  806e60:	1000031e 	bne	r2,zero,806e70 <open+0x94>
  806e64:	e0bff817 	ldw	r2,-32(fp)
  806e68:	e0bff715 	stw	r2,-36(fp)
  806e6c:	00002a06 	br	806f18 <open+0x13c>
  806e70:	e13ff817 	ldw	r4,-32(fp)
  806e74:	01400304 	movi	r5,12
  806e78:	0802c140 	call	802c14 <__mulsi3>
  806e7c:	1007883a 	mov	r3,r2
  806e80:	00802074 	movhi	r2,129
  806e84:	10850e04 	addi	r2,r2,5176
  806e88:	1885883a 	add	r2,r3,r2
  806e8c:	e0bff915 	stw	r2,-28(fp)
  806e90:	e0fffc17 	ldw	r3,-16(fp)
  806e94:	00900034 	movhi	r2,16384
  806e98:	10bfffc4 	addi	r2,r2,-1
  806e9c:	1886703a 	and	r3,r3,r2
  806ea0:	e0bff917 	ldw	r2,-28(fp)
  806ea4:	10c00215 	stw	r3,8(r2)
  806ea8:	e0bff617 	ldw	r2,-40(fp)
  806eac:	1004c03a 	cmpne	r2,r2,zero
  806eb0:	1000061e 	bne	r2,zero,806ecc <open+0xf0>
  806eb4:	e13ff917 	ldw	r4,-28(fp)
  806eb8:	0806ce40 	call	806ce4 <alt_file_locked>
  806ebc:	e0bff715 	stw	r2,-36(fp)
  806ec0:	e0bff717 	ldw	r2,-36(fp)
  806ec4:	1004803a 	cmplt	r2,r2,zero
  806ec8:	1000131e 	bne	r2,zero,806f18 <open+0x13c>
  806ecc:	e0bffa17 	ldw	r2,-24(fp)
  806ed0:	10800317 	ldw	r2,12(r2)
  806ed4:	1005003a 	cmpeq	r2,r2,zero
  806ed8:	1000091e 	bne	r2,zero,806f00 <open+0x124>
  806edc:	e0bffa17 	ldw	r2,-24(fp)
  806ee0:	10800317 	ldw	r2,12(r2)
  806ee4:	e13ff917 	ldw	r4,-28(fp)
  806ee8:	e17ffb17 	ldw	r5,-20(fp)
  806eec:	e1bffc17 	ldw	r6,-16(fp)
  806ef0:	e1fffd17 	ldw	r7,-12(fp)
  806ef4:	103ee83a 	callr	r2
  806ef8:	e0bfff15 	stw	r2,-4(fp)
  806efc:	00000106 	br	806f04 <open+0x128>
  806f00:	e03fff15 	stw	zero,-4(fp)
  806f04:	e0bfff17 	ldw	r2,-4(fp)
  806f08:	e0bff715 	stw	r2,-36(fp)
  806f0c:	00000206 	br	806f18 <open+0x13c>
  806f10:	00bffb44 	movi	r2,-19
  806f14:	e0bff715 	stw	r2,-36(fp)
  806f18:	e0bff717 	ldw	r2,-36(fp)
  806f1c:	1004403a 	cmpge	r2,r2,zero
  806f20:	1000091e 	bne	r2,zero,806f48 <open+0x16c>
  806f24:	e13ff817 	ldw	r4,-32(fp)
  806f28:	080714c0 	call	80714c <alt_release_fd>
  806f2c:	0806f680 	call	806f68 <alt_get_errno>
  806f30:	e0fff717 	ldw	r3,-36(fp)
  806f34:	00c7c83a 	sub	r3,zero,r3
  806f38:	10c00015 	stw	r3,0(r2)
  806f3c:	00bfffc4 	movi	r2,-1
  806f40:	e0bffe15 	stw	r2,-8(fp)
  806f44:	00000206 	br	806f50 <open+0x174>
  806f48:	e0bff817 	ldw	r2,-32(fp)
  806f4c:	e0bffe15 	stw	r2,-8(fp)
  806f50:	e0bffe17 	ldw	r2,-8(fp)
  806f54:	e037883a 	mov	sp,fp
  806f58:	dfc00117 	ldw	ra,4(sp)
  806f5c:	df000017 	ldw	fp,0(sp)
  806f60:	dec00204 	addi	sp,sp,8
  806f64:	f800283a 	ret

00806f68 <alt_get_errno>:
  806f68:	defffd04 	addi	sp,sp,-12
  806f6c:	dfc00215 	stw	ra,8(sp)
  806f70:	df000115 	stw	fp,4(sp)
  806f74:	df000104 	addi	fp,sp,4
  806f78:	00802074 	movhi	r2,129
  806f7c:	10899504 	addi	r2,r2,9812
  806f80:	10800017 	ldw	r2,0(r2)
  806f84:	1005003a 	cmpeq	r2,r2,zero
  806f88:	1000061e 	bne	r2,zero,806fa4 <alt_get_errno+0x3c>
  806f8c:	00802074 	movhi	r2,129
  806f90:	10899504 	addi	r2,r2,9812
  806f94:	10800017 	ldw	r2,0(r2)
  806f98:	103ee83a 	callr	r2
  806f9c:	e0bfff15 	stw	r2,-4(fp)
  806fa0:	00000306 	br	806fb0 <alt_get_errno+0x48>
  806fa4:	00802074 	movhi	r2,129
  806fa8:	10903904 	addi	r2,r2,16612
  806fac:	e0bfff15 	stw	r2,-4(fp)
  806fb0:	e0bfff17 	ldw	r2,-4(fp)
  806fb4:	e037883a 	mov	sp,fp
  806fb8:	dfc00117 	ldw	ra,4(sp)
  806fbc:	df000017 	ldw	fp,0(sp)
  806fc0:	dec00204 	addi	sp,sp,8
  806fc4:	f800283a 	ret

00806fc8 <read>:
  806fc8:	defff704 	addi	sp,sp,-36
  806fcc:	dfc00815 	stw	ra,32(sp)
  806fd0:	df000715 	stw	fp,28(sp)
  806fd4:	df000704 	addi	fp,sp,28
  806fd8:	e13ffb15 	stw	r4,-20(fp)
  806fdc:	e17ffc15 	stw	r5,-16(fp)
  806fe0:	e1bffd15 	stw	r6,-12(fp)
  806fe4:	e0bffb17 	ldw	r2,-20(fp)
  806fe8:	1004803a 	cmplt	r2,r2,zero
  806fec:	1000091e 	bne	r2,zero,807014 <read+0x4c>
  806ff0:	e13ffb17 	ldw	r4,-20(fp)
  806ff4:	01400304 	movi	r5,12
  806ff8:	0802c140 	call	802c14 <__mulsi3>
  806ffc:	1007883a 	mov	r3,r2
  807000:	00802074 	movhi	r2,129
  807004:	10850e04 	addi	r2,r2,5176
  807008:	1887883a 	add	r3,r3,r2
  80700c:	e0ffff15 	stw	r3,-4(fp)
  807010:	00000106 	br	807018 <read+0x50>
  807014:	e03fff15 	stw	zero,-4(fp)
  807018:	e0bfff17 	ldw	r2,-4(fp)
  80701c:	e0bffa15 	stw	r2,-24(fp)
  807020:	e0bffa17 	ldw	r2,-24(fp)
  807024:	1005003a 	cmpeq	r2,r2,zero
  807028:	1000241e 	bne	r2,zero,8070bc <read+0xf4>
  80702c:	e0bffa17 	ldw	r2,-24(fp)
  807030:	10800217 	ldw	r2,8(r2)
  807034:	108000cc 	andi	r2,r2,3
  807038:	10800060 	cmpeqi	r2,r2,1
  80703c:	10001a1e 	bne	r2,zero,8070a8 <read+0xe0>
  807040:	e0bffa17 	ldw	r2,-24(fp)
  807044:	10800017 	ldw	r2,0(r2)
  807048:	10800517 	ldw	r2,20(r2)
  80704c:	1005003a 	cmpeq	r2,r2,zero
  807050:	1000151e 	bne	r2,zero,8070a8 <read+0xe0>
  807054:	e0bffa17 	ldw	r2,-24(fp)
  807058:	10800017 	ldw	r2,0(r2)
  80705c:	10800517 	ldw	r2,20(r2)
  807060:	e17ffc17 	ldw	r5,-16(fp)
  807064:	e1bffd17 	ldw	r6,-12(fp)
  807068:	e13ffa17 	ldw	r4,-24(fp)
  80706c:	103ee83a 	callr	r2
  807070:	e0bff915 	stw	r2,-28(fp)
  807074:	e0bff917 	ldw	r2,-28(fp)
  807078:	1004403a 	cmpge	r2,r2,zero
  80707c:	1000071e 	bne	r2,zero,80709c <read+0xd4>
  807080:	08070ec0 	call	8070ec <alt_get_errno>
  807084:	e0fff917 	ldw	r3,-28(fp)
  807088:	00c7c83a 	sub	r3,zero,r3
  80708c:	10c00015 	stw	r3,0(r2)
  807090:	00bfffc4 	movi	r2,-1
  807094:	e0bffe15 	stw	r2,-8(fp)
  807098:	00000e06 	br	8070d4 <read+0x10c>
  80709c:	e0bff917 	ldw	r2,-28(fp)
  8070a0:	e0bffe15 	stw	r2,-8(fp)
  8070a4:	00000b06 	br	8070d4 <read+0x10c>
  8070a8:	08070ec0 	call	8070ec <alt_get_errno>
  8070ac:	1007883a 	mov	r3,r2
  8070b0:	00800344 	movi	r2,13
  8070b4:	18800015 	stw	r2,0(r3)
  8070b8:	00000406 	br	8070cc <read+0x104>
  8070bc:	08070ec0 	call	8070ec <alt_get_errno>
  8070c0:	1007883a 	mov	r3,r2
  8070c4:	00801444 	movi	r2,81
  8070c8:	18800015 	stw	r2,0(r3)
  8070cc:	00bfffc4 	movi	r2,-1
  8070d0:	e0bffe15 	stw	r2,-8(fp)
  8070d4:	e0bffe17 	ldw	r2,-8(fp)
  8070d8:	e037883a 	mov	sp,fp
  8070dc:	dfc00117 	ldw	ra,4(sp)
  8070e0:	df000017 	ldw	fp,0(sp)
  8070e4:	dec00204 	addi	sp,sp,8
  8070e8:	f800283a 	ret

008070ec <alt_get_errno>:
  8070ec:	defffd04 	addi	sp,sp,-12
  8070f0:	dfc00215 	stw	ra,8(sp)
  8070f4:	df000115 	stw	fp,4(sp)
  8070f8:	df000104 	addi	fp,sp,4
  8070fc:	00802074 	movhi	r2,129
  807100:	10899504 	addi	r2,r2,9812
  807104:	10800017 	ldw	r2,0(r2)
  807108:	1005003a 	cmpeq	r2,r2,zero
  80710c:	1000061e 	bne	r2,zero,807128 <alt_get_errno+0x3c>
  807110:	00802074 	movhi	r2,129
  807114:	10899504 	addi	r2,r2,9812
  807118:	10800017 	ldw	r2,0(r2)
  80711c:	103ee83a 	callr	r2
  807120:	e0bfff15 	stw	r2,-4(fp)
  807124:	00000306 	br	807134 <alt_get_errno+0x48>
  807128:	00802074 	movhi	r2,129
  80712c:	10903904 	addi	r2,r2,16612
  807130:	e0bfff15 	stw	r2,-4(fp)
  807134:	e0bfff17 	ldw	r2,-4(fp)
  807138:	e037883a 	mov	sp,fp
  80713c:	dfc00117 	ldw	ra,4(sp)
  807140:	df000017 	ldw	fp,0(sp)
  807144:	dec00204 	addi	sp,sp,8
  807148:	f800283a 	ret

0080714c <alt_release_fd>:
  80714c:	defffc04 	addi	sp,sp,-16
  807150:	dfc00315 	stw	ra,12(sp)
  807154:	df000215 	stw	fp,8(sp)
  807158:	dc000115 	stw	r16,4(sp)
  80715c:	df000104 	addi	fp,sp,4
  807160:	e13fff15 	stw	r4,-4(fp)
  807164:	e0bfff17 	ldw	r2,-4(fp)
  807168:	108000d0 	cmplti	r2,r2,3
  80716c:	10000f1e 	bne	r2,zero,8071ac <alt_release_fd+0x60>
  807170:	e13fff17 	ldw	r4,-4(fp)
  807174:	04002074 	movhi	r16,129
  807178:	84050e04 	addi	r16,r16,5176
  80717c:	01400304 	movi	r5,12
  807180:	0802c140 	call	802c14 <__mulsi3>
  807184:	1405883a 	add	r2,r2,r16
  807188:	10800204 	addi	r2,r2,8
  80718c:	10000015 	stw	zero,0(r2)
  807190:	e13fff17 	ldw	r4,-4(fp)
  807194:	04002074 	movhi	r16,129
  807198:	84050e04 	addi	r16,r16,5176
  80719c:	01400304 	movi	r5,12
  8071a0:	0802c140 	call	802c14 <__mulsi3>
  8071a4:	1405883a 	add	r2,r2,r16
  8071a8:	10000015 	stw	zero,0(r2)
  8071ac:	e037883a 	mov	sp,fp
  8071b0:	dfc00217 	ldw	ra,8(sp)
  8071b4:	df000117 	ldw	fp,4(sp)
  8071b8:	dc000017 	ldw	r16,0(sp)
  8071bc:	dec00304 	addi	sp,sp,12
  8071c0:	f800283a 	ret

008071c4 <sbrk>:
  8071c4:	defff804 	addi	sp,sp,-32
  8071c8:	df000715 	stw	fp,28(sp)
  8071cc:	df000704 	addi	fp,sp,28
  8071d0:	e13ffe15 	stw	r4,-8(fp)
  8071d4:	0005303a 	rdctl	r2,status
  8071d8:	e0bffb15 	stw	r2,-20(fp)
  8071dc:	e0fffb17 	ldw	r3,-20(fp)
  8071e0:	00bfff84 	movi	r2,-2
  8071e4:	1884703a 	and	r2,r3,r2
  8071e8:	1001703a 	wrctl	status,r2
  8071ec:	e0bffb17 	ldw	r2,-20(fp)
  8071f0:	e0bffd15 	stw	r2,-12(fp)
  8071f4:	d0a00b17 	ldw	r2,-32724(gp)
  8071f8:	10c000c4 	addi	r3,r2,3
  8071fc:	00bfff04 	movi	r2,-4
  807200:	1884703a 	and	r2,r3,r2
  807204:	d0a00b15 	stw	r2,-32724(gp)
  807208:	d0e00b17 	ldw	r3,-32724(gp)
  80720c:	e0bffe17 	ldw	r2,-8(fp)
  807210:	1887883a 	add	r3,r3,r2
  807214:	00804034 	movhi	r2,256
  807218:	10800004 	addi	r2,r2,0
  80721c:	10c0072e 	bgeu	r2,r3,80723c <sbrk+0x78>
  807220:	e0bffd17 	ldw	r2,-12(fp)
  807224:	e0bffa15 	stw	r2,-24(fp)
  807228:	e0bffa17 	ldw	r2,-24(fp)
  80722c:	1001703a 	wrctl	status,r2
  807230:	00bfffc4 	movi	r2,-1
  807234:	e0bfff15 	stw	r2,-4(fp)
  807238:	00000c06 	br	80726c <sbrk+0xa8>
  80723c:	d0a00b17 	ldw	r2,-32724(gp)
  807240:	e0bffc15 	stw	r2,-16(fp)
  807244:	d0e00b17 	ldw	r3,-32724(gp)
  807248:	e0bffe17 	ldw	r2,-8(fp)
  80724c:	1885883a 	add	r2,r3,r2
  807250:	d0a00b15 	stw	r2,-32724(gp)
  807254:	e0bffd17 	ldw	r2,-12(fp)
  807258:	e0bff915 	stw	r2,-28(fp)
  80725c:	e0bff917 	ldw	r2,-28(fp)
  807260:	1001703a 	wrctl	status,r2
  807264:	e0bffc17 	ldw	r2,-16(fp)
  807268:	e0bfff15 	stw	r2,-4(fp)
  80726c:	e0bfff17 	ldw	r2,-4(fp)
  807270:	e037883a 	mov	sp,fp
  807274:	df000017 	ldw	fp,0(sp)
  807278:	dec00104 	addi	sp,sp,4
  80727c:	f800283a 	ret

00807280 <write>:
  807280:	defff704 	addi	sp,sp,-36
  807284:	dfc00815 	stw	ra,32(sp)
  807288:	df000715 	stw	fp,28(sp)
  80728c:	df000704 	addi	fp,sp,28
  807290:	e13ffb15 	stw	r4,-20(fp)
  807294:	e17ffc15 	stw	r5,-16(fp)
  807298:	e1bffd15 	stw	r6,-12(fp)
  80729c:	e0bffb17 	ldw	r2,-20(fp)
  8072a0:	1004803a 	cmplt	r2,r2,zero
  8072a4:	1000091e 	bne	r2,zero,8072cc <write+0x4c>
  8072a8:	e13ffb17 	ldw	r4,-20(fp)
  8072ac:	01400304 	movi	r5,12
  8072b0:	0802c140 	call	802c14 <__mulsi3>
  8072b4:	1007883a 	mov	r3,r2
  8072b8:	00802074 	movhi	r2,129
  8072bc:	10850e04 	addi	r2,r2,5176
  8072c0:	1887883a 	add	r3,r3,r2
  8072c4:	e0ffff15 	stw	r3,-4(fp)
  8072c8:	00000106 	br	8072d0 <write+0x50>
  8072cc:	e03fff15 	stw	zero,-4(fp)
  8072d0:	e0bfff17 	ldw	r2,-4(fp)
  8072d4:	e0bffa15 	stw	r2,-24(fp)
  8072d8:	e0bffa17 	ldw	r2,-24(fp)
  8072dc:	1005003a 	cmpeq	r2,r2,zero
  8072e0:	1000241e 	bne	r2,zero,807374 <write+0xf4>
  8072e4:	e0bffa17 	ldw	r2,-24(fp)
  8072e8:	10800217 	ldw	r2,8(r2)
  8072ec:	108000cc 	andi	r2,r2,3
  8072f0:	1005003a 	cmpeq	r2,r2,zero
  8072f4:	10001a1e 	bne	r2,zero,807360 <write+0xe0>
  8072f8:	e0bffa17 	ldw	r2,-24(fp)
  8072fc:	10800017 	ldw	r2,0(r2)
  807300:	10800617 	ldw	r2,24(r2)
  807304:	1005003a 	cmpeq	r2,r2,zero
  807308:	1000151e 	bne	r2,zero,807360 <write+0xe0>
  80730c:	e0bffa17 	ldw	r2,-24(fp)
  807310:	10800017 	ldw	r2,0(r2)
  807314:	10800617 	ldw	r2,24(r2)
  807318:	e17ffc17 	ldw	r5,-16(fp)
  80731c:	e1bffd17 	ldw	r6,-12(fp)
  807320:	e13ffa17 	ldw	r4,-24(fp)
  807324:	103ee83a 	callr	r2
  807328:	e0bff915 	stw	r2,-28(fp)
  80732c:	e0bff917 	ldw	r2,-28(fp)
  807330:	1004403a 	cmpge	r2,r2,zero
  807334:	1000071e 	bne	r2,zero,807354 <write+0xd4>
  807338:	08073a40 	call	8073a4 <alt_get_errno>
  80733c:	e0fff917 	ldw	r3,-28(fp)
  807340:	00c7c83a 	sub	r3,zero,r3
  807344:	10c00015 	stw	r3,0(r2)
  807348:	00bfffc4 	movi	r2,-1
  80734c:	e0bffe15 	stw	r2,-8(fp)
  807350:	00000e06 	br	80738c <write+0x10c>
  807354:	e0bff917 	ldw	r2,-28(fp)
  807358:	e0bffe15 	stw	r2,-8(fp)
  80735c:	00000b06 	br	80738c <write+0x10c>
  807360:	08073a40 	call	8073a4 <alt_get_errno>
  807364:	1007883a 	mov	r3,r2
  807368:	00800344 	movi	r2,13
  80736c:	18800015 	stw	r2,0(r3)
  807370:	00000406 	br	807384 <write+0x104>
  807374:	08073a40 	call	8073a4 <alt_get_errno>
  807378:	1007883a 	mov	r3,r2
  80737c:	00801444 	movi	r2,81
  807380:	18800015 	stw	r2,0(r3)
  807384:	00bfffc4 	movi	r2,-1
  807388:	e0bffe15 	stw	r2,-8(fp)
  80738c:	e0bffe17 	ldw	r2,-8(fp)
  807390:	e037883a 	mov	sp,fp
  807394:	dfc00117 	ldw	ra,4(sp)
  807398:	df000017 	ldw	fp,0(sp)
  80739c:	dec00204 	addi	sp,sp,8
  8073a0:	f800283a 	ret

008073a4 <alt_get_errno>:
  8073a4:	defffd04 	addi	sp,sp,-12
  8073a8:	dfc00215 	stw	ra,8(sp)
  8073ac:	df000115 	stw	fp,4(sp)
  8073b0:	df000104 	addi	fp,sp,4
  8073b4:	00802074 	movhi	r2,129
  8073b8:	10899504 	addi	r2,r2,9812
  8073bc:	10800017 	ldw	r2,0(r2)
  8073c0:	1005003a 	cmpeq	r2,r2,zero
  8073c4:	1000061e 	bne	r2,zero,8073e0 <alt_get_errno+0x3c>
  8073c8:	00802074 	movhi	r2,129
  8073cc:	10899504 	addi	r2,r2,9812
  8073d0:	10800017 	ldw	r2,0(r2)
  8073d4:	103ee83a 	callr	r2
  8073d8:	e0bfff15 	stw	r2,-4(fp)
  8073dc:	00000306 	br	8073ec <alt_get_errno+0x48>
  8073e0:	00802074 	movhi	r2,129
  8073e4:	10903904 	addi	r2,r2,16612
  8073e8:	e0bfff15 	stw	r2,-4(fp)
  8073ec:	e0bfff17 	ldw	r2,-4(fp)
  8073f0:	e037883a 	mov	sp,fp
  8073f4:	dfc00117 	ldw	ra,4(sp)
  8073f8:	df000017 	ldw	fp,0(sp)
  8073fc:	dec00204 	addi	sp,sp,8
  807400:	f800283a 	ret

00807404 <alt_irq_init>:
  807404:	defffd04 	addi	sp,sp,-12
  807408:	dfc00215 	stw	ra,8(sp)
  80740c:	df000115 	stw	fp,4(sp)
  807410:	df000104 	addi	fp,sp,4
  807414:	e13fff15 	stw	r4,-4(fp)
  807418:	08090a40 	call	8090a4 <altera_nios2_qsys_irq_init>
  80741c:	00800044 	movi	r2,1
  807420:	1001703a 	wrctl	status,r2
  807424:	e037883a 	mov	sp,fp
  807428:	dfc00117 	ldw	ra,4(sp)
  80742c:	df000017 	ldw	fp,0(sp)
  807430:	dec00204 	addi	sp,sp,8
  807434:	f800283a 	ret

00807438 <alt_sys_init>:
  807438:	defffe04 	addi	sp,sp,-8
  80743c:	dfc00115 	stw	ra,4(sp)
  807440:	df000015 	stw	fp,0(sp)
  807444:	d839883a 	mov	fp,sp
  807448:	01004074 	movhi	r4,257
  80744c:	21040004 	addi	r4,r4,4096
  807450:	000b883a 	mov	r5,zero
  807454:	01800044 	movi	r6,1
  807458:	01c0fa04 	movi	r7,1000
  80745c:	08080f80 	call	8080f8 <alt_avalon_timer_sc_init>
  807460:	01002074 	movhi	r4,129
  807464:	21057804 	addi	r4,r4,5600
  807468:	000b883a 	mov	r5,zero
  80746c:	01800404 	movi	r6,16
  807470:	08076140 	call	807614 <altera_avalon_jtag_uart_init>
  807474:	01002074 	movhi	r4,129
  807478:	21056e04 	addi	r4,r4,5560
  80747c:	08074940 	call	807494 <alt_dev_reg>
  807480:	e037883a 	mov	sp,fp
  807484:	dfc00117 	ldw	ra,4(sp)
  807488:	df000017 	ldw	fp,0(sp)
  80748c:	dec00204 	addi	sp,sp,8
  807490:	f800283a 	ret

00807494 <alt_dev_reg>:
  807494:	defffd04 	addi	sp,sp,-12
  807498:	dfc00215 	stw	ra,8(sp)
  80749c:	df000115 	stw	fp,4(sp)
  8074a0:	df000104 	addi	fp,sp,4
  8074a4:	e13fff15 	stw	r4,-4(fp)
  8074a8:	e13fff17 	ldw	r4,-4(fp)
  8074ac:	01402074 	movhi	r5,129
  8074b0:	29499204 	addi	r5,r5,9800
  8074b4:	08088380 	call	808838 <alt_dev_llist_insert>
  8074b8:	e037883a 	mov	sp,fp
  8074bc:	dfc00117 	ldw	ra,4(sp)
  8074c0:	df000017 	ldw	fp,0(sp)
  8074c4:	dec00204 	addi	sp,sp,8
  8074c8:	f800283a 	ret

008074cc <altera_avalon_jtag_uart_read_fd>:
  8074cc:	defffa04 	addi	sp,sp,-24
  8074d0:	dfc00515 	stw	ra,20(sp)
  8074d4:	df000415 	stw	fp,16(sp)
  8074d8:	df000404 	addi	fp,sp,16
  8074dc:	e13ffd15 	stw	r4,-12(fp)
  8074e0:	e17ffe15 	stw	r5,-8(fp)
  8074e4:	e1bfff15 	stw	r6,-4(fp)
  8074e8:	e0bffd17 	ldw	r2,-12(fp)
  8074ec:	10800017 	ldw	r2,0(r2)
  8074f0:	e0bffc15 	stw	r2,-16(fp)
  8074f4:	e0bffc17 	ldw	r2,-16(fp)
  8074f8:	11000a04 	addi	r4,r2,40
  8074fc:	e0bffd17 	ldw	r2,-12(fp)
  807500:	11c00217 	ldw	r7,8(r2)
  807504:	e17ffe17 	ldw	r5,-8(fp)
  807508:	e1bfff17 	ldw	r6,-4(fp)
  80750c:	0807bac0 	call	807bac <altera_avalon_jtag_uart_read>
  807510:	e037883a 	mov	sp,fp
  807514:	dfc00117 	ldw	ra,4(sp)
  807518:	df000017 	ldw	fp,0(sp)
  80751c:	dec00204 	addi	sp,sp,8
  807520:	f800283a 	ret

00807524 <altera_avalon_jtag_uart_write_fd>:
  807524:	defffa04 	addi	sp,sp,-24
  807528:	dfc00515 	stw	ra,20(sp)
  80752c:	df000415 	stw	fp,16(sp)
  807530:	df000404 	addi	fp,sp,16
  807534:	e13ffd15 	stw	r4,-12(fp)
  807538:	e17ffe15 	stw	r5,-8(fp)
  80753c:	e1bfff15 	stw	r6,-4(fp)
  807540:	e0bffd17 	ldw	r2,-12(fp)
  807544:	10800017 	ldw	r2,0(r2)
  807548:	e0bffc15 	stw	r2,-16(fp)
  80754c:	e0bffc17 	ldw	r2,-16(fp)
  807550:	11000a04 	addi	r4,r2,40
  807554:	e0bffd17 	ldw	r2,-12(fp)
  807558:	11c00217 	ldw	r7,8(r2)
  80755c:	e17ffe17 	ldw	r5,-8(fp)
  807560:	e1bfff17 	ldw	r6,-4(fp)
  807564:	0807e0c0 	call	807e0c <altera_avalon_jtag_uart_write>
  807568:	e037883a 	mov	sp,fp
  80756c:	dfc00117 	ldw	ra,4(sp)
  807570:	df000017 	ldw	fp,0(sp)
  807574:	dec00204 	addi	sp,sp,8
  807578:	f800283a 	ret

0080757c <altera_avalon_jtag_uart_close_fd>:
  80757c:	defffc04 	addi	sp,sp,-16
  807580:	dfc00315 	stw	ra,12(sp)
  807584:	df000215 	stw	fp,8(sp)
  807588:	df000204 	addi	fp,sp,8
  80758c:	e13fff15 	stw	r4,-4(fp)
  807590:	e0bfff17 	ldw	r2,-4(fp)
  807594:	10800017 	ldw	r2,0(r2)
  807598:	e0bffe15 	stw	r2,-8(fp)
  80759c:	e0bffe17 	ldw	r2,-8(fp)
  8075a0:	11000a04 	addi	r4,r2,40
  8075a4:	e0bfff17 	ldw	r2,-4(fp)
  8075a8:	11400217 	ldw	r5,8(r2)
  8075ac:	0807a440 	call	807a44 <altera_avalon_jtag_uart_close>
  8075b0:	e037883a 	mov	sp,fp
  8075b4:	dfc00117 	ldw	ra,4(sp)
  8075b8:	df000017 	ldw	fp,0(sp)
  8075bc:	dec00204 	addi	sp,sp,8
  8075c0:	f800283a 	ret

008075c4 <altera_avalon_jtag_uart_ioctl_fd>:
  8075c4:	defffa04 	addi	sp,sp,-24
  8075c8:	dfc00515 	stw	ra,20(sp)
  8075cc:	df000415 	stw	fp,16(sp)
  8075d0:	df000404 	addi	fp,sp,16
  8075d4:	e13ffd15 	stw	r4,-12(fp)
  8075d8:	e17ffe15 	stw	r5,-8(fp)
  8075dc:	e1bfff15 	stw	r6,-4(fp)
  8075e0:	e0bffd17 	ldw	r2,-12(fp)
  8075e4:	10800017 	ldw	r2,0(r2)
  8075e8:	e0bffc15 	stw	r2,-16(fp)
  8075ec:	e0bffc17 	ldw	r2,-16(fp)
  8075f0:	11000a04 	addi	r4,r2,40
  8075f4:	e17ffe17 	ldw	r5,-8(fp)
  8075f8:	e1bfff17 	ldw	r6,-4(fp)
  8075fc:	0807ab80 	call	807ab8 <altera_avalon_jtag_uart_ioctl>
  807600:	e037883a 	mov	sp,fp
  807604:	dfc00117 	ldw	ra,4(sp)
  807608:	df000017 	ldw	fp,0(sp)
  80760c:	dec00204 	addi	sp,sp,8
  807610:	f800283a 	ret

00807614 <altera_avalon_jtag_uart_init>:
  807614:	defff404 	addi	sp,sp,-48
  807618:	dfc00b15 	stw	ra,44(sp)
  80761c:	df000a15 	stw	fp,40(sp)
  807620:	df000a04 	addi	fp,sp,40
  807624:	e13ffb15 	stw	r4,-20(fp)
  807628:	e17ffc15 	stw	r5,-16(fp)
  80762c:	e1bffd15 	stw	r6,-12(fp)
  807630:	e0bffb17 	ldw	r2,-20(fp)
  807634:	10800a04 	addi	r2,r2,40
  807638:	e0bff915 	stw	r2,-28(fp)
  80763c:	00800044 	movi	r2,1
  807640:	e0bffa0d 	sth	r2,-24(fp)
  807644:	e0bffa0b 	ldhu	r2,-24(fp)
  807648:	1005003a 	cmpeq	r2,r2,zero
  80764c:	1000031e 	bne	r2,zero,80765c <altera_avalon_jtag_uart_init+0x48>
  807650:	e0bffa0b 	ldhu	r2,-24(fp)
  807654:	e0bfff15 	stw	r2,-4(fp)
  807658:	00000206 	br	807664 <altera_avalon_jtag_uart_init+0x50>
  80765c:	00800044 	movi	r2,1
  807660:	e0bfff15 	stw	r2,-4(fp)
  807664:	e17ffa0b 	ldhu	r5,-24(fp)
  807668:	e13fff17 	ldw	r4,-4(fp)
  80766c:	08032040 	call	803204 <xQueueCreateCountingSemaphore>
  807670:	1007883a 	mov	r3,r2
  807674:	e0bff917 	ldw	r2,-28(fp)
  807678:	10c00015 	stw	r3,0(r2)
  80767c:	e0bffb17 	ldw	r2,-20(fp)
  807680:	10800b04 	addi	r2,r2,44
  807684:	e0bff715 	stw	r2,-36(fp)
  807688:	00800044 	movi	r2,1
  80768c:	e0bff80d 	sth	r2,-32(fp)
  807690:	e0bff80b 	ldhu	r2,-32(fp)
  807694:	1005003a 	cmpeq	r2,r2,zero
  807698:	1000031e 	bne	r2,zero,8076a8 <altera_avalon_jtag_uart_init+0x94>
  80769c:	e0bff80b 	ldhu	r2,-32(fp)
  8076a0:	e0bffe15 	stw	r2,-8(fp)
  8076a4:	00000206 	br	8076b0 <altera_avalon_jtag_uart_init+0x9c>
  8076a8:	00800044 	movi	r2,1
  8076ac:	e0bffe15 	stw	r2,-8(fp)
  8076b0:	e17ff80b 	ldhu	r5,-32(fp)
  8076b4:	e13ffe17 	ldw	r4,-8(fp)
  8076b8:	08032040 	call	803204 <xQueueCreateCountingSemaphore>
  8076bc:	1007883a 	mov	r3,r2
  8076c0:	e0bff717 	ldw	r2,-36(fp)
  8076c4:	10c00015 	stw	r3,0(r2)
  8076c8:	e0fffb17 	ldw	r3,-20(fp)
  8076cc:	00800044 	movi	r2,1
  8076d0:	18800815 	stw	r2,32(r3)
  8076d4:	e0bffb17 	ldw	r2,-20(fp)
  8076d8:	10800017 	ldw	r2,0(r2)
  8076dc:	11000104 	addi	r4,r2,4
  8076e0:	e0bffb17 	ldw	r2,-20(fp)
  8076e4:	10800817 	ldw	r2,32(r2)
  8076e8:	1007883a 	mov	r3,r2
  8076ec:	2005883a 	mov	r2,r4
  8076f0:	10c00035 	stwio	r3,0(r2)
  8076f4:	e13ffc17 	ldw	r4,-16(fp)
  8076f8:	e17ffd17 	ldw	r5,-12(fp)
  8076fc:	d8000015 	stw	zero,0(sp)
  807700:	01802034 	movhi	r6,128
  807704:	319ddb04 	addi	r6,r6,30572
  807708:	e1fffb17 	ldw	r7,-20(fp)
  80770c:	0808c300 	call	808c30 <alt_ic_isr_register>
  807710:	e0bffb17 	ldw	r2,-20(fp)
  807714:	10000915 	stw	zero,36(r2)
  807718:	e0bffb17 	ldw	r2,-20(fp)
  80771c:	11000204 	addi	r4,r2,8
  807720:	00802074 	movhi	r2,129
  807724:	10905304 	addi	r2,r2,16716
  807728:	10800017 	ldw	r2,0(r2)
  80772c:	100b883a 	mov	r5,r2
  807730:	01802034 	movhi	r6,128
  807734:	319e6504 	addi	r6,r6,31124
  807738:	e1fffb17 	ldw	r7,-20(fp)
  80773c:	08086c80 	call	8086c8 <alt_alarm_start>
  807740:	1004403a 	cmpge	r2,r2,zero
  807744:	1000041e 	bne	r2,zero,807758 <altera_avalon_jtag_uart_init+0x144>
  807748:	e0fffb17 	ldw	r3,-20(fp)
  80774c:	00a00034 	movhi	r2,32768
  807750:	10bfffc4 	addi	r2,r2,-1
  807754:	18800115 	stw	r2,4(r3)
  807758:	e037883a 	mov	sp,fp
  80775c:	dfc00117 	ldw	ra,4(sp)
  807760:	df000017 	ldw	fp,0(sp)
  807764:	dec00204 	addi	sp,sp,8
  807768:	f800283a 	ret

0080776c <altera_avalon_jtag_uart_irq>:
  80776c:	defff804 	addi	sp,sp,-32
  807770:	df000715 	stw	fp,28(sp)
  807774:	df000704 	addi	fp,sp,28
  807778:	e13fff15 	stw	r4,-4(fp)
  80777c:	e0bfff17 	ldw	r2,-4(fp)
  807780:	e0bffe15 	stw	r2,-8(fp)
  807784:	e0bffe17 	ldw	r2,-8(fp)
  807788:	10800017 	ldw	r2,0(r2)
  80778c:	e0bffd15 	stw	r2,-12(fp)
  807790:	00000006 	br	807794 <altera_avalon_jtag_uart_irq+0x28>
  807794:	e0bffd17 	ldw	r2,-12(fp)
  807798:	10800104 	addi	r2,r2,4
  80779c:	10800037 	ldwio	r2,0(r2)
  8077a0:	e0bffc15 	stw	r2,-16(fp)
  8077a4:	e0bffc17 	ldw	r2,-16(fp)
  8077a8:	1080c00c 	andi	r2,r2,768
  8077ac:	1005003a 	cmpeq	r2,r2,zero
  8077b0:	1000741e 	bne	r2,zero,807984 <altera_avalon_jtag_uart_irq+0x218>
  8077b4:	e0bffc17 	ldw	r2,-16(fp)
  8077b8:	1080400c 	andi	r2,r2,256
  8077bc:	1005003a 	cmpeq	r2,r2,zero
  8077c0:	1000351e 	bne	r2,zero,807898 <altera_avalon_jtag_uart_irq+0x12c>
  8077c4:	00800074 	movhi	r2,1
  8077c8:	e0bffb15 	stw	r2,-20(fp)
  8077cc:	e0bffe17 	ldw	r2,-8(fp)
  8077d0:	10800c17 	ldw	r2,48(r2)
  8077d4:	10800044 	addi	r2,r2,1
  8077d8:	1081ffcc 	andi	r2,r2,2047
  8077dc:	e0bffa15 	stw	r2,-24(fp)
  8077e0:	e0bffe17 	ldw	r2,-8(fp)
  8077e4:	10c00d17 	ldw	r3,52(r2)
  8077e8:	e0bffa17 	ldw	r2,-24(fp)
  8077ec:	18801626 	beq	r3,r2,807848 <altera_avalon_jtag_uart_irq+0xdc>
  8077f0:	e0bffd17 	ldw	r2,-12(fp)
  8077f4:	10800037 	ldwio	r2,0(r2)
  8077f8:	e0bffb15 	stw	r2,-20(fp)
  8077fc:	e0bffb17 	ldw	r2,-20(fp)
  807800:	10a0000c 	andi	r2,r2,32768
  807804:	1005003a 	cmpeq	r2,r2,zero
  807808:	10000f1e 	bne	r2,zero,807848 <altera_avalon_jtag_uart_irq+0xdc>
  80780c:	e0bffe17 	ldw	r2,-8(fp)
  807810:	10c00c17 	ldw	r3,48(r2)
  807814:	e0bffb17 	ldw	r2,-20(fp)
  807818:	1009883a 	mov	r4,r2
  80781c:	e0bffe17 	ldw	r2,-8(fp)
  807820:	1885883a 	add	r2,r3,r2
  807824:	10801004 	addi	r2,r2,64
  807828:	11000005 	stb	r4,0(r2)
  80782c:	e0bffe17 	ldw	r2,-8(fp)
  807830:	10800c17 	ldw	r2,48(r2)
  807834:	10800044 	addi	r2,r2,1
  807838:	10c1ffcc 	andi	r3,r2,2047
  80783c:	e0bffe17 	ldw	r2,-8(fp)
  807840:	10c00c15 	stw	r3,48(r2)
  807844:	003fe106 	br	8077cc <altera_avalon_jtag_uart_irq+0x60>
  807848:	e0bffb17 	ldw	r2,-20(fp)
  80784c:	10bfffec 	andhi	r2,r2,65535
  807850:	1005003a 	cmpeq	r2,r2,zero
  807854:	1000101e 	bne	r2,zero,807898 <altera_avalon_jtag_uart_irq+0x12c>
  807858:	e0bffe17 	ldw	r2,-8(fp)
  80785c:	10c00817 	ldw	r3,32(r2)
  807860:	00bfff84 	movi	r2,-2
  807864:	1886703a 	and	r3,r3,r2
  807868:	e0bffe17 	ldw	r2,-8(fp)
  80786c:	10c00815 	stw	r3,32(r2)
  807870:	e0bffd17 	ldw	r2,-12(fp)
  807874:	11000104 	addi	r4,r2,4
  807878:	e0bffe17 	ldw	r2,-8(fp)
  80787c:	10800817 	ldw	r2,32(r2)
  807880:	1007883a 	mov	r3,r2
  807884:	2005883a 	mov	r2,r4
  807888:	10c00035 	stwio	r3,0(r2)
  80788c:	e0bffd17 	ldw	r2,-12(fp)
  807890:	10800104 	addi	r2,r2,4
  807894:	10800037 	ldwio	r2,0(r2)
  807898:	e0bffc17 	ldw	r2,-16(fp)
  80789c:	1080800c 	andi	r2,r2,512
  8078a0:	1005003a 	cmpeq	r2,r2,zero
  8078a4:	103fbb1e 	bne	r2,zero,807794 <altera_avalon_jtag_uart_irq+0x28>
  8078a8:	e0bffc17 	ldw	r2,-16(fp)
  8078ac:	10bfffec 	andhi	r2,r2,65535
  8078b0:	1004d43a 	srli	r2,r2,16
  8078b4:	e0bff915 	stw	r2,-28(fp)
  8078b8:	00001506 	br	807910 <altera_avalon_jtag_uart_irq+0x1a4>
  8078bc:	e13ffd17 	ldw	r4,-12(fp)
  8078c0:	e0bffe17 	ldw	r2,-8(fp)
  8078c4:	10c00f17 	ldw	r3,60(r2)
  8078c8:	e0bffe17 	ldw	r2,-8(fp)
  8078cc:	1885883a 	add	r2,r3,r2
  8078d0:	10821004 	addi	r2,r2,2112
  8078d4:	10800003 	ldbu	r2,0(r2)
  8078d8:	10c03fcc 	andi	r3,r2,255
  8078dc:	18c0201c 	xori	r3,r3,128
  8078e0:	18ffe004 	addi	r3,r3,-128
  8078e4:	2005883a 	mov	r2,r4
  8078e8:	10c00035 	stwio	r3,0(r2)
  8078ec:	e0bffe17 	ldw	r2,-8(fp)
  8078f0:	10800f17 	ldw	r2,60(r2)
  8078f4:	10800044 	addi	r2,r2,1
  8078f8:	10c1ffcc 	andi	r3,r2,2047
  8078fc:	e0bffe17 	ldw	r2,-8(fp)
  807900:	10c00f15 	stw	r3,60(r2)
  807904:	e0bff917 	ldw	r2,-28(fp)
  807908:	10bfffc4 	addi	r2,r2,-1
  80790c:	e0bff915 	stw	r2,-28(fp)
  807910:	e0bff917 	ldw	r2,-28(fp)
  807914:	1005003a 	cmpeq	r2,r2,zero
  807918:	1000051e 	bne	r2,zero,807930 <altera_avalon_jtag_uart_irq+0x1c4>
  80791c:	e0bffe17 	ldw	r2,-8(fp)
  807920:	10c00f17 	ldw	r3,60(r2)
  807924:	e0bffe17 	ldw	r2,-8(fp)
  807928:	10800e17 	ldw	r2,56(r2)
  80792c:	18bfe31e 	bne	r3,r2,8078bc <altera_avalon_jtag_uart_irq+0x150>
  807930:	e0bff917 	ldw	r2,-28(fp)
  807934:	1005003a 	cmpeq	r2,r2,zero
  807938:	103f961e 	bne	r2,zero,807794 <altera_avalon_jtag_uart_irq+0x28>
  80793c:	e0bffe17 	ldw	r2,-8(fp)
  807940:	10c00817 	ldw	r3,32(r2)
  807944:	00bfff44 	movi	r2,-3
  807948:	1886703a 	and	r3,r3,r2
  80794c:	e0bffe17 	ldw	r2,-8(fp)
  807950:	10c00815 	stw	r3,32(r2)
  807954:	e0bffe17 	ldw	r2,-8(fp)
  807958:	10800017 	ldw	r2,0(r2)
  80795c:	11000104 	addi	r4,r2,4
  807960:	e0bffe17 	ldw	r2,-8(fp)
  807964:	10800817 	ldw	r2,32(r2)
  807968:	1007883a 	mov	r3,r2
  80796c:	2005883a 	mov	r2,r4
  807970:	10c00035 	stwio	r3,0(r2)
  807974:	e0bffd17 	ldw	r2,-12(fp)
  807978:	10800104 	addi	r2,r2,4
  80797c:	10800037 	ldwio	r2,0(r2)
  807980:	003f8406 	br	807794 <altera_avalon_jtag_uart_irq+0x28>
  807984:	e037883a 	mov	sp,fp
  807988:	df000017 	ldw	fp,0(sp)
  80798c:	dec00104 	addi	sp,sp,4
  807990:	f800283a 	ret

00807994 <altera_avalon_jtag_uart_timeout>:
  807994:	defffc04 	addi	sp,sp,-16
  807998:	df000315 	stw	fp,12(sp)
  80799c:	df000304 	addi	fp,sp,12
  8079a0:	e13fff15 	stw	r4,-4(fp)
  8079a4:	e0bfff17 	ldw	r2,-4(fp)
  8079a8:	e0bffe15 	stw	r2,-8(fp)
  8079ac:	e0bffe17 	ldw	r2,-8(fp)
  8079b0:	10800017 	ldw	r2,0(r2)
  8079b4:	10800104 	addi	r2,r2,4
  8079b8:	10800037 	ldwio	r2,0(r2)
  8079bc:	e0bffd15 	stw	r2,-12(fp)
  8079c0:	e0bffd17 	ldw	r2,-12(fp)
  8079c4:	1081000c 	andi	r2,r2,1024
  8079c8:	1005003a 	cmpeq	r2,r2,zero
  8079cc:	10000c1e 	bne	r2,zero,807a00 <altera_avalon_jtag_uart_timeout+0x6c>
  8079d0:	e0bffe17 	ldw	r2,-8(fp)
  8079d4:	10800017 	ldw	r2,0(r2)
  8079d8:	11000104 	addi	r4,r2,4
  8079dc:	e0bffe17 	ldw	r2,-8(fp)
  8079e0:	10800817 	ldw	r2,32(r2)
  8079e4:	10810014 	ori	r2,r2,1024
  8079e8:	1007883a 	mov	r3,r2
  8079ec:	2005883a 	mov	r2,r4
  8079f0:	10c00035 	stwio	r3,0(r2)
  8079f4:	e0bffe17 	ldw	r2,-8(fp)
  8079f8:	10000915 	stw	zero,36(r2)
  8079fc:	00000a06 	br	807a28 <altera_avalon_jtag_uart_timeout+0x94>
  807a00:	e0bffe17 	ldw	r2,-8(fp)
  807a04:	10c00917 	ldw	r3,36(r2)
  807a08:	00a00034 	movhi	r2,32768
  807a0c:	10bfff04 	addi	r2,r2,-4
  807a10:	10c00536 	bltu	r2,r3,807a28 <altera_avalon_jtag_uart_timeout+0x94>
  807a14:	e0bffe17 	ldw	r2,-8(fp)
  807a18:	10800917 	ldw	r2,36(r2)
  807a1c:	10c00044 	addi	r3,r2,1
  807a20:	e0bffe17 	ldw	r2,-8(fp)
  807a24:	10c00915 	stw	r3,36(r2)
  807a28:	00802074 	movhi	r2,129
  807a2c:	10905304 	addi	r2,r2,16716
  807a30:	10800017 	ldw	r2,0(r2)
  807a34:	e037883a 	mov	sp,fp
  807a38:	df000017 	ldw	fp,0(sp)
  807a3c:	dec00104 	addi	sp,sp,4
  807a40:	f800283a 	ret

00807a44 <altera_avalon_jtag_uart_close>:
  807a44:	defffc04 	addi	sp,sp,-16
  807a48:	df000315 	stw	fp,12(sp)
  807a4c:	df000304 	addi	fp,sp,12
  807a50:	e13ffd15 	stw	r4,-12(fp)
  807a54:	e17ffe15 	stw	r5,-8(fp)
  807a58:	00000706 	br	807a78 <altera_avalon_jtag_uart_close+0x34>
  807a5c:	e0bffe17 	ldw	r2,-8(fp)
  807a60:	1090000c 	andi	r2,r2,16384
  807a64:	1005003a 	cmpeq	r2,r2,zero
  807a68:	1000031e 	bne	r2,zero,807a78 <altera_avalon_jtag_uart_close+0x34>
  807a6c:	00bffd44 	movi	r2,-11
  807a70:	e0bfff15 	stw	r2,-4(fp)
  807a74:	00000b06 	br	807aa4 <altera_avalon_jtag_uart_close+0x60>
  807a78:	e0bffd17 	ldw	r2,-12(fp)
  807a7c:	10c00f17 	ldw	r3,60(r2)
  807a80:	e0bffd17 	ldw	r2,-12(fp)
  807a84:	10800e17 	ldw	r2,56(r2)
  807a88:	18800526 	beq	r3,r2,807aa0 <altera_avalon_jtag_uart_close+0x5c>
  807a8c:	e0bffd17 	ldw	r2,-12(fp)
  807a90:	10c00917 	ldw	r3,36(r2)
  807a94:	e0bffd17 	ldw	r2,-12(fp)
  807a98:	10800117 	ldw	r2,4(r2)
  807a9c:	18bfef36 	bltu	r3,r2,807a5c <altera_avalon_jtag_uart_close+0x18>
  807aa0:	e03fff15 	stw	zero,-4(fp)
  807aa4:	e0bfff17 	ldw	r2,-4(fp)
  807aa8:	e037883a 	mov	sp,fp
  807aac:	df000017 	ldw	fp,0(sp)
  807ab0:	dec00104 	addi	sp,sp,4
  807ab4:	f800283a 	ret

00807ab8 <altera_avalon_jtag_uart_ioctl>:
  807ab8:	defff804 	addi	sp,sp,-32
  807abc:	df000715 	stw	fp,28(sp)
  807ac0:	df000704 	addi	fp,sp,28
  807ac4:	e13ffb15 	stw	r4,-20(fp)
  807ac8:	e17ffc15 	stw	r5,-16(fp)
  807acc:	e1bffd15 	stw	r6,-12(fp)
  807ad0:	00bff9c4 	movi	r2,-25
  807ad4:	e0bffa15 	stw	r2,-24(fp)
  807ad8:	e0bffc17 	ldw	r2,-16(fp)
  807adc:	e0bfff15 	stw	r2,-4(fp)
  807ae0:	e0ffff17 	ldw	r3,-4(fp)
  807ae4:	189a8060 	cmpeqi	r2,r3,27137
  807ae8:	1000041e 	bne	r2,zero,807afc <altera_avalon_jtag_uart_ioctl+0x44>
  807aec:	e0ffff17 	ldw	r3,-4(fp)
  807af0:	189a80a0 	cmpeqi	r2,r3,27138
  807af4:	10001b1e 	bne	r2,zero,807b64 <altera_avalon_jtag_uart_ioctl+0xac>
  807af8:	00002706 	br	807b98 <altera_avalon_jtag_uart_ioctl+0xe0>
  807afc:	e0bffb17 	ldw	r2,-20(fp)
  807b00:	10c00117 	ldw	r3,4(r2)
  807b04:	00a00034 	movhi	r2,32768
  807b08:	10bfffc4 	addi	r2,r2,-1
  807b0c:	18802226 	beq	r3,r2,807b98 <altera_avalon_jtag_uart_ioctl+0xe0>
  807b10:	e0bffd17 	ldw	r2,-12(fp)
  807b14:	10800017 	ldw	r2,0(r2)
  807b18:	e0bff915 	stw	r2,-28(fp)
  807b1c:	e0bff917 	ldw	r2,-28(fp)
  807b20:	10800090 	cmplti	r2,r2,2
  807b24:	1000071e 	bne	r2,zero,807b44 <altera_avalon_jtag_uart_ioctl+0x8c>
  807b28:	e0fff917 	ldw	r3,-28(fp)
  807b2c:	00a00034 	movhi	r2,32768
  807b30:	10bfffc4 	addi	r2,r2,-1
  807b34:	18800326 	beq	r3,r2,807b44 <altera_avalon_jtag_uart_ioctl+0x8c>
  807b38:	e0bff917 	ldw	r2,-28(fp)
  807b3c:	e0bffe15 	stw	r2,-8(fp)
  807b40:	00000306 	br	807b50 <altera_avalon_jtag_uart_ioctl+0x98>
  807b44:	00e00034 	movhi	r3,32768
  807b48:	18ffff84 	addi	r3,r3,-2
  807b4c:	e0fffe15 	stw	r3,-8(fp)
  807b50:	e0bffb17 	ldw	r2,-20(fp)
  807b54:	e0fffe17 	ldw	r3,-8(fp)
  807b58:	10c00115 	stw	r3,4(r2)
  807b5c:	e03ffa15 	stw	zero,-24(fp)
  807b60:	00000d06 	br	807b98 <altera_avalon_jtag_uart_ioctl+0xe0>
  807b64:	e0bffb17 	ldw	r2,-20(fp)
  807b68:	10c00117 	ldw	r3,4(r2)
  807b6c:	00a00034 	movhi	r2,32768
  807b70:	10bfffc4 	addi	r2,r2,-1
  807b74:	18800826 	beq	r3,r2,807b98 <altera_avalon_jtag_uart_ioctl+0xe0>
  807b78:	e13ffd17 	ldw	r4,-12(fp)
  807b7c:	e0bffb17 	ldw	r2,-20(fp)
  807b80:	10c00917 	ldw	r3,36(r2)
  807b84:	e0bffb17 	ldw	r2,-20(fp)
  807b88:	10800117 	ldw	r2,4(r2)
  807b8c:	1885803a 	cmpltu	r2,r3,r2
  807b90:	20800015 	stw	r2,0(r4)
  807b94:	e03ffa15 	stw	zero,-24(fp)
  807b98:	e0bffa17 	ldw	r2,-24(fp)
  807b9c:	e037883a 	mov	sp,fp
  807ba0:	df000017 	ldw	fp,0(sp)
  807ba4:	dec00104 	addi	sp,sp,4
  807ba8:	f800283a 	ret

00807bac <altera_avalon_jtag_uart_read>:
  807bac:	defff004 	addi	sp,sp,-64
  807bb0:	dfc00f15 	stw	ra,60(sp)
  807bb4:	df000e15 	stw	fp,56(sp)
  807bb8:	df000e04 	addi	fp,sp,56
  807bbc:	e13ffb15 	stw	r4,-20(fp)
  807bc0:	e17ffc15 	stw	r5,-16(fp)
  807bc4:	e1bffd15 	stw	r6,-12(fp)
  807bc8:	e1fffe15 	stw	r7,-8(fp)
  807bcc:	e0bffc17 	ldw	r2,-16(fp)
  807bd0:	e0bffa15 	stw	r2,-24(fp)
  807bd4:	e0bffb17 	ldw	r2,-20(fp)
  807bd8:	10800a17 	ldw	r2,40(r2)
  807bdc:	e0bff415 	stw	r2,-48(fp)
  807be0:	e03ff50d 	sth	zero,-44(fp)
  807be4:	e1bff50b 	ldhu	r6,-44(fp)
  807be8:	e13ff417 	ldw	r4,-48(fp)
  807bec:	000b883a 	mov	r5,zero
  807bf0:	000f883a 	mov	r7,zero
  807bf4:	08035000 	call	803500 <xQueueGenericReceive>
  807bf8:	00004806 	br	807d1c <altera_avalon_jtag_uart_read+0x170>
  807bfc:	e0bffb17 	ldw	r2,-20(fp)
  807c00:	10800c17 	ldw	r2,48(r2)
  807c04:	e0bff715 	stw	r2,-36(fp)
  807c08:	e0bffb17 	ldw	r2,-20(fp)
  807c0c:	10800d17 	ldw	r2,52(r2)
  807c10:	e0bff615 	stw	r2,-40(fp)
  807c14:	e0fff717 	ldw	r3,-36(fp)
  807c18:	e0bff617 	ldw	r2,-40(fp)
  807c1c:	18800536 	bltu	r3,r2,807c34 <altera_avalon_jtag_uart_read+0x88>
  807c20:	e0bff717 	ldw	r2,-36(fp)
  807c24:	e0fff617 	ldw	r3,-40(fp)
  807c28:	10c5c83a 	sub	r2,r2,r3
  807c2c:	e0bff815 	stw	r2,-32(fp)
  807c30:	00000406 	br	807c44 <altera_avalon_jtag_uart_read+0x98>
  807c34:	00820004 	movi	r2,2048
  807c38:	e0fff617 	ldw	r3,-40(fp)
  807c3c:	10c5c83a 	sub	r2,r2,r3
  807c40:	e0bff815 	stw	r2,-32(fp)
  807c44:	e0bff817 	ldw	r2,-32(fp)
  807c48:	1005003a 	cmpeq	r2,r2,zero
  807c4c:	10001f1e 	bne	r2,zero,807ccc <altera_avalon_jtag_uart_read+0x120>
  807c50:	e0fffd17 	ldw	r3,-12(fp)
  807c54:	e0bff817 	ldw	r2,-32(fp)
  807c58:	1880022e 	bgeu	r3,r2,807c64 <altera_avalon_jtag_uart_read+0xb8>
  807c5c:	e0bffd17 	ldw	r2,-12(fp)
  807c60:	e0bff815 	stw	r2,-32(fp)
  807c64:	e0bffb17 	ldw	r2,-20(fp)
  807c68:	10c01004 	addi	r3,r2,64
  807c6c:	e0bff617 	ldw	r2,-40(fp)
  807c70:	1887883a 	add	r3,r3,r2
  807c74:	e0bffa17 	ldw	r2,-24(fp)
  807c78:	1009883a 	mov	r4,r2
  807c7c:	180b883a 	mov	r5,r3
  807c80:	e1bff817 	ldw	r6,-32(fp)
  807c84:	08010b80 	call	8010b8 <memcpy>
  807c88:	e0fff817 	ldw	r3,-32(fp)
  807c8c:	e0bffa17 	ldw	r2,-24(fp)
  807c90:	10c5883a 	add	r2,r2,r3
  807c94:	e0bffa15 	stw	r2,-24(fp)
  807c98:	e0fffd17 	ldw	r3,-12(fp)
  807c9c:	e0bff817 	ldw	r2,-32(fp)
  807ca0:	1885c83a 	sub	r2,r3,r2
  807ca4:	e0bffd15 	stw	r2,-12(fp)
  807ca8:	e0fff617 	ldw	r3,-40(fp)
  807cac:	e0bff817 	ldw	r2,-32(fp)
  807cb0:	1885883a 	add	r2,r3,r2
  807cb4:	10c1ffcc 	andi	r3,r2,2047
  807cb8:	e0bffb17 	ldw	r2,-20(fp)
  807cbc:	10c00d15 	stw	r3,52(r2)
  807cc0:	e0bffd17 	ldw	r2,-12(fp)
  807cc4:	10800048 	cmpgei	r2,r2,1
  807cc8:	103fcc1e 	bne	r2,zero,807bfc <altera_avalon_jtag_uart_read+0x50>
  807ccc:	e0fffa17 	ldw	r3,-24(fp)
  807cd0:	e0bffc17 	ldw	r2,-16(fp)
  807cd4:	1880141e 	bne	r3,r2,807d28 <altera_avalon_jtag_uart_read+0x17c>
  807cd8:	e0bffe17 	ldw	r2,-8(fp)
  807cdc:	1090000c 	andi	r2,r2,16384
  807ce0:	1004c03a 	cmpne	r2,r2,zero
  807ce4:	1000101e 	bne	r2,zero,807d28 <altera_avalon_jtag_uart_read+0x17c>
  807ce8:	e0bffb17 	ldw	r2,-20(fp)
  807cec:	10c00c17 	ldw	r3,48(r2)
  807cf0:	e0bff717 	ldw	r2,-36(fp)
  807cf4:	1880051e 	bne	r3,r2,807d0c <altera_avalon_jtag_uart_read+0x160>
  807cf8:	e0bffb17 	ldw	r2,-20(fp)
  807cfc:	10c00917 	ldw	r3,36(r2)
  807d00:	e0bffb17 	ldw	r2,-20(fp)
  807d04:	10800117 	ldw	r2,4(r2)
  807d08:	18bff736 	bltu	r3,r2,807ce8 <altera_avalon_jtag_uart_read+0x13c>
  807d0c:	e0bffb17 	ldw	r2,-20(fp)
  807d10:	10c00c17 	ldw	r3,48(r2)
  807d14:	e0bff717 	ldw	r2,-36(fp)
  807d18:	18800326 	beq	r3,r2,807d28 <altera_avalon_jtag_uart_read+0x17c>
  807d1c:	e0bffd17 	ldw	r2,-12(fp)
  807d20:	10800048 	cmpgei	r2,r2,1
  807d24:	103fb51e 	bne	r2,zero,807bfc <altera_avalon_jtag_uart_read+0x50>
  807d28:	e0bffb17 	ldw	r2,-20(fp)
  807d2c:	11000a17 	ldw	r4,40(r2)
  807d30:	000b883a 	mov	r5,zero
  807d34:	000d883a 	mov	r6,zero
  807d38:	000f883a 	mov	r7,zero
  807d3c:	08032600 	call	803260 <xQueueGenericSend>
  807d40:	e0fffa17 	ldw	r3,-24(fp)
  807d44:	e0bffc17 	ldw	r2,-16(fp)
  807d48:	18801926 	beq	r3,r2,807db0 <altera_avalon_jtag_uart_read+0x204>
  807d4c:	0005303a 	rdctl	r2,status
  807d50:	e0bff315 	stw	r2,-52(fp)
  807d54:	e0fff317 	ldw	r3,-52(fp)
  807d58:	00bfff84 	movi	r2,-2
  807d5c:	1884703a 	and	r2,r3,r2
  807d60:	1001703a 	wrctl	status,r2
  807d64:	e0bff317 	ldw	r2,-52(fp)
  807d68:	e0bff915 	stw	r2,-28(fp)
  807d6c:	e0bffb17 	ldw	r2,-20(fp)
  807d70:	10800817 	ldw	r2,32(r2)
  807d74:	10c00054 	ori	r3,r2,1
  807d78:	e0bffb17 	ldw	r2,-20(fp)
  807d7c:	10c00815 	stw	r3,32(r2)
  807d80:	e0bffb17 	ldw	r2,-20(fp)
  807d84:	10800017 	ldw	r2,0(r2)
  807d88:	11000104 	addi	r4,r2,4
  807d8c:	e0bffb17 	ldw	r2,-20(fp)
  807d90:	10800817 	ldw	r2,32(r2)
  807d94:	1007883a 	mov	r3,r2
  807d98:	2005883a 	mov	r2,r4
  807d9c:	10c00035 	stwio	r3,0(r2)
  807da0:	e0bff917 	ldw	r2,-28(fp)
  807da4:	e0bff215 	stw	r2,-56(fp)
  807da8:	e0bff217 	ldw	r2,-56(fp)
  807dac:	1001703a 	wrctl	status,r2
  807db0:	e0fffa17 	ldw	r3,-24(fp)
  807db4:	e0bffc17 	ldw	r2,-16(fp)
  807db8:	18800526 	beq	r3,r2,807dd0 <altera_avalon_jtag_uart_read+0x224>
  807dbc:	e0fffa17 	ldw	r3,-24(fp)
  807dc0:	e0bffc17 	ldw	r2,-16(fp)
  807dc4:	1887c83a 	sub	r3,r3,r2
  807dc8:	e0ffff15 	stw	r3,-4(fp)
  807dcc:	00000906 	br	807df4 <altera_avalon_jtag_uart_read+0x248>
  807dd0:	e0bffe17 	ldw	r2,-8(fp)
  807dd4:	1090000c 	andi	r2,r2,16384
  807dd8:	1005003a 	cmpeq	r2,r2,zero
  807ddc:	1000031e 	bne	r2,zero,807dec <altera_avalon_jtag_uart_read+0x240>
  807de0:	00bffd44 	movi	r2,-11
  807de4:	e0bfff15 	stw	r2,-4(fp)
  807de8:	00000206 	br	807df4 <altera_avalon_jtag_uart_read+0x248>
  807dec:	00bffec4 	movi	r2,-5
  807df0:	e0bfff15 	stw	r2,-4(fp)
  807df4:	e0bfff17 	ldw	r2,-4(fp)
  807df8:	e037883a 	mov	sp,fp
  807dfc:	dfc00117 	ldw	ra,4(sp)
  807e00:	df000017 	ldw	fp,0(sp)
  807e04:	dec00204 	addi	sp,sp,8
  807e08:	f800283a 	ret

00807e0c <altera_avalon_jtag_uart_write>:
  807e0c:	defff004 	addi	sp,sp,-64
  807e10:	dfc00f15 	stw	ra,60(sp)
  807e14:	df000e15 	stw	fp,56(sp)
  807e18:	df000e04 	addi	fp,sp,56
  807e1c:	e13ffb15 	stw	r4,-20(fp)
  807e20:	e17ffc15 	stw	r5,-16(fp)
  807e24:	e1bffd15 	stw	r6,-12(fp)
  807e28:	e1fffe15 	stw	r7,-8(fp)
  807e2c:	e03ff915 	stw	zero,-28(fp)
  807e30:	e0bffc17 	ldw	r2,-16(fp)
  807e34:	e0bff615 	stw	r2,-40(fp)
  807e38:	e0bffb17 	ldw	r2,-20(fp)
  807e3c:	10800b17 	ldw	r2,44(r2)
  807e40:	e0bff415 	stw	r2,-48(fp)
  807e44:	e03ff50d 	sth	zero,-44(fp)
  807e48:	e1bff50b 	ldhu	r6,-44(fp)
  807e4c:	e13ff417 	ldw	r4,-48(fp)
  807e50:	000b883a 	mov	r5,zero
  807e54:	000f883a 	mov	r7,zero
  807e58:	08035000 	call	803500 <xQueueGenericReceive>
  807e5c:	00003a06 	br	807f48 <altera_avalon_jtag_uart_write+0x13c>
  807e60:	e0bffb17 	ldw	r2,-20(fp)
  807e64:	10800e17 	ldw	r2,56(r2)
  807e68:	e0bffa15 	stw	r2,-24(fp)
  807e6c:	e0bffb17 	ldw	r2,-20(fp)
  807e70:	10800f17 	ldw	r2,60(r2)
  807e74:	e0bff915 	stw	r2,-28(fp)
  807e78:	e0fffa17 	ldw	r3,-24(fp)
  807e7c:	e0bff917 	ldw	r2,-28(fp)
  807e80:	1880062e 	bgeu	r3,r2,807e9c <altera_avalon_jtag_uart_write+0x90>
  807e84:	e0fff917 	ldw	r3,-28(fp)
  807e88:	e0bffa17 	ldw	r2,-24(fp)
  807e8c:	1885c83a 	sub	r2,r3,r2
  807e90:	10bfffc4 	addi	r2,r2,-1
  807e94:	e0bff815 	stw	r2,-32(fp)
  807e98:	00000c06 	br	807ecc <altera_avalon_jtag_uart_write+0xc0>
  807e9c:	e0bff917 	ldw	r2,-28(fp)
  807ea0:	1005003a 	cmpeq	r2,r2,zero
  807ea4:	1000051e 	bne	r2,zero,807ebc <altera_avalon_jtag_uart_write+0xb0>
  807ea8:	00820004 	movi	r2,2048
  807eac:	e0fffa17 	ldw	r3,-24(fp)
  807eb0:	10c5c83a 	sub	r2,r2,r3
  807eb4:	e0bff815 	stw	r2,-32(fp)
  807eb8:	00000406 	br	807ecc <altera_avalon_jtag_uart_write+0xc0>
  807ebc:	0081ffc4 	movi	r2,2047
  807ec0:	e0fffa17 	ldw	r3,-24(fp)
  807ec4:	10c5c83a 	sub	r2,r2,r3
  807ec8:	e0bff815 	stw	r2,-32(fp)
  807ecc:	e0bff817 	ldw	r2,-32(fp)
  807ed0:	1005003a 	cmpeq	r2,r2,zero
  807ed4:	10001f1e 	bne	r2,zero,807f54 <altera_avalon_jtag_uart_write+0x148>
  807ed8:	e0fffd17 	ldw	r3,-12(fp)
  807edc:	e0bff817 	ldw	r2,-32(fp)
  807ee0:	1880022e 	bgeu	r3,r2,807eec <altera_avalon_jtag_uart_write+0xe0>
  807ee4:	e0bffd17 	ldw	r2,-12(fp)
  807ee8:	e0bff815 	stw	r2,-32(fp)
  807eec:	e0bffb17 	ldw	r2,-20(fp)
  807ef0:	10c21004 	addi	r3,r2,2112
  807ef4:	e0bffa17 	ldw	r2,-24(fp)
  807ef8:	1885883a 	add	r2,r3,r2
  807efc:	e0fffc17 	ldw	r3,-16(fp)
  807f00:	1009883a 	mov	r4,r2
  807f04:	180b883a 	mov	r5,r3
  807f08:	e1bff817 	ldw	r6,-32(fp)
  807f0c:	08010b80 	call	8010b8 <memcpy>
  807f10:	e0fff817 	ldw	r3,-32(fp)
  807f14:	e0bffc17 	ldw	r2,-16(fp)
  807f18:	10c5883a 	add	r2,r2,r3
  807f1c:	e0bffc15 	stw	r2,-16(fp)
  807f20:	e0fffd17 	ldw	r3,-12(fp)
  807f24:	e0bff817 	ldw	r2,-32(fp)
  807f28:	1885c83a 	sub	r2,r3,r2
  807f2c:	e0bffd15 	stw	r2,-12(fp)
  807f30:	e0fffa17 	ldw	r3,-24(fp)
  807f34:	e0bff817 	ldw	r2,-32(fp)
  807f38:	1885883a 	add	r2,r3,r2
  807f3c:	10c1ffcc 	andi	r3,r2,2047
  807f40:	e0bffb17 	ldw	r2,-20(fp)
  807f44:	10c00e15 	stw	r3,56(r2)
  807f48:	e0bffd17 	ldw	r2,-12(fp)
  807f4c:	10800048 	cmpgei	r2,r2,1
  807f50:	103fc31e 	bne	r2,zero,807e60 <altera_avalon_jtag_uart_write+0x54>
  807f54:	0005303a 	rdctl	r2,status
  807f58:	e0bff315 	stw	r2,-52(fp)
  807f5c:	e0fff317 	ldw	r3,-52(fp)
  807f60:	00bfff84 	movi	r2,-2
  807f64:	1884703a 	and	r2,r3,r2
  807f68:	1001703a 	wrctl	status,r2
  807f6c:	e0bff317 	ldw	r2,-52(fp)
  807f70:	e0bff715 	stw	r2,-36(fp)
  807f74:	e0bffb17 	ldw	r2,-20(fp)
  807f78:	10800817 	ldw	r2,32(r2)
  807f7c:	10c00094 	ori	r3,r2,2
  807f80:	e0bffb17 	ldw	r2,-20(fp)
  807f84:	10c00815 	stw	r3,32(r2)
  807f88:	e0bffb17 	ldw	r2,-20(fp)
  807f8c:	10800017 	ldw	r2,0(r2)
  807f90:	11000104 	addi	r4,r2,4
  807f94:	e0bffb17 	ldw	r2,-20(fp)
  807f98:	10800817 	ldw	r2,32(r2)
  807f9c:	1007883a 	mov	r3,r2
  807fa0:	2005883a 	mov	r2,r4
  807fa4:	10c00035 	stwio	r3,0(r2)
  807fa8:	e0bff717 	ldw	r2,-36(fp)
  807fac:	e0bff215 	stw	r2,-56(fp)
  807fb0:	e0bff217 	ldw	r2,-56(fp)
  807fb4:	1001703a 	wrctl	status,r2
  807fb8:	e0bffd17 	ldw	r2,-12(fp)
  807fbc:	10800050 	cmplti	r2,r2,1
  807fc0:	1000111e 	bne	r2,zero,808008 <altera_avalon_jtag_uart_write+0x1fc>
  807fc4:	e0bffe17 	ldw	r2,-8(fp)
  807fc8:	1090000c 	andi	r2,r2,16384
  807fcc:	1004c03a 	cmpne	r2,r2,zero
  807fd0:	1000101e 	bne	r2,zero,808014 <altera_avalon_jtag_uart_write+0x208>
  807fd4:	e0bffb17 	ldw	r2,-20(fp)
  807fd8:	10c00f17 	ldw	r3,60(r2)
  807fdc:	e0bff917 	ldw	r2,-28(fp)
  807fe0:	1880051e 	bne	r3,r2,807ff8 <altera_avalon_jtag_uart_write+0x1ec>
  807fe4:	e0bffb17 	ldw	r2,-20(fp)
  807fe8:	10c00917 	ldw	r3,36(r2)
  807fec:	e0bffb17 	ldw	r2,-20(fp)
  807ff0:	10800117 	ldw	r2,4(r2)
  807ff4:	18bff736 	bltu	r3,r2,807fd4 <altera_avalon_jtag_uart_write+0x1c8>
  807ff8:	e0bffb17 	ldw	r2,-20(fp)
  807ffc:	10c00f17 	ldw	r3,60(r2)
  808000:	e0bff917 	ldw	r2,-28(fp)
  808004:	18800326 	beq	r3,r2,808014 <altera_avalon_jtag_uart_write+0x208>
  808008:	e0bffd17 	ldw	r2,-12(fp)
  80800c:	10800048 	cmpgei	r2,r2,1
  808010:	103fcd1e 	bne	r2,zero,807f48 <altera_avalon_jtag_uart_write+0x13c>
  808014:	e0bffb17 	ldw	r2,-20(fp)
  808018:	11000b17 	ldw	r4,44(r2)
  80801c:	000b883a 	mov	r5,zero
  808020:	000d883a 	mov	r6,zero
  808024:	000f883a 	mov	r7,zero
  808028:	08032600 	call	803260 <xQueueGenericSend>
  80802c:	e0fffc17 	ldw	r3,-16(fp)
  808030:	e0bff617 	ldw	r2,-40(fp)
  808034:	18800526 	beq	r3,r2,80804c <altera_avalon_jtag_uart_write+0x240>
  808038:	e0fffc17 	ldw	r3,-16(fp)
  80803c:	e0bff617 	ldw	r2,-40(fp)
  808040:	1887c83a 	sub	r3,r3,r2
  808044:	e0ffff15 	stw	r3,-4(fp)
  808048:	00000906 	br	808070 <altera_avalon_jtag_uart_write+0x264>
  80804c:	e0bffe17 	ldw	r2,-8(fp)
  808050:	1090000c 	andi	r2,r2,16384
  808054:	1005003a 	cmpeq	r2,r2,zero
  808058:	1000031e 	bne	r2,zero,808068 <altera_avalon_jtag_uart_write+0x25c>
  80805c:	00bffd44 	movi	r2,-11
  808060:	e0bfff15 	stw	r2,-4(fp)
  808064:	00000206 	br	808070 <altera_avalon_jtag_uart_write+0x264>
  808068:	00bffec4 	movi	r2,-5
  80806c:	e0bfff15 	stw	r2,-4(fp)
  808070:	e0bfff17 	ldw	r2,-4(fp)
  808074:	e037883a 	mov	sp,fp
  808078:	dfc00117 	ldw	ra,4(sp)
  80807c:	df000017 	ldw	fp,0(sp)
  808080:	dec00204 	addi	sp,sp,8
  808084:	f800283a 	ret

00808088 <alt_avalon_timer_sc_irq>:
  808088:	defffa04 	addi	sp,sp,-24
  80808c:	dfc00515 	stw	ra,20(sp)
  808090:	df000415 	stw	fp,16(sp)
  808094:	df000404 	addi	fp,sp,16
  808098:	e13fff15 	stw	r4,-4(fp)
  80809c:	e0bfff17 	ldw	r2,-4(fp)
  8080a0:	10000035 	stwio	zero,0(r2)
  8080a4:	e0bfff17 	ldw	r2,-4(fp)
  8080a8:	10800104 	addi	r2,r2,4
  8080ac:	10800037 	ldwio	r2,0(r2)
  8080b0:	0005303a 	rdctl	r2,status
  8080b4:	e0bffd15 	stw	r2,-12(fp)
  8080b8:	e0fffd17 	ldw	r3,-12(fp)
  8080bc:	00bfff84 	movi	r2,-2
  8080c0:	1884703a 	and	r2,r3,r2
  8080c4:	1001703a 	wrctl	status,r2
  8080c8:	e0bffd17 	ldw	r2,-12(fp)
  8080cc:	e0bffe15 	stw	r2,-8(fp)
  8080d0:	0808f940 	call	808f94 <alt_tick>
  8080d4:	e0bffe17 	ldw	r2,-8(fp)
  8080d8:	e0bffc15 	stw	r2,-16(fp)
  8080dc:	e0bffc17 	ldw	r2,-16(fp)
  8080e0:	1001703a 	wrctl	status,r2
  8080e4:	e037883a 	mov	sp,fp
  8080e8:	dfc00117 	ldw	ra,4(sp)
  8080ec:	df000017 	ldw	fp,0(sp)
  8080f0:	dec00204 	addi	sp,sp,8
  8080f4:	f800283a 	ret

008080f8 <alt_avalon_timer_sc_init>:
  8080f8:	defff804 	addi	sp,sp,-32
  8080fc:	dfc00715 	stw	ra,28(sp)
  808100:	df000615 	stw	fp,24(sp)
  808104:	df000604 	addi	fp,sp,24
  808108:	e13ffc15 	stw	r4,-16(fp)
  80810c:	e17ffd15 	stw	r5,-12(fp)
  808110:	e1bffe15 	stw	r6,-8(fp)
  808114:	e1ffff15 	stw	r7,-4(fp)
  808118:	e0bfff17 	ldw	r2,-4(fp)
  80811c:	e0bffb15 	stw	r2,-20(fp)
  808120:	00802074 	movhi	r2,129
  808124:	10905304 	addi	r2,r2,16716
  808128:	10800017 	ldw	r2,0(r2)
  80812c:	1004c03a 	cmpne	r2,r2,zero
  808130:	1000041e 	bne	r2,zero,808144 <alt_avalon_timer_sc_init+0x4c>
  808134:	00c02074 	movhi	r3,129
  808138:	18d05304 	addi	r3,r3,16716
  80813c:	e0bffb17 	ldw	r2,-20(fp)
  808140:	18800015 	stw	r2,0(r3)
  808144:	e0bffc17 	ldw	r2,-16(fp)
  808148:	10800104 	addi	r2,r2,4
  80814c:	1007883a 	mov	r3,r2
  808150:	008001c4 	movi	r2,7
  808154:	18800035 	stwio	r2,0(r3)
  808158:	d8000015 	stw	zero,0(sp)
  80815c:	e13ffd17 	ldw	r4,-12(fp)
  808160:	e17ffe17 	ldw	r5,-8(fp)
  808164:	01802074 	movhi	r6,129
  808168:	31a02204 	addi	r6,r6,-32632
  80816c:	e1fffc17 	ldw	r7,-16(fp)
  808170:	0808c300 	call	808c30 <alt_ic_isr_register>
  808174:	e037883a 	mov	sp,fp
  808178:	dfc00117 	ldw	ra,4(sp)
  80817c:	df000017 	ldw	fp,0(sp)
  808180:	dec00204 	addi	sp,sp,8
  808184:	f800283a 	ret

00808188 <__env_lock>:
  808188:	defffd04 	addi	sp,sp,-12
  80818c:	dfc00215 	stw	ra,8(sp)
  808190:	df000115 	stw	fp,4(sp)
  808194:	df000104 	addi	fp,sp,4
  808198:	e13fff15 	stw	r4,-4(fp)
  80819c:	08059140 	call	805914 <xTaskGetSchedulerState>
  8081a0:	1005003a 	cmpeq	r2,r2,zero
  8081a4:	1000081e 	bne	r2,zero,8081c8 <__env_lock+0x40>
  8081a8:	00000206 	br	8081b4 <__env_lock+0x2c>
  8081ac:	01000044 	movi	r4,1
  8081b0:	08042800 	call	804280 <vTaskDelay>
  8081b4:	d126c617 	ldw	r4,-25832(gp)
  8081b8:	01400284 	movi	r5,10
  8081bc:	08031640 	call	803164 <xQueueTakeMutexRecursive>
  8081c0:	10800058 	cmpnei	r2,r2,1
  8081c4:	103ff91e 	bne	r2,zero,8081ac <__env_lock+0x24>
  8081c8:	e037883a 	mov	sp,fp
  8081cc:	dfc00117 	ldw	ra,4(sp)
  8081d0:	df000017 	ldw	fp,0(sp)
  8081d4:	dec00204 	addi	sp,sp,8
  8081d8:	f800283a 	ret

008081dc <__env_unlock>:
  8081dc:	defffd04 	addi	sp,sp,-12
  8081e0:	dfc00215 	stw	ra,8(sp)
  8081e4:	df000115 	stw	fp,4(sp)
  8081e8:	df000104 	addi	fp,sp,4
  8081ec:	e13fff15 	stw	r4,-4(fp)
  8081f0:	08059140 	call	805914 <xTaskGetSchedulerState>
  8081f4:	1005003a 	cmpeq	r2,r2,zero
  8081f8:	1000021e 	bne	r2,zero,808204 <__env_unlock+0x28>
  8081fc:	d126c617 	ldw	r4,-25832(gp)
  808200:	08030d80 	call	8030d8 <xQueueGiveMutexRecursive>
  808204:	e037883a 	mov	sp,fp
  808208:	dfc00117 	ldw	ra,4(sp)
  80820c:	df000017 	ldw	fp,0(sp)
  808210:	dec00204 	addi	sp,sp,8
  808214:	f800283a 	ret

00808218 <pvPortMalloc>:
  808218:	defffc04 	addi	sp,sp,-16
  80821c:	dfc00315 	stw	ra,12(sp)
  808220:	df000215 	stw	fp,8(sp)
  808224:	df000204 	addi	fp,sp,8
  808228:	e13fff15 	stw	r4,-4(fp)
  80822c:	08049500 	call	804950 <vTaskSuspendAll>
  808230:	e13fff17 	ldw	r4,-4(fp)
  808234:	08091340 	call	809134 <malloc>
  808238:	e0bffe15 	stw	r2,-8(fp)
  80823c:	08049780 	call	804978 <xTaskResumeAll>
  808240:	e0bffe17 	ldw	r2,-8(fp)
  808244:	e037883a 	mov	sp,fp
  808248:	dfc00117 	ldw	ra,4(sp)
  80824c:	df000017 	ldw	fp,0(sp)
  808250:	dec00204 	addi	sp,sp,8
  808254:	f800283a 	ret

00808258 <vPortFree>:
  808258:	defffd04 	addi	sp,sp,-12
  80825c:	dfc00215 	stw	ra,8(sp)
  808260:	df000115 	stw	fp,4(sp)
  808264:	df000104 	addi	fp,sp,4
  808268:	e13fff15 	stw	r4,-4(fp)
  80826c:	e0bfff17 	ldw	r2,-4(fp)
  808270:	1005003a 	cmpeq	r2,r2,zero
  808274:	1000041e 	bne	r2,zero,808288 <vPortFree+0x30>
  808278:	08049500 	call	804950 <vTaskSuspendAll>
  80827c:	e13fff17 	ldw	r4,-4(fp)
  808280:	08091200 	call	809120 <free>
  808284:	08049780 	call	804978 <xTaskResumeAll>
  808288:	e037883a 	mov	sp,fp
  80828c:	dfc00117 	ldw	ra,4(sp)
  808290:	df000017 	ldw	fp,0(sp)
  808294:	dec00204 	addi	sp,sp,8
  808298:	f800283a 	ret

0080829c <vListInitialise>:
  80829c:	defffe04 	addi	sp,sp,-8
  8082a0:	df000115 	stw	fp,4(sp)
  8082a4:	df000104 	addi	fp,sp,4
  8082a8:	e13fff15 	stw	r4,-4(fp)
  8082ac:	e0bfff17 	ldw	r2,-4(fp)
  8082b0:	10800204 	addi	r2,r2,8
  8082b4:	1007883a 	mov	r3,r2
  8082b8:	e0bfff17 	ldw	r2,-4(fp)
  8082bc:	10c00115 	stw	r3,4(r2)
  8082c0:	e0ffff17 	ldw	r3,-4(fp)
  8082c4:	00bfffc4 	movi	r2,-1
  8082c8:	18800215 	stw	r2,8(r3)
  8082cc:	e0bfff17 	ldw	r2,-4(fp)
  8082d0:	10800204 	addi	r2,r2,8
  8082d4:	1007883a 	mov	r3,r2
  8082d8:	e0bfff17 	ldw	r2,-4(fp)
  8082dc:	10c00315 	stw	r3,12(r2)
  8082e0:	e0bfff17 	ldw	r2,-4(fp)
  8082e4:	10800204 	addi	r2,r2,8
  8082e8:	1007883a 	mov	r3,r2
  8082ec:	e0bfff17 	ldw	r2,-4(fp)
  8082f0:	10c00415 	stw	r3,16(r2)
  8082f4:	e0bfff17 	ldw	r2,-4(fp)
  8082f8:	10000015 	stw	zero,0(r2)
  8082fc:	e037883a 	mov	sp,fp
  808300:	df000017 	ldw	fp,0(sp)
  808304:	dec00104 	addi	sp,sp,4
  808308:	f800283a 	ret

0080830c <vListInitialiseItem>:
  80830c:	defffe04 	addi	sp,sp,-8
  808310:	df000115 	stw	fp,4(sp)
  808314:	df000104 	addi	fp,sp,4
  808318:	e13fff15 	stw	r4,-4(fp)
  80831c:	e0bfff17 	ldw	r2,-4(fp)
  808320:	10000415 	stw	zero,16(r2)
  808324:	e037883a 	mov	sp,fp
  808328:	df000017 	ldw	fp,0(sp)
  80832c:	dec00104 	addi	sp,sp,4
  808330:	f800283a 	ret

00808334 <vListInsertEnd>:
  808334:	defffc04 	addi	sp,sp,-16
  808338:	df000315 	stw	fp,12(sp)
  80833c:	df000304 	addi	fp,sp,12
  808340:	e13ffe15 	stw	r4,-8(fp)
  808344:	e17fff15 	stw	r5,-4(fp)
  808348:	e0bffe17 	ldw	r2,-8(fp)
  80834c:	10800117 	ldw	r2,4(r2)
  808350:	e0bffd15 	stw	r2,-12(fp)
  808354:	e0bffd17 	ldw	r2,-12(fp)
  808358:	10c00117 	ldw	r3,4(r2)
  80835c:	e0bfff17 	ldw	r2,-4(fp)
  808360:	10c00115 	stw	r3,4(r2)
  808364:	e0bffe17 	ldw	r2,-8(fp)
  808368:	10c00117 	ldw	r3,4(r2)
  80836c:	e0bfff17 	ldw	r2,-4(fp)
  808370:	10c00215 	stw	r3,8(r2)
  808374:	e0bffd17 	ldw	r2,-12(fp)
  808378:	10c00117 	ldw	r3,4(r2)
  80837c:	e0bfff17 	ldw	r2,-4(fp)
  808380:	18800215 	stw	r2,8(r3)
  808384:	e0ffff17 	ldw	r3,-4(fp)
  808388:	e0bffd17 	ldw	r2,-12(fp)
  80838c:	10c00115 	stw	r3,4(r2)
  808390:	e0ffff17 	ldw	r3,-4(fp)
  808394:	e0bffe17 	ldw	r2,-8(fp)
  808398:	10c00115 	stw	r3,4(r2)
  80839c:	e0ffff17 	ldw	r3,-4(fp)
  8083a0:	e0bffe17 	ldw	r2,-8(fp)
  8083a4:	18800415 	stw	r2,16(r3)
  8083a8:	e0bffe17 	ldw	r2,-8(fp)
  8083ac:	10800017 	ldw	r2,0(r2)
  8083b0:	10c00044 	addi	r3,r2,1
  8083b4:	e0bffe17 	ldw	r2,-8(fp)
  8083b8:	10c00015 	stw	r3,0(r2)
  8083bc:	e037883a 	mov	sp,fp
  8083c0:	df000017 	ldw	fp,0(sp)
  8083c4:	dec00104 	addi	sp,sp,4
  8083c8:	f800283a 	ret

008083cc <vListInsert>:
  8083cc:	defffb04 	addi	sp,sp,-20
  8083d0:	df000415 	stw	fp,16(sp)
  8083d4:	df000404 	addi	fp,sp,16
  8083d8:	e13ffe15 	stw	r4,-8(fp)
  8083dc:	e17fff15 	stw	r5,-4(fp)
  8083e0:	e0bfff17 	ldw	r2,-4(fp)
  8083e4:	10800017 	ldw	r2,0(r2)
  8083e8:	e0bffc15 	stw	r2,-16(fp)
  8083ec:	e0bffc17 	ldw	r2,-16(fp)
  8083f0:	10bfffd8 	cmpnei	r2,r2,-1
  8083f4:	1000041e 	bne	r2,zero,808408 <vListInsert+0x3c>
  8083f8:	e0bffe17 	ldw	r2,-8(fp)
  8083fc:	10800417 	ldw	r2,16(r2)
  808400:	e0bffd15 	stw	r2,-12(fp)
  808404:	00000c06 	br	808438 <vListInsert+0x6c>
  808408:	e0bffe17 	ldw	r2,-8(fp)
  80840c:	10800204 	addi	r2,r2,8
  808410:	e0bffd15 	stw	r2,-12(fp)
  808414:	00000306 	br	808424 <vListInsert+0x58>
  808418:	e0bffd17 	ldw	r2,-12(fp)
  80841c:	10800117 	ldw	r2,4(r2)
  808420:	e0bffd15 	stw	r2,-12(fp)
  808424:	e0bffd17 	ldw	r2,-12(fp)
  808428:	10800117 	ldw	r2,4(r2)
  80842c:	10c00017 	ldw	r3,0(r2)
  808430:	e0bffc17 	ldw	r2,-16(fp)
  808434:	10fff82e 	bgeu	r2,r3,808418 <vListInsert+0x4c>
  808438:	e0bffd17 	ldw	r2,-12(fp)
  80843c:	10c00117 	ldw	r3,4(r2)
  808440:	e0bfff17 	ldw	r2,-4(fp)
  808444:	10c00115 	stw	r3,4(r2)
  808448:	e0bfff17 	ldw	r2,-4(fp)
  80844c:	10c00117 	ldw	r3,4(r2)
  808450:	e0bfff17 	ldw	r2,-4(fp)
  808454:	18800215 	stw	r2,8(r3)
  808458:	e0ffff17 	ldw	r3,-4(fp)
  80845c:	e0bffd17 	ldw	r2,-12(fp)
  808460:	18800215 	stw	r2,8(r3)
  808464:	e0ffff17 	ldw	r3,-4(fp)
  808468:	e0bffd17 	ldw	r2,-12(fp)
  80846c:	10c00115 	stw	r3,4(r2)
  808470:	e0ffff17 	ldw	r3,-4(fp)
  808474:	e0bffe17 	ldw	r2,-8(fp)
  808478:	18800415 	stw	r2,16(r3)
  80847c:	e0bffe17 	ldw	r2,-8(fp)
  808480:	10800017 	ldw	r2,0(r2)
  808484:	10c00044 	addi	r3,r2,1
  808488:	e0bffe17 	ldw	r2,-8(fp)
  80848c:	10c00015 	stw	r3,0(r2)
  808490:	e037883a 	mov	sp,fp
  808494:	df000017 	ldw	fp,0(sp)
  808498:	dec00104 	addi	sp,sp,4
  80849c:	f800283a 	ret

008084a0 <uxListRemove>:
  8084a0:	defffd04 	addi	sp,sp,-12
  8084a4:	df000215 	stw	fp,8(sp)
  8084a8:	df000204 	addi	fp,sp,8
  8084ac:	e13fff15 	stw	r4,-4(fp)
  8084b0:	e0bfff17 	ldw	r2,-4(fp)
  8084b4:	10c00117 	ldw	r3,4(r2)
  8084b8:	e0bfff17 	ldw	r2,-4(fp)
  8084bc:	10800217 	ldw	r2,8(r2)
  8084c0:	18800215 	stw	r2,8(r3)
  8084c4:	e0bfff17 	ldw	r2,-4(fp)
  8084c8:	10c00217 	ldw	r3,8(r2)
  8084cc:	e0bfff17 	ldw	r2,-4(fp)
  8084d0:	10800117 	ldw	r2,4(r2)
  8084d4:	18800115 	stw	r2,4(r3)
  8084d8:	e0bfff17 	ldw	r2,-4(fp)
  8084dc:	10800417 	ldw	r2,16(r2)
  8084e0:	e0bffe15 	stw	r2,-8(fp)
  8084e4:	e0bffe17 	ldw	r2,-8(fp)
  8084e8:	10c00117 	ldw	r3,4(r2)
  8084ec:	e0bfff17 	ldw	r2,-4(fp)
  8084f0:	1880041e 	bne	r3,r2,808504 <uxListRemove+0x64>
  8084f4:	e0bfff17 	ldw	r2,-4(fp)
  8084f8:	10c00217 	ldw	r3,8(r2)
  8084fc:	e0bffe17 	ldw	r2,-8(fp)
  808500:	10c00115 	stw	r3,4(r2)
  808504:	e0bfff17 	ldw	r2,-4(fp)
  808508:	10000415 	stw	zero,16(r2)
  80850c:	e0bffe17 	ldw	r2,-8(fp)
  808510:	10800017 	ldw	r2,0(r2)
  808514:	10ffffc4 	addi	r3,r2,-1
  808518:	e0bffe17 	ldw	r2,-8(fp)
  80851c:	10c00015 	stw	r3,0(r2)
  808520:	e0bffe17 	ldw	r2,-8(fp)
  808524:	10800017 	ldw	r2,0(r2)
  808528:	e037883a 	mov	sp,fp
  80852c:	df000017 	ldw	fp,0(sp)
  808530:	dec00104 	addi	sp,sp,4
  808534:	f800283a 	ret

00808538 <pxPortInitialiseStack>:
  808538:	defff904 	addi	sp,sp,-28
  80853c:	dfc00615 	stw	ra,24(sp)
  808540:	df000515 	stw	fp,20(sp)
  808544:	df000504 	addi	fp,sp,20
  808548:	e13ffd15 	stw	r4,-12(fp)
  80854c:	e17ffe15 	stw	r5,-8(fp)
  808550:	e1bfff15 	stw	r6,-4(fp)
  808554:	e0bffd17 	ldw	r2,-12(fp)
  808558:	10bfff04 	addi	r2,r2,-4
  80855c:	e0bffb15 	stw	r2,-20(fp)
  808560:	e13ffc04 	addi	r4,fp,-16
  808564:	08086200 	call	808620 <prvReadGp>
  808568:	e0fffd17 	ldw	r3,-12(fp)
  80856c:	00b7abb4 	movhi	r2,57006
  808570:	10afbbc4 	addi	r2,r2,-16657
  808574:	18800015 	stw	r2,0(r3)
  808578:	e0bffd17 	ldw	r2,-12(fp)
  80857c:	10bfff04 	addi	r2,r2,-4
  808580:	e0bffd15 	stw	r2,-12(fp)
  808584:	e0bffb17 	ldw	r2,-20(fp)
  808588:	1007883a 	mov	r3,r2
  80858c:	e0bffd17 	ldw	r2,-12(fp)
  808590:	10c00015 	stw	r3,0(r2)
  808594:	e0bffd17 	ldw	r2,-12(fp)
  808598:	10bfff04 	addi	r2,r2,-4
  80859c:	e0bffd15 	stw	r2,-12(fp)
  8085a0:	e0fffc17 	ldw	r3,-16(fp)
  8085a4:	e0bffd17 	ldw	r2,-12(fp)
  8085a8:	10c00015 	stw	r3,0(r2)
  8085ac:	e0bffd17 	ldw	r2,-12(fp)
  8085b0:	10bff704 	addi	r2,r2,-36
  8085b4:	e0bffd15 	stw	r2,-12(fp)
  8085b8:	e0bffe17 	ldw	r2,-8(fp)
  8085bc:	1007883a 	mov	r3,r2
  8085c0:	e0bffd17 	ldw	r2,-12(fp)
  8085c4:	10c00015 	stw	r3,0(r2)
  8085c8:	e0bffd17 	ldw	r2,-12(fp)
  8085cc:	10bfff04 	addi	r2,r2,-4
  8085d0:	e0bffd15 	stw	r2,-12(fp)
  8085d4:	e0fffd17 	ldw	r3,-12(fp)
  8085d8:	00800044 	movi	r2,1
  8085dc:	18800015 	stw	r2,0(r3)
  8085e0:	e0bffd17 	ldw	r2,-12(fp)
  8085e4:	10bff404 	addi	r2,r2,-48
  8085e8:	e0bffd15 	stw	r2,-12(fp)
  8085ec:	e0bfff17 	ldw	r2,-4(fp)
  8085f0:	1007883a 	mov	r3,r2
  8085f4:	e0bffd17 	ldw	r2,-12(fp)
  8085f8:	10c00015 	stw	r3,0(r2)
  8085fc:	e0bffd17 	ldw	r2,-12(fp)
  808600:	10bffb04 	addi	r2,r2,-20
  808604:	e0bffd15 	stw	r2,-12(fp)
  808608:	e0bffd17 	ldw	r2,-12(fp)
  80860c:	e037883a 	mov	sp,fp
  808610:	dfc00117 	ldw	ra,4(sp)
  808614:	df000017 	ldw	fp,0(sp)
  808618:	dec00204 	addi	sp,sp,8
  80861c:	f800283a 	ret

00808620 <prvReadGp>:
  808620:	defffe04 	addi	sp,sp,-8
  808624:	df000115 	stw	fp,4(sp)
  808628:	df000104 	addi	fp,sp,4
  80862c:	e13fff15 	stw	r4,-4(fp)
  808630:	e0bfff17 	ldw	r2,-4(fp)
  808634:	16800015 	stw	gp,0(r2)
  808638:	e037883a 	mov	sp,fp
  80863c:	df000017 	ldw	fp,0(sp)
  808640:	dec00104 	addi	sp,sp,4
  808644:	f800283a 	ret

00808648 <xPortStartScheduler>:
  808648:	deffff04 	addi	sp,sp,-4
  80864c:	df000015 	stw	fp,0(sp)
  808650:	d839883a 	mov	fp,sp
  808654:	00802034 	movhi	r2,128
  808658:	10803604 	addi	r2,r2,216
  80865c:	1000683a 	jmp	r2
  808660:	0005883a 	mov	r2,zero
  808664:	e037883a 	mov	sp,fp
  808668:	df000017 	ldw	fp,0(sp)
  80866c:	dec00104 	addi	sp,sp,4
  808670:	f800283a 	ret

00808674 <vPortEndScheduler>:
  808674:	deffff04 	addi	sp,sp,-4
  808678:	df000015 	stw	fp,0(sp)
  80867c:	d839883a 	mov	fp,sp
  808680:	e037883a 	mov	sp,fp
  808684:	df000017 	ldw	fp,0(sp)
  808688:	dec00104 	addi	sp,sp,4
  80868c:	f800283a 	ret

00808690 <vPortSysTickHandler>:
  808690:	defffe04 	addi	sp,sp,-8
  808694:	dfc00115 	stw	ra,4(sp)
  808698:	df000015 	stw	fp,0(sp)
  80869c:	d839883a 	mov	fp,sp
  8086a0:	08059140 	call	805914 <xTaskGetSchedulerState>
  8086a4:	1005003a 	cmpeq	r2,r2,zero
  8086a8:	1000021e 	bne	r2,zero,8086b4 <vPortSysTickHandler+0x24>
  8086ac:	0804cf80 	call	804cf8 <vTaskIncrementTick>
  8086b0:	0804e780 	call	804e78 <vTaskSwitchContext>
  8086b4:	e037883a 	mov	sp,fp
  8086b8:	dfc00117 	ldw	ra,4(sp)
  8086bc:	df000017 	ldw	fp,0(sp)
  8086c0:	dec00204 	addi	sp,sp,8
  8086c4:	f800283a 	ret

008086c8 <alt_alarm_start>:
  8086c8:	defff404 	addi	sp,sp,-48
  8086cc:	df000b15 	stw	fp,44(sp)
  8086d0:	df000b04 	addi	fp,sp,44
  8086d4:	e13ffb15 	stw	r4,-20(fp)
  8086d8:	e17ffc15 	stw	r5,-16(fp)
  8086dc:	e1bffd15 	stw	r6,-12(fp)
  8086e0:	e1fffe15 	stw	r7,-8(fp)
  8086e4:	e03ff915 	stw	zero,-28(fp)
  8086e8:	00802074 	movhi	r2,129
  8086ec:	10905304 	addi	r2,r2,16716
  8086f0:	10800017 	ldw	r2,0(r2)
  8086f4:	1005003a 	cmpeq	r2,r2,zero
  8086f8:	1000411e 	bne	r2,zero,808800 <alt_alarm_start+0x138>
  8086fc:	e0bffb17 	ldw	r2,-20(fp)
  808700:	1005003a 	cmpeq	r2,r2,zero
  808704:	10003b1e 	bne	r2,zero,8087f4 <alt_alarm_start+0x12c>
  808708:	e0fffb17 	ldw	r3,-20(fp)
  80870c:	e0bffd17 	ldw	r2,-12(fp)
  808710:	18800315 	stw	r2,12(r3)
  808714:	e0fffb17 	ldw	r3,-20(fp)
  808718:	e0bffe17 	ldw	r2,-8(fp)
  80871c:	18800515 	stw	r2,20(r3)
  808720:	0005303a 	rdctl	r2,status
  808724:	e0bff815 	stw	r2,-32(fp)
  808728:	e0fff817 	ldw	r3,-32(fp)
  80872c:	00bfff84 	movi	r2,-2
  808730:	1884703a 	and	r2,r3,r2
  808734:	1001703a 	wrctl	status,r2
  808738:	e0bff817 	ldw	r2,-32(fp)
  80873c:	e0bffa15 	stw	r2,-24(fp)
  808740:	00802074 	movhi	r2,129
  808744:	10905404 	addi	r2,r2,16720
  808748:	10800017 	ldw	r2,0(r2)
  80874c:	e0bff915 	stw	r2,-28(fp)
  808750:	e0fffc17 	ldw	r3,-16(fp)
  808754:	e0bff917 	ldw	r2,-28(fp)
  808758:	1885883a 	add	r2,r3,r2
  80875c:	10c00044 	addi	r3,r2,1
  808760:	e0bffb17 	ldw	r2,-20(fp)
  808764:	10c00215 	stw	r3,8(r2)
  808768:	e0bffb17 	ldw	r2,-20(fp)
  80876c:	10c00217 	ldw	r3,8(r2)
  808770:	e0bff917 	ldw	r2,-28(fp)
  808774:	1880042e 	bgeu	r3,r2,808788 <alt_alarm_start+0xc0>
  808778:	e0fffb17 	ldw	r3,-20(fp)
  80877c:	00800044 	movi	r2,1
  808780:	18800405 	stb	r2,16(r3)
  808784:	00000206 	br	808790 <alt_alarm_start+0xc8>
  808788:	e0bffb17 	ldw	r2,-20(fp)
  80878c:	10000405 	stb	zero,16(r2)
  808790:	e0fffb17 	ldw	r3,-20(fp)
  808794:	00802074 	movhi	r2,129
  808798:	10899804 	addi	r2,r2,9824
  80879c:	e0bff615 	stw	r2,-40(fp)
  8087a0:	e0fff715 	stw	r3,-36(fp)
  8087a4:	e0fff717 	ldw	r3,-36(fp)
  8087a8:	e0bff617 	ldw	r2,-40(fp)
  8087ac:	18800115 	stw	r2,4(r3)
  8087b0:	e0bff617 	ldw	r2,-40(fp)
  8087b4:	10c00017 	ldw	r3,0(r2)
  8087b8:	e0bff717 	ldw	r2,-36(fp)
  8087bc:	10c00015 	stw	r3,0(r2)
  8087c0:	e0bff617 	ldw	r2,-40(fp)
  8087c4:	10c00017 	ldw	r3,0(r2)
  8087c8:	e0bff717 	ldw	r2,-36(fp)
  8087cc:	18800115 	stw	r2,4(r3)
  8087d0:	e0fff617 	ldw	r3,-40(fp)
  8087d4:	e0bff717 	ldw	r2,-36(fp)
  8087d8:	18800015 	stw	r2,0(r3)
  8087dc:	e0bffa17 	ldw	r2,-24(fp)
  8087e0:	e0bff515 	stw	r2,-44(fp)
  8087e4:	e0bff517 	ldw	r2,-44(fp)
  8087e8:	1001703a 	wrctl	status,r2
  8087ec:	e03fff15 	stw	zero,-4(fp)
  8087f0:	00000506 	br	808808 <alt_alarm_start+0x140>
  8087f4:	00bffa84 	movi	r2,-22
  8087f8:	e0bfff15 	stw	r2,-4(fp)
  8087fc:	00000206 	br	808808 <alt_alarm_start+0x140>
  808800:	00bfde84 	movi	r2,-134
  808804:	e0bfff15 	stw	r2,-4(fp)
  808808:	e0bfff17 	ldw	r2,-4(fp)
  80880c:	e037883a 	mov	sp,fp
  808810:	df000017 	ldw	fp,0(sp)
  808814:	dec00104 	addi	sp,sp,4
  808818:	f800283a 	ret

0080881c <alt_dcache_flush_all>:
  80881c:	deffff04 	addi	sp,sp,-4
  808820:	df000015 	stw	fp,0(sp)
  808824:	d839883a 	mov	fp,sp
  808828:	e037883a 	mov	sp,fp
  80882c:	df000017 	ldw	fp,0(sp)
  808830:	dec00104 	addi	sp,sp,4
  808834:	f800283a 	ret

00808838 <alt_dev_llist_insert>:
  808838:	defff904 	addi	sp,sp,-28
  80883c:	dfc00615 	stw	ra,24(sp)
  808840:	df000515 	stw	fp,20(sp)
  808844:	df000504 	addi	fp,sp,20
  808848:	e13ffd15 	stw	r4,-12(fp)
  80884c:	e17ffe15 	stw	r5,-8(fp)
  808850:	e0bffd17 	ldw	r2,-12(fp)
  808854:	1005003a 	cmpeq	r2,r2,zero
  808858:	1000041e 	bne	r2,zero,80886c <alt_dev_llist_insert+0x34>
  80885c:	e0bffd17 	ldw	r2,-12(fp)
  808860:	10800217 	ldw	r2,8(r2)
  808864:	1004c03a 	cmpne	r2,r2,zero
  808868:	1000071e 	bne	r2,zero,808888 <alt_dev_llist_insert+0x50>
  80886c:	08088ec0 	call	8088ec <alt_get_errno>
  808870:	1007883a 	mov	r3,r2
  808874:	00800584 	movi	r2,22
  808878:	18800015 	stw	r2,0(r3)
  80887c:	00bffa84 	movi	r2,-22
  808880:	e0bfff15 	stw	r2,-4(fp)
  808884:	00001306 	br	8088d4 <alt_dev_llist_insert+0x9c>
  808888:	e0fffd17 	ldw	r3,-12(fp)
  80888c:	e0bffe17 	ldw	r2,-8(fp)
  808890:	e0bffb15 	stw	r2,-20(fp)
  808894:	e0fffc15 	stw	r3,-16(fp)
  808898:	e0fffc17 	ldw	r3,-16(fp)
  80889c:	e0bffb17 	ldw	r2,-20(fp)
  8088a0:	18800115 	stw	r2,4(r3)
  8088a4:	e0bffb17 	ldw	r2,-20(fp)
  8088a8:	10c00017 	ldw	r3,0(r2)
  8088ac:	e0bffc17 	ldw	r2,-16(fp)
  8088b0:	10c00015 	stw	r3,0(r2)
  8088b4:	e0bffb17 	ldw	r2,-20(fp)
  8088b8:	10c00017 	ldw	r3,0(r2)
  8088bc:	e0bffc17 	ldw	r2,-16(fp)
  8088c0:	18800115 	stw	r2,4(r3)
  8088c4:	e0fffb17 	ldw	r3,-20(fp)
  8088c8:	e0bffc17 	ldw	r2,-16(fp)
  8088cc:	18800015 	stw	r2,0(r3)
  8088d0:	e03fff15 	stw	zero,-4(fp)
  8088d4:	e0bfff17 	ldw	r2,-4(fp)
  8088d8:	e037883a 	mov	sp,fp
  8088dc:	dfc00117 	ldw	ra,4(sp)
  8088e0:	df000017 	ldw	fp,0(sp)
  8088e4:	dec00204 	addi	sp,sp,8
  8088e8:	f800283a 	ret

008088ec <alt_get_errno>:
  8088ec:	defffd04 	addi	sp,sp,-12
  8088f0:	dfc00215 	stw	ra,8(sp)
  8088f4:	df000115 	stw	fp,4(sp)
  8088f8:	df000104 	addi	fp,sp,4
  8088fc:	00802074 	movhi	r2,129
  808900:	10899504 	addi	r2,r2,9812
  808904:	10800017 	ldw	r2,0(r2)
  808908:	1005003a 	cmpeq	r2,r2,zero
  80890c:	1000061e 	bne	r2,zero,808928 <alt_get_errno+0x3c>
  808910:	00802074 	movhi	r2,129
  808914:	10899504 	addi	r2,r2,9812
  808918:	10800017 	ldw	r2,0(r2)
  80891c:	103ee83a 	callr	r2
  808920:	e0bfff15 	stw	r2,-4(fp)
  808924:	00000306 	br	808934 <alt_get_errno+0x48>
  808928:	00802074 	movhi	r2,129
  80892c:	10903904 	addi	r2,r2,16612
  808930:	e0bfff15 	stw	r2,-4(fp)
  808934:	e0bfff17 	ldw	r2,-4(fp)
  808938:	e037883a 	mov	sp,fp
  80893c:	dfc00117 	ldw	ra,4(sp)
  808940:	df000017 	ldw	fp,0(sp)
  808944:	dec00204 	addi	sp,sp,8
  808948:	f800283a 	ret

0080894c <alt_find_dev>:
  80894c:	defff904 	addi	sp,sp,-28
  808950:	dfc00615 	stw	ra,24(sp)
  808954:	df000515 	stw	fp,20(sp)
  808958:	df000504 	addi	fp,sp,20
  80895c:	e13ffd15 	stw	r4,-12(fp)
  808960:	e17ffe15 	stw	r5,-8(fp)
  808964:	e0bffe17 	ldw	r2,-8(fp)
  808968:	10800017 	ldw	r2,0(r2)
  80896c:	e0bffc15 	stw	r2,-16(fp)
  808970:	e13ffd17 	ldw	r4,-12(fp)
  808974:	08003840 	call	800384 <strlen>
  808978:	10800044 	addi	r2,r2,1
  80897c:	e0bffb15 	stw	r2,-20(fp)
  808980:	00000d06 	br	8089b8 <alt_find_dev+0x6c>
  808984:	e0bffc17 	ldw	r2,-16(fp)
  808988:	11000217 	ldw	r4,8(r2)
  80898c:	e1bffb17 	ldw	r6,-20(fp)
  808990:	e17ffd17 	ldw	r5,-12(fp)
  808994:	08091480 	call	809148 <memcmp>
  808998:	1004c03a 	cmpne	r2,r2,zero
  80899c:	1000031e 	bne	r2,zero,8089ac <alt_find_dev+0x60>
  8089a0:	e0bffc17 	ldw	r2,-16(fp)
  8089a4:	e0bfff15 	stw	r2,-4(fp)
  8089a8:	00000706 	br	8089c8 <alt_find_dev+0x7c>
  8089ac:	e0bffc17 	ldw	r2,-16(fp)
  8089b0:	10800017 	ldw	r2,0(r2)
  8089b4:	e0bffc15 	stw	r2,-16(fp)
  8089b8:	e0fffe17 	ldw	r3,-8(fp)
  8089bc:	e0bffc17 	ldw	r2,-16(fp)
  8089c0:	10fff01e 	bne	r2,r3,808984 <alt_find_dev+0x38>
  8089c4:	e03fff15 	stw	zero,-4(fp)
  8089c8:	e0bfff17 	ldw	r2,-4(fp)
  8089cc:	e037883a 	mov	sp,fp
  8089d0:	dfc00117 	ldw	ra,4(sp)
  8089d4:	df000017 	ldw	fp,0(sp)
  8089d8:	dec00204 	addi	sp,sp,8
  8089dc:	f800283a 	ret

008089e0 <alt_find_file>:
  8089e0:	defffa04 	addi	sp,sp,-24
  8089e4:	dfc00515 	stw	ra,20(sp)
  8089e8:	df000415 	stw	fp,16(sp)
  8089ec:	df000404 	addi	fp,sp,16
  8089f0:	e13ffe15 	stw	r4,-8(fp)
  8089f4:	00802074 	movhi	r2,129
  8089f8:	10899004 	addi	r2,r2,9792
  8089fc:	10800017 	ldw	r2,0(r2)
  808a00:	e0bffd15 	stw	r2,-12(fp)
  808a04:	00003306 	br	808ad4 <alt_find_file+0xf4>
  808a08:	e0bffd17 	ldw	r2,-12(fp)
  808a0c:	11000217 	ldw	r4,8(r2)
  808a10:	08003840 	call	800384 <strlen>
  808a14:	e0bffc15 	stw	r2,-16(fp)
  808a18:	e0bffd17 	ldw	r2,-12(fp)
  808a1c:	10c00217 	ldw	r3,8(r2)
  808a20:	e0bffc17 	ldw	r2,-16(fp)
  808a24:	1885883a 	add	r2,r3,r2
  808a28:	10bfffc4 	addi	r2,r2,-1
  808a2c:	10800003 	ldbu	r2,0(r2)
  808a30:	10803fcc 	andi	r2,r2,255
  808a34:	1080201c 	xori	r2,r2,128
  808a38:	10bfe004 	addi	r2,r2,-128
  808a3c:	10800bd8 	cmpnei	r2,r2,47
  808a40:	1000031e 	bne	r2,zero,808a50 <alt_find_file+0x70>
  808a44:	e0bffc17 	ldw	r2,-16(fp)
  808a48:	10bfffc4 	addi	r2,r2,-1
  808a4c:	e0bffc15 	stw	r2,-16(fp)
  808a50:	e0bffc17 	ldw	r2,-16(fp)
  808a54:	1007883a 	mov	r3,r2
  808a58:	e0bffe17 	ldw	r2,-8(fp)
  808a5c:	1885883a 	add	r2,r3,r2
  808a60:	10800003 	ldbu	r2,0(r2)
  808a64:	10803fcc 	andi	r2,r2,255
  808a68:	1080201c 	xori	r2,r2,128
  808a6c:	10bfe004 	addi	r2,r2,-128
  808a70:	10800be0 	cmpeqi	r2,r2,47
  808a74:	10000a1e 	bne	r2,zero,808aa0 <alt_find_file+0xc0>
  808a78:	e0bffc17 	ldw	r2,-16(fp)
  808a7c:	1007883a 	mov	r3,r2
  808a80:	e0bffe17 	ldw	r2,-8(fp)
  808a84:	1885883a 	add	r2,r3,r2
  808a88:	10800003 	ldbu	r2,0(r2)
  808a8c:	10803fcc 	andi	r2,r2,255
  808a90:	1080201c 	xori	r2,r2,128
  808a94:	10bfe004 	addi	r2,r2,-128
  808a98:	1004c03a 	cmpne	r2,r2,zero
  808a9c:	10000a1e 	bne	r2,zero,808ac8 <alt_find_file+0xe8>
  808aa0:	e0bffd17 	ldw	r2,-12(fp)
  808aa4:	11000217 	ldw	r4,8(r2)
  808aa8:	e1bffc17 	ldw	r6,-16(fp)
  808aac:	e17ffe17 	ldw	r5,-8(fp)
  808ab0:	08091480 	call	809148 <memcmp>
  808ab4:	1004c03a 	cmpne	r2,r2,zero
  808ab8:	1000031e 	bne	r2,zero,808ac8 <alt_find_file+0xe8>
  808abc:	e0bffd17 	ldw	r2,-12(fp)
  808ac0:	e0bfff15 	stw	r2,-4(fp)
  808ac4:	00000806 	br	808ae8 <alt_find_file+0x108>
  808ac8:	e0bffd17 	ldw	r2,-12(fp)
  808acc:	10800017 	ldw	r2,0(r2)
  808ad0:	e0bffd15 	stw	r2,-12(fp)
  808ad4:	00c02074 	movhi	r3,129
  808ad8:	18c99004 	addi	r3,r3,9792
  808adc:	e0bffd17 	ldw	r2,-12(fp)
  808ae0:	10ffc91e 	bne	r2,r3,808a08 <alt_find_file+0x28>
  808ae4:	e03fff15 	stw	zero,-4(fp)
  808ae8:	e0bfff17 	ldw	r2,-4(fp)
  808aec:	e037883a 	mov	sp,fp
  808af0:	dfc00117 	ldw	ra,4(sp)
  808af4:	df000017 	ldw	fp,0(sp)
  808af8:	dec00204 	addi	sp,sp,8
  808afc:	f800283a 	ret

00808b00 <alt_get_fd>:
  808b00:	defff804 	addi	sp,sp,-32
  808b04:	dfc00715 	stw	ra,28(sp)
  808b08:	df000615 	stw	fp,24(sp)
  808b0c:	dc000515 	stw	r16,20(sp)
  808b10:	df000504 	addi	fp,sp,20
  808b14:	e13fff15 	stw	r4,-4(fp)
  808b18:	00bffa04 	movi	r2,-24
  808b1c:	e0bffd15 	stw	r2,-12(fp)
  808b20:	00802074 	movhi	r2,129
  808b24:	10905004 	addi	r2,r2,16704
  808b28:	10800017 	ldw	r2,0(r2)
  808b2c:	e0bffb15 	stw	r2,-20(fp)
  808b30:	e03ffc0d 	sth	zero,-16(fp)
  808b34:	e1bffc0b 	ldhu	r6,-16(fp)
  808b38:	e13ffb17 	ldw	r4,-20(fp)
  808b3c:	000b883a 	mov	r5,zero
  808b40:	000f883a 	mov	r7,zero
  808b44:	08035000 	call	803500 <xQueueGenericReceive>
  808b48:	e03ffe15 	stw	zero,-8(fp)
  808b4c:	00002006 	br	808bd0 <alt_get_fd+0xd0>
  808b50:	e13ffe17 	ldw	r4,-8(fp)
  808b54:	04002074 	movhi	r16,129
  808b58:	84050e04 	addi	r16,r16,5176
  808b5c:	01400304 	movi	r5,12
  808b60:	0802c140 	call	802c14 <__mulsi3>
  808b64:	1405883a 	add	r2,r2,r16
  808b68:	10800017 	ldw	r2,0(r2)
  808b6c:	1004c03a 	cmpne	r2,r2,zero
  808b70:	1000141e 	bne	r2,zero,808bc4 <alt_get_fd+0xc4>
  808b74:	e13ffe17 	ldw	r4,-8(fp)
  808b78:	04002074 	movhi	r16,129
  808b7c:	84050e04 	addi	r16,r16,5176
  808b80:	01400304 	movi	r5,12
  808b84:	0802c140 	call	802c14 <__mulsi3>
  808b88:	1407883a 	add	r3,r2,r16
  808b8c:	e0bfff17 	ldw	r2,-4(fp)
  808b90:	18800015 	stw	r2,0(r3)
  808b94:	00802074 	movhi	r2,129
  808b98:	10899404 	addi	r2,r2,9808
  808b9c:	10c00017 	ldw	r3,0(r2)
  808ba0:	e0bffe17 	ldw	r2,-8(fp)
  808ba4:	1880040e 	bge	r3,r2,808bb8 <alt_get_fd+0xb8>
  808ba8:	00c02074 	movhi	r3,129
  808bac:	18c99404 	addi	r3,r3,9808
  808bb0:	e0bffe17 	ldw	r2,-8(fp)
  808bb4:	18800015 	stw	r2,0(r3)
  808bb8:	e0bffe17 	ldw	r2,-8(fp)
  808bbc:	e0bffd15 	stw	r2,-12(fp)
  808bc0:	00000606 	br	808bdc <alt_get_fd+0xdc>
  808bc4:	e0bffe17 	ldw	r2,-8(fp)
  808bc8:	10800044 	addi	r2,r2,1
  808bcc:	e0bffe15 	stw	r2,-8(fp)
  808bd0:	e0bffe17 	ldw	r2,-8(fp)
  808bd4:	10800810 	cmplti	r2,r2,32
  808bd8:	103fdd1e 	bne	r2,zero,808b50 <alt_get_fd+0x50>
  808bdc:	00802074 	movhi	r2,129
  808be0:	10905004 	addi	r2,r2,16704
  808be4:	11000017 	ldw	r4,0(r2)
  808be8:	000b883a 	mov	r5,zero
  808bec:	000d883a 	mov	r6,zero
  808bf0:	000f883a 	mov	r7,zero
  808bf4:	08032600 	call	803260 <xQueueGenericSend>
  808bf8:	e0bffd17 	ldw	r2,-12(fp)
  808bfc:	e037883a 	mov	sp,fp
  808c00:	dfc00217 	ldw	ra,8(sp)
  808c04:	df000117 	ldw	fp,4(sp)
  808c08:	dc000017 	ldw	r16,0(sp)
  808c0c:	dec00304 	addi	sp,sp,12
  808c10:	f800283a 	ret

00808c14 <alt_icache_flush_all>:
  808c14:	deffff04 	addi	sp,sp,-4
  808c18:	df000015 	stw	fp,0(sp)
  808c1c:	d839883a 	mov	fp,sp
  808c20:	e037883a 	mov	sp,fp
  808c24:	df000017 	ldw	fp,0(sp)
  808c28:	dec00104 	addi	sp,sp,4
  808c2c:	f800283a 	ret

00808c30 <alt_ic_isr_register>:
  808c30:	defff904 	addi	sp,sp,-28
  808c34:	dfc00615 	stw	ra,24(sp)
  808c38:	df000515 	stw	fp,20(sp)
  808c3c:	df000504 	addi	fp,sp,20
  808c40:	e13ffc15 	stw	r4,-16(fp)
  808c44:	e17ffd15 	stw	r5,-12(fp)
  808c48:	e1bffe15 	stw	r6,-8(fp)
  808c4c:	e1ffff15 	stw	r7,-4(fp)
  808c50:	e0800217 	ldw	r2,8(fp)
  808c54:	d8800015 	stw	r2,0(sp)
  808c58:	e13ffc17 	ldw	r4,-16(fp)
  808c5c:	e17ffd17 	ldw	r5,-12(fp)
  808c60:	e1bffe17 	ldw	r6,-8(fp)
  808c64:	e1ffff17 	ldw	r7,-4(fp)
  808c68:	0808e040 	call	808e04 <alt_iic_isr_register>
  808c6c:	e037883a 	mov	sp,fp
  808c70:	dfc00117 	ldw	ra,4(sp)
  808c74:	df000017 	ldw	fp,0(sp)
  808c78:	dec00204 	addi	sp,sp,8
  808c7c:	f800283a 	ret

00808c80 <alt_ic_irq_enable>:
  808c80:	defff904 	addi	sp,sp,-28
  808c84:	df000615 	stw	fp,24(sp)
  808c88:	df000604 	addi	fp,sp,24
  808c8c:	e13ffe15 	stw	r4,-8(fp)
  808c90:	e17fff15 	stw	r5,-4(fp)
  808c94:	e0bfff17 	ldw	r2,-4(fp)
  808c98:	e0bffc15 	stw	r2,-16(fp)
  808c9c:	0005303a 	rdctl	r2,status
  808ca0:	e0bffb15 	stw	r2,-20(fp)
  808ca4:	e0fffb17 	ldw	r3,-20(fp)
  808ca8:	00bfff84 	movi	r2,-2
  808cac:	1884703a 	and	r2,r3,r2
  808cb0:	1001703a 	wrctl	status,r2
  808cb4:	e0bffb17 	ldw	r2,-20(fp)
  808cb8:	e0bffd15 	stw	r2,-12(fp)
  808cbc:	e0fffc17 	ldw	r3,-16(fp)
  808cc0:	00800044 	movi	r2,1
  808cc4:	10c4983a 	sll	r2,r2,r3
  808cc8:	1007883a 	mov	r3,r2
  808ccc:	00802074 	movhi	r2,129
  808cd0:	10905204 	addi	r2,r2,16712
  808cd4:	10800017 	ldw	r2,0(r2)
  808cd8:	1886b03a 	or	r3,r3,r2
  808cdc:	00802074 	movhi	r2,129
  808ce0:	10905204 	addi	r2,r2,16712
  808ce4:	10c00015 	stw	r3,0(r2)
  808ce8:	00802074 	movhi	r2,129
  808cec:	10905204 	addi	r2,r2,16712
  808cf0:	10800017 	ldw	r2,0(r2)
  808cf4:	100170fa 	wrctl	ienable,r2
  808cf8:	e0bffd17 	ldw	r2,-12(fp)
  808cfc:	e0bffa15 	stw	r2,-24(fp)
  808d00:	e0bffa17 	ldw	r2,-24(fp)
  808d04:	1001703a 	wrctl	status,r2
  808d08:	0005883a 	mov	r2,zero
  808d0c:	e037883a 	mov	sp,fp
  808d10:	df000017 	ldw	fp,0(sp)
  808d14:	dec00104 	addi	sp,sp,4
  808d18:	f800283a 	ret

00808d1c <alt_ic_irq_disable>:
  808d1c:	defff904 	addi	sp,sp,-28
  808d20:	df000615 	stw	fp,24(sp)
  808d24:	df000604 	addi	fp,sp,24
  808d28:	e13ffe15 	stw	r4,-8(fp)
  808d2c:	e17fff15 	stw	r5,-4(fp)
  808d30:	e0bfff17 	ldw	r2,-4(fp)
  808d34:	e0bffc15 	stw	r2,-16(fp)
  808d38:	0005303a 	rdctl	r2,status
  808d3c:	e0bffb15 	stw	r2,-20(fp)
  808d40:	e0fffb17 	ldw	r3,-20(fp)
  808d44:	00bfff84 	movi	r2,-2
  808d48:	1884703a 	and	r2,r3,r2
  808d4c:	1001703a 	wrctl	status,r2
  808d50:	e0bffb17 	ldw	r2,-20(fp)
  808d54:	e0bffd15 	stw	r2,-12(fp)
  808d58:	e0fffc17 	ldw	r3,-16(fp)
  808d5c:	00800044 	movi	r2,1
  808d60:	10c4983a 	sll	r2,r2,r3
  808d64:	0084303a 	nor	r2,zero,r2
  808d68:	1007883a 	mov	r3,r2
  808d6c:	00802074 	movhi	r2,129
  808d70:	10905204 	addi	r2,r2,16712
  808d74:	10800017 	ldw	r2,0(r2)
  808d78:	1886703a 	and	r3,r3,r2
  808d7c:	00802074 	movhi	r2,129
  808d80:	10905204 	addi	r2,r2,16712
  808d84:	10c00015 	stw	r3,0(r2)
  808d88:	00802074 	movhi	r2,129
  808d8c:	10905204 	addi	r2,r2,16712
  808d90:	10800017 	ldw	r2,0(r2)
  808d94:	100170fa 	wrctl	ienable,r2
  808d98:	e0bffd17 	ldw	r2,-12(fp)
  808d9c:	e0bffa15 	stw	r2,-24(fp)
  808da0:	e0bffa17 	ldw	r2,-24(fp)
  808da4:	1001703a 	wrctl	status,r2
  808da8:	0005883a 	mov	r2,zero
  808dac:	e037883a 	mov	sp,fp
  808db0:	df000017 	ldw	fp,0(sp)
  808db4:	dec00104 	addi	sp,sp,4
  808db8:	f800283a 	ret

00808dbc <alt_ic_irq_enabled>:
  808dbc:	defffc04 	addi	sp,sp,-16
  808dc0:	df000315 	stw	fp,12(sp)
  808dc4:	df000304 	addi	fp,sp,12
  808dc8:	e13ffe15 	stw	r4,-8(fp)
  808dcc:	e17fff15 	stw	r5,-4(fp)
  808dd0:	000530fa 	rdctl	r2,ienable
  808dd4:	e0bffd15 	stw	r2,-12(fp)
  808dd8:	e0ffff17 	ldw	r3,-4(fp)
  808ddc:	00800044 	movi	r2,1
  808de0:	10c4983a 	sll	r2,r2,r3
  808de4:	1007883a 	mov	r3,r2
  808de8:	e0bffd17 	ldw	r2,-12(fp)
  808dec:	1884703a 	and	r2,r3,r2
  808df0:	1004c03a 	cmpne	r2,r2,zero
  808df4:	e037883a 	mov	sp,fp
  808df8:	df000017 	ldw	fp,0(sp)
  808dfc:	dec00104 	addi	sp,sp,4
  808e00:	f800283a 	ret

00808e04 <alt_iic_isr_register>:
  808e04:	defff404 	addi	sp,sp,-48
  808e08:	dfc00b15 	stw	ra,44(sp)
  808e0c:	df000a15 	stw	fp,40(sp)
  808e10:	df000a04 	addi	fp,sp,40
  808e14:	e13ffb15 	stw	r4,-20(fp)
  808e18:	e17ffc15 	stw	r5,-16(fp)
  808e1c:	e1bffd15 	stw	r6,-12(fp)
  808e20:	e1fffe15 	stw	r7,-8(fp)
  808e24:	00bffa84 	movi	r2,-22
  808e28:	e0bffa15 	stw	r2,-24(fp)
  808e2c:	e0bffc17 	ldw	r2,-16(fp)
  808e30:	e0bff915 	stw	r2,-28(fp)
  808e34:	e0bff917 	ldw	r2,-28(fp)
  808e38:	10800808 	cmpgei	r2,r2,32
  808e3c:	1000291e 	bne	r2,zero,808ee4 <alt_iic_isr_register+0xe0>
  808e40:	0005303a 	rdctl	r2,status
  808e44:	e0bff715 	stw	r2,-36(fp)
  808e48:	e0fff717 	ldw	r3,-36(fp)
  808e4c:	00bfff84 	movi	r2,-2
  808e50:	1884703a 	and	r2,r3,r2
  808e54:	1001703a 	wrctl	status,r2
  808e58:	e0bff717 	ldw	r2,-36(fp)
  808e5c:	e0bff815 	stw	r2,-32(fp)
  808e60:	e0bff917 	ldw	r2,-28(fp)
  808e64:	00c02074 	movhi	r3,129
  808e68:	18d0b004 	addi	r3,r3,17088
  808e6c:	100490fa 	slli	r2,r2,3
  808e70:	10c7883a 	add	r3,r2,r3
  808e74:	e0bffd17 	ldw	r2,-12(fp)
  808e78:	18800015 	stw	r2,0(r3)
  808e7c:	e0bff917 	ldw	r2,-28(fp)
  808e80:	00c02074 	movhi	r3,129
  808e84:	18d0b004 	addi	r3,r3,17088
  808e88:	100490fa 	slli	r2,r2,3
  808e8c:	10c5883a 	add	r2,r2,r3
  808e90:	10c00104 	addi	r3,r2,4
  808e94:	e0bffe17 	ldw	r2,-8(fp)
  808e98:	18800015 	stw	r2,0(r3)
  808e9c:	e0bffd17 	ldw	r2,-12(fp)
  808ea0:	1005003a 	cmpeq	r2,r2,zero
  808ea4:	1000051e 	bne	r2,zero,808ebc <alt_iic_isr_register+0xb8>
  808ea8:	e17ff917 	ldw	r5,-28(fp)
  808eac:	e13ffb17 	ldw	r4,-20(fp)
  808eb0:	0808c800 	call	808c80 <alt_ic_irq_enable>
  808eb4:	e0bfff15 	stw	r2,-4(fp)
  808eb8:	00000406 	br	808ecc <alt_iic_isr_register+0xc8>
  808ebc:	e17ff917 	ldw	r5,-28(fp)
  808ec0:	e13ffb17 	ldw	r4,-20(fp)
  808ec4:	0808d1c0 	call	808d1c <alt_ic_irq_disable>
  808ec8:	e0bfff15 	stw	r2,-4(fp)
  808ecc:	e0bfff17 	ldw	r2,-4(fp)
  808ed0:	e0bffa15 	stw	r2,-24(fp)
  808ed4:	e0bff817 	ldw	r2,-32(fp)
  808ed8:	e0bff615 	stw	r2,-40(fp)
  808edc:	e0bff617 	ldw	r2,-40(fp)
  808ee0:	1001703a 	wrctl	status,r2
  808ee4:	e0bffa17 	ldw	r2,-24(fp)
  808ee8:	e037883a 	mov	sp,fp
  808eec:	dfc00117 	ldw	ra,4(sp)
  808ef0:	df000017 	ldw	fp,0(sp)
  808ef4:	dec00204 	addi	sp,sp,8
  808ef8:	f800283a 	ret

00808efc <alt_alarm_stop>:
  808efc:	defffa04 	addi	sp,sp,-24
  808f00:	df000515 	stw	fp,20(sp)
  808f04:	df000504 	addi	fp,sp,20
  808f08:	e13fff15 	stw	r4,-4(fp)
  808f0c:	0005303a 	rdctl	r2,status
  808f10:	e0bffd15 	stw	r2,-12(fp)
  808f14:	e0fffd17 	ldw	r3,-12(fp)
  808f18:	00bfff84 	movi	r2,-2
  808f1c:	1884703a 	and	r2,r3,r2
  808f20:	1001703a 	wrctl	status,r2
  808f24:	e0bffd17 	ldw	r2,-12(fp)
  808f28:	e0bffe15 	stw	r2,-8(fp)
  808f2c:	e0bfff17 	ldw	r2,-4(fp)
  808f30:	e0bffc15 	stw	r2,-16(fp)
  808f34:	e0bffc17 	ldw	r2,-16(fp)
  808f38:	10c00017 	ldw	r3,0(r2)
  808f3c:	e0bffc17 	ldw	r2,-16(fp)
  808f40:	10800117 	ldw	r2,4(r2)
  808f44:	18800115 	stw	r2,4(r3)
  808f48:	e0bffc17 	ldw	r2,-16(fp)
  808f4c:	10c00117 	ldw	r3,4(r2)
  808f50:	e0bffc17 	ldw	r2,-16(fp)
  808f54:	10800017 	ldw	r2,0(r2)
  808f58:	18800015 	stw	r2,0(r3)
  808f5c:	e0fffc17 	ldw	r3,-16(fp)
  808f60:	e0bffc17 	ldw	r2,-16(fp)
  808f64:	18800115 	stw	r2,4(r3)
  808f68:	e0fffc17 	ldw	r3,-16(fp)
  808f6c:	e0bffc17 	ldw	r2,-16(fp)
  808f70:	18800015 	stw	r2,0(r3)
  808f74:	e0bffe17 	ldw	r2,-8(fp)
  808f78:	e0bffb15 	stw	r2,-20(fp)
  808f7c:	e0bffb17 	ldw	r2,-20(fp)
  808f80:	1001703a 	wrctl	status,r2
  808f84:	e037883a 	mov	sp,fp
  808f88:	df000017 	ldw	fp,0(sp)
  808f8c:	dec00104 	addi	sp,sp,4
  808f90:	f800283a 	ret

00808f94 <alt_tick>:
  808f94:	defffb04 	addi	sp,sp,-20
  808f98:	dfc00415 	stw	ra,16(sp)
  808f9c:	df000315 	stw	fp,12(sp)
  808fa0:	df000304 	addi	fp,sp,12
  808fa4:	d0a00d17 	ldw	r2,-32716(gp)
  808fa8:	e0bffe15 	stw	r2,-8(fp)
  808fac:	d0a6c917 	ldw	r2,-25820(gp)
  808fb0:	10800044 	addi	r2,r2,1
  808fb4:	d0a6c915 	stw	r2,-25820(gp)
  808fb8:	00003106 	br	809080 <alt_tick+0xec>
  808fbc:	e0bffe17 	ldw	r2,-8(fp)
  808fc0:	10800017 	ldw	r2,0(r2)
  808fc4:	e0bfff15 	stw	r2,-4(fp)
  808fc8:	e0bffe17 	ldw	r2,-8(fp)
  808fcc:	10800403 	ldbu	r2,16(r2)
  808fd0:	10803fcc 	andi	r2,r2,255
  808fd4:	1005003a 	cmpeq	r2,r2,zero
  808fd8:	1000051e 	bne	r2,zero,808ff0 <alt_tick+0x5c>
  808fdc:	d0a6c917 	ldw	r2,-25820(gp)
  808fe0:	1004c03a 	cmpne	r2,r2,zero
  808fe4:	1000021e 	bne	r2,zero,808ff0 <alt_tick+0x5c>
  808fe8:	e0bffe17 	ldw	r2,-8(fp)
  808fec:	10000405 	stb	zero,16(r2)
  808ff0:	e0bffe17 	ldw	r2,-8(fp)
  808ff4:	10c00217 	ldw	r3,8(r2)
  808ff8:	d0a6c917 	ldw	r2,-25820(gp)
  808ffc:	10c01e36 	bltu	r2,r3,809078 <alt_tick+0xe4>
  809000:	e0bffe17 	ldw	r2,-8(fp)
  809004:	10800403 	ldbu	r2,16(r2)
  809008:	10803fcc 	andi	r2,r2,255
  80900c:	1004c03a 	cmpne	r2,r2,zero
  809010:	1000191e 	bne	r2,zero,809078 <alt_tick+0xe4>
  809014:	e0bffe17 	ldw	r2,-8(fp)
  809018:	10c00317 	ldw	r3,12(r2)
  80901c:	e0bffe17 	ldw	r2,-8(fp)
  809020:	11000517 	ldw	r4,20(r2)
  809024:	183ee83a 	callr	r3
  809028:	e0bffd15 	stw	r2,-12(fp)
  80902c:	e0bffd17 	ldw	r2,-12(fp)
  809030:	1004c03a 	cmpne	r2,r2,zero
  809034:	1000031e 	bne	r2,zero,809044 <alt_tick+0xb0>
  809038:	e13ffe17 	ldw	r4,-8(fp)
  80903c:	0808efc0 	call	808efc <alt_alarm_stop>
  809040:	00000d06 	br	809078 <alt_tick+0xe4>
  809044:	e0bffe17 	ldw	r2,-8(fp)
  809048:	10c00217 	ldw	r3,8(r2)
  80904c:	e0bffd17 	ldw	r2,-12(fp)
  809050:	1887883a 	add	r3,r3,r2
  809054:	e0bffe17 	ldw	r2,-8(fp)
  809058:	10c00215 	stw	r3,8(r2)
  80905c:	e0bffe17 	ldw	r2,-8(fp)
  809060:	10c00217 	ldw	r3,8(r2)
  809064:	d0a6c917 	ldw	r2,-25820(gp)
  809068:	1880032e 	bgeu	r3,r2,809078 <alt_tick+0xe4>
  80906c:	e0fffe17 	ldw	r3,-8(fp)
  809070:	00800044 	movi	r2,1
  809074:	18800405 	stb	r2,16(r3)
  809078:	e0bfff17 	ldw	r2,-4(fp)
  80907c:	e0bffe15 	stw	r2,-8(fp)
  809080:	d0e00d04 	addi	r3,gp,-32716
  809084:	e0bffe17 	ldw	r2,-8(fp)
  809088:	10ffcc1e 	bne	r2,r3,808fbc <alt_tick+0x28>
  80908c:	08086900 	call	808690 <vPortSysTickHandler>
  809090:	e037883a 	mov	sp,fp
  809094:	dfc00117 	ldw	ra,4(sp)
  809098:	df000017 	ldw	fp,0(sp)
  80909c:	dec00204 	addi	sp,sp,8
  8090a0:	f800283a 	ret

008090a4 <altera_nios2_qsys_irq_init>:
  8090a4:	deffff04 	addi	sp,sp,-4
  8090a8:	df000015 	stw	fp,0(sp)
  8090ac:	d839883a 	mov	fp,sp
  8090b0:	000170fa 	wrctl	ienable,zero
  8090b4:	e037883a 	mov	sp,fp
  8090b8:	df000017 	ldw	fp,0(sp)
  8090bc:	dec00104 	addi	sp,sp,4
  8090c0:	f800283a 	ret

008090c4 <atexit>:
  8090c4:	200b883a 	mov	r5,r4
  8090c8:	000d883a 	mov	r6,zero
  8090cc:	0009883a 	mov	r4,zero
  8090d0:	000f883a 	mov	r7,zero
  8090d4:	080b3a81 	jmpi	80b3a8 <__register_exitproc>

008090d8 <__errno>:
  8090d8:	00c02074 	movhi	r3,129
  8090dc:	18c98b04 	addi	r3,r3,9772
  8090e0:	18800017 	ldw	r2,0(r3)
  8090e4:	f800283a 	ret

008090e8 <exit>:
  8090e8:	defffe04 	addi	sp,sp,-8
  8090ec:	000b883a 	mov	r5,zero
  8090f0:	dc000015 	stw	r16,0(sp)
  8090f4:	dfc00115 	stw	ra,4(sp)
  8090f8:	2021883a 	mov	r16,r4
  8090fc:	080b4e00 	call	80b4e0 <__call_exitprocs>
  809100:	00802074 	movhi	r2,129
  809104:	10898c04 	addi	r2,r2,9776
  809108:	11000017 	ldw	r4,0(r2)
  80910c:	20800f17 	ldw	r2,60(r4)
  809110:	10000126 	beq	r2,zero,809118 <exit+0x30>
  809114:	103ee83a 	callr	r2
  809118:	8009883a 	mov	r4,r16
  80911c:	08108080 	call	810808 <_exit>

00809120 <free>:
  809120:	00802074 	movhi	r2,129
  809124:	10898b04 	addi	r2,r2,9772
  809128:	200b883a 	mov	r5,r4
  80912c:	11000017 	ldw	r4,0(r2)
  809130:	08020281 	jmpi	802028 <_free_r>

00809134 <malloc>:
  809134:	00802074 	movhi	r2,129
  809138:	10898b04 	addi	r2,r2,9772
  80913c:	200b883a 	mov	r5,r4
  809140:	11000017 	ldw	r4,0(r2)
  809144:	08008941 	jmpi	800894 <_malloc_r>

00809148 <memcmp>:
  809148:	00c000c4 	movi	r3,3
  80914c:	1980032e 	bgeu	r3,r6,80915c <memcmp+0x14>
  809150:	2144b03a 	or	r2,r4,r5
  809154:	10c4703a 	and	r2,r2,r3
  809158:	10000f26 	beq	r2,zero,809198 <memcmp+0x50>
  80915c:	31ffffc4 	addi	r7,r6,-1
  809160:	3000061e 	bne	r6,zero,80917c <memcmp+0x34>
  809164:	00000a06 	br	809190 <memcmp+0x48>
  809168:	39ffffc4 	addi	r7,r7,-1
  80916c:	00bfffc4 	movi	r2,-1
  809170:	21000044 	addi	r4,r4,1
  809174:	29400044 	addi	r5,r5,1
  809178:	38800526 	beq	r7,r2,809190 <memcmp+0x48>
  80917c:	20c00003 	ldbu	r3,0(r4)
  809180:	28800003 	ldbu	r2,0(r5)
  809184:	18bff826 	beq	r3,r2,809168 <memcmp+0x20>
  809188:	1885c83a 	sub	r2,r3,r2
  80918c:	f800283a 	ret
  809190:	0005883a 	mov	r2,zero
  809194:	f800283a 	ret
  809198:	180f883a 	mov	r7,r3
  80919c:	20c00017 	ldw	r3,0(r4)
  8091a0:	28800017 	ldw	r2,0(r5)
  8091a4:	18bfed1e 	bne	r3,r2,80915c <memcmp+0x14>
  8091a8:	31bfff04 	addi	r6,r6,-4
  8091ac:	21000104 	addi	r4,r4,4
  8091b0:	29400104 	addi	r5,r5,4
  8091b4:	39bff936 	bltu	r7,r6,80919c <memcmp+0x54>
  8091b8:	003fe806 	br	80915c <memcmp+0x14>

008091bc <sprintf>:
  8091bc:	deffe504 	addi	sp,sp,-108
  8091c0:	2013883a 	mov	r9,r4
  8091c4:	dfc01815 	stw	ra,96(sp)
  8091c8:	d9801915 	stw	r6,100(sp)
  8091cc:	d9c01a15 	stw	r7,104(sp)
  8091d0:	d8801904 	addi	r2,sp,100
  8091d4:	d8800015 	stw	r2,0(sp)
  8091d8:	00802074 	movhi	r2,129
  8091dc:	10898b04 	addi	r2,r2,9772
  8091e0:	11000017 	ldw	r4,0(r2)
  8091e4:	d9c00017 	ldw	r7,0(sp)
  8091e8:	00808204 	movi	r2,520
  8091ec:	00e00034 	movhi	r3,32768
  8091f0:	18ffffc4 	addi	r3,r3,-1
  8091f4:	280d883a 	mov	r6,r5
  8091f8:	d880040d 	sth	r2,16(sp)
  8091fc:	d9400104 	addi	r5,sp,4
  809200:	00bfffc4 	movi	r2,-1
  809204:	d8c00615 	stw	r3,24(sp)
  809208:	d8c00315 	stw	r3,12(sp)
  80920c:	da400515 	stw	r9,20(sp)
  809210:	d880048d 	sth	r2,18(sp)
  809214:	da400115 	stw	r9,4(sp)
  809218:	08094c00 	call	8094c0 <___vfprintf_internal_r>
  80921c:	d8c00117 	ldw	r3,4(sp)
  809220:	18000005 	stb	zero,0(r3)
  809224:	dfc01817 	ldw	ra,96(sp)
  809228:	dec01b04 	addi	sp,sp,108
  80922c:	f800283a 	ret

00809230 <_sprintf_r>:
  809230:	deffe604 	addi	sp,sp,-104
  809234:	2813883a 	mov	r9,r5
  809238:	dfc01815 	stw	ra,96(sp)
  80923c:	d9c01915 	stw	r7,100(sp)
  809240:	d8801904 	addi	r2,sp,100
  809244:	d8800015 	stw	r2,0(sp)
  809248:	100f883a 	mov	r7,r2
  80924c:	00808204 	movi	r2,520
  809250:	00e00034 	movhi	r3,32768
  809254:	18ffffc4 	addi	r3,r3,-1
  809258:	d880040d 	sth	r2,16(sp)
  80925c:	d9400104 	addi	r5,sp,4
  809260:	00bfffc4 	movi	r2,-1
  809264:	d8c00615 	stw	r3,24(sp)
  809268:	d8c00315 	stw	r3,12(sp)
  80926c:	da400515 	stw	r9,20(sp)
  809270:	d880048d 	sth	r2,18(sp)
  809274:	da400115 	stw	r9,4(sp)
  809278:	08094c00 	call	8094c0 <___vfprintf_internal_r>
  80927c:	d8c00117 	ldw	r3,4(sp)
  809280:	18000005 	stb	zero,0(r3)
  809284:	dfc01817 	ldw	ra,96(sp)
  809288:	dec01a04 	addi	sp,sp,104
  80928c:	f800283a 	ret

00809290 <strcat>:
  809290:	defffe04 	addi	sp,sp,-8
  809294:	208000cc 	andi	r2,r4,3
  809298:	dc000015 	stw	r16,0(sp)
  80929c:	dfc00115 	stw	ra,4(sp)
  8092a0:	2021883a 	mov	r16,r4
  8092a4:	1000161e 	bne	r2,zero,809300 <strcat+0x70>
  8092a8:	20c00017 	ldw	r3,0(r4)
  8092ac:	01bfbff4 	movhi	r6,65279
  8092b0:	31bfbfc4 	addi	r6,r6,-257
  8092b4:	02202074 	movhi	r8,32897
  8092b8:	42202004 	addi	r8,r8,-32640
  8092bc:	1985883a 	add	r2,r3,r6
  8092c0:	1204703a 	and	r2,r2,r8
  8092c4:	00c6303a 	nor	r3,zero,r3
  8092c8:	1886703a 	and	r3,r3,r2
  8092cc:	18000c1e 	bne	r3,zero,809300 <strcat+0x70>
  8092d0:	300f883a 	mov	r7,r6
  8092d4:	400d883a 	mov	r6,r8
  8092d8:	21000104 	addi	r4,r4,4
  8092dc:	20800017 	ldw	r2,0(r4)
  8092e0:	11c7883a 	add	r3,r2,r7
  8092e4:	1986703a 	and	r3,r3,r6
  8092e8:	0084303a 	nor	r2,zero,r2
  8092ec:	10c4703a 	and	r2,r2,r3
  8092f0:	103ff926 	beq	r2,zero,8092d8 <strcat+0x48>
  8092f4:	20800007 	ldb	r2,0(r4)
  8092f8:	10000326 	beq	r2,zero,809308 <strcat+0x78>
  8092fc:	21000044 	addi	r4,r4,1
  809300:	20800007 	ldb	r2,0(r4)
  809304:	103ffd1e 	bne	r2,zero,8092fc <strcat+0x6c>
  809308:	08093200 	call	809320 <strcpy>
  80930c:	8005883a 	mov	r2,r16
  809310:	dfc00117 	ldw	ra,4(sp)
  809314:	dc000017 	ldw	r16,0(sp)
  809318:	dec00204 	addi	sp,sp,8
  80931c:	f800283a 	ret

00809320 <strcpy>:
  809320:	2904b03a 	or	r2,r5,r4
  809324:	108000cc 	andi	r2,r2,3
  809328:	10000826 	beq	r2,zero,80934c <strcpy+0x2c>
  80932c:	2007883a 	mov	r3,r4
  809330:	28800003 	ldbu	r2,0(r5)
  809334:	29400044 	addi	r5,r5,1
  809338:	18800005 	stb	r2,0(r3)
  80933c:	18c00044 	addi	r3,r3,1
  809340:	103ffb1e 	bne	r2,zero,809330 <strcpy+0x10>
  809344:	2005883a 	mov	r2,r4
  809348:	f800283a 	ret
  80934c:	29800017 	ldw	r6,0(r5)
  809350:	023fbff4 	movhi	r8,65279
  809354:	423fbfc4 	addi	r8,r8,-257
  809358:	02a02074 	movhi	r10,32897
  80935c:	52a02004 	addi	r10,r10,-32640
  809360:	3205883a 	add	r2,r6,r8
  809364:	0186303a 	nor	r3,zero,r6
  809368:	10c4703a 	and	r2,r2,r3
  80936c:	1284703a 	and	r2,r2,r10
  809370:	200f883a 	mov	r7,r4
  809374:	10000b1e 	bne	r2,zero,8093a4 <strcpy+0x84>
  809378:	4013883a 	mov	r9,r8
  80937c:	5011883a 	mov	r8,r10
  809380:	39800015 	stw	r6,0(r7)
  809384:	29400104 	addi	r5,r5,4
  809388:	29800017 	ldw	r6,0(r5)
  80938c:	39c00104 	addi	r7,r7,4
  809390:	3245883a 	add	r2,r6,r9
  809394:	0186303a 	nor	r3,zero,r6
  809398:	10c4703a 	and	r2,r2,r3
  80939c:	1204703a 	and	r2,r2,r8
  8093a0:	103ff726 	beq	r2,zero,809380 <strcpy+0x60>
  8093a4:	3807883a 	mov	r3,r7
  8093a8:	003fe106 	br	809330 <strcpy+0x10>

008093ac <strncpy>:
  8093ac:	2904b03a 	or	r2,r5,r4
  8093b0:	108000cc 	andi	r2,r2,3
  8093b4:	00c000c4 	movi	r3,3
  8093b8:	1000291e 	bne	r2,zero,809460 <strncpy+0xb4>
  8093bc:	1980282e 	bgeu	r3,r6,809460 <strncpy+0xb4>
  8093c0:	1817883a 	mov	r11,r3
  8093c4:	2011883a 	mov	r8,r4
  8093c8:	02bfbff4 	movhi	r10,65279
  8093cc:	52bfbfc4 	addi	r10,r10,-257
  8093d0:	02602074 	movhi	r9,32897
  8093d4:	4a602004 	addi	r9,r9,-32640
  8093d8:	29c00017 	ldw	r7,0(r5)
  8093dc:	3a85883a 	add	r2,r7,r10
  8093e0:	01c6303a 	nor	r3,zero,r7
  8093e4:	10c4703a 	and	r2,r2,r3
  8093e8:	1244703a 	and	r2,r2,r9
  8093ec:	1000051e 	bne	r2,zero,809404 <strncpy+0x58>
  8093f0:	31bfff04 	addi	r6,r6,-4
  8093f4:	41c00015 	stw	r7,0(r8)
  8093f8:	29400104 	addi	r5,r5,4
  8093fc:	42000104 	addi	r8,r8,4
  809400:	59bff536 	bltu	r11,r6,8093d8 <strncpy+0x2c>
  809404:	400f883a 	mov	r7,r8
  809408:	30001326 	beq	r6,zero,809458 <strncpy+0xac>
  80940c:	28800003 	ldbu	r2,0(r5)
  809410:	31bfffc4 	addi	r6,r6,-1
  809414:	38c00044 	addi	r3,r7,1
  809418:	38800005 	stb	r2,0(r7)
  80941c:	10000826 	beq	r2,zero,809440 <strncpy+0x94>
  809420:	29400044 	addi	r5,r5,1
  809424:	30000c26 	beq	r6,zero,809458 <strncpy+0xac>
  809428:	28800003 	ldbu	r2,0(r5)
  80942c:	31bfffc4 	addi	r6,r6,-1
  809430:	29400044 	addi	r5,r5,1
  809434:	18800005 	stb	r2,0(r3)
  809438:	18c00044 	addi	r3,r3,1
  80943c:	103ff91e 	bne	r2,zero,809424 <strncpy+0x78>
  809440:	30000526 	beq	r6,zero,809458 <strncpy+0xac>
  809444:	1805883a 	mov	r2,r3
  809448:	30cd883a 	add	r6,r6,r3
  80944c:	10000005 	stb	zero,0(r2)
  809450:	10800044 	addi	r2,r2,1
  809454:	30bffd1e 	bne	r6,r2,80944c <strncpy+0xa0>
  809458:	2005883a 	mov	r2,r4
  80945c:	f800283a 	ret
  809460:	200f883a 	mov	r7,r4
  809464:	003fe806 	br	809408 <strncpy+0x5c>

00809468 <__sprint_r>:
  809468:	30800217 	ldw	r2,8(r6)
  80946c:	defffe04 	addi	sp,sp,-8
  809470:	dc000015 	stw	r16,0(sp)
  809474:	dfc00115 	stw	ra,4(sp)
  809478:	3021883a 	mov	r16,r6
  80947c:	0007883a 	mov	r3,zero
  809480:	1000061e 	bne	r2,zero,80949c <__sprint_r+0x34>
  809484:	1805883a 	mov	r2,r3
  809488:	30000115 	stw	zero,4(r6)
  80948c:	dfc00117 	ldw	ra,4(sp)
  809490:	dc000017 	ldw	r16,0(sp)
  809494:	dec00204 	addi	sp,sp,8
  809498:	f800283a 	ret
  80949c:	08003f80 	call	8003f8 <__sfvwrite_r>
  8094a0:	1007883a 	mov	r3,r2
  8094a4:	1805883a 	mov	r2,r3
  8094a8:	80000115 	stw	zero,4(r16)
  8094ac:	80000215 	stw	zero,8(r16)
  8094b0:	dfc00117 	ldw	ra,4(sp)
  8094b4:	dc000017 	ldw	r16,0(sp)
  8094b8:	dec00204 	addi	sp,sp,8
  8094bc:	f800283a 	ret

008094c0 <___vfprintf_internal_r>:
  8094c0:	defea404 	addi	sp,sp,-1392
  8094c4:	dd815815 	stw	r22,1376(sp)
  8094c8:	dc015215 	stw	r16,1352(sp)
  8094cc:	d9c15115 	stw	r7,1348(sp)
  8094d0:	dfc15b15 	stw	ra,1388(sp)
  8094d4:	df015a15 	stw	fp,1384(sp)
  8094d8:	ddc15915 	stw	r23,1380(sp)
  8094dc:	dd415715 	stw	r21,1372(sp)
  8094e0:	dd015615 	stw	r20,1368(sp)
  8094e4:	dcc15515 	stw	r19,1364(sp)
  8094e8:	dc815415 	stw	r18,1360(sp)
  8094ec:	dc415315 	stw	r17,1356(sp)
  8094f0:	282d883a 	mov	r22,r5
  8094f4:	3021883a 	mov	r16,r6
  8094f8:	d9014f15 	stw	r4,1340(sp)
  8094fc:	080ce900 	call	80ce90 <_localeconv_r>
  809500:	10800017 	ldw	r2,0(r2)
  809504:	d9c15117 	ldw	r7,1348(sp)
  809508:	d8814915 	stw	r2,1316(sp)
  80950c:	d8814f17 	ldw	r2,1340(sp)
  809510:	10000226 	beq	r2,zero,80951c <___vfprintf_internal_r+0x5c>
  809514:	10800e17 	ldw	r2,56(r2)
  809518:	10020d26 	beq	r2,zero,809d50 <___vfprintf_internal_r+0x890>
  80951c:	b080030b 	ldhu	r2,12(r22)
  809520:	1080020c 	andi	r2,r2,8
  809524:	10020e26 	beq	r2,zero,809d60 <___vfprintf_internal_r+0x8a0>
  809528:	b0800417 	ldw	r2,16(r22)
  80952c:	10020c26 	beq	r2,zero,809d60 <___vfprintf_internal_r+0x8a0>
  809530:	b200030b 	ldhu	r8,12(r22)
  809534:	00800284 	movi	r2,10
  809538:	40c0068c 	andi	r3,r8,26
  80953c:	18802f1e 	bne	r3,r2,8095fc <___vfprintf_internal_r+0x13c>
  809540:	b080038f 	ldh	r2,14(r22)
  809544:	10002d16 	blt	r2,zero,8095fc <___vfprintf_internal_r+0x13c>
  809548:	b240038b 	ldhu	r9,14(r22)
  80954c:	b2800717 	ldw	r10,28(r22)
  809550:	b2c00917 	ldw	r11,36(r22)
  809554:	d9014f17 	ldw	r4,1340(sp)
  809558:	dc402904 	addi	r17,sp,164
  80955c:	d8804004 	addi	r2,sp,256
  809560:	00c10004 	movi	r3,1024
  809564:	423fff4c 	andi	r8,r8,65533
  809568:	800d883a 	mov	r6,r16
  80956c:	880b883a 	mov	r5,r17
  809570:	da002c0d 	sth	r8,176(sp)
  809574:	da402c8d 	sth	r9,178(sp)
  809578:	da803015 	stw	r10,192(sp)
  80957c:	dac03215 	stw	r11,200(sp)
  809580:	d8802d15 	stw	r2,180(sp)
  809584:	d8c02e15 	stw	r3,184(sp)
  809588:	d8802915 	stw	r2,164(sp)
  80958c:	d8c02b15 	stw	r3,172(sp)
  809590:	d8002f15 	stw	zero,188(sp)
  809594:	08094c00 	call	8094c0 <___vfprintf_internal_r>
  809598:	d8814b15 	stw	r2,1324(sp)
  80959c:	10000416 	blt	r2,zero,8095b0 <___vfprintf_internal_r+0xf0>
  8095a0:	d9014f17 	ldw	r4,1340(sp)
  8095a4:	880b883a 	mov	r5,r17
  8095a8:	08019d80 	call	8019d8 <_fflush_r>
  8095ac:	1002321e 	bne	r2,zero,809e78 <___vfprintf_internal_r+0x9b8>
  8095b0:	d8802c0b 	ldhu	r2,176(sp)
  8095b4:	1080100c 	andi	r2,r2,64
  8095b8:	10000326 	beq	r2,zero,8095c8 <___vfprintf_internal_r+0x108>
  8095bc:	b080030b 	ldhu	r2,12(r22)
  8095c0:	10801014 	ori	r2,r2,64
  8095c4:	b080030d 	sth	r2,12(r22)
  8095c8:	d8814b17 	ldw	r2,1324(sp)
  8095cc:	dfc15b17 	ldw	ra,1388(sp)
  8095d0:	df015a17 	ldw	fp,1384(sp)
  8095d4:	ddc15917 	ldw	r23,1380(sp)
  8095d8:	dd815817 	ldw	r22,1376(sp)
  8095dc:	dd415717 	ldw	r21,1372(sp)
  8095e0:	dd015617 	ldw	r20,1368(sp)
  8095e4:	dcc15517 	ldw	r19,1364(sp)
  8095e8:	dc815417 	ldw	r18,1360(sp)
  8095ec:	dc415317 	ldw	r17,1356(sp)
  8095f0:	dc015217 	ldw	r16,1352(sp)
  8095f4:	dec15c04 	addi	sp,sp,1392
  8095f8:	f800283a 	ret
  8095fc:	0005883a 	mov	r2,zero
  809600:	0007883a 	mov	r3,zero
  809604:	dd401904 	addi	r21,sp,100
  809608:	d8814215 	stw	r2,1288(sp)
  80960c:	802f883a 	mov	r23,r16
  809610:	d8c14315 	stw	r3,1292(sp)
  809614:	d8014b15 	stw	zero,1324(sp)
  809618:	d8014815 	stw	zero,1312(sp)
  80961c:	d8014415 	stw	zero,1296(sp)
  809620:	d8014715 	stw	zero,1308(sp)
  809624:	dd400c15 	stw	r21,48(sp)
  809628:	d8000e15 	stw	zero,56(sp)
  80962c:	d8000d15 	stw	zero,52(sp)
  809630:	b8800007 	ldb	r2,0(r23)
  809634:	10001926 	beq	r2,zero,80969c <___vfprintf_internal_r+0x1dc>
  809638:	00c00944 	movi	r3,37
  80963c:	10c01726 	beq	r2,r3,80969c <___vfprintf_internal_r+0x1dc>
  809640:	b821883a 	mov	r16,r23
  809644:	00000106 	br	80964c <___vfprintf_internal_r+0x18c>
  809648:	10c00326 	beq	r2,r3,809658 <___vfprintf_internal_r+0x198>
  80964c:	84000044 	addi	r16,r16,1
  809650:	80800007 	ldb	r2,0(r16)
  809654:	103ffc1e 	bne	r2,zero,809648 <___vfprintf_internal_r+0x188>
  809658:	85e7c83a 	sub	r19,r16,r23
  80965c:	98000e26 	beq	r19,zero,809698 <___vfprintf_internal_r+0x1d8>
  809660:	dc800e17 	ldw	r18,56(sp)
  809664:	dc400d17 	ldw	r17,52(sp)
  809668:	008001c4 	movi	r2,7
  80966c:	94e5883a 	add	r18,r18,r19
  809670:	8c400044 	addi	r17,r17,1
  809674:	adc00015 	stw	r23,0(r21)
  809678:	dc800e15 	stw	r18,56(sp)
  80967c:	acc00115 	stw	r19,4(r21)
  809680:	dc400d15 	stw	r17,52(sp)
  809684:	14428b16 	blt	r2,r17,80a0b4 <___vfprintf_internal_r+0xbf4>
  809688:	ad400204 	addi	r21,r21,8
  80968c:	d9014b17 	ldw	r4,1324(sp)
  809690:	24c9883a 	add	r4,r4,r19
  809694:	d9014b15 	stw	r4,1324(sp)
  809698:	802f883a 	mov	r23,r16
  80969c:	b8800007 	ldb	r2,0(r23)
  8096a0:	10013c26 	beq	r2,zero,809b94 <___vfprintf_internal_r+0x6d4>
  8096a4:	bdc00044 	addi	r23,r23,1
  8096a8:	d8000405 	stb	zero,16(sp)
  8096ac:	b8c00007 	ldb	r3,0(r23)
  8096b0:	04ffffc4 	movi	r19,-1
  8096b4:	d8014c15 	stw	zero,1328(sp)
  8096b8:	d8014a15 	stw	zero,1320(sp)
  8096bc:	d8c14d15 	stw	r3,1332(sp)
  8096c0:	bdc00044 	addi	r23,r23,1
  8096c4:	d9414d17 	ldw	r5,1332(sp)
  8096c8:	00801604 	movi	r2,88
  8096cc:	28fff804 	addi	r3,r5,-32
  8096d0:	10c06036 	bltu	r2,r3,809854 <___vfprintf_internal_r+0x394>
  8096d4:	18c5883a 	add	r2,r3,r3
  8096d8:	1085883a 	add	r2,r2,r2
  8096dc:	00c02074 	movhi	r3,129
  8096e0:	18e5bc04 	addi	r3,r3,-26896
  8096e4:	10c5883a 	add	r2,r2,r3
  8096e8:	11000017 	ldw	r4,0(r2)
  8096ec:	2000683a 	jmp	r4
  8096f0:	0080a664 	muli	r2,zero,665
  8096f4:	00809854 	movui	r2,609
  8096f8:	00809854 	movui	r2,609
  8096fc:	0080a650 	cmplti	r2,zero,665
  809700:	00809854 	movui	r2,609
  809704:	00809854 	movui	r2,609
  809708:	00809854 	movui	r2,609
  80970c:	00809854 	movui	r2,609
  809710:	00809854 	movui	r2,609
  809714:	00809854 	movui	r2,609
  809718:	0080a430 	cmpltui	r2,zero,656
  80971c:	0080a640 	call	80a64 <__alt_mem_sdram-0x77f59c>
  809720:	00809854 	movui	r2,609
  809724:	0080a448 	cmpgei	r2,zero,657
  809728:	0080a6e8 	cmpgeui	r2,zero,667
  80972c:	00809854 	movui	r2,609
  809730:	0080a6d4 	movui	r2,667
  809734:	0080a690 	cmplti	r2,zero,666
  809738:	0080a690 	cmplti	r2,zero,666
  80973c:	0080a690 	cmplti	r2,zero,666
  809740:	0080a690 	cmplti	r2,zero,666
  809744:	0080a690 	cmplti	r2,zero,666
  809748:	0080a690 	cmplti	r2,zero,666
  80974c:	0080a690 	cmplti	r2,zero,666
  809750:	0080a690 	cmplti	r2,zero,666
  809754:	0080a690 	cmplti	r2,zero,666
  809758:	00809854 	movui	r2,609
  80975c:	00809854 	movui	r2,609
  809760:	00809854 	movui	r2,609
  809764:	00809854 	movui	r2,609
  809768:	00809854 	movui	r2,609
  80976c:	00809854 	movui	r2,609
  809770:	00809854 	movui	r2,609
  809774:	00809854 	movui	r2,609
  809778:	00809854 	movui	r2,609
  80977c:	00809854 	movui	r2,609
  809780:	00809eac 	andhi	r2,zero,634
  809784:	0080a518 	cmpnei	r2,zero,660
  809788:	00809854 	movui	r2,609
  80978c:	0080a518 	cmpnei	r2,zero,660
  809790:	00809854 	movui	r2,609
  809794:	00809854 	movui	r2,609
  809798:	00809854 	movui	r2,609
  80979c:	00809854 	movui	r2,609
  8097a0:	0080a67c 	xorhi	r2,zero,665
  8097a4:	00809854 	movui	r2,609
  8097a8:	00809854 	movui	r2,609
  8097ac:	00809f60 	cmpeqi	r2,zero,637
  8097b0:	00809854 	movui	r2,609
  8097b4:	00809854 	movui	r2,609
  8097b8:	00809854 	movui	r2,609
  8097bc:	00809854 	movui	r2,609
  8097c0:	00809854 	movui	r2,609
  8097c4:	00809fac 	andhi	r2,zero,638
  8097c8:	00809854 	movui	r2,609
  8097cc:	00809854 	movui	r2,609
  8097d0:	0080a5cc 	andi	r2,zero,663
  8097d4:	00809854 	movui	r2,609
  8097d8:	00809854 	movui	r2,609
  8097dc:	00809854 	movui	r2,609
  8097e0:	00809854 	movui	r2,609
  8097e4:	00809854 	movui	r2,609
  8097e8:	00809854 	movui	r2,609
  8097ec:	00809854 	movui	r2,609
  8097f0:	00809854 	movui	r2,609
  8097f4:	00809854 	movui	r2,609
  8097f8:	00809854 	movui	r2,609
  8097fc:	0080a5a0 	cmpeqi	r2,zero,662
  809800:	00809eb8 	rdprs	r2,zero,634
  809804:	0080a518 	cmpnei	r2,zero,660
  809808:	0080a518 	cmpnei	r2,zero,660
  80980c:	0080a518 	cmpnei	r2,zero,660
  809810:	0080a504 	movi	r2,660
  809814:	00809eb8 	rdprs	r2,zero,634
  809818:	00809854 	movui	r2,609
  80981c:	00809854 	movui	r2,609
  809820:	0080a48c 	andi	r2,zero,658
  809824:	00809854 	movui	r2,609
  809828:	0080a45c 	xori	r2,zero,657
  80982c:	00809f6c 	andhi	r2,zero,637
  809830:	0080a4bc 	xorhi	r2,zero,658
  809834:	0080a4a8 	cmpgeui	r2,zero,658
  809838:	00809854 	movui	r2,609
  80983c:	0080a750 	cmplti	r2,zero,669
  809840:	00809854 	movui	r2,609
  809844:	00809fb8 	rdprs	r2,zero,638
  809848:	00809854 	movui	r2,609
  80984c:	00809854 	movui	r2,609
  809850:	0080a630 	cmpltui	r2,zero,664
  809854:	d9014d17 	ldw	r4,1332(sp)
  809858:	2000ce26 	beq	r4,zero,809b94 <___vfprintf_internal_r+0x6d4>
  80985c:	01400044 	movi	r5,1
  809860:	d9800f04 	addi	r6,sp,60
  809864:	d9c14015 	stw	r7,1280(sp)
  809868:	d9414515 	stw	r5,1300(sp)
  80986c:	d9814115 	stw	r6,1284(sp)
  809870:	280f883a 	mov	r7,r5
  809874:	d9000f05 	stb	r4,60(sp)
  809878:	d8000405 	stb	zero,16(sp)
  80987c:	d8014615 	stw	zero,1304(sp)
  809880:	d8c14c17 	ldw	r3,1328(sp)
  809884:	1880008c 	andi	r2,r3,2
  809888:	1005003a 	cmpeq	r2,r2,zero
  80988c:	d8815015 	stw	r2,1344(sp)
  809890:	1000031e 	bne	r2,zero,8098a0 <___vfprintf_internal_r+0x3e0>
  809894:	d9014517 	ldw	r4,1300(sp)
  809898:	21000084 	addi	r4,r4,2
  80989c:	d9014515 	stw	r4,1300(sp)
  8098a0:	d9414c17 	ldw	r5,1328(sp)
  8098a4:	2940210c 	andi	r5,r5,132
  8098a8:	d9414e15 	stw	r5,1336(sp)
  8098ac:	28002d1e 	bne	r5,zero,809964 <___vfprintf_internal_r+0x4a4>
  8098b0:	d9814a17 	ldw	r6,1320(sp)
  8098b4:	d8814517 	ldw	r2,1300(sp)
  8098b8:	30a1c83a 	sub	r16,r6,r2
  8098bc:	0400290e 	bge	zero,r16,809964 <___vfprintf_internal_r+0x4a4>
  8098c0:	00800404 	movi	r2,16
  8098c4:	14045e0e 	bge	r2,r16,80aa40 <___vfprintf_internal_r+0x1580>
  8098c8:	dc800e17 	ldw	r18,56(sp)
  8098cc:	dc400d17 	ldw	r17,52(sp)
  8098d0:	1027883a 	mov	r19,r2
  8098d4:	07002074 	movhi	fp,129
  8098d8:	e7025b84 	addi	fp,fp,2414
  8098dc:	050001c4 	movi	r20,7
  8098e0:	00000306 	br	8098f0 <___vfprintf_internal_r+0x430>
  8098e4:	843ffc04 	addi	r16,r16,-16
  8098e8:	ad400204 	addi	r21,r21,8
  8098ec:	9c00130e 	bge	r19,r16,80993c <___vfprintf_internal_r+0x47c>
  8098f0:	94800404 	addi	r18,r18,16
  8098f4:	8c400044 	addi	r17,r17,1
  8098f8:	af000015 	stw	fp,0(r21)
  8098fc:	acc00115 	stw	r19,4(r21)
  809900:	dc800e15 	stw	r18,56(sp)
  809904:	dc400d15 	stw	r17,52(sp)
  809908:	a47ff60e 	bge	r20,r17,8098e4 <___vfprintf_internal_r+0x424>
  80990c:	d9014f17 	ldw	r4,1340(sp)
  809910:	b00b883a 	mov	r5,r22
  809914:	d9800c04 	addi	r6,sp,48
  809918:	d9c15115 	stw	r7,1348(sp)
  80991c:	08094680 	call	809468 <__sprint_r>
  809920:	d9c15117 	ldw	r7,1348(sp)
  809924:	10009e1e 	bne	r2,zero,809ba0 <___vfprintf_internal_r+0x6e0>
  809928:	843ffc04 	addi	r16,r16,-16
  80992c:	dc800e17 	ldw	r18,56(sp)
  809930:	dc400d17 	ldw	r17,52(sp)
  809934:	dd401904 	addi	r21,sp,100
  809938:	9c3fed16 	blt	r19,r16,8098f0 <___vfprintf_internal_r+0x430>
  80993c:	9425883a 	add	r18,r18,r16
  809940:	8c400044 	addi	r17,r17,1
  809944:	008001c4 	movi	r2,7
  809948:	af000015 	stw	fp,0(r21)
  80994c:	ac000115 	stw	r16,4(r21)
  809950:	dc800e15 	stw	r18,56(sp)
  809954:	dc400d15 	stw	r17,52(sp)
  809958:	1441f516 	blt	r2,r17,80a130 <___vfprintf_internal_r+0xc70>
  80995c:	ad400204 	addi	r21,r21,8
  809960:	00000206 	br	80996c <___vfprintf_internal_r+0x4ac>
  809964:	dc800e17 	ldw	r18,56(sp)
  809968:	dc400d17 	ldw	r17,52(sp)
  80996c:	d8800407 	ldb	r2,16(sp)
  809970:	10000b26 	beq	r2,zero,8099a0 <___vfprintf_internal_r+0x4e0>
  809974:	00800044 	movi	r2,1
  809978:	94800044 	addi	r18,r18,1
  80997c:	8c400044 	addi	r17,r17,1
  809980:	a8800115 	stw	r2,4(r21)
  809984:	d8c00404 	addi	r3,sp,16
  809988:	008001c4 	movi	r2,7
  80998c:	a8c00015 	stw	r3,0(r21)
  809990:	dc800e15 	stw	r18,56(sp)
  809994:	dc400d15 	stw	r17,52(sp)
  809998:	1441da16 	blt	r2,r17,80a104 <___vfprintf_internal_r+0xc44>
  80999c:	ad400204 	addi	r21,r21,8
  8099a0:	d9015017 	ldw	r4,1344(sp)
  8099a4:	20000b1e 	bne	r4,zero,8099d4 <___vfprintf_internal_r+0x514>
  8099a8:	d8800444 	addi	r2,sp,17
  8099ac:	94800084 	addi	r18,r18,2
  8099b0:	8c400044 	addi	r17,r17,1
  8099b4:	a8800015 	stw	r2,0(r21)
  8099b8:	00c00084 	movi	r3,2
  8099bc:	008001c4 	movi	r2,7
  8099c0:	a8c00115 	stw	r3,4(r21)
  8099c4:	dc800e15 	stw	r18,56(sp)
  8099c8:	dc400d15 	stw	r17,52(sp)
  8099cc:	1441c216 	blt	r2,r17,80a0d8 <___vfprintf_internal_r+0xc18>
  8099d0:	ad400204 	addi	r21,r21,8
  8099d4:	d9414e17 	ldw	r5,1336(sp)
  8099d8:	00802004 	movi	r2,128
  8099dc:	2880b126 	beq	r5,r2,809ca4 <___vfprintf_internal_r+0x7e4>
  8099e0:	d8c14617 	ldw	r3,1304(sp)
  8099e4:	19e1c83a 	sub	r16,r3,r7
  8099e8:	0400260e 	bge	zero,r16,809a84 <___vfprintf_internal_r+0x5c4>
  8099ec:	00800404 	movi	r2,16
  8099f0:	1403cf0e 	bge	r2,r16,80a930 <___vfprintf_internal_r+0x1470>
  8099f4:	1027883a 	mov	r19,r2
  8099f8:	07002074 	movhi	fp,129
  8099fc:	e7025784 	addi	fp,fp,2398
  809a00:	050001c4 	movi	r20,7
  809a04:	00000306 	br	809a14 <___vfprintf_internal_r+0x554>
  809a08:	843ffc04 	addi	r16,r16,-16
  809a0c:	ad400204 	addi	r21,r21,8
  809a10:	9c00130e 	bge	r19,r16,809a60 <___vfprintf_internal_r+0x5a0>
  809a14:	94800404 	addi	r18,r18,16
  809a18:	8c400044 	addi	r17,r17,1
  809a1c:	af000015 	stw	fp,0(r21)
  809a20:	acc00115 	stw	r19,4(r21)
  809a24:	dc800e15 	stw	r18,56(sp)
  809a28:	dc400d15 	stw	r17,52(sp)
  809a2c:	a47ff60e 	bge	r20,r17,809a08 <___vfprintf_internal_r+0x548>
  809a30:	d9014f17 	ldw	r4,1340(sp)
  809a34:	b00b883a 	mov	r5,r22
  809a38:	d9800c04 	addi	r6,sp,48
  809a3c:	d9c15115 	stw	r7,1348(sp)
  809a40:	08094680 	call	809468 <__sprint_r>
  809a44:	d9c15117 	ldw	r7,1348(sp)
  809a48:	1000551e 	bne	r2,zero,809ba0 <___vfprintf_internal_r+0x6e0>
  809a4c:	843ffc04 	addi	r16,r16,-16
  809a50:	dc800e17 	ldw	r18,56(sp)
  809a54:	dc400d17 	ldw	r17,52(sp)
  809a58:	dd401904 	addi	r21,sp,100
  809a5c:	9c3fed16 	blt	r19,r16,809a14 <___vfprintf_internal_r+0x554>
  809a60:	9425883a 	add	r18,r18,r16
  809a64:	8c400044 	addi	r17,r17,1
  809a68:	008001c4 	movi	r2,7
  809a6c:	af000015 	stw	fp,0(r21)
  809a70:	ac000115 	stw	r16,4(r21)
  809a74:	dc800e15 	stw	r18,56(sp)
  809a78:	dc400d15 	stw	r17,52(sp)
  809a7c:	14418216 	blt	r2,r17,80a088 <___vfprintf_internal_r+0xbc8>
  809a80:	ad400204 	addi	r21,r21,8
  809a84:	d9014c17 	ldw	r4,1328(sp)
  809a88:	2080400c 	andi	r2,r4,256
  809a8c:	10004a1e 	bne	r2,zero,809bb8 <___vfprintf_internal_r+0x6f8>
  809a90:	d9414117 	ldw	r5,1284(sp)
  809a94:	91e5883a 	add	r18,r18,r7
  809a98:	8c400044 	addi	r17,r17,1
  809a9c:	008001c4 	movi	r2,7
  809aa0:	a9400015 	stw	r5,0(r21)
  809aa4:	a9c00115 	stw	r7,4(r21)
  809aa8:	dc800e15 	stw	r18,56(sp)
  809aac:	dc400d15 	stw	r17,52(sp)
  809ab0:	14416716 	blt	r2,r17,80a050 <___vfprintf_internal_r+0xb90>
  809ab4:	a8c00204 	addi	r3,r21,8
  809ab8:	d9814c17 	ldw	r6,1328(sp)
  809abc:	3080010c 	andi	r2,r6,4
  809ac0:	10002826 	beq	r2,zero,809b64 <___vfprintf_internal_r+0x6a4>
  809ac4:	d8814a17 	ldw	r2,1320(sp)
  809ac8:	d9014517 	ldw	r4,1300(sp)
  809acc:	1121c83a 	sub	r16,r2,r4
  809ad0:	0400240e 	bge	zero,r16,809b64 <___vfprintf_internal_r+0x6a4>
  809ad4:	00800404 	movi	r2,16
  809ad8:	1404550e 	bge	r2,r16,80ac30 <___vfprintf_internal_r+0x1770>
  809adc:	dc400d17 	ldw	r17,52(sp)
  809ae0:	1027883a 	mov	r19,r2
  809ae4:	07002074 	movhi	fp,129
  809ae8:	e7025b84 	addi	fp,fp,2414
  809aec:	050001c4 	movi	r20,7
  809af0:	00000306 	br	809b00 <___vfprintf_internal_r+0x640>
  809af4:	843ffc04 	addi	r16,r16,-16
  809af8:	18c00204 	addi	r3,r3,8
  809afc:	9c00110e 	bge	r19,r16,809b44 <___vfprintf_internal_r+0x684>
  809b00:	94800404 	addi	r18,r18,16
  809b04:	8c400044 	addi	r17,r17,1
  809b08:	1f000015 	stw	fp,0(r3)
  809b0c:	1cc00115 	stw	r19,4(r3)
  809b10:	dc800e15 	stw	r18,56(sp)
  809b14:	dc400d15 	stw	r17,52(sp)
  809b18:	a47ff60e 	bge	r20,r17,809af4 <___vfprintf_internal_r+0x634>
  809b1c:	d9014f17 	ldw	r4,1340(sp)
  809b20:	b00b883a 	mov	r5,r22
  809b24:	d9800c04 	addi	r6,sp,48
  809b28:	08094680 	call	809468 <__sprint_r>
  809b2c:	10001c1e 	bne	r2,zero,809ba0 <___vfprintf_internal_r+0x6e0>
  809b30:	843ffc04 	addi	r16,r16,-16
  809b34:	dc800e17 	ldw	r18,56(sp)
  809b38:	dc400d17 	ldw	r17,52(sp)
  809b3c:	d8c01904 	addi	r3,sp,100
  809b40:	9c3fef16 	blt	r19,r16,809b00 <___vfprintf_internal_r+0x640>
  809b44:	9425883a 	add	r18,r18,r16
  809b48:	8c400044 	addi	r17,r17,1
  809b4c:	008001c4 	movi	r2,7
  809b50:	1f000015 	stw	fp,0(r3)
  809b54:	1c000115 	stw	r16,4(r3)
  809b58:	dc800e15 	stw	r18,56(sp)
  809b5c:	dc400d15 	stw	r17,52(sp)
  809b60:	1440cb16 	blt	r2,r17,809e90 <___vfprintf_internal_r+0x9d0>
  809b64:	d8814a17 	ldw	r2,1320(sp)
  809b68:	d9414517 	ldw	r5,1300(sp)
  809b6c:	1140010e 	bge	r2,r5,809b74 <___vfprintf_internal_r+0x6b4>
  809b70:	2805883a 	mov	r2,r5
  809b74:	d9814b17 	ldw	r6,1324(sp)
  809b78:	308d883a 	add	r6,r6,r2
  809b7c:	d9814b15 	stw	r6,1324(sp)
  809b80:	90013b1e 	bne	r18,zero,80a070 <___vfprintf_internal_r+0xbb0>
  809b84:	d9c14017 	ldw	r7,1280(sp)
  809b88:	dd401904 	addi	r21,sp,100
  809b8c:	d8000d15 	stw	zero,52(sp)
  809b90:	003ea706 	br	809630 <___vfprintf_internal_r+0x170>
  809b94:	d8800e17 	ldw	r2,56(sp)
  809b98:	1005451e 	bne	r2,zero,80b0b0 <___vfprintf_internal_r+0x1bf0>
  809b9c:	d8000d15 	stw	zero,52(sp)
  809ba0:	b080030b 	ldhu	r2,12(r22)
  809ba4:	1080100c 	andi	r2,r2,64
  809ba8:	103e8726 	beq	r2,zero,8095c8 <___vfprintf_internal_r+0x108>
  809bac:	00bfffc4 	movi	r2,-1
  809bb0:	d8814b15 	stw	r2,1324(sp)
  809bb4:	003e8406 	br	8095c8 <___vfprintf_internal_r+0x108>
  809bb8:	d9814d17 	ldw	r6,1332(sp)
  809bbc:	00801944 	movi	r2,101
  809bc0:	11806e16 	blt	r2,r6,809d7c <___vfprintf_internal_r+0x8bc>
  809bc4:	d9414717 	ldw	r5,1308(sp)
  809bc8:	00c00044 	movi	r3,1
  809bcc:	1943490e 	bge	r3,r5,80a8f4 <___vfprintf_internal_r+0x1434>
  809bd0:	d8814117 	ldw	r2,1284(sp)
  809bd4:	94800044 	addi	r18,r18,1
  809bd8:	8c400044 	addi	r17,r17,1
  809bdc:	a8800015 	stw	r2,0(r21)
  809be0:	008001c4 	movi	r2,7
  809be4:	a8c00115 	stw	r3,4(r21)
  809be8:	dc800e15 	stw	r18,56(sp)
  809bec:	dc400d15 	stw	r17,52(sp)
  809bf0:	1441ca16 	blt	r2,r17,80a31c <___vfprintf_internal_r+0xe5c>
  809bf4:	a8c00204 	addi	r3,r21,8
  809bf8:	d9014917 	ldw	r4,1316(sp)
  809bfc:	00800044 	movi	r2,1
  809c00:	94800044 	addi	r18,r18,1
  809c04:	8c400044 	addi	r17,r17,1
  809c08:	18800115 	stw	r2,4(r3)
  809c0c:	008001c4 	movi	r2,7
  809c10:	19000015 	stw	r4,0(r3)
  809c14:	dc800e15 	stw	r18,56(sp)
  809c18:	dc400d15 	stw	r17,52(sp)
  809c1c:	1441b616 	blt	r2,r17,80a2f8 <___vfprintf_internal_r+0xe38>
  809c20:	1cc00204 	addi	r19,r3,8
  809c24:	d9014217 	ldw	r4,1288(sp)
  809c28:	d9414317 	ldw	r5,1292(sp)
  809c2c:	000d883a 	mov	r6,zero
  809c30:	000f883a 	mov	r7,zero
  809c34:	080fa400 	call	80fa40 <__nedf2>
  809c38:	10017426 	beq	r2,zero,80a20c <___vfprintf_internal_r+0xd4c>
  809c3c:	d9414717 	ldw	r5,1308(sp)
  809c40:	d9814117 	ldw	r6,1284(sp)
  809c44:	8c400044 	addi	r17,r17,1
  809c48:	2c85883a 	add	r2,r5,r18
  809c4c:	14bfffc4 	addi	r18,r2,-1
  809c50:	28bfffc4 	addi	r2,r5,-1
  809c54:	30c00044 	addi	r3,r6,1
  809c58:	98800115 	stw	r2,4(r19)
  809c5c:	008001c4 	movi	r2,7
  809c60:	98c00015 	stw	r3,0(r19)
  809c64:	dc800e15 	stw	r18,56(sp)
  809c68:	dc400d15 	stw	r17,52(sp)
  809c6c:	14418e16 	blt	r2,r17,80a2a8 <___vfprintf_internal_r+0xde8>
  809c70:	9cc00204 	addi	r19,r19,8
  809c74:	d9414817 	ldw	r5,1312(sp)
  809c78:	d8800804 	addi	r2,sp,32
  809c7c:	8c400044 	addi	r17,r17,1
  809c80:	9165883a 	add	r18,r18,r5
  809c84:	98800015 	stw	r2,0(r19)
  809c88:	008001c4 	movi	r2,7
  809c8c:	99400115 	stw	r5,4(r19)
  809c90:	dc800e15 	stw	r18,56(sp)
  809c94:	dc400d15 	stw	r17,52(sp)
  809c98:	1440ed16 	blt	r2,r17,80a050 <___vfprintf_internal_r+0xb90>
  809c9c:	98c00204 	addi	r3,r19,8
  809ca0:	003f8506 	br	809ab8 <___vfprintf_internal_r+0x5f8>
  809ca4:	d9814a17 	ldw	r6,1320(sp)
  809ca8:	d8814517 	ldw	r2,1300(sp)
  809cac:	30a1c83a 	sub	r16,r6,r2
  809cb0:	043f4b0e 	bge	zero,r16,8099e0 <___vfprintf_internal_r+0x520>
  809cb4:	00800404 	movi	r2,16
  809cb8:	14043a0e 	bge	r2,r16,80ada4 <___vfprintf_internal_r+0x18e4>
  809cbc:	1027883a 	mov	r19,r2
  809cc0:	07002074 	movhi	fp,129
  809cc4:	e7025784 	addi	fp,fp,2398
  809cc8:	050001c4 	movi	r20,7
  809ccc:	00000306 	br	809cdc <___vfprintf_internal_r+0x81c>
  809cd0:	843ffc04 	addi	r16,r16,-16
  809cd4:	ad400204 	addi	r21,r21,8
  809cd8:	9c00130e 	bge	r19,r16,809d28 <___vfprintf_internal_r+0x868>
  809cdc:	94800404 	addi	r18,r18,16
  809ce0:	8c400044 	addi	r17,r17,1
  809ce4:	af000015 	stw	fp,0(r21)
  809ce8:	acc00115 	stw	r19,4(r21)
  809cec:	dc800e15 	stw	r18,56(sp)
  809cf0:	dc400d15 	stw	r17,52(sp)
  809cf4:	a47ff60e 	bge	r20,r17,809cd0 <___vfprintf_internal_r+0x810>
  809cf8:	d9014f17 	ldw	r4,1340(sp)
  809cfc:	b00b883a 	mov	r5,r22
  809d00:	d9800c04 	addi	r6,sp,48
  809d04:	d9c15115 	stw	r7,1348(sp)
  809d08:	08094680 	call	809468 <__sprint_r>
  809d0c:	d9c15117 	ldw	r7,1348(sp)
  809d10:	103fa31e 	bne	r2,zero,809ba0 <___vfprintf_internal_r+0x6e0>
  809d14:	843ffc04 	addi	r16,r16,-16
  809d18:	dc800e17 	ldw	r18,56(sp)
  809d1c:	dc400d17 	ldw	r17,52(sp)
  809d20:	dd401904 	addi	r21,sp,100
  809d24:	9c3fed16 	blt	r19,r16,809cdc <___vfprintf_internal_r+0x81c>
  809d28:	9425883a 	add	r18,r18,r16
  809d2c:	8c400044 	addi	r17,r17,1
  809d30:	008001c4 	movi	r2,7
  809d34:	af000015 	stw	fp,0(r21)
  809d38:	ac000115 	stw	r16,4(r21)
  809d3c:	dc800e15 	stw	r18,56(sp)
  809d40:	dc400d15 	stw	r17,52(sp)
  809d44:	14416116 	blt	r2,r17,80a2cc <___vfprintf_internal_r+0xe0c>
  809d48:	ad400204 	addi	r21,r21,8
  809d4c:	003f2406 	br	8099e0 <___vfprintf_internal_r+0x520>
  809d50:	d9014f17 	ldw	r4,1340(sp)
  809d54:	0801c700 	call	801c70 <__sinit>
  809d58:	d9c15117 	ldw	r7,1348(sp)
  809d5c:	003def06 	br	80951c <___vfprintf_internal_r+0x5c>
  809d60:	d9014f17 	ldw	r4,1340(sp)
  809d64:	b00b883a 	mov	r5,r22
  809d68:	d9c15115 	stw	r7,1348(sp)
  809d6c:	080189c0 	call	80189c <__swsetup_r>
  809d70:	d9c15117 	ldw	r7,1348(sp)
  809d74:	103dee26 	beq	r2,zero,809530 <___vfprintf_internal_r+0x70>
  809d78:	003f8c06 	br	809bac <___vfprintf_internal_r+0x6ec>
  809d7c:	d9014217 	ldw	r4,1288(sp)
  809d80:	d9414317 	ldw	r5,1292(sp)
  809d84:	000d883a 	mov	r6,zero
  809d88:	000f883a 	mov	r7,zero
  809d8c:	080f9b80 	call	80f9b8 <__eqdf2>
  809d90:	1000f21e 	bne	r2,zero,80a15c <___vfprintf_internal_r+0xc9c>
  809d94:	00802074 	movhi	r2,129
  809d98:	10825704 	addi	r2,r2,2396
  809d9c:	94800044 	addi	r18,r18,1
  809da0:	8c400044 	addi	r17,r17,1
  809da4:	a8800015 	stw	r2,0(r21)
  809da8:	00c00044 	movi	r3,1
  809dac:	008001c4 	movi	r2,7
  809db0:	a8c00115 	stw	r3,4(r21)
  809db4:	dc800e15 	stw	r18,56(sp)
  809db8:	dc400d15 	stw	r17,52(sp)
  809dbc:	14430016 	blt	r2,r17,80a9c0 <___vfprintf_internal_r+0x1500>
  809dc0:	a8c00204 	addi	r3,r21,8
  809dc4:	d8800517 	ldw	r2,20(sp)
  809dc8:	d9014717 	ldw	r4,1308(sp)
  809dcc:	11015c0e 	bge	r2,r4,80a340 <___vfprintf_internal_r+0xe80>
  809dd0:	dc400d17 	ldw	r17,52(sp)
  809dd4:	d9814917 	ldw	r6,1316(sp)
  809dd8:	00800044 	movi	r2,1
  809ddc:	94800044 	addi	r18,r18,1
  809de0:	8c400044 	addi	r17,r17,1
  809de4:	18800115 	stw	r2,4(r3)
  809de8:	008001c4 	movi	r2,7
  809dec:	19800015 	stw	r6,0(r3)
  809df0:	dc800e15 	stw	r18,56(sp)
  809df4:	dc400d15 	stw	r17,52(sp)
  809df8:	14431616 	blt	r2,r17,80aa54 <___vfprintf_internal_r+0x1594>
  809dfc:	18c00204 	addi	r3,r3,8
  809e00:	d8814717 	ldw	r2,1308(sp)
  809e04:	143fffc4 	addi	r16,r2,-1
  809e08:	043f2b0e 	bge	zero,r16,809ab8 <___vfprintf_internal_r+0x5f8>
  809e0c:	00800404 	movi	r2,16
  809e10:	1402a80e 	bge	r2,r16,80a8b4 <___vfprintf_internal_r+0x13f4>
  809e14:	dc400d17 	ldw	r17,52(sp)
  809e18:	1027883a 	mov	r19,r2
  809e1c:	07002074 	movhi	fp,129
  809e20:	e7025784 	addi	fp,fp,2398
  809e24:	050001c4 	movi	r20,7
  809e28:	00000306 	br	809e38 <___vfprintf_internal_r+0x978>
  809e2c:	18c00204 	addi	r3,r3,8
  809e30:	843ffc04 	addi	r16,r16,-16
  809e34:	9c02a20e 	bge	r19,r16,80a8c0 <___vfprintf_internal_r+0x1400>
  809e38:	94800404 	addi	r18,r18,16
  809e3c:	8c400044 	addi	r17,r17,1
  809e40:	1f000015 	stw	fp,0(r3)
  809e44:	1cc00115 	stw	r19,4(r3)
  809e48:	dc800e15 	stw	r18,56(sp)
  809e4c:	dc400d15 	stw	r17,52(sp)
  809e50:	a47ff60e 	bge	r20,r17,809e2c <___vfprintf_internal_r+0x96c>
  809e54:	d9014f17 	ldw	r4,1340(sp)
  809e58:	b00b883a 	mov	r5,r22
  809e5c:	d9800c04 	addi	r6,sp,48
  809e60:	08094680 	call	809468 <__sprint_r>
  809e64:	103f4e1e 	bne	r2,zero,809ba0 <___vfprintf_internal_r+0x6e0>
  809e68:	dc800e17 	ldw	r18,56(sp)
  809e6c:	dc400d17 	ldw	r17,52(sp)
  809e70:	d8c01904 	addi	r3,sp,100
  809e74:	003fee06 	br	809e30 <___vfprintf_internal_r+0x970>
  809e78:	d8802c0b 	ldhu	r2,176(sp)
  809e7c:	00ffffc4 	movi	r3,-1
  809e80:	d8c14b15 	stw	r3,1324(sp)
  809e84:	1080100c 	andi	r2,r2,64
  809e88:	103dcc1e 	bne	r2,zero,8095bc <___vfprintf_internal_r+0xfc>
  809e8c:	003dce06 	br	8095c8 <___vfprintf_internal_r+0x108>
  809e90:	d9014f17 	ldw	r4,1340(sp)
  809e94:	b00b883a 	mov	r5,r22
  809e98:	d9800c04 	addi	r6,sp,48
  809e9c:	08094680 	call	809468 <__sprint_r>
  809ea0:	103f3f1e 	bne	r2,zero,809ba0 <___vfprintf_internal_r+0x6e0>
  809ea4:	dc800e17 	ldw	r18,56(sp)
  809ea8:	003f2e06 	br	809b64 <___vfprintf_internal_r+0x6a4>
  809eac:	d9414c17 	ldw	r5,1328(sp)
  809eb0:	29400414 	ori	r5,r5,16
  809eb4:	d9414c15 	stw	r5,1328(sp)
  809eb8:	d9814c17 	ldw	r6,1328(sp)
  809ebc:	3080080c 	andi	r2,r6,32
  809ec0:	10014f1e 	bne	r2,zero,80a400 <___vfprintf_internal_r+0xf40>
  809ec4:	d8c14c17 	ldw	r3,1328(sp)
  809ec8:	1880040c 	andi	r2,r3,16
  809ecc:	1002f01e 	bne	r2,zero,80aa90 <___vfprintf_internal_r+0x15d0>
  809ed0:	d9014c17 	ldw	r4,1328(sp)
  809ed4:	2080100c 	andi	r2,r4,64
  809ed8:	1002ed26 	beq	r2,zero,80aa90 <___vfprintf_internal_r+0x15d0>
  809edc:	3880000f 	ldh	r2,0(r7)
  809ee0:	39c00104 	addi	r7,r7,4
  809ee4:	d9c14015 	stw	r7,1280(sp)
  809ee8:	1023d7fa 	srai	r17,r2,31
  809eec:	1021883a 	mov	r16,r2
  809ef0:	88037816 	blt	r17,zero,80acd4 <___vfprintf_internal_r+0x1814>
  809ef4:	01000044 	movi	r4,1
  809ef8:	98000416 	blt	r19,zero,809f0c <___vfprintf_internal_r+0xa4c>
  809efc:	d8c14c17 	ldw	r3,1328(sp)
  809f00:	00bfdfc4 	movi	r2,-129
  809f04:	1886703a 	and	r3,r3,r2
  809f08:	d8c14c15 	stw	r3,1328(sp)
  809f0c:	8444b03a 	or	r2,r16,r17
  809f10:	10022c1e 	bne	r2,zero,80a7c4 <___vfprintf_internal_r+0x1304>
  809f14:	98022b1e 	bne	r19,zero,80a7c4 <___vfprintf_internal_r+0x1304>
  809f18:	20803fcc 	andi	r2,r4,255
  809f1c:	1002a126 	beq	r2,zero,80a9a4 <___vfprintf_internal_r+0x14e4>
  809f20:	d8c01904 	addi	r3,sp,100
  809f24:	dd000f04 	addi	r20,sp,60
  809f28:	d8c14115 	stw	r3,1284(sp)
  809f2c:	d8c14117 	ldw	r3,1284(sp)
  809f30:	dcc14515 	stw	r19,1300(sp)
  809f34:	a0c5c83a 	sub	r2,r20,r3
  809f38:	11c00a04 	addi	r7,r2,40
  809f3c:	99c0010e 	bge	r19,r7,809f44 <___vfprintf_internal_r+0xa84>
  809f40:	d9c14515 	stw	r7,1300(sp)
  809f44:	dcc14615 	stw	r19,1304(sp)
  809f48:	d8800407 	ldb	r2,16(sp)
  809f4c:	103e4c26 	beq	r2,zero,809880 <___vfprintf_internal_r+0x3c0>
  809f50:	d8814517 	ldw	r2,1300(sp)
  809f54:	10800044 	addi	r2,r2,1
  809f58:	d8814515 	stw	r2,1300(sp)
  809f5c:	003e4806 	br	809880 <___vfprintf_internal_r+0x3c0>
  809f60:	d9814c17 	ldw	r6,1328(sp)
  809f64:	31800414 	ori	r6,r6,16
  809f68:	d9814c15 	stw	r6,1328(sp)
  809f6c:	d8c14c17 	ldw	r3,1328(sp)
  809f70:	1880080c 	andi	r2,r3,32
  809f74:	1001271e 	bne	r2,zero,80a414 <___vfprintf_internal_r+0xf54>
  809f78:	d9414c17 	ldw	r5,1328(sp)
  809f7c:	2880040c 	andi	r2,r5,16
  809f80:	1002bc1e 	bne	r2,zero,80aa74 <___vfprintf_internal_r+0x15b4>
  809f84:	d9814c17 	ldw	r6,1328(sp)
  809f88:	3080100c 	andi	r2,r6,64
  809f8c:	1002b926 	beq	r2,zero,80aa74 <___vfprintf_internal_r+0x15b4>
  809f90:	3c00000b 	ldhu	r16,0(r7)
  809f94:	0009883a 	mov	r4,zero
  809f98:	39c00104 	addi	r7,r7,4
  809f9c:	0023883a 	mov	r17,zero
  809fa0:	d9c14015 	stw	r7,1280(sp)
  809fa4:	d8000405 	stb	zero,16(sp)
  809fa8:	003fd306 	br	809ef8 <___vfprintf_internal_r+0xa38>
  809fac:	d9014c17 	ldw	r4,1328(sp)
  809fb0:	21000414 	ori	r4,r4,16
  809fb4:	d9014c15 	stw	r4,1328(sp)
  809fb8:	d9414c17 	ldw	r5,1328(sp)
  809fbc:	2880080c 	andi	r2,r5,32
  809fc0:	1001081e 	bne	r2,zero,80a3e4 <___vfprintf_internal_r+0xf24>
  809fc4:	d8c14c17 	ldw	r3,1328(sp)
  809fc8:	1880040c 	andi	r2,r3,16
  809fcc:	1002b61e 	bne	r2,zero,80aaa8 <___vfprintf_internal_r+0x15e8>
  809fd0:	d9014c17 	ldw	r4,1328(sp)
  809fd4:	2080100c 	andi	r2,r4,64
  809fd8:	1002b326 	beq	r2,zero,80aaa8 <___vfprintf_internal_r+0x15e8>
  809fdc:	3c00000b 	ldhu	r16,0(r7)
  809fe0:	01000044 	movi	r4,1
  809fe4:	39c00104 	addi	r7,r7,4
  809fe8:	0023883a 	mov	r17,zero
  809fec:	d9c14015 	stw	r7,1280(sp)
  809ff0:	d8000405 	stb	zero,16(sp)
  809ff4:	003fc006 	br	809ef8 <___vfprintf_internal_r+0xa38>
  809ff8:	d9014f17 	ldw	r4,1340(sp)
  809ffc:	b00b883a 	mov	r5,r22
  80a000:	d9800c04 	addi	r6,sp,48
  80a004:	08094680 	call	809468 <__sprint_r>
  80a008:	103ee51e 	bne	r2,zero,809ba0 <___vfprintf_internal_r+0x6e0>
  80a00c:	dc800e17 	ldw	r18,56(sp)
  80a010:	d8c01904 	addi	r3,sp,100
  80a014:	d9814c17 	ldw	r6,1328(sp)
  80a018:	3080004c 	andi	r2,r6,1
  80a01c:	1005003a 	cmpeq	r2,r2,zero
  80a020:	103ea51e 	bne	r2,zero,809ab8 <___vfprintf_internal_r+0x5f8>
  80a024:	00800044 	movi	r2,1
  80a028:	dc400d17 	ldw	r17,52(sp)
  80a02c:	18800115 	stw	r2,4(r3)
  80a030:	d8814917 	ldw	r2,1316(sp)
  80a034:	94800044 	addi	r18,r18,1
  80a038:	8c400044 	addi	r17,r17,1
  80a03c:	18800015 	stw	r2,0(r3)
  80a040:	008001c4 	movi	r2,7
  80a044:	dc800e15 	stw	r18,56(sp)
  80a048:	dc400d15 	stw	r17,52(sp)
  80a04c:	1442240e 	bge	r2,r17,80a8e0 <___vfprintf_internal_r+0x1420>
  80a050:	d9014f17 	ldw	r4,1340(sp)
  80a054:	b00b883a 	mov	r5,r22
  80a058:	d9800c04 	addi	r6,sp,48
  80a05c:	08094680 	call	809468 <__sprint_r>
  80a060:	103ecf1e 	bne	r2,zero,809ba0 <___vfprintf_internal_r+0x6e0>
  80a064:	dc800e17 	ldw	r18,56(sp)
  80a068:	d8c01904 	addi	r3,sp,100
  80a06c:	003e9206 	br	809ab8 <___vfprintf_internal_r+0x5f8>
  80a070:	d9014f17 	ldw	r4,1340(sp)
  80a074:	b00b883a 	mov	r5,r22
  80a078:	d9800c04 	addi	r6,sp,48
  80a07c:	08094680 	call	809468 <__sprint_r>
  80a080:	103ec026 	beq	r2,zero,809b84 <___vfprintf_internal_r+0x6c4>
  80a084:	003ec606 	br	809ba0 <___vfprintf_internal_r+0x6e0>
  80a088:	d9014f17 	ldw	r4,1340(sp)
  80a08c:	b00b883a 	mov	r5,r22
  80a090:	d9800c04 	addi	r6,sp,48
  80a094:	d9c15115 	stw	r7,1348(sp)
  80a098:	08094680 	call	809468 <__sprint_r>
  80a09c:	d9c15117 	ldw	r7,1348(sp)
  80a0a0:	103ebf1e 	bne	r2,zero,809ba0 <___vfprintf_internal_r+0x6e0>
  80a0a4:	dc800e17 	ldw	r18,56(sp)
  80a0a8:	dc400d17 	ldw	r17,52(sp)
  80a0ac:	dd401904 	addi	r21,sp,100
  80a0b0:	003e7406 	br	809a84 <___vfprintf_internal_r+0x5c4>
  80a0b4:	d9014f17 	ldw	r4,1340(sp)
  80a0b8:	b00b883a 	mov	r5,r22
  80a0bc:	d9800c04 	addi	r6,sp,48
  80a0c0:	d9c15115 	stw	r7,1348(sp)
  80a0c4:	08094680 	call	809468 <__sprint_r>
  80a0c8:	d9c15117 	ldw	r7,1348(sp)
  80a0cc:	103eb41e 	bne	r2,zero,809ba0 <___vfprintf_internal_r+0x6e0>
  80a0d0:	dd401904 	addi	r21,sp,100
  80a0d4:	003d6d06 	br	80968c <___vfprintf_internal_r+0x1cc>
  80a0d8:	d9014f17 	ldw	r4,1340(sp)
  80a0dc:	b00b883a 	mov	r5,r22
  80a0e0:	d9800c04 	addi	r6,sp,48
  80a0e4:	d9c15115 	stw	r7,1348(sp)
  80a0e8:	08094680 	call	809468 <__sprint_r>
  80a0ec:	d9c15117 	ldw	r7,1348(sp)
  80a0f0:	103eab1e 	bne	r2,zero,809ba0 <___vfprintf_internal_r+0x6e0>
  80a0f4:	dc800e17 	ldw	r18,56(sp)
  80a0f8:	dc400d17 	ldw	r17,52(sp)
  80a0fc:	dd401904 	addi	r21,sp,100
  80a100:	003e3406 	br	8099d4 <___vfprintf_internal_r+0x514>
  80a104:	d9014f17 	ldw	r4,1340(sp)
  80a108:	b00b883a 	mov	r5,r22
  80a10c:	d9800c04 	addi	r6,sp,48
  80a110:	d9c15115 	stw	r7,1348(sp)
  80a114:	08094680 	call	809468 <__sprint_r>
  80a118:	d9c15117 	ldw	r7,1348(sp)
  80a11c:	103ea01e 	bne	r2,zero,809ba0 <___vfprintf_internal_r+0x6e0>
  80a120:	dc800e17 	ldw	r18,56(sp)
  80a124:	dc400d17 	ldw	r17,52(sp)
  80a128:	dd401904 	addi	r21,sp,100
  80a12c:	003e1c06 	br	8099a0 <___vfprintf_internal_r+0x4e0>
  80a130:	d9014f17 	ldw	r4,1340(sp)
  80a134:	b00b883a 	mov	r5,r22
  80a138:	d9800c04 	addi	r6,sp,48
  80a13c:	d9c15115 	stw	r7,1348(sp)
  80a140:	08094680 	call	809468 <__sprint_r>
  80a144:	d9c15117 	ldw	r7,1348(sp)
  80a148:	103e951e 	bne	r2,zero,809ba0 <___vfprintf_internal_r+0x6e0>
  80a14c:	dc800e17 	ldw	r18,56(sp)
  80a150:	dc400d17 	ldw	r17,52(sp)
  80a154:	dd401904 	addi	r21,sp,100
  80a158:	003e0406 	br	80996c <___vfprintf_internal_r+0x4ac>
  80a15c:	d9000517 	ldw	r4,20(sp)
  80a160:	0102580e 	bge	zero,r4,80aac4 <___vfprintf_internal_r+0x1604>
  80a164:	d9814717 	ldw	r6,1308(sp)
  80a168:	21807a16 	blt	r4,r6,80a354 <___vfprintf_internal_r+0xe94>
  80a16c:	d8814117 	ldw	r2,1284(sp)
  80a170:	91a5883a 	add	r18,r18,r6
  80a174:	8c400044 	addi	r17,r17,1
  80a178:	a8800015 	stw	r2,0(r21)
  80a17c:	008001c4 	movi	r2,7
  80a180:	a9800115 	stw	r6,4(r21)
  80a184:	dc800e15 	stw	r18,56(sp)
  80a188:	dc400d15 	stw	r17,52(sp)
  80a18c:	1442fc16 	blt	r2,r17,80ad80 <___vfprintf_internal_r+0x18c0>
  80a190:	a8c00204 	addi	r3,r21,8
  80a194:	d9414717 	ldw	r5,1308(sp)
  80a198:	2161c83a 	sub	r16,r4,r5
  80a19c:	043f9d0e 	bge	zero,r16,80a014 <___vfprintf_internal_r+0xb54>
  80a1a0:	00800404 	movi	r2,16
  80a1a4:	1402190e 	bge	r2,r16,80aa0c <___vfprintf_internal_r+0x154c>
  80a1a8:	dc400d17 	ldw	r17,52(sp)
  80a1ac:	1027883a 	mov	r19,r2
  80a1b0:	07002074 	movhi	fp,129
  80a1b4:	e7025784 	addi	fp,fp,2398
  80a1b8:	050001c4 	movi	r20,7
  80a1bc:	00000306 	br	80a1cc <___vfprintf_internal_r+0xd0c>
  80a1c0:	18c00204 	addi	r3,r3,8
  80a1c4:	843ffc04 	addi	r16,r16,-16
  80a1c8:	9c02130e 	bge	r19,r16,80aa18 <___vfprintf_internal_r+0x1558>
  80a1cc:	94800404 	addi	r18,r18,16
  80a1d0:	8c400044 	addi	r17,r17,1
  80a1d4:	1f000015 	stw	fp,0(r3)
  80a1d8:	1cc00115 	stw	r19,4(r3)
  80a1dc:	dc800e15 	stw	r18,56(sp)
  80a1e0:	dc400d15 	stw	r17,52(sp)
  80a1e4:	a47ff60e 	bge	r20,r17,80a1c0 <___vfprintf_internal_r+0xd00>
  80a1e8:	d9014f17 	ldw	r4,1340(sp)
  80a1ec:	b00b883a 	mov	r5,r22
  80a1f0:	d9800c04 	addi	r6,sp,48
  80a1f4:	08094680 	call	809468 <__sprint_r>
  80a1f8:	103e691e 	bne	r2,zero,809ba0 <___vfprintf_internal_r+0x6e0>
  80a1fc:	dc800e17 	ldw	r18,56(sp)
  80a200:	dc400d17 	ldw	r17,52(sp)
  80a204:	d8c01904 	addi	r3,sp,100
  80a208:	003fee06 	br	80a1c4 <___vfprintf_internal_r+0xd04>
  80a20c:	d8814717 	ldw	r2,1308(sp)
  80a210:	143fffc4 	addi	r16,r2,-1
  80a214:	043e970e 	bge	zero,r16,809c74 <___vfprintf_internal_r+0x7b4>
  80a218:	00800404 	movi	r2,16
  80a21c:	1400180e 	bge	r2,r16,80a280 <___vfprintf_internal_r+0xdc0>
  80a220:	1029883a 	mov	r20,r2
  80a224:	07002074 	movhi	fp,129
  80a228:	e7025784 	addi	fp,fp,2398
  80a22c:	054001c4 	movi	r21,7
  80a230:	00000306 	br	80a240 <___vfprintf_internal_r+0xd80>
  80a234:	9cc00204 	addi	r19,r19,8
  80a238:	843ffc04 	addi	r16,r16,-16
  80a23c:	a400120e 	bge	r20,r16,80a288 <___vfprintf_internal_r+0xdc8>
  80a240:	94800404 	addi	r18,r18,16
  80a244:	8c400044 	addi	r17,r17,1
  80a248:	9f000015 	stw	fp,0(r19)
  80a24c:	9d000115 	stw	r20,4(r19)
  80a250:	dc800e15 	stw	r18,56(sp)
  80a254:	dc400d15 	stw	r17,52(sp)
  80a258:	ac7ff60e 	bge	r21,r17,80a234 <___vfprintf_internal_r+0xd74>
  80a25c:	d9014f17 	ldw	r4,1340(sp)
  80a260:	b00b883a 	mov	r5,r22
  80a264:	d9800c04 	addi	r6,sp,48
  80a268:	08094680 	call	809468 <__sprint_r>
  80a26c:	103e4c1e 	bne	r2,zero,809ba0 <___vfprintf_internal_r+0x6e0>
  80a270:	dc800e17 	ldw	r18,56(sp)
  80a274:	dc400d17 	ldw	r17,52(sp)
  80a278:	dcc01904 	addi	r19,sp,100
  80a27c:	003fee06 	br	80a238 <___vfprintf_internal_r+0xd78>
  80a280:	07002074 	movhi	fp,129
  80a284:	e7025784 	addi	fp,fp,2398
  80a288:	9425883a 	add	r18,r18,r16
  80a28c:	8c400044 	addi	r17,r17,1
  80a290:	008001c4 	movi	r2,7
  80a294:	9f000015 	stw	fp,0(r19)
  80a298:	9c000115 	stw	r16,4(r19)
  80a29c:	dc800e15 	stw	r18,56(sp)
  80a2a0:	dc400d15 	stw	r17,52(sp)
  80a2a4:	147e720e 	bge	r2,r17,809c70 <___vfprintf_internal_r+0x7b0>
  80a2a8:	d9014f17 	ldw	r4,1340(sp)
  80a2ac:	b00b883a 	mov	r5,r22
  80a2b0:	d9800c04 	addi	r6,sp,48
  80a2b4:	08094680 	call	809468 <__sprint_r>
  80a2b8:	103e391e 	bne	r2,zero,809ba0 <___vfprintf_internal_r+0x6e0>
  80a2bc:	dc800e17 	ldw	r18,56(sp)
  80a2c0:	dc400d17 	ldw	r17,52(sp)
  80a2c4:	dcc01904 	addi	r19,sp,100
  80a2c8:	003e6a06 	br	809c74 <___vfprintf_internal_r+0x7b4>
  80a2cc:	d9014f17 	ldw	r4,1340(sp)
  80a2d0:	b00b883a 	mov	r5,r22
  80a2d4:	d9800c04 	addi	r6,sp,48
  80a2d8:	d9c15115 	stw	r7,1348(sp)
  80a2dc:	08094680 	call	809468 <__sprint_r>
  80a2e0:	d9c15117 	ldw	r7,1348(sp)
  80a2e4:	103e2e1e 	bne	r2,zero,809ba0 <___vfprintf_internal_r+0x6e0>
  80a2e8:	dc800e17 	ldw	r18,56(sp)
  80a2ec:	dc400d17 	ldw	r17,52(sp)
  80a2f0:	dd401904 	addi	r21,sp,100
  80a2f4:	003dba06 	br	8099e0 <___vfprintf_internal_r+0x520>
  80a2f8:	d9014f17 	ldw	r4,1340(sp)
  80a2fc:	b00b883a 	mov	r5,r22
  80a300:	d9800c04 	addi	r6,sp,48
  80a304:	08094680 	call	809468 <__sprint_r>
  80a308:	103e251e 	bne	r2,zero,809ba0 <___vfprintf_internal_r+0x6e0>
  80a30c:	dc800e17 	ldw	r18,56(sp)
  80a310:	dc400d17 	ldw	r17,52(sp)
  80a314:	dcc01904 	addi	r19,sp,100
  80a318:	003e4206 	br	809c24 <___vfprintf_internal_r+0x764>
  80a31c:	d9014f17 	ldw	r4,1340(sp)
  80a320:	b00b883a 	mov	r5,r22
  80a324:	d9800c04 	addi	r6,sp,48
  80a328:	08094680 	call	809468 <__sprint_r>
  80a32c:	103e1c1e 	bne	r2,zero,809ba0 <___vfprintf_internal_r+0x6e0>
  80a330:	dc800e17 	ldw	r18,56(sp)
  80a334:	dc400d17 	ldw	r17,52(sp)
  80a338:	d8c01904 	addi	r3,sp,100
  80a33c:	003e2e06 	br	809bf8 <___vfprintf_internal_r+0x738>
  80a340:	d9414c17 	ldw	r5,1328(sp)
  80a344:	2880004c 	andi	r2,r5,1
  80a348:	1005003a 	cmpeq	r2,r2,zero
  80a34c:	103dda1e 	bne	r2,zero,809ab8 <___vfprintf_internal_r+0x5f8>
  80a350:	003e9f06 	br	809dd0 <___vfprintf_internal_r+0x910>
  80a354:	d8c14117 	ldw	r3,1284(sp)
  80a358:	9125883a 	add	r18,r18,r4
  80a35c:	8c400044 	addi	r17,r17,1
  80a360:	008001c4 	movi	r2,7
  80a364:	a8c00015 	stw	r3,0(r21)
  80a368:	a9000115 	stw	r4,4(r21)
  80a36c:	dc800e15 	stw	r18,56(sp)
  80a370:	dc400d15 	stw	r17,52(sp)
  80a374:	14426c16 	blt	r2,r17,80ad28 <___vfprintf_internal_r+0x1868>
  80a378:	a8c00204 	addi	r3,r21,8
  80a37c:	d9414917 	ldw	r5,1316(sp)
  80a380:	00800044 	movi	r2,1
  80a384:	94800044 	addi	r18,r18,1
  80a388:	8c400044 	addi	r17,r17,1
  80a38c:	18800115 	stw	r2,4(r3)
  80a390:	008001c4 	movi	r2,7
  80a394:	19400015 	stw	r5,0(r3)
  80a398:	dc800e15 	stw	r18,56(sp)
  80a39c:	dc400d15 	stw	r17,52(sp)
  80a3a0:	2021883a 	mov	r16,r4
  80a3a4:	14425616 	blt	r2,r17,80ad00 <___vfprintf_internal_r+0x1840>
  80a3a8:	19400204 	addi	r5,r3,8
  80a3ac:	d9814717 	ldw	r6,1308(sp)
  80a3b0:	8c400044 	addi	r17,r17,1
  80a3b4:	dc400d15 	stw	r17,52(sp)
  80a3b8:	3107c83a 	sub	r3,r6,r4
  80a3bc:	d9014117 	ldw	r4,1284(sp)
  80a3c0:	90e5883a 	add	r18,r18,r3
  80a3c4:	28c00115 	stw	r3,4(r5)
  80a3c8:	8105883a 	add	r2,r16,r4
  80a3cc:	28800015 	stw	r2,0(r5)
  80a3d0:	008001c4 	movi	r2,7
  80a3d4:	dc800e15 	stw	r18,56(sp)
  80a3d8:	147f1d16 	blt	r2,r17,80a050 <___vfprintf_internal_r+0xb90>
  80a3dc:	28c00204 	addi	r3,r5,8
  80a3e0:	003db506 	br	809ab8 <___vfprintf_internal_r+0x5f8>
  80a3e4:	3c000017 	ldw	r16,0(r7)
  80a3e8:	3c400117 	ldw	r17,4(r7)
  80a3ec:	39800204 	addi	r6,r7,8
  80a3f0:	01000044 	movi	r4,1
  80a3f4:	d9814015 	stw	r6,1280(sp)
  80a3f8:	d8000405 	stb	zero,16(sp)
  80a3fc:	003ebe06 	br	809ef8 <___vfprintf_internal_r+0xa38>
  80a400:	3c000017 	ldw	r16,0(r7)
  80a404:	3c400117 	ldw	r17,4(r7)
  80a408:	38800204 	addi	r2,r7,8
  80a40c:	d8814015 	stw	r2,1280(sp)
  80a410:	003eb706 	br	809ef0 <___vfprintf_internal_r+0xa30>
  80a414:	3c000017 	ldw	r16,0(r7)
  80a418:	3c400117 	ldw	r17,4(r7)
  80a41c:	39000204 	addi	r4,r7,8
  80a420:	d9014015 	stw	r4,1280(sp)
  80a424:	0009883a 	mov	r4,zero
  80a428:	d8000405 	stb	zero,16(sp)
  80a42c:	003eb206 	br	809ef8 <___vfprintf_internal_r+0xa38>
  80a430:	38c00017 	ldw	r3,0(r7)
  80a434:	39c00104 	addi	r7,r7,4
  80a438:	d8c14a15 	stw	r3,1320(sp)
  80a43c:	1800d70e 	bge	r3,zero,80a79c <___vfprintf_internal_r+0x12dc>
  80a440:	00c7c83a 	sub	r3,zero,r3
  80a444:	d8c14a15 	stw	r3,1320(sp)
  80a448:	d9014c17 	ldw	r4,1328(sp)
  80a44c:	b8c00007 	ldb	r3,0(r23)
  80a450:	21000114 	ori	r4,r4,4
  80a454:	d9014c15 	stw	r4,1328(sp)
  80a458:	003c9806 	br	8096bc <___vfprintf_internal_r+0x1fc>
  80a45c:	d9814c17 	ldw	r6,1328(sp)
  80a460:	3080080c 	andi	r2,r6,32
  80a464:	1001f626 	beq	r2,zero,80ac40 <___vfprintf_internal_r+0x1780>
  80a468:	d9014b17 	ldw	r4,1324(sp)
  80a46c:	38800017 	ldw	r2,0(r7)
  80a470:	39c00104 	addi	r7,r7,4
  80a474:	d9c14015 	stw	r7,1280(sp)
  80a478:	2007d7fa 	srai	r3,r4,31
  80a47c:	d9c14017 	ldw	r7,1280(sp)
  80a480:	11000015 	stw	r4,0(r2)
  80a484:	10c00115 	stw	r3,4(r2)
  80a488:	003c6906 	br	809630 <___vfprintf_internal_r+0x170>
  80a48c:	b8c00007 	ldb	r3,0(r23)
  80a490:	00801b04 	movi	r2,108
  80a494:	18825526 	beq	r3,r2,80adec <___vfprintf_internal_r+0x192c>
  80a498:	d9414c17 	ldw	r5,1328(sp)
  80a49c:	29400414 	ori	r5,r5,16
  80a4a0:	d9414c15 	stw	r5,1328(sp)
  80a4a4:	003c8506 	br	8096bc <___vfprintf_internal_r+0x1fc>
  80a4a8:	d9814c17 	ldw	r6,1328(sp)
  80a4ac:	b8c00007 	ldb	r3,0(r23)
  80a4b0:	31800814 	ori	r6,r6,32
  80a4b4:	d9814c15 	stw	r6,1328(sp)
  80a4b8:	003c8006 	br	8096bc <___vfprintf_internal_r+0x1fc>
  80a4bc:	d8814c17 	ldw	r2,1328(sp)
  80a4c0:	3c000017 	ldw	r16,0(r7)
  80a4c4:	00c01e04 	movi	r3,120
  80a4c8:	10800094 	ori	r2,r2,2
  80a4cc:	d8814c15 	stw	r2,1328(sp)
  80a4d0:	39c00104 	addi	r7,r7,4
  80a4d4:	01402074 	movhi	r5,129
  80a4d8:	29424004 	addi	r5,r5,2304
  80a4dc:	00800c04 	movi	r2,48
  80a4e0:	0023883a 	mov	r17,zero
  80a4e4:	01000084 	movi	r4,2
  80a4e8:	d9c14015 	stw	r7,1280(sp)
  80a4ec:	d8c14d15 	stw	r3,1332(sp)
  80a4f0:	d9414415 	stw	r5,1296(sp)
  80a4f4:	d8800445 	stb	r2,17(sp)
  80a4f8:	d8c00485 	stb	r3,18(sp)
  80a4fc:	d8000405 	stb	zero,16(sp)
  80a500:	003e7d06 	br	809ef8 <___vfprintf_internal_r+0xa38>
  80a504:	d8814c17 	ldw	r2,1328(sp)
  80a508:	b8c00007 	ldb	r3,0(r23)
  80a50c:	10801014 	ori	r2,r2,64
  80a510:	d8814c15 	stw	r2,1328(sp)
  80a514:	003c6906 	br	8096bc <___vfprintf_internal_r+0x1fc>
  80a518:	d9414c17 	ldw	r5,1328(sp)
  80a51c:	2880020c 	andi	r2,r5,8
  80a520:	1001e526 	beq	r2,zero,80acb8 <___vfprintf_internal_r+0x17f8>
  80a524:	39800017 	ldw	r6,0(r7)
  80a528:	38800204 	addi	r2,r7,8
  80a52c:	d8814015 	stw	r2,1280(sp)
  80a530:	d9814215 	stw	r6,1288(sp)
  80a534:	39c00117 	ldw	r7,4(r7)
  80a538:	d9c14315 	stw	r7,1292(sp)
  80a53c:	d9014217 	ldw	r4,1288(sp)
  80a540:	d9414317 	ldw	r5,1292(sp)
  80a544:	080dfd80 	call	80dfd8 <__isinfd>
  80a548:	10021d26 	beq	r2,zero,80adc0 <___vfprintf_internal_r+0x1900>
  80a54c:	d9014217 	ldw	r4,1288(sp)
  80a550:	d9414317 	ldw	r5,1292(sp)
  80a554:	000d883a 	mov	r6,zero
  80a558:	000f883a 	mov	r7,zero
  80a55c:	080fbd80 	call	80fbd8 <__ltdf2>
  80a560:	1002d016 	blt	r2,zero,80b0a4 <___vfprintf_internal_r+0x1be4>
  80a564:	d9414d17 	ldw	r5,1332(sp)
  80a568:	008011c4 	movi	r2,71
  80a56c:	11421016 	blt	r2,r5,80adb0 <___vfprintf_internal_r+0x18f0>
  80a570:	01802074 	movhi	r6,129
  80a574:	31824504 	addi	r6,r6,2324
  80a578:	d9814115 	stw	r6,1284(sp)
  80a57c:	d9014c17 	ldw	r4,1328(sp)
  80a580:	00c000c4 	movi	r3,3
  80a584:	00bfdfc4 	movi	r2,-129
  80a588:	2088703a 	and	r4,r4,r2
  80a58c:	180f883a 	mov	r7,r3
  80a590:	d8c14515 	stw	r3,1300(sp)
  80a594:	d9014c15 	stw	r4,1328(sp)
  80a598:	d8014615 	stw	zero,1304(sp)
  80a59c:	003e6a06 	br	809f48 <___vfprintf_internal_r+0xa88>
  80a5a0:	38800017 	ldw	r2,0(r7)
  80a5a4:	00c00044 	movi	r3,1
  80a5a8:	39c00104 	addi	r7,r7,4
  80a5ac:	d9c14015 	stw	r7,1280(sp)
  80a5b0:	d9000f04 	addi	r4,sp,60
  80a5b4:	180f883a 	mov	r7,r3
  80a5b8:	d8c14515 	stw	r3,1300(sp)
  80a5bc:	d9014115 	stw	r4,1284(sp)
  80a5c0:	d8800f05 	stb	r2,60(sp)
  80a5c4:	d8000405 	stb	zero,16(sp)
  80a5c8:	003cac06 	br	80987c <___vfprintf_internal_r+0x3bc>
  80a5cc:	01402074 	movhi	r5,129
  80a5d0:	29424b04 	addi	r5,r5,2348
  80a5d4:	d9414415 	stw	r5,1296(sp)
  80a5d8:	d9814c17 	ldw	r6,1328(sp)
  80a5dc:	3080080c 	andi	r2,r6,32
  80a5e0:	1000ff26 	beq	r2,zero,80a9e0 <___vfprintf_internal_r+0x1520>
  80a5e4:	3c000017 	ldw	r16,0(r7)
  80a5e8:	3c400117 	ldw	r17,4(r7)
  80a5ec:	38800204 	addi	r2,r7,8
  80a5f0:	d8814015 	stw	r2,1280(sp)
  80a5f4:	d9414c17 	ldw	r5,1328(sp)
  80a5f8:	2880004c 	andi	r2,r5,1
  80a5fc:	1005003a 	cmpeq	r2,r2,zero
  80a600:	1000b91e 	bne	r2,zero,80a8e8 <___vfprintf_internal_r+0x1428>
  80a604:	8444b03a 	or	r2,r16,r17
  80a608:	1000b726 	beq	r2,zero,80a8e8 <___vfprintf_internal_r+0x1428>
  80a60c:	d9814d17 	ldw	r6,1332(sp)
  80a610:	29400094 	ori	r5,r5,2
  80a614:	00800c04 	movi	r2,48
  80a618:	01000084 	movi	r4,2
  80a61c:	d9414c15 	stw	r5,1328(sp)
  80a620:	d8800445 	stb	r2,17(sp)
  80a624:	d9800485 	stb	r6,18(sp)
  80a628:	d8000405 	stb	zero,16(sp)
  80a62c:	003e3206 	br	809ef8 <___vfprintf_internal_r+0xa38>
  80a630:	01802074 	movhi	r6,129
  80a634:	31824004 	addi	r6,r6,2304
  80a638:	d9814415 	stw	r6,1296(sp)
  80a63c:	003fe606 	br	80a5d8 <___vfprintf_internal_r+0x1118>
  80a640:	00800ac4 	movi	r2,43
  80a644:	d8800405 	stb	r2,16(sp)
  80a648:	b8c00007 	ldb	r3,0(r23)
  80a64c:	003c1b06 	br	8096bc <___vfprintf_internal_r+0x1fc>
  80a650:	d8814c17 	ldw	r2,1328(sp)
  80a654:	b8c00007 	ldb	r3,0(r23)
  80a658:	10800054 	ori	r2,r2,1
  80a65c:	d8814c15 	stw	r2,1328(sp)
  80a660:	003c1606 	br	8096bc <___vfprintf_internal_r+0x1fc>
  80a664:	d8800407 	ldb	r2,16(sp)
  80a668:	10004c1e 	bne	r2,zero,80a79c <___vfprintf_internal_r+0x12dc>
  80a66c:	00800804 	movi	r2,32
  80a670:	d8800405 	stb	r2,16(sp)
  80a674:	b8c00007 	ldb	r3,0(r23)
  80a678:	003c1006 	br	8096bc <___vfprintf_internal_r+0x1fc>
  80a67c:	d9814c17 	ldw	r6,1328(sp)
  80a680:	b8c00007 	ldb	r3,0(r23)
  80a684:	31800214 	ori	r6,r6,8
  80a688:	d9814c15 	stw	r6,1328(sp)
  80a68c:	003c0b06 	br	8096bc <___vfprintf_internal_r+0x1fc>
  80a690:	0009883a 	mov	r4,zero
  80a694:	04000244 	movi	r16,9
  80a698:	01400284 	movi	r5,10
  80a69c:	d9c15115 	stw	r7,1348(sp)
  80a6a0:	0802c140 	call	802c14 <__mulsi3>
  80a6a4:	b9000007 	ldb	r4,0(r23)
  80a6a8:	d8c14d17 	ldw	r3,1332(sp)
  80a6ac:	bdc00044 	addi	r23,r23,1
  80a6b0:	d9014d15 	stw	r4,1332(sp)
  80a6b4:	d9414d17 	ldw	r5,1332(sp)
  80a6b8:	1885883a 	add	r2,r3,r2
  80a6bc:	113ff404 	addi	r4,r2,-48
  80a6c0:	28bff404 	addi	r2,r5,-48
  80a6c4:	d9c15117 	ldw	r7,1348(sp)
  80a6c8:	80bff32e 	bgeu	r16,r2,80a698 <___vfprintf_internal_r+0x11d8>
  80a6cc:	d9014a15 	stw	r4,1320(sp)
  80a6d0:	003bfc06 	br	8096c4 <___vfprintf_internal_r+0x204>
  80a6d4:	d8814c17 	ldw	r2,1328(sp)
  80a6d8:	b8c00007 	ldb	r3,0(r23)
  80a6dc:	10802014 	ori	r2,r2,128
  80a6e0:	d8814c15 	stw	r2,1328(sp)
  80a6e4:	003bf506 	br	8096bc <___vfprintf_internal_r+0x1fc>
  80a6e8:	b8c00007 	ldb	r3,0(r23)
  80a6ec:	00800a84 	movi	r2,42
  80a6f0:	bdc00044 	addi	r23,r23,1
  80a6f4:	18831826 	beq	r3,r2,80b358 <___vfprintf_internal_r+0x1e98>
  80a6f8:	d8c14d15 	stw	r3,1332(sp)
  80a6fc:	18bff404 	addi	r2,r3,-48
  80a700:	00c00244 	movi	r3,9
  80a704:	18827b36 	bltu	r3,r2,80b0f4 <___vfprintf_internal_r+0x1c34>
  80a708:	1821883a 	mov	r16,r3
  80a70c:	0009883a 	mov	r4,zero
  80a710:	01400284 	movi	r5,10
  80a714:	d9c15115 	stw	r7,1348(sp)
  80a718:	0802c140 	call	802c14 <__mulsi3>
  80a71c:	d9414d17 	ldw	r5,1332(sp)
  80a720:	b9800007 	ldb	r6,0(r23)
  80a724:	d9c15117 	ldw	r7,1348(sp)
  80a728:	1145883a 	add	r2,r2,r5
  80a72c:	113ff404 	addi	r4,r2,-48
  80a730:	30bff404 	addi	r2,r6,-48
  80a734:	d9814d15 	stw	r6,1332(sp)
  80a738:	bdc00044 	addi	r23,r23,1
  80a73c:	80bff42e 	bgeu	r16,r2,80a710 <___vfprintf_internal_r+0x1250>
  80a740:	2027883a 	mov	r19,r4
  80a744:	203bdf0e 	bge	r4,zero,8096c4 <___vfprintf_internal_r+0x204>
  80a748:	04ffffc4 	movi	r19,-1
  80a74c:	003bdd06 	br	8096c4 <___vfprintf_internal_r+0x204>
  80a750:	d8000405 	stb	zero,16(sp)
  80a754:	39800017 	ldw	r6,0(r7)
  80a758:	39c00104 	addi	r7,r7,4
  80a75c:	d9c14015 	stw	r7,1280(sp)
  80a760:	d9814115 	stw	r6,1284(sp)
  80a764:	3001c926 	beq	r6,zero,80ae8c <___vfprintf_internal_r+0x19cc>
  80a768:	98000e16 	blt	r19,zero,80a7a4 <___vfprintf_internal_r+0x12e4>
  80a76c:	d9014117 	ldw	r4,1284(sp)
  80a770:	000b883a 	mov	r5,zero
  80a774:	980d883a 	mov	r6,r19
  80a778:	0800fd40 	call	800fd4 <memchr>
  80a77c:	10025926 	beq	r2,zero,80b0e4 <___vfprintf_internal_r+0x1c24>
  80a780:	d8c14117 	ldw	r3,1284(sp)
  80a784:	10cfc83a 	sub	r7,r2,r3
  80a788:	99c19e16 	blt	r19,r7,80ae04 <___vfprintf_internal_r+0x1944>
  80a78c:	d9c14515 	stw	r7,1300(sp)
  80a790:	38000916 	blt	r7,zero,80a7b8 <___vfprintf_internal_r+0x12f8>
  80a794:	d8014615 	stw	zero,1304(sp)
  80a798:	003deb06 	br	809f48 <___vfprintf_internal_r+0xa88>
  80a79c:	b8c00007 	ldb	r3,0(r23)
  80a7a0:	003bc606 	br	8096bc <___vfprintf_internal_r+0x1fc>
  80a7a4:	d9014117 	ldw	r4,1284(sp)
  80a7a8:	08003840 	call	800384 <strlen>
  80a7ac:	d8814515 	stw	r2,1300(sp)
  80a7b0:	100f883a 	mov	r7,r2
  80a7b4:	103ff70e 	bge	r2,zero,80a794 <___vfprintf_internal_r+0x12d4>
  80a7b8:	d8014515 	stw	zero,1300(sp)
  80a7bc:	d8014615 	stw	zero,1304(sp)
  80a7c0:	003de106 	br	809f48 <___vfprintf_internal_r+0xa88>
  80a7c4:	20c03fcc 	andi	r3,r4,255
  80a7c8:	00800044 	movi	r2,1
  80a7cc:	18802d26 	beq	r3,r2,80a884 <___vfprintf_internal_r+0x13c4>
  80a7d0:	18800e36 	bltu	r3,r2,80a80c <___vfprintf_internal_r+0x134c>
  80a7d4:	00800084 	movi	r2,2
  80a7d8:	1880fa26 	beq	r3,r2,80abc4 <___vfprintf_internal_r+0x1704>
  80a7dc:	01002074 	movhi	r4,129
  80a7e0:	21025004 	addi	r4,r4,2368
  80a7e4:	08003840 	call	800384 <strlen>
  80a7e8:	100f883a 	mov	r7,r2
  80a7ec:	dcc14515 	stw	r19,1300(sp)
  80a7f0:	9880010e 	bge	r19,r2,80a7f8 <___vfprintf_internal_r+0x1338>
  80a7f4:	d8814515 	stw	r2,1300(sp)
  80a7f8:	00802074 	movhi	r2,129
  80a7fc:	10825004 	addi	r2,r2,2368
  80a800:	dcc14615 	stw	r19,1304(sp)
  80a804:	d8814115 	stw	r2,1284(sp)
  80a808:	003dcf06 	br	809f48 <___vfprintf_internal_r+0xa88>
  80a80c:	d9401904 	addi	r5,sp,100
  80a810:	dd000f04 	addi	r20,sp,60
  80a814:	d9414115 	stw	r5,1284(sp)
  80a818:	880a977a 	slli	r5,r17,29
  80a81c:	d9814117 	ldw	r6,1284(sp)
  80a820:	8004d0fa 	srli	r2,r16,3
  80a824:	8806d0fa 	srli	r3,r17,3
  80a828:	810001cc 	andi	r4,r16,7
  80a82c:	2884b03a 	or	r2,r5,r2
  80a830:	31bfffc4 	addi	r6,r6,-1
  80a834:	21000c04 	addi	r4,r4,48
  80a838:	d9814115 	stw	r6,1284(sp)
  80a83c:	10cab03a 	or	r5,r2,r3
  80a840:	31000005 	stb	r4,0(r6)
  80a844:	1021883a 	mov	r16,r2
  80a848:	1823883a 	mov	r17,r3
  80a84c:	283ff21e 	bne	r5,zero,80a818 <___vfprintf_internal_r+0x1358>
  80a850:	d8c14c17 	ldw	r3,1328(sp)
  80a854:	1880004c 	andi	r2,r3,1
  80a858:	1005003a 	cmpeq	r2,r2,zero
  80a85c:	103db31e 	bne	r2,zero,809f2c <___vfprintf_internal_r+0xa6c>
  80a860:	20803fcc 	andi	r2,r4,255
  80a864:	1080201c 	xori	r2,r2,128
  80a868:	10bfe004 	addi	r2,r2,-128
  80a86c:	00c00c04 	movi	r3,48
  80a870:	10fdae26 	beq	r2,r3,809f2c <___vfprintf_internal_r+0xa6c>
  80a874:	31bfffc4 	addi	r6,r6,-1
  80a878:	d9814115 	stw	r6,1284(sp)
  80a87c:	30c00005 	stb	r3,0(r6)
  80a880:	003daa06 	br	809f2c <___vfprintf_internal_r+0xa6c>
  80a884:	88800068 	cmpgeui	r2,r17,1
  80a888:	10002c1e 	bne	r2,zero,80a93c <___vfprintf_internal_r+0x147c>
  80a88c:	8800021e 	bne	r17,zero,80a898 <___vfprintf_internal_r+0x13d8>
  80a890:	00800244 	movi	r2,9
  80a894:	14002936 	bltu	r2,r16,80a93c <___vfprintf_internal_r+0x147c>
  80a898:	d90018c4 	addi	r4,sp,99
  80a89c:	dd000f04 	addi	r20,sp,60
  80a8a0:	d9014115 	stw	r4,1284(sp)
  80a8a4:	d9014117 	ldw	r4,1284(sp)
  80a8a8:	80800c04 	addi	r2,r16,48
  80a8ac:	20800005 	stb	r2,0(r4)
  80a8b0:	003d9e06 	br	809f2c <___vfprintf_internal_r+0xa6c>
  80a8b4:	dc400d17 	ldw	r17,52(sp)
  80a8b8:	07002074 	movhi	fp,129
  80a8bc:	e7025784 	addi	fp,fp,2398
  80a8c0:	9425883a 	add	r18,r18,r16
  80a8c4:	8c400044 	addi	r17,r17,1
  80a8c8:	008001c4 	movi	r2,7
  80a8cc:	1f000015 	stw	fp,0(r3)
  80a8d0:	1c000115 	stw	r16,4(r3)
  80a8d4:	dc800e15 	stw	r18,56(sp)
  80a8d8:	dc400d15 	stw	r17,52(sp)
  80a8dc:	147ddc16 	blt	r2,r17,80a050 <___vfprintf_internal_r+0xb90>
  80a8e0:	18c00204 	addi	r3,r3,8
  80a8e4:	003c7406 	br	809ab8 <___vfprintf_internal_r+0x5f8>
  80a8e8:	01000084 	movi	r4,2
  80a8ec:	d8000405 	stb	zero,16(sp)
  80a8f0:	003d8106 	br	809ef8 <___vfprintf_internal_r+0xa38>
  80a8f4:	d9814c17 	ldw	r6,1328(sp)
  80a8f8:	30c4703a 	and	r2,r6,r3
  80a8fc:	1005003a 	cmpeq	r2,r2,zero
  80a900:	103cb326 	beq	r2,zero,809bd0 <___vfprintf_internal_r+0x710>
  80a904:	d9014117 	ldw	r4,1284(sp)
  80a908:	94800044 	addi	r18,r18,1
  80a90c:	8c400044 	addi	r17,r17,1
  80a910:	008001c4 	movi	r2,7
  80a914:	a9000015 	stw	r4,0(r21)
  80a918:	a8c00115 	stw	r3,4(r21)
  80a91c:	dc800e15 	stw	r18,56(sp)
  80a920:	dc400d15 	stw	r17,52(sp)
  80a924:	147e6016 	blt	r2,r17,80a2a8 <___vfprintf_internal_r+0xde8>
  80a928:	acc00204 	addi	r19,r21,8
  80a92c:	003cd106 	br	809c74 <___vfprintf_internal_r+0x7b4>
  80a930:	07002074 	movhi	fp,129
  80a934:	e7025784 	addi	fp,fp,2398
  80a938:	003c4906 	br	809a60 <___vfprintf_internal_r+0x5a0>
  80a93c:	dd000f04 	addi	r20,sp,60
  80a940:	dc801904 	addi	r18,sp,100
  80a944:	8009883a 	mov	r4,r16
  80a948:	880b883a 	mov	r5,r17
  80a94c:	01800284 	movi	r6,10
  80a950:	000f883a 	mov	r7,zero
  80a954:	080e8380 	call	80e838 <__umoddi3>
  80a958:	12000c04 	addi	r8,r2,48
  80a95c:	94bfffc4 	addi	r18,r18,-1
  80a960:	8009883a 	mov	r4,r16
  80a964:	880b883a 	mov	r5,r17
  80a968:	01800284 	movi	r6,10
  80a96c:	000f883a 	mov	r7,zero
  80a970:	92000005 	stb	r8,0(r18)
  80a974:	080e1cc0 	call	80e1cc <__udivdi3>
  80a978:	1009883a 	mov	r4,r2
  80a97c:	1021883a 	mov	r16,r2
  80a980:	18800068 	cmpgeui	r2,r3,1
  80a984:	1823883a 	mov	r17,r3
  80a988:	103fee1e 	bne	r2,zero,80a944 <___vfprintf_internal_r+0x1484>
  80a98c:	1800021e 	bne	r3,zero,80a998 <___vfprintf_internal_r+0x14d8>
  80a990:	00800244 	movi	r2,9
  80a994:	113feb36 	bltu	r2,r4,80a944 <___vfprintf_internal_r+0x1484>
  80a998:	94bfffc4 	addi	r18,r18,-1
  80a99c:	dc814115 	stw	r18,1284(sp)
  80a9a0:	003fc006 	br	80a8a4 <___vfprintf_internal_r+0x13e4>
  80a9a4:	d9014c17 	ldw	r4,1328(sp)
  80a9a8:	2080004c 	andi	r2,r4,1
  80a9ac:	10009a1e 	bne	r2,zero,80ac18 <___vfprintf_internal_r+0x1758>
  80a9b0:	d9401904 	addi	r5,sp,100
  80a9b4:	dd000f04 	addi	r20,sp,60
  80a9b8:	d9414115 	stw	r5,1284(sp)
  80a9bc:	003d5b06 	br	809f2c <___vfprintf_internal_r+0xa6c>
  80a9c0:	d9014f17 	ldw	r4,1340(sp)
  80a9c4:	b00b883a 	mov	r5,r22
  80a9c8:	d9800c04 	addi	r6,sp,48
  80a9cc:	08094680 	call	809468 <__sprint_r>
  80a9d0:	103c731e 	bne	r2,zero,809ba0 <___vfprintf_internal_r+0x6e0>
  80a9d4:	dc800e17 	ldw	r18,56(sp)
  80a9d8:	d8c01904 	addi	r3,sp,100
  80a9dc:	003cf906 	br	809dc4 <___vfprintf_internal_r+0x904>
  80a9e0:	d8c14c17 	ldw	r3,1328(sp)
  80a9e4:	1880040c 	andi	r2,r3,16
  80a9e8:	1000711e 	bne	r2,zero,80abb0 <___vfprintf_internal_r+0x16f0>
  80a9ec:	d9014c17 	ldw	r4,1328(sp)
  80a9f0:	2080100c 	andi	r2,r4,64
  80a9f4:	10006e26 	beq	r2,zero,80abb0 <___vfprintf_internal_r+0x16f0>
  80a9f8:	3c00000b 	ldhu	r16,0(r7)
  80a9fc:	0023883a 	mov	r17,zero
  80aa00:	39c00104 	addi	r7,r7,4
  80aa04:	d9c14015 	stw	r7,1280(sp)
  80aa08:	003efa06 	br	80a5f4 <___vfprintf_internal_r+0x1134>
  80aa0c:	dc400d17 	ldw	r17,52(sp)
  80aa10:	07002074 	movhi	fp,129
  80aa14:	e7025784 	addi	fp,fp,2398
  80aa18:	9425883a 	add	r18,r18,r16
  80aa1c:	8c400044 	addi	r17,r17,1
  80aa20:	008001c4 	movi	r2,7
  80aa24:	1f000015 	stw	fp,0(r3)
  80aa28:	1c000115 	stw	r16,4(r3)
  80aa2c:	dc800e15 	stw	r18,56(sp)
  80aa30:	dc400d15 	stw	r17,52(sp)
  80aa34:	147d7016 	blt	r2,r17,809ff8 <___vfprintf_internal_r+0xb38>
  80aa38:	18c00204 	addi	r3,r3,8
  80aa3c:	003d7506 	br	80a014 <___vfprintf_internal_r+0xb54>
  80aa40:	dc800e17 	ldw	r18,56(sp)
  80aa44:	dc400d17 	ldw	r17,52(sp)
  80aa48:	07002074 	movhi	fp,129
  80aa4c:	e7025b84 	addi	fp,fp,2414
  80aa50:	003bba06 	br	80993c <___vfprintf_internal_r+0x47c>
  80aa54:	d9014f17 	ldw	r4,1340(sp)
  80aa58:	b00b883a 	mov	r5,r22
  80aa5c:	d9800c04 	addi	r6,sp,48
  80aa60:	08094680 	call	809468 <__sprint_r>
  80aa64:	103c4e1e 	bne	r2,zero,809ba0 <___vfprintf_internal_r+0x6e0>
  80aa68:	dc800e17 	ldw	r18,56(sp)
  80aa6c:	d8c01904 	addi	r3,sp,100
  80aa70:	003ce306 	br	809e00 <___vfprintf_internal_r+0x940>
  80aa74:	3c000017 	ldw	r16,0(r7)
  80aa78:	0009883a 	mov	r4,zero
  80aa7c:	39c00104 	addi	r7,r7,4
  80aa80:	0023883a 	mov	r17,zero
  80aa84:	d9c14015 	stw	r7,1280(sp)
  80aa88:	d8000405 	stb	zero,16(sp)
  80aa8c:	003d1a06 	br	809ef8 <___vfprintf_internal_r+0xa38>
  80aa90:	38800017 	ldw	r2,0(r7)
  80aa94:	39c00104 	addi	r7,r7,4
  80aa98:	d9c14015 	stw	r7,1280(sp)
  80aa9c:	1023d7fa 	srai	r17,r2,31
  80aaa0:	1021883a 	mov	r16,r2
  80aaa4:	003d1206 	br	809ef0 <___vfprintf_internal_r+0xa30>
  80aaa8:	3c000017 	ldw	r16,0(r7)
  80aaac:	01000044 	movi	r4,1
  80aab0:	39c00104 	addi	r7,r7,4
  80aab4:	0023883a 	mov	r17,zero
  80aab8:	d9c14015 	stw	r7,1280(sp)
  80aabc:	d8000405 	stb	zero,16(sp)
  80aac0:	003d0d06 	br	809ef8 <___vfprintf_internal_r+0xa38>
  80aac4:	00802074 	movhi	r2,129
  80aac8:	10825704 	addi	r2,r2,2396
  80aacc:	94800044 	addi	r18,r18,1
  80aad0:	8c400044 	addi	r17,r17,1
  80aad4:	a8800015 	stw	r2,0(r21)
  80aad8:	00c00044 	movi	r3,1
  80aadc:	008001c4 	movi	r2,7
  80aae0:	a8c00115 	stw	r3,4(r21)
  80aae4:	dc800e15 	stw	r18,56(sp)
  80aae8:	dc400d15 	stw	r17,52(sp)
  80aaec:	1440ca16 	blt	r2,r17,80ae18 <___vfprintf_internal_r+0x1958>
  80aaf0:	a8c00204 	addi	r3,r21,8
  80aaf4:	2000061e 	bne	r4,zero,80ab10 <___vfprintf_internal_r+0x1650>
  80aaf8:	d9414717 	ldw	r5,1308(sp)
  80aafc:	2800041e 	bne	r5,zero,80ab10 <___vfprintf_internal_r+0x1650>
  80ab00:	d9814c17 	ldw	r6,1328(sp)
  80ab04:	3080004c 	andi	r2,r6,1
  80ab08:	1005003a 	cmpeq	r2,r2,zero
  80ab0c:	103bea1e 	bne	r2,zero,809ab8 <___vfprintf_internal_r+0x5f8>
  80ab10:	00800044 	movi	r2,1
  80ab14:	dc400d17 	ldw	r17,52(sp)
  80ab18:	18800115 	stw	r2,4(r3)
  80ab1c:	d8814917 	ldw	r2,1316(sp)
  80ab20:	94800044 	addi	r18,r18,1
  80ab24:	8c400044 	addi	r17,r17,1
  80ab28:	18800015 	stw	r2,0(r3)
  80ab2c:	008001c4 	movi	r2,7
  80ab30:	dc800e15 	stw	r18,56(sp)
  80ab34:	dc400d15 	stw	r17,52(sp)
  80ab38:	1440ca16 	blt	r2,r17,80ae64 <___vfprintf_internal_r+0x19a4>
  80ab3c:	18c00204 	addi	r3,r3,8
  80ab40:	0121c83a 	sub	r16,zero,r4
  80ab44:	0400500e 	bge	zero,r16,80ac88 <___vfprintf_internal_r+0x17c8>
  80ab48:	00800404 	movi	r2,16
  80ab4c:	1400800e 	bge	r2,r16,80ad50 <___vfprintf_internal_r+0x1890>
  80ab50:	1027883a 	mov	r19,r2
  80ab54:	07002074 	movhi	fp,129
  80ab58:	e7025784 	addi	fp,fp,2398
  80ab5c:	050001c4 	movi	r20,7
  80ab60:	00000306 	br	80ab70 <___vfprintf_internal_r+0x16b0>
  80ab64:	18c00204 	addi	r3,r3,8
  80ab68:	843ffc04 	addi	r16,r16,-16
  80ab6c:	9c007a0e 	bge	r19,r16,80ad58 <___vfprintf_internal_r+0x1898>
  80ab70:	94800404 	addi	r18,r18,16
  80ab74:	8c400044 	addi	r17,r17,1
  80ab78:	1f000015 	stw	fp,0(r3)
  80ab7c:	1cc00115 	stw	r19,4(r3)
  80ab80:	dc800e15 	stw	r18,56(sp)
  80ab84:	dc400d15 	stw	r17,52(sp)
  80ab88:	a47ff60e 	bge	r20,r17,80ab64 <___vfprintf_internal_r+0x16a4>
  80ab8c:	d9014f17 	ldw	r4,1340(sp)
  80ab90:	b00b883a 	mov	r5,r22
  80ab94:	d9800c04 	addi	r6,sp,48
  80ab98:	08094680 	call	809468 <__sprint_r>
  80ab9c:	103c001e 	bne	r2,zero,809ba0 <___vfprintf_internal_r+0x6e0>
  80aba0:	dc800e17 	ldw	r18,56(sp)
  80aba4:	dc400d17 	ldw	r17,52(sp)
  80aba8:	d8c01904 	addi	r3,sp,100
  80abac:	003fee06 	br	80ab68 <___vfprintf_internal_r+0x16a8>
  80abb0:	3c000017 	ldw	r16,0(r7)
  80abb4:	0023883a 	mov	r17,zero
  80abb8:	39c00104 	addi	r7,r7,4
  80abbc:	d9c14015 	stw	r7,1280(sp)
  80abc0:	003e8c06 	br	80a5f4 <___vfprintf_internal_r+0x1134>
  80abc4:	d9401904 	addi	r5,sp,100
  80abc8:	dd000f04 	addi	r20,sp,60
  80abcc:	d9414115 	stw	r5,1284(sp)
  80abd0:	d9814417 	ldw	r6,1296(sp)
  80abd4:	880a973a 	slli	r5,r17,28
  80abd8:	8004d13a 	srli	r2,r16,4
  80abdc:	810003cc 	andi	r4,r16,15
  80abe0:	3109883a 	add	r4,r6,r4
  80abe4:	2884b03a 	or	r2,r5,r2
  80abe8:	21400003 	ldbu	r5,0(r4)
  80abec:	d9014117 	ldw	r4,1284(sp)
  80abf0:	8806d13a 	srli	r3,r17,4
  80abf4:	1021883a 	mov	r16,r2
  80abf8:	213fffc4 	addi	r4,r4,-1
  80abfc:	d9014115 	stw	r4,1284(sp)
  80ac00:	d9814117 	ldw	r6,1284(sp)
  80ac04:	10c8b03a 	or	r4,r2,r3
  80ac08:	1823883a 	mov	r17,r3
  80ac0c:	31400005 	stb	r5,0(r6)
  80ac10:	203fef1e 	bne	r4,zero,80abd0 <___vfprintf_internal_r+0x1710>
  80ac14:	003cc506 	br	809f2c <___vfprintf_internal_r+0xa6c>
  80ac18:	00800c04 	movi	r2,48
  80ac1c:	d98018c4 	addi	r6,sp,99
  80ac20:	dd000f04 	addi	r20,sp,60
  80ac24:	d88018c5 	stb	r2,99(sp)
  80ac28:	d9814115 	stw	r6,1284(sp)
  80ac2c:	003cbf06 	br	809f2c <___vfprintf_internal_r+0xa6c>
  80ac30:	dc400d17 	ldw	r17,52(sp)
  80ac34:	07002074 	movhi	fp,129
  80ac38:	e7025b84 	addi	fp,fp,2414
  80ac3c:	003bc106 	br	809b44 <___vfprintf_internal_r+0x684>
  80ac40:	d9414c17 	ldw	r5,1328(sp)
  80ac44:	2880040c 	andi	r2,r5,16
  80ac48:	10007c26 	beq	r2,zero,80ae3c <___vfprintf_internal_r+0x197c>
  80ac4c:	38800017 	ldw	r2,0(r7)
  80ac50:	39c00104 	addi	r7,r7,4
  80ac54:	d9c14015 	stw	r7,1280(sp)
  80ac58:	d9814b17 	ldw	r6,1324(sp)
  80ac5c:	d9c14017 	ldw	r7,1280(sp)
  80ac60:	11800015 	stw	r6,0(r2)
  80ac64:	003a7206 	br	809630 <___vfprintf_internal_r+0x170>
  80ac68:	d9014f17 	ldw	r4,1340(sp)
  80ac6c:	b00b883a 	mov	r5,r22
  80ac70:	d9800c04 	addi	r6,sp,48
  80ac74:	08094680 	call	809468 <__sprint_r>
  80ac78:	103bc91e 	bne	r2,zero,809ba0 <___vfprintf_internal_r+0x6e0>
  80ac7c:	dc800e17 	ldw	r18,56(sp)
  80ac80:	dc400d17 	ldw	r17,52(sp)
  80ac84:	d8c01904 	addi	r3,sp,100
  80ac88:	d9014717 	ldw	r4,1308(sp)
  80ac8c:	d9414117 	ldw	r5,1284(sp)
  80ac90:	8c400044 	addi	r17,r17,1
  80ac94:	9125883a 	add	r18,r18,r4
  80ac98:	008001c4 	movi	r2,7
  80ac9c:	19400015 	stw	r5,0(r3)
  80aca0:	19000115 	stw	r4,4(r3)
  80aca4:	dc800e15 	stw	r18,56(sp)
  80aca8:	dc400d15 	stw	r17,52(sp)
  80acac:	147ce816 	blt	r2,r17,80a050 <___vfprintf_internal_r+0xb90>
  80acb0:	18c00204 	addi	r3,r3,8
  80acb4:	003b8006 	br	809ab8 <___vfprintf_internal_r+0x5f8>
  80acb8:	38c00017 	ldw	r3,0(r7)
  80acbc:	39000204 	addi	r4,r7,8
  80acc0:	d9014015 	stw	r4,1280(sp)
  80acc4:	d8c14215 	stw	r3,1288(sp)
  80acc8:	39c00117 	ldw	r7,4(r7)
  80accc:	d9c14315 	stw	r7,1292(sp)
  80acd0:	003e1a06 	br	80a53c <___vfprintf_internal_r+0x107c>
  80acd4:	0005883a 	mov	r2,zero
  80acd8:	1409c83a 	sub	r4,r2,r16
  80acdc:	1105803a 	cmpltu	r2,r2,r4
  80ace0:	044bc83a 	sub	r5,zero,r17
  80ace4:	2885c83a 	sub	r2,r5,r2
  80ace8:	2021883a 	mov	r16,r4
  80acec:	1023883a 	mov	r17,r2
  80acf0:	01000044 	movi	r4,1
  80acf4:	00800b44 	movi	r2,45
  80acf8:	d8800405 	stb	r2,16(sp)
  80acfc:	003c7e06 	br	809ef8 <___vfprintf_internal_r+0xa38>
  80ad00:	d9014f17 	ldw	r4,1340(sp)
  80ad04:	b00b883a 	mov	r5,r22
  80ad08:	d9800c04 	addi	r6,sp,48
  80ad0c:	08094680 	call	809468 <__sprint_r>
  80ad10:	103ba31e 	bne	r2,zero,809ba0 <___vfprintf_internal_r+0x6e0>
  80ad14:	dc800e17 	ldw	r18,56(sp)
  80ad18:	dc400d17 	ldw	r17,52(sp)
  80ad1c:	d9000517 	ldw	r4,20(sp)
  80ad20:	d9401904 	addi	r5,sp,100
  80ad24:	003da106 	br	80a3ac <___vfprintf_internal_r+0xeec>
  80ad28:	d9014f17 	ldw	r4,1340(sp)
  80ad2c:	b00b883a 	mov	r5,r22
  80ad30:	d9800c04 	addi	r6,sp,48
  80ad34:	08094680 	call	809468 <__sprint_r>
  80ad38:	103b991e 	bne	r2,zero,809ba0 <___vfprintf_internal_r+0x6e0>
  80ad3c:	dc800e17 	ldw	r18,56(sp)
  80ad40:	dc400d17 	ldw	r17,52(sp)
  80ad44:	d9000517 	ldw	r4,20(sp)
  80ad48:	d8c01904 	addi	r3,sp,100
  80ad4c:	003d8b06 	br	80a37c <___vfprintf_internal_r+0xebc>
  80ad50:	07002074 	movhi	fp,129
  80ad54:	e7025784 	addi	fp,fp,2398
  80ad58:	9425883a 	add	r18,r18,r16
  80ad5c:	8c400044 	addi	r17,r17,1
  80ad60:	008001c4 	movi	r2,7
  80ad64:	1f000015 	stw	fp,0(r3)
  80ad68:	1c000115 	stw	r16,4(r3)
  80ad6c:	dc800e15 	stw	r18,56(sp)
  80ad70:	dc400d15 	stw	r17,52(sp)
  80ad74:	147fbc16 	blt	r2,r17,80ac68 <___vfprintf_internal_r+0x17a8>
  80ad78:	18c00204 	addi	r3,r3,8
  80ad7c:	003fc206 	br	80ac88 <___vfprintf_internal_r+0x17c8>
  80ad80:	d9014f17 	ldw	r4,1340(sp)
  80ad84:	b00b883a 	mov	r5,r22
  80ad88:	d9800c04 	addi	r6,sp,48
  80ad8c:	08094680 	call	809468 <__sprint_r>
  80ad90:	103b831e 	bne	r2,zero,809ba0 <___vfprintf_internal_r+0x6e0>
  80ad94:	dc800e17 	ldw	r18,56(sp)
  80ad98:	d9000517 	ldw	r4,20(sp)
  80ad9c:	d8c01904 	addi	r3,sp,100
  80ada0:	003cfc06 	br	80a194 <___vfprintf_internal_r+0xcd4>
  80ada4:	07002074 	movhi	fp,129
  80ada8:	e7025784 	addi	fp,fp,2398
  80adac:	003bde06 	br	809d28 <___vfprintf_internal_r+0x868>
  80adb0:	00802074 	movhi	r2,129
  80adb4:	10824604 	addi	r2,r2,2328
  80adb8:	d8814115 	stw	r2,1284(sp)
  80adbc:	003def06 	br	80a57c <___vfprintf_internal_r+0x10bc>
  80adc0:	d9014217 	ldw	r4,1288(sp)
  80adc4:	d9414317 	ldw	r5,1292(sp)
  80adc8:	080e0180 	call	80e018 <__isnand>
  80adcc:	10003926 	beq	r2,zero,80aeb4 <___vfprintf_internal_r+0x19f4>
  80add0:	d9414d17 	ldw	r5,1332(sp)
  80add4:	008011c4 	movi	r2,71
  80add8:	1140ce16 	blt	r2,r5,80b114 <___vfprintf_internal_r+0x1c54>
  80addc:	01802074 	movhi	r6,129
  80ade0:	31824704 	addi	r6,r6,2332
  80ade4:	d9814115 	stw	r6,1284(sp)
  80ade8:	003de406 	br	80a57c <___vfprintf_internal_r+0x10bc>
  80adec:	d9014c17 	ldw	r4,1328(sp)
  80adf0:	bdc00044 	addi	r23,r23,1
  80adf4:	b8c00007 	ldb	r3,0(r23)
  80adf8:	21000814 	ori	r4,r4,32
  80adfc:	d9014c15 	stw	r4,1328(sp)
  80ae00:	003a2e06 	br	8096bc <___vfprintf_internal_r+0x1fc>
  80ae04:	dcc14515 	stw	r19,1300(sp)
  80ae08:	98011016 	blt	r19,zero,80b24c <___vfprintf_internal_r+0x1d8c>
  80ae0c:	980f883a 	mov	r7,r19
  80ae10:	d8014615 	stw	zero,1304(sp)
  80ae14:	003c4c06 	br	809f48 <___vfprintf_internal_r+0xa88>
  80ae18:	d9014f17 	ldw	r4,1340(sp)
  80ae1c:	b00b883a 	mov	r5,r22
  80ae20:	d9800c04 	addi	r6,sp,48
  80ae24:	08094680 	call	809468 <__sprint_r>
  80ae28:	103b5d1e 	bne	r2,zero,809ba0 <___vfprintf_internal_r+0x6e0>
  80ae2c:	dc800e17 	ldw	r18,56(sp)
  80ae30:	d9000517 	ldw	r4,20(sp)
  80ae34:	d8c01904 	addi	r3,sp,100
  80ae38:	003f2e06 	br	80aaf4 <___vfprintf_internal_r+0x1634>
  80ae3c:	d8c14c17 	ldw	r3,1328(sp)
  80ae40:	1880100c 	andi	r2,r3,64
  80ae44:	1000a026 	beq	r2,zero,80b0c8 <___vfprintf_internal_r+0x1c08>
  80ae48:	38800017 	ldw	r2,0(r7)
  80ae4c:	39c00104 	addi	r7,r7,4
  80ae50:	d9c14015 	stw	r7,1280(sp)
  80ae54:	d9014b17 	ldw	r4,1324(sp)
  80ae58:	d9c14017 	ldw	r7,1280(sp)
  80ae5c:	1100000d 	sth	r4,0(r2)
  80ae60:	0039f306 	br	809630 <___vfprintf_internal_r+0x170>
  80ae64:	d9014f17 	ldw	r4,1340(sp)
  80ae68:	b00b883a 	mov	r5,r22
  80ae6c:	d9800c04 	addi	r6,sp,48
  80ae70:	08094680 	call	809468 <__sprint_r>
  80ae74:	103b4a1e 	bne	r2,zero,809ba0 <___vfprintf_internal_r+0x6e0>
  80ae78:	dc800e17 	ldw	r18,56(sp)
  80ae7c:	dc400d17 	ldw	r17,52(sp)
  80ae80:	d9000517 	ldw	r4,20(sp)
  80ae84:	d8c01904 	addi	r3,sp,100
  80ae88:	003f2d06 	br	80ab40 <___vfprintf_internal_r+0x1680>
  80ae8c:	00800184 	movi	r2,6
  80ae90:	14c09a36 	bltu	r2,r19,80b0fc <___vfprintf_internal_r+0x1c3c>
  80ae94:	dcc14515 	stw	r19,1300(sp)
  80ae98:	9800010e 	bge	r19,zero,80aea0 <___vfprintf_internal_r+0x19e0>
  80ae9c:	d8014515 	stw	zero,1300(sp)
  80aea0:	00802074 	movhi	r2,129
  80aea4:	10824904 	addi	r2,r2,2340
  80aea8:	980f883a 	mov	r7,r19
  80aeac:	d8814115 	stw	r2,1284(sp)
  80aeb0:	003a7206 	br	80987c <___vfprintf_internal_r+0x3bc>
  80aeb4:	00bfffc4 	movi	r2,-1
  80aeb8:	9880e226 	beq	r19,r2,80b244 <___vfprintf_internal_r+0x1d84>
  80aebc:	d9414d17 	ldw	r5,1332(sp)
  80aec0:	008019c4 	movi	r2,103
  80aec4:	2880dc26 	beq	r5,r2,80b238 <___vfprintf_internal_r+0x1d78>
  80aec8:	008011c4 	movi	r2,71
  80aecc:	2880da26 	beq	r5,r2,80b238 <___vfprintf_internal_r+0x1d78>
  80aed0:	d9414c17 	ldw	r5,1328(sp)
  80aed4:	d9014317 	ldw	r4,1292(sp)
  80aed8:	d9814217 	ldw	r6,1288(sp)
  80aedc:	29404014 	ori	r5,r5,256
  80aee0:	d9414c15 	stw	r5,1328(sp)
  80aee4:	2000cc16 	blt	r4,zero,80b218 <___vfprintf_internal_r+0x1d58>
  80aee8:	3021883a 	mov	r16,r6
  80aeec:	2023883a 	mov	r17,r4
  80aef0:	0039883a 	mov	fp,zero
  80aef4:	d9414d17 	ldw	r5,1332(sp)
  80aef8:	00801984 	movi	r2,102
  80aefc:	2880b726 	beq	r5,r2,80b1dc <___vfprintf_internal_r+0x1d1c>
  80af00:	00801184 	movi	r2,70
  80af04:	2880b526 	beq	r5,r2,80b1dc <___vfprintf_internal_r+0x1d1c>
  80af08:	00801944 	movi	r2,101
  80af0c:	2880c826 	beq	r5,r2,80b230 <___vfprintf_internal_r+0x1d70>
  80af10:	00801144 	movi	r2,69
  80af14:	2880c626 	beq	r5,r2,80b230 <___vfprintf_internal_r+0x1d70>
  80af18:	9829883a 	mov	r20,r19
  80af1c:	d9014f17 	ldw	r4,1340(sp)
  80af20:	d8800504 	addi	r2,sp,20
  80af24:	880d883a 	mov	r6,r17
  80af28:	d8800115 	stw	r2,4(sp)
  80af2c:	d8c00604 	addi	r3,sp,24
  80af30:	d8800704 	addi	r2,sp,28
  80af34:	800b883a 	mov	r5,r16
  80af38:	01c00084 	movi	r7,2
  80af3c:	d8c00215 	stw	r3,8(sp)
  80af40:	d8800315 	stw	r2,12(sp)
  80af44:	dd000015 	stw	r20,0(sp)
  80af48:	080b8d40 	call	80b8d4 <_dtoa_r>
  80af4c:	d9814d17 	ldw	r6,1332(sp)
  80af50:	d8814115 	stw	r2,1284(sp)
  80af54:	008019c4 	movi	r2,103
  80af58:	30809526 	beq	r6,r2,80b1b0 <___vfprintf_internal_r+0x1cf0>
  80af5c:	d8c14d17 	ldw	r3,1332(sp)
  80af60:	008011c4 	movi	r2,71
  80af64:	18809226 	beq	r3,r2,80b1b0 <___vfprintf_internal_r+0x1cf0>
  80af68:	d9414117 	ldw	r5,1284(sp)
  80af6c:	d9814d17 	ldw	r6,1332(sp)
  80af70:	00801984 	movi	r2,102
  80af74:	2d25883a 	add	r18,r5,r20
  80af78:	30808626 	beq	r6,r2,80b194 <___vfprintf_internal_r+0x1cd4>
  80af7c:	00801184 	movi	r2,70
  80af80:	30808426 	beq	r6,r2,80b194 <___vfprintf_internal_r+0x1cd4>
  80af84:	000d883a 	mov	r6,zero
  80af88:	000f883a 	mov	r7,zero
  80af8c:	880b883a 	mov	r5,r17
  80af90:	8009883a 	mov	r4,r16
  80af94:	080f9b80 	call	80f9b8 <__eqdf2>
  80af98:	1000751e 	bne	r2,zero,80b170 <___vfprintf_internal_r+0x1cb0>
  80af9c:	9005883a 	mov	r2,r18
  80afa0:	dc800715 	stw	r18,28(sp)
  80afa4:	d9014117 	ldw	r4,1284(sp)
  80afa8:	d9414d17 	ldw	r5,1332(sp)
  80afac:	00c019c4 	movi	r3,103
  80afb0:	1125c83a 	sub	r18,r2,r4
  80afb4:	28c06826 	beq	r5,r3,80b158 <___vfprintf_internal_r+0x1c98>
  80afb8:	008011c4 	movi	r2,71
  80afbc:	28806626 	beq	r5,r2,80b158 <___vfprintf_internal_r+0x1c98>
  80afc0:	d9000517 	ldw	r4,20(sp)
  80afc4:	d8c14d17 	ldw	r3,1332(sp)
  80afc8:	00801944 	movi	r2,101
  80afcc:	10c05516 	blt	r2,r3,80b124 <___vfprintf_internal_r+0x1c64>
  80afd0:	213fffc4 	addi	r4,r4,-1
  80afd4:	d9000515 	stw	r4,20(sp)
  80afd8:	d8c00805 	stb	r3,32(sp)
  80afdc:	2021883a 	mov	r16,r4
  80afe0:	2000c116 	blt	r4,zero,80b2e8 <___vfprintf_internal_r+0x1e28>
  80afe4:	00800ac4 	movi	r2,43
  80afe8:	d8800845 	stb	r2,33(sp)
  80afec:	00800244 	movi	r2,9
  80aff0:	1400af0e 	bge	r2,r16,80b2b0 <___vfprintf_internal_r+0x1df0>
  80aff4:	1027883a 	mov	r19,r2
  80aff8:	dc400b84 	addi	r17,sp,46
  80affc:	8009883a 	mov	r4,r16
  80b000:	01400284 	movi	r5,10
  80b004:	08100a00 	call	8100a0 <__modsi3>
  80b008:	10800c04 	addi	r2,r2,48
  80b00c:	8c7fffc4 	addi	r17,r17,-1
  80b010:	8009883a 	mov	r4,r16
  80b014:	01400284 	movi	r5,10
  80b018:	88800005 	stb	r2,0(r17)
  80b01c:	08100400 	call	810040 <__divsi3>
  80b020:	1021883a 	mov	r16,r2
  80b024:	98bff516 	blt	r19,r2,80affc <___vfprintf_internal_r+0x1b3c>
  80b028:	10c00c04 	addi	r3,r2,48
  80b02c:	d88009c4 	addi	r2,sp,39
  80b030:	108001c4 	addi	r2,r2,7
  80b034:	897fffc4 	addi	r5,r17,-1
  80b038:	88ffffc5 	stb	r3,-1(r17)
  80b03c:	2880a72e 	bgeu	r5,r2,80b2dc <___vfprintf_internal_r+0x1e1c>
  80b040:	1009883a 	mov	r4,r2
  80b044:	d9800804 	addi	r6,sp,32
  80b048:	d8c00884 	addi	r3,sp,34
  80b04c:	28800003 	ldbu	r2,0(r5)
  80b050:	29400044 	addi	r5,r5,1
  80b054:	18800005 	stb	r2,0(r3)
  80b058:	18c00044 	addi	r3,r3,1
  80b05c:	293ffb36 	bltu	r5,r4,80b04c <___vfprintf_internal_r+0x1b8c>
  80b060:	1987c83a 	sub	r3,r3,r6
  80b064:	00800044 	movi	r2,1
  80b068:	d8c14815 	stw	r3,1312(sp)
  80b06c:	90cf883a 	add	r7,r18,r3
  80b070:	1480960e 	bge	r2,r18,80b2cc <___vfprintf_internal_r+0x1e0c>
  80b074:	39c00044 	addi	r7,r7,1
  80b078:	d9c14515 	stw	r7,1300(sp)
  80b07c:	38003416 	blt	r7,zero,80b150 <___vfprintf_internal_r+0x1c90>
  80b080:	e0803fcc 	andi	r2,fp,255
  80b084:	1080201c 	xori	r2,r2,128
  80b088:	10bfe004 	addi	r2,r2,-128
  80b08c:	10004e26 	beq	r2,zero,80b1c8 <___vfprintf_internal_r+0x1d08>
  80b090:	00800b44 	movi	r2,45
  80b094:	dc814715 	stw	r18,1308(sp)
  80b098:	d8014615 	stw	zero,1304(sp)
  80b09c:	d8800405 	stb	r2,16(sp)
  80b0a0:	003bab06 	br	809f50 <___vfprintf_internal_r+0xa90>
  80b0a4:	00800b44 	movi	r2,45
  80b0a8:	d8800405 	stb	r2,16(sp)
  80b0ac:	003d2d06 	br	80a564 <___vfprintf_internal_r+0x10a4>
  80b0b0:	d9014f17 	ldw	r4,1340(sp)
  80b0b4:	b00b883a 	mov	r5,r22
  80b0b8:	d9800c04 	addi	r6,sp,48
  80b0bc:	08094680 	call	809468 <__sprint_r>
  80b0c0:	103ab71e 	bne	r2,zero,809ba0 <___vfprintf_internal_r+0x6e0>
  80b0c4:	003ab506 	br	809b9c <___vfprintf_internal_r+0x6dc>
  80b0c8:	38800017 	ldw	r2,0(r7)
  80b0cc:	39c00104 	addi	r7,r7,4
  80b0d0:	d9c14015 	stw	r7,1280(sp)
  80b0d4:	d9414b17 	ldw	r5,1324(sp)
  80b0d8:	d9c14017 	ldw	r7,1280(sp)
  80b0dc:	11400015 	stw	r5,0(r2)
  80b0e0:	00395306 	br	809630 <___vfprintf_internal_r+0x170>
  80b0e4:	980f883a 	mov	r7,r19
  80b0e8:	dcc14515 	stw	r19,1300(sp)
  80b0ec:	d8014615 	stw	zero,1304(sp)
  80b0f0:	003b9506 	br	809f48 <___vfprintf_internal_r+0xa88>
  80b0f4:	0027883a 	mov	r19,zero
  80b0f8:	00397206 	br	8096c4 <___vfprintf_internal_r+0x204>
  80b0fc:	00c02074 	movhi	r3,129
  80b100:	18c24904 	addi	r3,r3,2340
  80b104:	100f883a 	mov	r7,r2
  80b108:	d8814515 	stw	r2,1300(sp)
  80b10c:	d8c14115 	stw	r3,1284(sp)
  80b110:	0039da06 	br	80987c <___vfprintf_internal_r+0x3bc>
  80b114:	00802074 	movhi	r2,129
  80b118:	10824804 	addi	r2,r2,2336
  80b11c:	d8814115 	stw	r2,1284(sp)
  80b120:	003d1606 	br	80a57c <___vfprintf_internal_r+0x10bc>
  80b124:	d9414d17 	ldw	r5,1332(sp)
  80b128:	00801984 	movi	r2,102
  80b12c:	28804926 	beq	r5,r2,80b254 <___vfprintf_internal_r+0x1d94>
  80b130:	200f883a 	mov	r7,r4
  80b134:	24805716 	blt	r4,r18,80b294 <___vfprintf_internal_r+0x1dd4>
  80b138:	d9414c17 	ldw	r5,1328(sp)
  80b13c:	2880004c 	andi	r2,r5,1
  80b140:	10000126 	beq	r2,zero,80b148 <___vfprintf_internal_r+0x1c88>
  80b144:	21c00044 	addi	r7,r4,1
  80b148:	d9c14515 	stw	r7,1300(sp)
  80b14c:	383fcc0e 	bge	r7,zero,80b080 <___vfprintf_internal_r+0x1bc0>
  80b150:	d8014515 	stw	zero,1300(sp)
  80b154:	003fca06 	br	80b080 <___vfprintf_internal_r+0x1bc0>
  80b158:	d9000517 	ldw	r4,20(sp)
  80b15c:	00bfff04 	movi	r2,-4
  80b160:	1100480e 	bge	r2,r4,80b284 <___vfprintf_internal_r+0x1dc4>
  80b164:	99004716 	blt	r19,r4,80b284 <___vfprintf_internal_r+0x1dc4>
  80b168:	d8c14d15 	stw	r3,1332(sp)
  80b16c:	003ff006 	br	80b130 <___vfprintf_internal_r+0x1c70>
  80b170:	d8800717 	ldw	r2,28(sp)
  80b174:	14bf8b2e 	bgeu	r2,r18,80afa4 <___vfprintf_internal_r+0x1ae4>
  80b178:	9007883a 	mov	r3,r18
  80b17c:	01000c04 	movi	r4,48
  80b180:	11000005 	stb	r4,0(r2)
  80b184:	10800044 	addi	r2,r2,1
  80b188:	d8800715 	stw	r2,28(sp)
  80b18c:	18bffc1e 	bne	r3,r2,80b180 <___vfprintf_internal_r+0x1cc0>
  80b190:	003f8406 	br	80afa4 <___vfprintf_internal_r+0x1ae4>
  80b194:	d8814117 	ldw	r2,1284(sp)
  80b198:	10c00007 	ldb	r3,0(r2)
  80b19c:	00800c04 	movi	r2,48
  80b1a0:	18805b26 	beq	r3,r2,80b310 <___vfprintf_internal_r+0x1e50>
  80b1a4:	d9000517 	ldw	r4,20(sp)
  80b1a8:	9125883a 	add	r18,r18,r4
  80b1ac:	003f7506 	br	80af84 <___vfprintf_internal_r+0x1ac4>
  80b1b0:	d9014c17 	ldw	r4,1328(sp)
  80b1b4:	2080004c 	andi	r2,r4,1
  80b1b8:	1005003a 	cmpeq	r2,r2,zero
  80b1bc:	103f6a26 	beq	r2,zero,80af68 <___vfprintf_internal_r+0x1aa8>
  80b1c0:	d8800717 	ldw	r2,28(sp)
  80b1c4:	003f7706 	br	80afa4 <___vfprintf_internal_r+0x1ae4>
  80b1c8:	d9c14515 	stw	r7,1300(sp)
  80b1cc:	38004d16 	blt	r7,zero,80b304 <___vfprintf_internal_r+0x1e44>
  80b1d0:	dc814715 	stw	r18,1308(sp)
  80b1d4:	d8014615 	stw	zero,1304(sp)
  80b1d8:	003b5b06 	br	809f48 <___vfprintf_internal_r+0xa88>
  80b1dc:	d9014f17 	ldw	r4,1340(sp)
  80b1e0:	d8800504 	addi	r2,sp,20
  80b1e4:	d8800115 	stw	r2,4(sp)
  80b1e8:	d8c00604 	addi	r3,sp,24
  80b1ec:	d8800704 	addi	r2,sp,28
  80b1f0:	800b883a 	mov	r5,r16
  80b1f4:	880d883a 	mov	r6,r17
  80b1f8:	01c000c4 	movi	r7,3
  80b1fc:	d8c00215 	stw	r3,8(sp)
  80b200:	d8800315 	stw	r2,12(sp)
  80b204:	dcc00015 	stw	r19,0(sp)
  80b208:	9829883a 	mov	r20,r19
  80b20c:	080b8d40 	call	80b8d4 <_dtoa_r>
  80b210:	d8814115 	stw	r2,1284(sp)
  80b214:	003f5106 	br	80af5c <___vfprintf_internal_r+0x1a9c>
  80b218:	d8c14217 	ldw	r3,1288(sp)
  80b21c:	d9014317 	ldw	r4,1292(sp)
  80b220:	07000b44 	movi	fp,45
  80b224:	1821883a 	mov	r16,r3
  80b228:	2460003c 	xorhi	r17,r4,32768
  80b22c:	003f3106 	br	80aef4 <___vfprintf_internal_r+0x1a34>
  80b230:	9d000044 	addi	r20,r19,1
  80b234:	003f3906 	br	80af1c <___vfprintf_internal_r+0x1a5c>
  80b238:	983f251e 	bne	r19,zero,80aed0 <___vfprintf_internal_r+0x1a10>
  80b23c:	04c00044 	movi	r19,1
  80b240:	003f2306 	br	80aed0 <___vfprintf_internal_r+0x1a10>
  80b244:	04c00184 	movi	r19,6
  80b248:	003f2106 	br	80aed0 <___vfprintf_internal_r+0x1a10>
  80b24c:	d8014515 	stw	zero,1300(sp)
  80b250:	003eee06 	br	80ae0c <___vfprintf_internal_r+0x194c>
  80b254:	200f883a 	mov	r7,r4
  80b258:	0100370e 	bge	zero,r4,80b338 <___vfprintf_internal_r+0x1e78>
  80b25c:	9800031e 	bne	r19,zero,80b26c <___vfprintf_internal_r+0x1dac>
  80b260:	d9814c17 	ldw	r6,1328(sp)
  80b264:	3080004c 	andi	r2,r6,1
  80b268:	103fb726 	beq	r2,zero,80b148 <___vfprintf_internal_r+0x1c88>
  80b26c:	20800044 	addi	r2,r4,1
  80b270:	98a7883a 	add	r19,r19,r2
  80b274:	dcc14515 	stw	r19,1300(sp)
  80b278:	980f883a 	mov	r7,r19
  80b27c:	983f800e 	bge	r19,zero,80b080 <___vfprintf_internal_r+0x1bc0>
  80b280:	003fb306 	br	80b150 <___vfprintf_internal_r+0x1c90>
  80b284:	d9814d17 	ldw	r6,1332(sp)
  80b288:	31bfff84 	addi	r6,r6,-2
  80b28c:	d9814d15 	stw	r6,1332(sp)
  80b290:	003f4c06 	br	80afc4 <___vfprintf_internal_r+0x1b04>
  80b294:	0100180e 	bge	zero,r4,80b2f8 <___vfprintf_internal_r+0x1e38>
  80b298:	00800044 	movi	r2,1
  80b29c:	1485883a 	add	r2,r2,r18
  80b2a0:	d8814515 	stw	r2,1300(sp)
  80b2a4:	100f883a 	mov	r7,r2
  80b2a8:	103f750e 	bge	r2,zero,80b080 <___vfprintf_internal_r+0x1bc0>
  80b2ac:	003fa806 	br	80b150 <___vfprintf_internal_r+0x1c90>
  80b2b0:	80c00c04 	addi	r3,r16,48
  80b2b4:	00800c04 	movi	r2,48
  80b2b8:	d8c008c5 	stb	r3,35(sp)
  80b2bc:	d9800804 	addi	r6,sp,32
  80b2c0:	d8c00904 	addi	r3,sp,36
  80b2c4:	d8800885 	stb	r2,34(sp)
  80b2c8:	003f6506 	br	80b060 <___vfprintf_internal_r+0x1ba0>
  80b2cc:	d9014c17 	ldw	r4,1328(sp)
  80b2d0:	2084703a 	and	r2,r4,r2
  80b2d4:	103f9c26 	beq	r2,zero,80b148 <___vfprintf_internal_r+0x1c88>
  80b2d8:	003f6606 	br	80b074 <___vfprintf_internal_r+0x1bb4>
  80b2dc:	d9800804 	addi	r6,sp,32
  80b2e0:	d8c00884 	addi	r3,sp,34
  80b2e4:	003f5e06 	br	80b060 <___vfprintf_internal_r+0x1ba0>
  80b2e8:	00800b44 	movi	r2,45
  80b2ec:	0121c83a 	sub	r16,zero,r4
  80b2f0:	d8800845 	stb	r2,33(sp)
  80b2f4:	003f3d06 	br	80afec <___vfprintf_internal_r+0x1b2c>
  80b2f8:	00800084 	movi	r2,2
  80b2fc:	1105c83a 	sub	r2,r2,r4
  80b300:	003fe606 	br	80b29c <___vfprintf_internal_r+0x1ddc>
  80b304:	d8014515 	stw	zero,1300(sp)
  80b308:	dc814715 	stw	r18,1308(sp)
  80b30c:	003fb106 	br	80b1d4 <___vfprintf_internal_r+0x1d14>
  80b310:	000d883a 	mov	r6,zero
  80b314:	000f883a 	mov	r7,zero
  80b318:	8009883a 	mov	r4,r16
  80b31c:	880b883a 	mov	r5,r17
  80b320:	080fa400 	call	80fa40 <__nedf2>
  80b324:	103f9f26 	beq	r2,zero,80b1a4 <___vfprintf_internal_r+0x1ce4>
  80b328:	00800044 	movi	r2,1
  80b32c:	1509c83a 	sub	r4,r2,r20
  80b330:	d9000515 	stw	r4,20(sp)
  80b334:	003f9b06 	br	80b1a4 <___vfprintf_internal_r+0x1ce4>
  80b338:	98000d1e 	bne	r19,zero,80b370 <___vfprintf_internal_r+0x1eb0>
  80b33c:	d8c14c17 	ldw	r3,1328(sp)
  80b340:	1880004c 	andi	r2,r3,1
  80b344:	10000a1e 	bne	r2,zero,80b370 <___vfprintf_internal_r+0x1eb0>
  80b348:	01000044 	movi	r4,1
  80b34c:	200f883a 	mov	r7,r4
  80b350:	d9014515 	stw	r4,1300(sp)
  80b354:	003f4a06 	br	80b080 <___vfprintf_internal_r+0x1bc0>
  80b358:	3cc00017 	ldw	r19,0(r7)
  80b35c:	39c00104 	addi	r7,r7,4
  80b360:	983d0e0e 	bge	r19,zero,80a79c <___vfprintf_internal_r+0x12dc>
  80b364:	b8c00007 	ldb	r3,0(r23)
  80b368:	04ffffc4 	movi	r19,-1
  80b36c:	0038d306 	br	8096bc <___vfprintf_internal_r+0x1fc>
  80b370:	9cc00084 	addi	r19,r19,2
  80b374:	dcc14515 	stw	r19,1300(sp)
  80b378:	980f883a 	mov	r7,r19
  80b37c:	983f400e 	bge	r19,zero,80b080 <___vfprintf_internal_r+0x1bc0>
  80b380:	003f7306 	br	80b150 <___vfprintf_internal_r+0x1c90>

0080b384 <__vfprintf_internal>:
  80b384:	00802074 	movhi	r2,129
  80b388:	10898b04 	addi	r2,r2,9772
  80b38c:	2013883a 	mov	r9,r4
  80b390:	11000017 	ldw	r4,0(r2)
  80b394:	2805883a 	mov	r2,r5
  80b398:	300f883a 	mov	r7,r6
  80b39c:	480b883a 	mov	r5,r9
  80b3a0:	100d883a 	mov	r6,r2
  80b3a4:	08094c01 	jmpi	8094c0 <___vfprintf_internal_r>

0080b3a8 <__register_exitproc>:
  80b3a8:	defffa04 	addi	sp,sp,-24
  80b3ac:	00802074 	movhi	r2,129
  80b3b0:	10898c04 	addi	r2,r2,9776
  80b3b4:	dc000015 	stw	r16,0(sp)
  80b3b8:	14000017 	ldw	r16,0(r2)
  80b3bc:	dd000415 	stw	r20,16(sp)
  80b3c0:	2829883a 	mov	r20,r5
  80b3c4:	81405217 	ldw	r5,328(r16)
  80b3c8:	dcc00315 	stw	r19,12(sp)
  80b3cc:	dc800215 	stw	r18,8(sp)
  80b3d0:	dc400115 	stw	r17,4(sp)
  80b3d4:	dfc00515 	stw	ra,20(sp)
  80b3d8:	2023883a 	mov	r17,r4
  80b3dc:	3027883a 	mov	r19,r6
  80b3e0:	3825883a 	mov	r18,r7
  80b3e4:	28002526 	beq	r5,zero,80b47c <__register_exitproc+0xd4>
  80b3e8:	29000117 	ldw	r4,4(r5)
  80b3ec:	008007c4 	movi	r2,31
  80b3f0:	11002716 	blt	r2,r4,80b490 <__register_exitproc+0xe8>
  80b3f4:	8800101e 	bne	r17,zero,80b438 <__register_exitproc+0x90>
  80b3f8:	2105883a 	add	r2,r4,r4
  80b3fc:	1085883a 	add	r2,r2,r2
  80b400:	20c00044 	addi	r3,r4,1
  80b404:	1145883a 	add	r2,r2,r5
  80b408:	0009883a 	mov	r4,zero
  80b40c:	15000215 	stw	r20,8(r2)
  80b410:	28c00115 	stw	r3,4(r5)
  80b414:	2005883a 	mov	r2,r4
  80b418:	dfc00517 	ldw	ra,20(sp)
  80b41c:	dd000417 	ldw	r20,16(sp)
  80b420:	dcc00317 	ldw	r19,12(sp)
  80b424:	dc800217 	ldw	r18,8(sp)
  80b428:	dc400117 	ldw	r17,4(sp)
  80b42c:	dc000017 	ldw	r16,0(sp)
  80b430:	dec00604 	addi	sp,sp,24
  80b434:	f800283a 	ret
  80b438:	29802204 	addi	r6,r5,136
  80b43c:	00800044 	movi	r2,1
  80b440:	110e983a 	sll	r7,r2,r4
  80b444:	30c04017 	ldw	r3,256(r6)
  80b448:	2105883a 	add	r2,r4,r4
  80b44c:	1085883a 	add	r2,r2,r2
  80b450:	1185883a 	add	r2,r2,r6
  80b454:	19c6b03a 	or	r3,r3,r7
  80b458:	14802015 	stw	r18,128(r2)
  80b45c:	14c00015 	stw	r19,0(r2)
  80b460:	00800084 	movi	r2,2
  80b464:	30c04015 	stw	r3,256(r6)
  80b468:	88bfe31e 	bne	r17,r2,80b3f8 <__register_exitproc+0x50>
  80b46c:	30804117 	ldw	r2,260(r6)
  80b470:	11c4b03a 	or	r2,r2,r7
  80b474:	30804115 	stw	r2,260(r6)
  80b478:	003fdf06 	br	80b3f8 <__register_exitproc+0x50>
  80b47c:	00802074 	movhi	r2,129
  80b480:	1090f004 	addi	r2,r2,17344
  80b484:	100b883a 	mov	r5,r2
  80b488:	80805215 	stw	r2,328(r16)
  80b48c:	003fd606 	br	80b3e8 <__register_exitproc+0x40>
  80b490:	00802074 	movhi	r2,129
  80b494:	10a44d04 	addi	r2,r2,-28364
  80b498:	1000021e 	bne	r2,zero,80b4a4 <__register_exitproc+0xfc>
  80b49c:	013fffc4 	movi	r4,-1
  80b4a0:	003fdc06 	br	80b414 <__register_exitproc+0x6c>
  80b4a4:	01006404 	movi	r4,400
  80b4a8:	103ee83a 	callr	r2
  80b4ac:	1007883a 	mov	r3,r2
  80b4b0:	103ffa26 	beq	r2,zero,80b49c <__register_exitproc+0xf4>
  80b4b4:	80805217 	ldw	r2,328(r16)
  80b4b8:	180b883a 	mov	r5,r3
  80b4bc:	18000115 	stw	zero,4(r3)
  80b4c0:	18800015 	stw	r2,0(r3)
  80b4c4:	80c05215 	stw	r3,328(r16)
  80b4c8:	18006215 	stw	zero,392(r3)
  80b4cc:	18006315 	stw	zero,396(r3)
  80b4d0:	0009883a 	mov	r4,zero
  80b4d4:	883fc826 	beq	r17,zero,80b3f8 <__register_exitproc+0x50>
  80b4d8:	003fd706 	br	80b438 <__register_exitproc+0x90>

0080b4dc <register_fini>:
  80b4dc:	f800283a 	ret

0080b4e0 <__call_exitprocs>:
  80b4e0:	00802074 	movhi	r2,129
  80b4e4:	10898c04 	addi	r2,r2,9776
  80b4e8:	10800017 	ldw	r2,0(r2)
  80b4ec:	defff304 	addi	sp,sp,-52
  80b4f0:	df000b15 	stw	fp,44(sp)
  80b4f4:	d8800115 	stw	r2,4(sp)
  80b4f8:	00802074 	movhi	r2,129
  80b4fc:	10a44804 	addi	r2,r2,-28384
  80b500:	1005003a 	cmpeq	r2,r2,zero
  80b504:	d8800215 	stw	r2,8(sp)
  80b508:	d8800117 	ldw	r2,4(sp)
  80b50c:	dd400815 	stw	r21,32(sp)
  80b510:	dd000715 	stw	r20,28(sp)
  80b514:	10805204 	addi	r2,r2,328
  80b518:	dfc00c15 	stw	ra,48(sp)
  80b51c:	ddc00a15 	stw	r23,40(sp)
  80b520:	dd800915 	stw	r22,36(sp)
  80b524:	dcc00615 	stw	r19,24(sp)
  80b528:	dc800515 	stw	r18,20(sp)
  80b52c:	dc400415 	stw	r17,16(sp)
  80b530:	dc000315 	stw	r16,12(sp)
  80b534:	282b883a 	mov	r21,r5
  80b538:	2039883a 	mov	fp,r4
  80b53c:	d8800015 	stw	r2,0(sp)
  80b540:	2829003a 	cmpeq	r20,r5,zero
  80b544:	d8800117 	ldw	r2,4(sp)
  80b548:	14405217 	ldw	r17,328(r2)
  80b54c:	88001026 	beq	r17,zero,80b590 <__call_exitprocs+0xb0>
  80b550:	ddc00017 	ldw	r23,0(sp)
  80b554:	88800117 	ldw	r2,4(r17)
  80b558:	8c802204 	addi	r18,r17,136
  80b55c:	143fffc4 	addi	r16,r2,-1
  80b560:	80000916 	blt	r16,zero,80b588 <__call_exitprocs+0xa8>
  80b564:	05bfffc4 	movi	r22,-1
  80b568:	a000151e 	bne	r20,zero,80b5c0 <__call_exitprocs+0xe0>
  80b56c:	8409883a 	add	r4,r16,r16
  80b570:	2105883a 	add	r2,r4,r4
  80b574:	1485883a 	add	r2,r2,r18
  80b578:	10c02017 	ldw	r3,128(r2)
  80b57c:	a8c01126 	beq	r21,r3,80b5c4 <__call_exitprocs+0xe4>
  80b580:	843fffc4 	addi	r16,r16,-1
  80b584:	85bff81e 	bne	r16,r22,80b568 <__call_exitprocs+0x88>
  80b588:	d8800217 	ldw	r2,8(sp)
  80b58c:	10003126 	beq	r2,zero,80b654 <__call_exitprocs+0x174>
  80b590:	dfc00c17 	ldw	ra,48(sp)
  80b594:	df000b17 	ldw	fp,44(sp)
  80b598:	ddc00a17 	ldw	r23,40(sp)
  80b59c:	dd800917 	ldw	r22,36(sp)
  80b5a0:	dd400817 	ldw	r21,32(sp)
  80b5a4:	dd000717 	ldw	r20,28(sp)
  80b5a8:	dcc00617 	ldw	r19,24(sp)
  80b5ac:	dc800517 	ldw	r18,20(sp)
  80b5b0:	dc400417 	ldw	r17,16(sp)
  80b5b4:	dc000317 	ldw	r16,12(sp)
  80b5b8:	dec00d04 	addi	sp,sp,52
  80b5bc:	f800283a 	ret
  80b5c0:	8409883a 	add	r4,r16,r16
  80b5c4:	88c00117 	ldw	r3,4(r17)
  80b5c8:	2105883a 	add	r2,r4,r4
  80b5cc:	1445883a 	add	r2,r2,r17
  80b5d0:	18ffffc4 	addi	r3,r3,-1
  80b5d4:	11800217 	ldw	r6,8(r2)
  80b5d8:	1c001526 	beq	r3,r16,80b630 <__call_exitprocs+0x150>
  80b5dc:	10000215 	stw	zero,8(r2)
  80b5e0:	303fe726 	beq	r6,zero,80b580 <__call_exitprocs+0xa0>
  80b5e4:	00c00044 	movi	r3,1
  80b5e8:	1c06983a 	sll	r3,r3,r16
  80b5ec:	90804017 	ldw	r2,256(r18)
  80b5f0:	8cc00117 	ldw	r19,4(r17)
  80b5f4:	1884703a 	and	r2,r3,r2
  80b5f8:	10001426 	beq	r2,zero,80b64c <__call_exitprocs+0x16c>
  80b5fc:	90804117 	ldw	r2,260(r18)
  80b600:	1884703a 	and	r2,r3,r2
  80b604:	10000c1e 	bne	r2,zero,80b638 <__call_exitprocs+0x158>
  80b608:	2105883a 	add	r2,r4,r4
  80b60c:	1485883a 	add	r2,r2,r18
  80b610:	11400017 	ldw	r5,0(r2)
  80b614:	e009883a 	mov	r4,fp
  80b618:	303ee83a 	callr	r6
  80b61c:	88800117 	ldw	r2,4(r17)
  80b620:	98bfc81e 	bne	r19,r2,80b544 <__call_exitprocs+0x64>
  80b624:	b8800017 	ldw	r2,0(r23)
  80b628:	147fd526 	beq	r2,r17,80b580 <__call_exitprocs+0xa0>
  80b62c:	003fc506 	br	80b544 <__call_exitprocs+0x64>
  80b630:	8c000115 	stw	r16,4(r17)
  80b634:	003fea06 	br	80b5e0 <__call_exitprocs+0x100>
  80b638:	2105883a 	add	r2,r4,r4
  80b63c:	1485883a 	add	r2,r2,r18
  80b640:	11000017 	ldw	r4,0(r2)
  80b644:	303ee83a 	callr	r6
  80b648:	003ff406 	br	80b61c <__call_exitprocs+0x13c>
  80b64c:	303ee83a 	callr	r6
  80b650:	003ff206 	br	80b61c <__call_exitprocs+0x13c>
  80b654:	88800117 	ldw	r2,4(r17)
  80b658:	1000081e 	bne	r2,zero,80b67c <__call_exitprocs+0x19c>
  80b65c:	89000017 	ldw	r4,0(r17)
  80b660:	20000726 	beq	r4,zero,80b680 <__call_exitprocs+0x1a0>
  80b664:	b9000015 	stw	r4,0(r23)
  80b668:	8809883a 	mov	r4,r17
  80b66c:	08091200 	call	809120 <free>
  80b670:	bc400017 	ldw	r17,0(r23)
  80b674:	883fb71e 	bne	r17,zero,80b554 <__call_exitprocs+0x74>
  80b678:	003fc506 	br	80b590 <__call_exitprocs+0xb0>
  80b67c:	89000017 	ldw	r4,0(r17)
  80b680:	882f883a 	mov	r23,r17
  80b684:	2023883a 	mov	r17,r4
  80b688:	883fb21e 	bne	r17,zero,80b554 <__call_exitprocs+0x74>
  80b68c:	003fc006 	br	80b590 <__call_exitprocs+0xb0>

0080b690 <quorem>:
  80b690:	28c00417 	ldw	r3,16(r5)
  80b694:	20800417 	ldw	r2,16(r4)
  80b698:	defff104 	addi	sp,sp,-60
  80b69c:	dfc00e15 	stw	ra,56(sp)
  80b6a0:	df000d15 	stw	fp,52(sp)
  80b6a4:	ddc00c15 	stw	r23,48(sp)
  80b6a8:	dd800b15 	stw	r22,44(sp)
  80b6ac:	dd400a15 	stw	r21,40(sp)
  80b6b0:	dd000915 	stw	r20,36(sp)
  80b6b4:	dcc00815 	stw	r19,32(sp)
  80b6b8:	dc800715 	stw	r18,28(sp)
  80b6bc:	dc400615 	stw	r17,24(sp)
  80b6c0:	dc000515 	stw	r16,20(sp)
  80b6c4:	d9000315 	stw	r4,12(sp)
  80b6c8:	d9400415 	stw	r5,16(sp)
  80b6cc:	10c07f16 	blt	r2,r3,80b8cc <quorem+0x23c>
  80b6d0:	1d3fffc4 	addi	r20,r3,-1
  80b6d4:	d8c00417 	ldw	r3,16(sp)
  80b6d8:	d9000317 	ldw	r4,12(sp)
  80b6dc:	a505883a 	add	r2,r20,r20
  80b6e0:	1085883a 	add	r2,r2,r2
  80b6e4:	1cc00504 	addi	r19,r3,20
  80b6e8:	25c00504 	addi	r23,r4,20
  80b6ec:	98ad883a 	add	r22,r19,r2
  80b6f0:	15c7883a 	add	r3,r2,r23
  80b6f4:	b1400017 	ldw	r5,0(r22)
  80b6f8:	19000017 	ldw	r4,0(r3)
  80b6fc:	d8c00015 	stw	r3,0(sp)
  80b700:	29400044 	addi	r5,r5,1
  80b704:	d9000215 	stw	r4,8(sp)
  80b708:	08101000 	call	810100 <__udivsi3>
  80b70c:	1039883a 	mov	fp,r2
  80b710:	10003d1e 	bne	r2,zero,80b808 <quorem+0x178>
  80b714:	d9400417 	ldw	r5,16(sp)
  80b718:	d9000317 	ldw	r4,12(sp)
  80b71c:	080d0a80 	call	80d0a8 <__mcmp>
  80b720:	10002c16 	blt	r2,zero,80b7d4 <quorem+0x144>
  80b724:	e7000044 	addi	fp,fp,1
  80b728:	b80f883a 	mov	r7,r23
  80b72c:	0011883a 	mov	r8,zero
  80b730:	0009883a 	mov	r4,zero
  80b734:	99400017 	ldw	r5,0(r19)
  80b738:	38c00017 	ldw	r3,0(r7)
  80b73c:	9cc00104 	addi	r19,r19,4
  80b740:	28bfffcc 	andi	r2,r5,65535
  80b744:	2085883a 	add	r2,r4,r2
  80b748:	11bfffcc 	andi	r6,r2,65535
  80b74c:	193fffcc 	andi	r4,r3,65535
  80b750:	1004d43a 	srli	r2,r2,16
  80b754:	280ad43a 	srli	r5,r5,16
  80b758:	2189c83a 	sub	r4,r4,r6
  80b75c:	2209883a 	add	r4,r4,r8
  80b760:	1806d43a 	srli	r3,r3,16
  80b764:	288b883a 	add	r5,r5,r2
  80b768:	200dd43a 	srai	r6,r4,16
  80b76c:	28bfffcc 	andi	r2,r5,65535
  80b770:	1887c83a 	sub	r3,r3,r2
  80b774:	1987883a 	add	r3,r3,r6
  80b778:	3900000d 	sth	r4,0(r7)
  80b77c:	38c0008d 	sth	r3,2(r7)
  80b780:	2808d43a 	srli	r4,r5,16
  80b784:	39c00104 	addi	r7,r7,4
  80b788:	1811d43a 	srai	r8,r3,16
  80b78c:	b4ffe92e 	bgeu	r22,r19,80b734 <quorem+0xa4>
  80b790:	a505883a 	add	r2,r20,r20
  80b794:	1085883a 	add	r2,r2,r2
  80b798:	b885883a 	add	r2,r23,r2
  80b79c:	10c00017 	ldw	r3,0(r2)
  80b7a0:	18000c1e 	bne	r3,zero,80b7d4 <quorem+0x144>
  80b7a4:	113fff04 	addi	r4,r2,-4
  80b7a8:	b900082e 	bgeu	r23,r4,80b7cc <quorem+0x13c>
  80b7ac:	10bfff17 	ldw	r2,-4(r2)
  80b7b0:	10000326 	beq	r2,zero,80b7c0 <quorem+0x130>
  80b7b4:	00000506 	br	80b7cc <quorem+0x13c>
  80b7b8:	20800017 	ldw	r2,0(r4)
  80b7bc:	1000031e 	bne	r2,zero,80b7cc <quorem+0x13c>
  80b7c0:	213fff04 	addi	r4,r4,-4
  80b7c4:	a53fffc4 	addi	r20,r20,-1
  80b7c8:	b93ffb36 	bltu	r23,r4,80b7b8 <quorem+0x128>
  80b7cc:	d9000317 	ldw	r4,12(sp)
  80b7d0:	25000415 	stw	r20,16(r4)
  80b7d4:	e005883a 	mov	r2,fp
  80b7d8:	dfc00e17 	ldw	ra,56(sp)
  80b7dc:	df000d17 	ldw	fp,52(sp)
  80b7e0:	ddc00c17 	ldw	r23,48(sp)
  80b7e4:	dd800b17 	ldw	r22,44(sp)
  80b7e8:	dd400a17 	ldw	r21,40(sp)
  80b7ec:	dd000917 	ldw	r20,36(sp)
  80b7f0:	dcc00817 	ldw	r19,32(sp)
  80b7f4:	dc800717 	ldw	r18,28(sp)
  80b7f8:	dc400617 	ldw	r17,24(sp)
  80b7fc:	dc000517 	ldw	r16,20(sp)
  80b800:	dec00f04 	addi	sp,sp,60
  80b804:	f800283a 	ret
  80b808:	b823883a 	mov	r17,r23
  80b80c:	9825883a 	mov	r18,r19
  80b810:	d8000115 	stw	zero,4(sp)
  80b814:	002b883a 	mov	r21,zero
  80b818:	94000017 	ldw	r16,0(r18)
  80b81c:	e009883a 	mov	r4,fp
  80b820:	94800104 	addi	r18,r18,4
  80b824:	817fffcc 	andi	r5,r16,65535
  80b828:	0802c140 	call	802c14 <__mulsi3>
  80b82c:	800ad43a 	srli	r5,r16,16
  80b830:	e009883a 	mov	r4,fp
  80b834:	a8a1883a 	add	r16,r21,r2
  80b838:	0802c140 	call	802c14 <__mulsi3>
  80b83c:	89000017 	ldw	r4,0(r17)
  80b840:	80ffffcc 	andi	r3,r16,65535
  80b844:	8020d43a 	srli	r16,r16,16
  80b848:	217fffcc 	andi	r5,r4,65535
  80b84c:	28cbc83a 	sub	r5,r5,r3
  80b850:	d8c00117 	ldw	r3,4(sp)
  80b854:	2008d43a 	srli	r4,r4,16
  80b858:	1405883a 	add	r2,r2,r16
  80b85c:	28cb883a 	add	r5,r5,r3
  80b860:	280dd43a 	srai	r6,r5,16
  80b864:	10ffffcc 	andi	r3,r2,65535
  80b868:	20c9c83a 	sub	r4,r4,r3
  80b86c:	2189883a 	add	r4,r4,r6
  80b870:	8900008d 	sth	r4,2(r17)
  80b874:	2009d43a 	srai	r4,r4,16
  80b878:	8940000d 	sth	r5,0(r17)
  80b87c:	102ad43a 	srli	r21,r2,16
  80b880:	8c400104 	addi	r17,r17,4
  80b884:	d9000115 	stw	r4,4(sp)
  80b888:	b4bfe32e 	bgeu	r22,r18,80b818 <quorem+0x188>
  80b88c:	d9000217 	ldw	r4,8(sp)
  80b890:	203fa01e 	bne	r4,zero,80b714 <quorem+0x84>
  80b894:	d8800017 	ldw	r2,0(sp)
  80b898:	10ffff04 	addi	r3,r2,-4
  80b89c:	b8c0082e 	bgeu	r23,r3,80b8c0 <quorem+0x230>
  80b8a0:	10bfff17 	ldw	r2,-4(r2)
  80b8a4:	10000326 	beq	r2,zero,80b8b4 <quorem+0x224>
  80b8a8:	00000506 	br	80b8c0 <quorem+0x230>
  80b8ac:	18800017 	ldw	r2,0(r3)
  80b8b0:	1000031e 	bne	r2,zero,80b8c0 <quorem+0x230>
  80b8b4:	18ffff04 	addi	r3,r3,-4
  80b8b8:	a53fffc4 	addi	r20,r20,-1
  80b8bc:	b8fffb36 	bltu	r23,r3,80b8ac <quorem+0x21c>
  80b8c0:	d8c00317 	ldw	r3,12(sp)
  80b8c4:	1d000415 	stw	r20,16(r3)
  80b8c8:	003f9206 	br	80b714 <quorem+0x84>
  80b8cc:	0005883a 	mov	r2,zero
  80b8d0:	003fc106 	br	80b7d8 <quorem+0x148>

0080b8d4 <_dtoa_r>:
  80b8d4:	22001017 	ldw	r8,64(r4)
  80b8d8:	deffda04 	addi	sp,sp,-152
  80b8dc:	dd402115 	stw	r21,132(sp)
  80b8e0:	dd002015 	stw	r20,128(sp)
  80b8e4:	dc801e15 	stw	r18,120(sp)
  80b8e8:	dc401d15 	stw	r17,116(sp)
  80b8ec:	dfc02515 	stw	ra,148(sp)
  80b8f0:	df002415 	stw	fp,144(sp)
  80b8f4:	ddc02315 	stw	r23,140(sp)
  80b8f8:	dd802215 	stw	r22,136(sp)
  80b8fc:	dcc01f15 	stw	r19,124(sp)
  80b900:	dc001c15 	stw	r16,112(sp)
  80b904:	d9001615 	stw	r4,88(sp)
  80b908:	3023883a 	mov	r17,r6
  80b90c:	2829883a 	mov	r20,r5
  80b910:	d9c01715 	stw	r7,92(sp)
  80b914:	dc802817 	ldw	r18,160(sp)
  80b918:	302b883a 	mov	r21,r6
  80b91c:	40000a26 	beq	r8,zero,80b948 <_dtoa_r+0x74>
  80b920:	20801117 	ldw	r2,68(r4)
  80b924:	400b883a 	mov	r5,r8
  80b928:	40800115 	stw	r2,4(r8)
  80b92c:	20c01117 	ldw	r3,68(r4)
  80b930:	00800044 	movi	r2,1
  80b934:	10c4983a 	sll	r2,r2,r3
  80b938:	40800215 	stw	r2,8(r8)
  80b93c:	080cf4c0 	call	80cf4c <_Bfree>
  80b940:	d8c01617 	ldw	r3,88(sp)
  80b944:	18001015 	stw	zero,64(r3)
  80b948:	8800a316 	blt	r17,zero,80bbd8 <_dtoa_r+0x304>
  80b94c:	90000015 	stw	zero,0(r18)
  80b950:	a8dffc2c 	andhi	r3,r21,32752
  80b954:	009ffc34 	movhi	r2,32752
  80b958:	18809126 	beq	r3,r2,80bba0 <_dtoa_r+0x2cc>
  80b95c:	000d883a 	mov	r6,zero
  80b960:	000f883a 	mov	r7,zero
  80b964:	a009883a 	mov	r4,r20
  80b968:	a80b883a 	mov	r5,r21
  80b96c:	dd001215 	stw	r20,72(sp)
  80b970:	dd401315 	stw	r21,76(sp)
  80b974:	080fa400 	call	80fa40 <__nedf2>
  80b978:	1000171e 	bne	r2,zero,80b9d8 <_dtoa_r+0x104>
  80b97c:	d9802717 	ldw	r6,156(sp)
  80b980:	00800044 	movi	r2,1
  80b984:	30800015 	stw	r2,0(r6)
  80b988:	d8802917 	ldw	r2,164(sp)
  80b98c:	10029b26 	beq	r2,zero,80c3fc <_dtoa_r+0xb28>
  80b990:	d9002917 	ldw	r4,164(sp)
  80b994:	00802074 	movhi	r2,129
  80b998:	10825744 	addi	r2,r2,2397
  80b99c:	10ffffc4 	addi	r3,r2,-1
  80b9a0:	20800015 	stw	r2,0(r4)
  80b9a4:	1805883a 	mov	r2,r3
  80b9a8:	dfc02517 	ldw	ra,148(sp)
  80b9ac:	df002417 	ldw	fp,144(sp)
  80b9b0:	ddc02317 	ldw	r23,140(sp)
  80b9b4:	dd802217 	ldw	r22,136(sp)
  80b9b8:	dd402117 	ldw	r21,132(sp)
  80b9bc:	dd002017 	ldw	r20,128(sp)
  80b9c0:	dcc01f17 	ldw	r19,124(sp)
  80b9c4:	dc801e17 	ldw	r18,120(sp)
  80b9c8:	dc401d17 	ldw	r17,116(sp)
  80b9cc:	dc001c17 	ldw	r16,112(sp)
  80b9d0:	dec02604 	addi	sp,sp,152
  80b9d4:	f800283a 	ret
  80b9d8:	d9001617 	ldw	r4,88(sp)
  80b9dc:	d9401217 	ldw	r5,72(sp)
  80b9e0:	d8800104 	addi	r2,sp,4
  80b9e4:	a80d883a 	mov	r6,r21
  80b9e8:	d9c00204 	addi	r7,sp,8
  80b9ec:	d8800015 	stw	r2,0(sp)
  80b9f0:	080d5880 	call	80d588 <__d2b>
  80b9f4:	d8800715 	stw	r2,28(sp)
  80b9f8:	a804d53a 	srli	r2,r21,20
  80b9fc:	1101ffcc 	andi	r4,r2,2047
  80ba00:	20008626 	beq	r4,zero,80bc1c <_dtoa_r+0x348>
  80ba04:	d8c01217 	ldw	r3,72(sp)
  80ba08:	00800434 	movhi	r2,16
  80ba0c:	10bfffc4 	addi	r2,r2,-1
  80ba10:	ddc00117 	ldw	r23,4(sp)
  80ba14:	a884703a 	and	r2,r21,r2
  80ba18:	1811883a 	mov	r8,r3
  80ba1c:	124ffc34 	orhi	r9,r2,16368
  80ba20:	25bf0044 	addi	r22,r4,-1023
  80ba24:	d8000815 	stw	zero,32(sp)
  80ba28:	0005883a 	mov	r2,zero
  80ba2c:	00cffe34 	movhi	r3,16376
  80ba30:	480b883a 	mov	r5,r9
  80ba34:	4009883a 	mov	r4,r8
  80ba38:	180f883a 	mov	r7,r3
  80ba3c:	100d883a 	mov	r6,r2
  80ba40:	080f2a80 	call	80f2a8 <__subdf3>
  80ba44:	0218dbf4 	movhi	r8,25455
  80ba48:	4210d844 	addi	r8,r8,17249
  80ba4c:	024ff4f4 	movhi	r9,16339
  80ba50:	4a61e9c4 	addi	r9,r9,-30809
  80ba54:	480f883a 	mov	r7,r9
  80ba58:	400d883a 	mov	r6,r8
  80ba5c:	180b883a 	mov	r5,r3
  80ba60:	1009883a 	mov	r4,r2
  80ba64:	080f39c0 	call	80f39c <__muldf3>
  80ba68:	0222d874 	movhi	r8,35681
  80ba6c:	42322cc4 	addi	r8,r8,-14157
  80ba70:	024ff1f4 	movhi	r9,16327
  80ba74:	4a628a04 	addi	r9,r9,-30168
  80ba78:	480f883a 	mov	r7,r9
  80ba7c:	400d883a 	mov	r6,r8
  80ba80:	180b883a 	mov	r5,r3
  80ba84:	1009883a 	mov	r4,r2
  80ba88:	080f3280 	call	80f328 <__adddf3>
  80ba8c:	b009883a 	mov	r4,r22
  80ba90:	1021883a 	mov	r16,r2
  80ba94:	1823883a 	mov	r17,r3
  80ba98:	080fc600 	call	80fc60 <__floatsidf>
  80ba9c:	021427f4 	movhi	r8,20639
  80baa0:	421e7ec4 	addi	r8,r8,31227
  80baa4:	024ff4f4 	movhi	r9,16339
  80baa8:	4a5104c4 	addi	r9,r9,17427
  80baac:	480f883a 	mov	r7,r9
  80bab0:	400d883a 	mov	r6,r8
  80bab4:	180b883a 	mov	r5,r3
  80bab8:	1009883a 	mov	r4,r2
  80babc:	080f39c0 	call	80f39c <__muldf3>
  80bac0:	180f883a 	mov	r7,r3
  80bac4:	880b883a 	mov	r5,r17
  80bac8:	100d883a 	mov	r6,r2
  80bacc:	8009883a 	mov	r4,r16
  80bad0:	080f3280 	call	80f328 <__adddf3>
  80bad4:	1009883a 	mov	r4,r2
  80bad8:	180b883a 	mov	r5,r3
  80badc:	1021883a 	mov	r16,r2
  80bae0:	1823883a 	mov	r17,r3
  80bae4:	080fd580 	call	80fd58 <__fixdfsi>
  80bae8:	000d883a 	mov	r6,zero
  80baec:	000f883a 	mov	r7,zero
  80baf0:	8009883a 	mov	r4,r16
  80baf4:	880b883a 	mov	r5,r17
  80baf8:	d8800d15 	stw	r2,52(sp)
  80bafc:	080fbd80 	call	80fbd8 <__ltdf2>
  80bb00:	10031716 	blt	r2,zero,80c760 <_dtoa_r+0xe8c>
  80bb04:	d8c00d17 	ldw	r3,52(sp)
  80bb08:	00800584 	movi	r2,22
  80bb0c:	10c1482e 	bgeu	r2,r3,80c030 <_dtoa_r+0x75c>
  80bb10:	01000044 	movi	r4,1
  80bb14:	d9000c15 	stw	r4,48(sp)
  80bb18:	bd85c83a 	sub	r2,r23,r22
  80bb1c:	11bfffc4 	addi	r6,r2,-1
  80bb20:	30030b16 	blt	r6,zero,80c750 <_dtoa_r+0xe7c>
  80bb24:	d9800a15 	stw	r6,40(sp)
  80bb28:	d8001115 	stw	zero,68(sp)
  80bb2c:	d8c00d17 	ldw	r3,52(sp)
  80bb30:	1802ff16 	blt	r3,zero,80c730 <_dtoa_r+0xe5c>
  80bb34:	d9000a17 	ldw	r4,40(sp)
  80bb38:	d8c00915 	stw	r3,36(sp)
  80bb3c:	d8001015 	stw	zero,64(sp)
  80bb40:	20c9883a 	add	r4,r4,r3
  80bb44:	d9000a15 	stw	r4,40(sp)
  80bb48:	d9001717 	ldw	r4,92(sp)
  80bb4c:	00800244 	movi	r2,9
  80bb50:	11004636 	bltu	r2,r4,80bc6c <_dtoa_r+0x398>
  80bb54:	00800144 	movi	r2,5
  80bb58:	11020416 	blt	r2,r4,80c36c <_dtoa_r+0xa98>
  80bb5c:	04400044 	movi	r17,1
  80bb60:	d8c01717 	ldw	r3,92(sp)
  80bb64:	00800144 	movi	r2,5
  80bb68:	10c1ed36 	bltu	r2,r3,80c320 <_dtoa_r+0xa4c>
  80bb6c:	18c5883a 	add	r2,r3,r3
  80bb70:	1085883a 	add	r2,r2,r2
  80bb74:	00c02074 	movhi	r3,129
  80bb78:	18eee204 	addi	r3,r3,-17528
  80bb7c:	10c5883a 	add	r2,r2,r3
  80bb80:	11000017 	ldw	r4,0(r2)
  80bb84:	2000683a 	jmp	r4
  80bb88:	0080bc74 	movhi	r2,753
  80bb8c:	0080bc74 	movhi	r2,753
  80bb90:	0080c674 	movhi	r2,793
  80bb94:	0080c64c 	andi	r2,zero,793
  80bb98:	0080c690 	cmplti	r2,zero,794
  80bb9c:	0080c69c 	xori	r2,zero,794
  80bba0:	d9002717 	ldw	r4,156(sp)
  80bba4:	0089c3c4 	movi	r2,9999
  80bba8:	20800015 	stw	r2,0(r4)
  80bbac:	a0001026 	beq	r20,zero,80bbf0 <_dtoa_r+0x31c>
  80bbb0:	00c02074 	movhi	r3,129
  80bbb4:	18c26304 	addi	r3,r3,2444
  80bbb8:	d9802917 	ldw	r6,164(sp)
  80bbbc:	303f7926 	beq	r6,zero,80b9a4 <_dtoa_r+0xd0>
  80bbc0:	188000c7 	ldb	r2,3(r3)
  80bbc4:	190000c4 	addi	r4,r3,3
  80bbc8:	1000101e 	bne	r2,zero,80bc0c <_dtoa_r+0x338>
  80bbcc:	d8802917 	ldw	r2,164(sp)
  80bbd0:	11000015 	stw	r4,0(r2)
  80bbd4:	003f7306 	br	80b9a4 <_dtoa_r+0xd0>
  80bbd8:	00a00034 	movhi	r2,32768
  80bbdc:	10bfffc4 	addi	r2,r2,-1
  80bbe0:	00c00044 	movi	r3,1
  80bbe4:	88aa703a 	and	r21,r17,r2
  80bbe8:	90c00015 	stw	r3,0(r18)
  80bbec:	003f5806 	br	80b950 <_dtoa_r+0x7c>
  80bbf0:	00800434 	movhi	r2,16
  80bbf4:	10bfffc4 	addi	r2,r2,-1
  80bbf8:	a884703a 	and	r2,r21,r2
  80bbfc:	103fec1e 	bne	r2,zero,80bbb0 <_dtoa_r+0x2dc>
  80bc00:	00c02074 	movhi	r3,129
  80bc04:	18c26004 	addi	r3,r3,2432
  80bc08:	003feb06 	br	80bbb8 <_dtoa_r+0x2e4>
  80bc0c:	d8802917 	ldw	r2,164(sp)
  80bc10:	19000204 	addi	r4,r3,8
  80bc14:	11000015 	stw	r4,0(r2)
  80bc18:	003f6206 	br	80b9a4 <_dtoa_r+0xd0>
  80bc1c:	ddc00117 	ldw	r23,4(sp)
  80bc20:	d8800217 	ldw	r2,8(sp)
  80bc24:	01000804 	movi	r4,32
  80bc28:	b8c10c84 	addi	r3,r23,1074
  80bc2c:	18a3883a 	add	r17,r3,r2
  80bc30:	2441b80e 	bge	r4,r17,80c314 <_dtoa_r+0xa40>
  80bc34:	00c01004 	movi	r3,64
  80bc38:	1c47c83a 	sub	r3,r3,r17
  80bc3c:	88bff804 	addi	r2,r17,-32
  80bc40:	a8c6983a 	sll	r3,r21,r3
  80bc44:	a084d83a 	srl	r2,r20,r2
  80bc48:	1888b03a 	or	r4,r3,r2
  80bc4c:	080fe300 	call	80fe30 <__floatunsidf>
  80bc50:	1011883a 	mov	r8,r2
  80bc54:	00bf8434 	movhi	r2,65040
  80bc58:	01000044 	movi	r4,1
  80bc5c:	10d3883a 	add	r9,r2,r3
  80bc60:	8dbef344 	addi	r22,r17,-1075
  80bc64:	d9000815 	stw	r4,32(sp)
  80bc68:	003f6f06 	br	80ba28 <_dtoa_r+0x154>
  80bc6c:	d8001715 	stw	zero,92(sp)
  80bc70:	04400044 	movi	r17,1
  80bc74:	00bfffc4 	movi	r2,-1
  80bc78:	00c00044 	movi	r3,1
  80bc7c:	d8800e15 	stw	r2,56(sp)
  80bc80:	d8002615 	stw	zero,152(sp)
  80bc84:	d8800f15 	stw	r2,60(sp)
  80bc88:	d8c00b15 	stw	r3,44(sp)
  80bc8c:	1021883a 	mov	r16,r2
  80bc90:	d8801617 	ldw	r2,88(sp)
  80bc94:	10001115 	stw	zero,68(r2)
  80bc98:	d8801617 	ldw	r2,88(sp)
  80bc9c:	11401117 	ldw	r5,68(r2)
  80bca0:	1009883a 	mov	r4,r2
  80bca4:	080d4cc0 	call	80d4cc <_Balloc>
  80bca8:	d8c01617 	ldw	r3,88(sp)
  80bcac:	d8800515 	stw	r2,20(sp)
  80bcb0:	18801015 	stw	r2,64(r3)
  80bcb4:	00800384 	movi	r2,14
  80bcb8:	14006836 	bltu	r2,r16,80be5c <_dtoa_r+0x588>
  80bcbc:	8805003a 	cmpeq	r2,r17,zero
  80bcc0:	1000661e 	bne	r2,zero,80be5c <_dtoa_r+0x588>
  80bcc4:	d9000d17 	ldw	r4,52(sp)
  80bcc8:	0102300e 	bge	zero,r4,80c58c <_dtoa_r+0xcb8>
  80bccc:	208003cc 	andi	r2,r4,15
  80bcd0:	100490fa 	slli	r2,r2,3
  80bcd4:	2025d13a 	srai	r18,r4,4
  80bcd8:	00c02074 	movhi	r3,129
  80bcdc:	18c27404 	addi	r3,r3,2512
  80bce0:	10c5883a 	add	r2,r2,r3
  80bce4:	90c0040c 	andi	r3,r18,16
  80bce8:	14000017 	ldw	r16,0(r2)
  80bcec:	14400117 	ldw	r17,4(r2)
  80bcf0:	18036a1e 	bne	r3,zero,80ca9c <_dtoa_r+0x11c8>
  80bcf4:	05800084 	movi	r22,2
  80bcf8:	90001026 	beq	r18,zero,80bd3c <_dtoa_r+0x468>
  80bcfc:	04c02074 	movhi	r19,129
  80bd00:	9cc2a604 	addi	r19,r19,2712
  80bd04:	9080004c 	andi	r2,r18,1
  80bd08:	1005003a 	cmpeq	r2,r2,zero
  80bd0c:	1000081e 	bne	r2,zero,80bd30 <_dtoa_r+0x45c>
  80bd10:	99800017 	ldw	r6,0(r19)
  80bd14:	99c00117 	ldw	r7,4(r19)
  80bd18:	880b883a 	mov	r5,r17
  80bd1c:	8009883a 	mov	r4,r16
  80bd20:	080f39c0 	call	80f39c <__muldf3>
  80bd24:	1021883a 	mov	r16,r2
  80bd28:	b5800044 	addi	r22,r22,1
  80bd2c:	1823883a 	mov	r17,r3
  80bd30:	9025d07a 	srai	r18,r18,1
  80bd34:	9cc00204 	addi	r19,r19,8
  80bd38:	903ff21e 	bne	r18,zero,80bd04 <_dtoa_r+0x430>
  80bd3c:	a80b883a 	mov	r5,r21
  80bd40:	a009883a 	mov	r4,r20
  80bd44:	880f883a 	mov	r7,r17
  80bd48:	800d883a 	mov	r6,r16
  80bd4c:	080f7600 	call	80f760 <__divdf3>
  80bd50:	1029883a 	mov	r20,r2
  80bd54:	182b883a 	mov	r21,r3
  80bd58:	d8c00c17 	ldw	r3,48(sp)
  80bd5c:	1805003a 	cmpeq	r2,r3,zero
  80bd60:	1000081e 	bne	r2,zero,80bd84 <_dtoa_r+0x4b0>
  80bd64:	0005883a 	mov	r2,zero
  80bd68:	00cffc34 	movhi	r3,16368
  80bd6c:	180f883a 	mov	r7,r3
  80bd70:	a009883a 	mov	r4,r20
  80bd74:	a80b883a 	mov	r5,r21
  80bd78:	100d883a 	mov	r6,r2
  80bd7c:	080fbd80 	call	80fbd8 <__ltdf2>
  80bd80:	1003fe16 	blt	r2,zero,80cd7c <_dtoa_r+0x14a8>
  80bd84:	b009883a 	mov	r4,r22
  80bd88:	080fc600 	call	80fc60 <__floatsidf>
  80bd8c:	180b883a 	mov	r5,r3
  80bd90:	1009883a 	mov	r4,r2
  80bd94:	a00d883a 	mov	r6,r20
  80bd98:	a80f883a 	mov	r7,r21
  80bd9c:	080f39c0 	call	80f39c <__muldf3>
  80bda0:	0011883a 	mov	r8,zero
  80bda4:	02500734 	movhi	r9,16412
  80bda8:	1009883a 	mov	r4,r2
  80bdac:	180b883a 	mov	r5,r3
  80bdb0:	480f883a 	mov	r7,r9
  80bdb4:	400d883a 	mov	r6,r8
  80bdb8:	080f3280 	call	80f328 <__adddf3>
  80bdbc:	d9000f17 	ldw	r4,60(sp)
  80bdc0:	102d883a 	mov	r22,r2
  80bdc4:	00bf3034 	movhi	r2,64704
  80bdc8:	18b9883a 	add	fp,r3,r2
  80bdcc:	e02f883a 	mov	r23,fp
  80bdd0:	20028f1e 	bne	r4,zero,80c810 <_dtoa_r+0xf3c>
  80bdd4:	0005883a 	mov	r2,zero
  80bdd8:	00d00534 	movhi	r3,16404
  80bddc:	a009883a 	mov	r4,r20
  80bde0:	a80b883a 	mov	r5,r21
  80bde4:	180f883a 	mov	r7,r3
  80bde8:	100d883a 	mov	r6,r2
  80bdec:	080f2a80 	call	80f2a8 <__subdf3>
  80bdf0:	1009883a 	mov	r4,r2
  80bdf4:	e00f883a 	mov	r7,fp
  80bdf8:	180b883a 	mov	r5,r3
  80bdfc:	b00d883a 	mov	r6,r22
  80be00:	1025883a 	mov	r18,r2
  80be04:	1827883a 	mov	r19,r3
  80be08:	080fac80 	call	80fac8 <__gtdf2>
  80be0c:	00834f16 	blt	zero,r2,80cb4c <_dtoa_r+0x1278>
  80be10:	e0e0003c 	xorhi	r3,fp,32768
  80be14:	9009883a 	mov	r4,r18
  80be18:	980b883a 	mov	r5,r19
  80be1c:	180f883a 	mov	r7,r3
  80be20:	b00d883a 	mov	r6,r22
  80be24:	080fbd80 	call	80fbd8 <__ltdf2>
  80be28:	1000080e 	bge	r2,zero,80be4c <_dtoa_r+0x578>
  80be2c:	0027883a 	mov	r19,zero
  80be30:	0025883a 	mov	r18,zero
  80be34:	d8802617 	ldw	r2,152(sp)
  80be38:	df000517 	ldw	fp,20(sp)
  80be3c:	d8000615 	stw	zero,24(sp)
  80be40:	0084303a 	nor	r2,zero,r2
  80be44:	d8800d15 	stw	r2,52(sp)
  80be48:	00019b06 	br	80c4b8 <_dtoa_r+0xbe4>
  80be4c:	d9801217 	ldw	r6,72(sp)
  80be50:	d8801317 	ldw	r2,76(sp)
  80be54:	3029883a 	mov	r20,r6
  80be58:	102b883a 	mov	r21,r2
  80be5c:	d8c00217 	ldw	r3,8(sp)
  80be60:	18008516 	blt	r3,zero,80c078 <_dtoa_r+0x7a4>
  80be64:	d9000d17 	ldw	r4,52(sp)
  80be68:	00800384 	movi	r2,14
  80be6c:	11008216 	blt	r2,r4,80c078 <_dtoa_r+0x7a4>
  80be70:	200490fa 	slli	r2,r4,3
  80be74:	d9802617 	ldw	r6,152(sp)
  80be78:	00c02074 	movhi	r3,129
  80be7c:	18c27404 	addi	r3,r3,2512
  80be80:	10c5883a 	add	r2,r2,r3
  80be84:	14800017 	ldw	r18,0(r2)
  80be88:	14c00117 	ldw	r19,4(r2)
  80be8c:	30031e16 	blt	r6,zero,80cb08 <_dtoa_r+0x1234>
  80be90:	d9000517 	ldw	r4,20(sp)
  80be94:	d8c00f17 	ldw	r3,60(sp)
  80be98:	a823883a 	mov	r17,r21
  80be9c:	a021883a 	mov	r16,r20
  80bea0:	192b883a 	add	r21,r3,r4
  80bea4:	2039883a 	mov	fp,r4
  80bea8:	00000f06 	br	80bee8 <_dtoa_r+0x614>
  80beac:	0005883a 	mov	r2,zero
  80beb0:	00d00934 	movhi	r3,16420
  80beb4:	5009883a 	mov	r4,r10
  80beb8:	580b883a 	mov	r5,r11
  80bebc:	180f883a 	mov	r7,r3
  80bec0:	100d883a 	mov	r6,r2
  80bec4:	080f39c0 	call	80f39c <__muldf3>
  80bec8:	180b883a 	mov	r5,r3
  80becc:	000d883a 	mov	r6,zero
  80bed0:	000f883a 	mov	r7,zero
  80bed4:	1009883a 	mov	r4,r2
  80bed8:	1021883a 	mov	r16,r2
  80bedc:	1823883a 	mov	r17,r3
  80bee0:	080fa400 	call	80fa40 <__nedf2>
  80bee4:	10004526 	beq	r2,zero,80bffc <_dtoa_r+0x728>
  80bee8:	900d883a 	mov	r6,r18
  80beec:	980f883a 	mov	r7,r19
  80bef0:	8009883a 	mov	r4,r16
  80bef4:	880b883a 	mov	r5,r17
  80bef8:	080f7600 	call	80f760 <__divdf3>
  80befc:	180b883a 	mov	r5,r3
  80bf00:	1009883a 	mov	r4,r2
  80bf04:	080fd580 	call	80fd58 <__fixdfsi>
  80bf08:	1009883a 	mov	r4,r2
  80bf0c:	1029883a 	mov	r20,r2
  80bf10:	080fc600 	call	80fc60 <__floatsidf>
  80bf14:	180f883a 	mov	r7,r3
  80bf18:	9009883a 	mov	r4,r18
  80bf1c:	980b883a 	mov	r5,r19
  80bf20:	100d883a 	mov	r6,r2
  80bf24:	080f39c0 	call	80f39c <__muldf3>
  80bf28:	180f883a 	mov	r7,r3
  80bf2c:	880b883a 	mov	r5,r17
  80bf30:	8009883a 	mov	r4,r16
  80bf34:	100d883a 	mov	r6,r2
  80bf38:	080f2a80 	call	80f2a8 <__subdf3>
  80bf3c:	1015883a 	mov	r10,r2
  80bf40:	a0800c04 	addi	r2,r20,48
  80bf44:	e0800005 	stb	r2,0(fp)
  80bf48:	e7000044 	addi	fp,fp,1
  80bf4c:	1817883a 	mov	r11,r3
  80bf50:	e57fd61e 	bne	fp,r21,80beac <_dtoa_r+0x5d8>
  80bf54:	500d883a 	mov	r6,r10
  80bf58:	180f883a 	mov	r7,r3
  80bf5c:	5009883a 	mov	r4,r10
  80bf60:	180b883a 	mov	r5,r3
  80bf64:	080f3280 	call	80f328 <__adddf3>
  80bf68:	100d883a 	mov	r6,r2
  80bf6c:	9009883a 	mov	r4,r18
  80bf70:	980b883a 	mov	r5,r19
  80bf74:	180f883a 	mov	r7,r3
  80bf78:	1021883a 	mov	r16,r2
  80bf7c:	1823883a 	mov	r17,r3
  80bf80:	080fbd80 	call	80fbd8 <__ltdf2>
  80bf84:	10000816 	blt	r2,zero,80bfa8 <_dtoa_r+0x6d4>
  80bf88:	980b883a 	mov	r5,r19
  80bf8c:	800d883a 	mov	r6,r16
  80bf90:	880f883a 	mov	r7,r17
  80bf94:	9009883a 	mov	r4,r18
  80bf98:	080f9b80 	call	80f9b8 <__eqdf2>
  80bf9c:	1000171e 	bne	r2,zero,80bffc <_dtoa_r+0x728>
  80bfa0:	a080004c 	andi	r2,r20,1
  80bfa4:	10001526 	beq	r2,zero,80bffc <_dtoa_r+0x728>
  80bfa8:	d8800d17 	ldw	r2,52(sp)
  80bfac:	d8800415 	stw	r2,16(sp)
  80bfb0:	e009883a 	mov	r4,fp
  80bfb4:	213fffc4 	addi	r4,r4,-1
  80bfb8:	20c00007 	ldb	r3,0(r4)
  80bfbc:	00800e44 	movi	r2,57
  80bfc0:	1880081e 	bne	r3,r2,80bfe4 <_dtoa_r+0x710>
  80bfc4:	d8800517 	ldw	r2,20(sp)
  80bfc8:	113ffa1e 	bne	r2,r4,80bfb4 <_dtoa_r+0x6e0>
  80bfcc:	d8c00417 	ldw	r3,16(sp)
  80bfd0:	d9800517 	ldw	r6,20(sp)
  80bfd4:	00800c04 	movi	r2,48
  80bfd8:	18c00044 	addi	r3,r3,1
  80bfdc:	d8c00415 	stw	r3,16(sp)
  80bfe0:	30800005 	stb	r2,0(r6)
  80bfe4:	20800003 	ldbu	r2,0(r4)
  80bfe8:	d8c00417 	ldw	r3,16(sp)
  80bfec:	27000044 	addi	fp,r4,1
  80bff0:	10800044 	addi	r2,r2,1
  80bff4:	d8c00d15 	stw	r3,52(sp)
  80bff8:	20800005 	stb	r2,0(r4)
  80bffc:	d9001617 	ldw	r4,88(sp)
  80c000:	d9400717 	ldw	r5,28(sp)
  80c004:	080cf4c0 	call	80cf4c <_Bfree>
  80c008:	e0000005 	stb	zero,0(fp)
  80c00c:	d9800d17 	ldw	r6,52(sp)
  80c010:	d8c02717 	ldw	r3,156(sp)
  80c014:	d9002917 	ldw	r4,164(sp)
  80c018:	30800044 	addi	r2,r6,1
  80c01c:	18800015 	stw	r2,0(r3)
  80c020:	20029c26 	beq	r4,zero,80ca94 <_dtoa_r+0x11c0>
  80c024:	d8c00517 	ldw	r3,20(sp)
  80c028:	27000015 	stw	fp,0(r4)
  80c02c:	003e5d06 	br	80b9a4 <_dtoa_r+0xd0>
  80c030:	d9800d17 	ldw	r6,52(sp)
  80c034:	00c02074 	movhi	r3,129
  80c038:	18c27404 	addi	r3,r3,2512
  80c03c:	d9001217 	ldw	r4,72(sp)
  80c040:	300490fa 	slli	r2,r6,3
  80c044:	d9401317 	ldw	r5,76(sp)
  80c048:	10c5883a 	add	r2,r2,r3
  80c04c:	12000017 	ldw	r8,0(r2)
  80c050:	12400117 	ldw	r9,4(r2)
  80c054:	400d883a 	mov	r6,r8
  80c058:	480f883a 	mov	r7,r9
  80c05c:	080fbd80 	call	80fbd8 <__ltdf2>
  80c060:	1000030e 	bge	r2,zero,80c070 <_dtoa_r+0x79c>
  80c064:	d8800d17 	ldw	r2,52(sp)
  80c068:	10bfffc4 	addi	r2,r2,-1
  80c06c:	d8800d15 	stw	r2,52(sp)
  80c070:	d8000c15 	stw	zero,48(sp)
  80c074:	003ea806 	br	80bb18 <_dtoa_r+0x244>
  80c078:	d9000b17 	ldw	r4,44(sp)
  80c07c:	202cc03a 	cmpne	r22,r4,zero
  80c080:	b000c71e 	bne	r22,zero,80c3a0 <_dtoa_r+0xacc>
  80c084:	dc001117 	ldw	r16,68(sp)
  80c088:	dc801017 	ldw	r18,64(sp)
  80c08c:	0027883a 	mov	r19,zero
  80c090:	04000b0e 	bge	zero,r16,80c0c0 <_dtoa_r+0x7ec>
  80c094:	d8c00a17 	ldw	r3,40(sp)
  80c098:	00c0090e 	bge	zero,r3,80c0c0 <_dtoa_r+0x7ec>
  80c09c:	8005883a 	mov	r2,r16
  80c0a0:	1c011316 	blt	r3,r16,80c4f0 <_dtoa_r+0xc1c>
  80c0a4:	d9000a17 	ldw	r4,40(sp)
  80c0a8:	d9801117 	ldw	r6,68(sp)
  80c0ac:	80a1c83a 	sub	r16,r16,r2
  80c0b0:	2089c83a 	sub	r4,r4,r2
  80c0b4:	308dc83a 	sub	r6,r6,r2
  80c0b8:	d9000a15 	stw	r4,40(sp)
  80c0bc:	d9801115 	stw	r6,68(sp)
  80c0c0:	d8801017 	ldw	r2,64(sp)
  80c0c4:	0080150e 	bge	zero,r2,80c11c <_dtoa_r+0x848>
  80c0c8:	d8c00b17 	ldw	r3,44(sp)
  80c0cc:	1805003a 	cmpeq	r2,r3,zero
  80c0d0:	1001c91e 	bne	r2,zero,80c7f8 <_dtoa_r+0xf24>
  80c0d4:	04800e0e 	bge	zero,r18,80c110 <_dtoa_r+0x83c>
  80c0d8:	d9001617 	ldw	r4,88(sp)
  80c0dc:	980b883a 	mov	r5,r19
  80c0e0:	900d883a 	mov	r6,r18
  80c0e4:	080dd980 	call	80dd98 <__pow5mult>
  80c0e8:	d9001617 	ldw	r4,88(sp)
  80c0ec:	d9800717 	ldw	r6,28(sp)
  80c0f0:	100b883a 	mov	r5,r2
  80c0f4:	1027883a 	mov	r19,r2
  80c0f8:	080d9dc0 	call	80d9dc <__multiply>
  80c0fc:	d9001617 	ldw	r4,88(sp)
  80c100:	d9400717 	ldw	r5,28(sp)
  80c104:	1023883a 	mov	r17,r2
  80c108:	080cf4c0 	call	80cf4c <_Bfree>
  80c10c:	dc400715 	stw	r17,28(sp)
  80c110:	d9001017 	ldw	r4,64(sp)
  80c114:	248dc83a 	sub	r6,r4,r18
  80c118:	30010e1e 	bne	r6,zero,80c554 <_dtoa_r+0xc80>
  80c11c:	d9001617 	ldw	r4,88(sp)
  80c120:	04400044 	movi	r17,1
  80c124:	880b883a 	mov	r5,r17
  80c128:	080dc300 	call	80dc30 <__i2b>
  80c12c:	d9800917 	ldw	r6,36(sp)
  80c130:	1025883a 	mov	r18,r2
  80c134:	0180040e 	bge	zero,r6,80c148 <_dtoa_r+0x874>
  80c138:	d9001617 	ldw	r4,88(sp)
  80c13c:	100b883a 	mov	r5,r2
  80c140:	080dd980 	call	80dd98 <__pow5mult>
  80c144:	1025883a 	mov	r18,r2
  80c148:	d8801717 	ldw	r2,92(sp)
  80c14c:	8880f30e 	bge	r17,r2,80c51c <_dtoa_r+0xc48>
  80c150:	0023883a 	mov	r17,zero
  80c154:	d9800917 	ldw	r6,36(sp)
  80c158:	30019e1e 	bne	r6,zero,80c7d4 <_dtoa_r+0xf00>
  80c15c:	00c00044 	movi	r3,1
  80c160:	d9000a17 	ldw	r4,40(sp)
  80c164:	20c5883a 	add	r2,r4,r3
  80c168:	10c007cc 	andi	r3,r2,31
  80c16c:	1800841e 	bne	r3,zero,80c380 <_dtoa_r+0xaac>
  80c170:	00800704 	movi	r2,28
  80c174:	d9000a17 	ldw	r4,40(sp)
  80c178:	d9801117 	ldw	r6,68(sp)
  80c17c:	80a1883a 	add	r16,r16,r2
  80c180:	2089883a 	add	r4,r4,r2
  80c184:	308d883a 	add	r6,r6,r2
  80c188:	d9000a15 	stw	r4,40(sp)
  80c18c:	d9801115 	stw	r6,68(sp)
  80c190:	d8801117 	ldw	r2,68(sp)
  80c194:	0080050e 	bge	zero,r2,80c1ac <_dtoa_r+0x8d8>
  80c198:	d9400717 	ldw	r5,28(sp)
  80c19c:	d9001617 	ldw	r4,88(sp)
  80c1a0:	100d883a 	mov	r6,r2
  80c1a4:	080d8900 	call	80d890 <__lshift>
  80c1a8:	d8800715 	stw	r2,28(sp)
  80c1ac:	d8c00a17 	ldw	r3,40(sp)
  80c1b0:	00c0050e 	bge	zero,r3,80c1c8 <_dtoa_r+0x8f4>
  80c1b4:	d9001617 	ldw	r4,88(sp)
  80c1b8:	900b883a 	mov	r5,r18
  80c1bc:	180d883a 	mov	r6,r3
  80c1c0:	080d8900 	call	80d890 <__lshift>
  80c1c4:	1025883a 	mov	r18,r2
  80c1c8:	d9000c17 	ldw	r4,48(sp)
  80c1cc:	2005003a 	cmpeq	r2,r4,zero
  80c1d0:	10016f26 	beq	r2,zero,80c790 <_dtoa_r+0xebc>
  80c1d4:	d9000f17 	ldw	r4,60(sp)
  80c1d8:	0102170e 	bge	zero,r4,80ca38 <_dtoa_r+0x1164>
  80c1dc:	d9800b17 	ldw	r6,44(sp)
  80c1e0:	3005003a 	cmpeq	r2,r6,zero
  80c1e4:	1000881e 	bne	r2,zero,80c408 <_dtoa_r+0xb34>
  80c1e8:	0400050e 	bge	zero,r16,80c200 <_dtoa_r+0x92c>
  80c1ec:	d9001617 	ldw	r4,88(sp)
  80c1f0:	980b883a 	mov	r5,r19
  80c1f4:	800d883a 	mov	r6,r16
  80c1f8:	080d8900 	call	80d890 <__lshift>
  80c1fc:	1027883a 	mov	r19,r2
  80c200:	8804c03a 	cmpne	r2,r17,zero
  80c204:	1002541e 	bne	r2,zero,80cb58 <_dtoa_r+0x1284>
  80c208:	980b883a 	mov	r5,r19
  80c20c:	dd800517 	ldw	r22,20(sp)
  80c210:	dcc00615 	stw	r19,24(sp)
  80c214:	a700004c 	andi	fp,r20,1
  80c218:	2827883a 	mov	r19,r5
  80c21c:	d9000717 	ldw	r4,28(sp)
  80c220:	900b883a 	mov	r5,r18
  80c224:	080b6900 	call	80b690 <quorem>
  80c228:	d9000717 	ldw	r4,28(sp)
  80c22c:	d9400617 	ldw	r5,24(sp)
  80c230:	1023883a 	mov	r17,r2
  80c234:	8dc00c04 	addi	r23,r17,48
  80c238:	080d0a80 	call	80d0a8 <__mcmp>
  80c23c:	d9001617 	ldw	r4,88(sp)
  80c240:	900b883a 	mov	r5,r18
  80c244:	980d883a 	mov	r6,r19
  80c248:	1029883a 	mov	r20,r2
  80c24c:	080d7040 	call	80d704 <__mdiff>
  80c250:	102b883a 	mov	r21,r2
  80c254:	10800317 	ldw	r2,12(r2)
  80c258:	1001281e 	bne	r2,zero,80c6fc <_dtoa_r+0xe28>
  80c25c:	d9000717 	ldw	r4,28(sp)
  80c260:	a80b883a 	mov	r5,r21
  80c264:	080d0a80 	call	80d0a8 <__mcmp>
  80c268:	d9001617 	ldw	r4,88(sp)
  80c26c:	1021883a 	mov	r16,r2
  80c270:	a80b883a 	mov	r5,r21
  80c274:	080cf4c0 	call	80cf4c <_Bfree>
  80c278:	8000041e 	bne	r16,zero,80c28c <_dtoa_r+0x9b8>
  80c27c:	d8801717 	ldw	r2,92(sp)
  80c280:	1000021e 	bne	r2,zero,80c28c <_dtoa_r+0x9b8>
  80c284:	e004c03a 	cmpne	r2,fp,zero
  80c288:	10011726 	beq	r2,zero,80c6e8 <_dtoa_r+0xe14>
  80c28c:	a0010616 	blt	r20,zero,80c6a8 <_dtoa_r+0xdd4>
  80c290:	a000041e 	bne	r20,zero,80c2a4 <_dtoa_r+0x9d0>
  80c294:	d8c01717 	ldw	r3,92(sp)
  80c298:	1800021e 	bne	r3,zero,80c2a4 <_dtoa_r+0x9d0>
  80c29c:	e004c03a 	cmpne	r2,fp,zero
  80c2a0:	10010126 	beq	r2,zero,80c6a8 <_dtoa_r+0xdd4>
  80c2a4:	04023d16 	blt	zero,r16,80cb9c <_dtoa_r+0x12c8>
  80c2a8:	b5c00005 	stb	r23,0(r22)
  80c2ac:	d9800517 	ldw	r6,20(sp)
  80c2b0:	d9000f17 	ldw	r4,60(sp)
  80c2b4:	b5800044 	addi	r22,r22,1
  80c2b8:	3105883a 	add	r2,r6,r4
  80c2bc:	b0806526 	beq	r22,r2,80c454 <_dtoa_r+0xb80>
  80c2c0:	d9400717 	ldw	r5,28(sp)
  80c2c4:	d9001617 	ldw	r4,88(sp)
  80c2c8:	01800284 	movi	r6,10
  80c2cc:	000f883a 	mov	r7,zero
  80c2d0:	080dc6c0 	call	80dc6c <__multadd>
  80c2d4:	d8800715 	stw	r2,28(sp)
  80c2d8:	d8800617 	ldw	r2,24(sp)
  80c2dc:	14c10c26 	beq	r2,r19,80c710 <_dtoa_r+0xe3c>
  80c2e0:	d9400617 	ldw	r5,24(sp)
  80c2e4:	d9001617 	ldw	r4,88(sp)
  80c2e8:	01800284 	movi	r6,10
  80c2ec:	000f883a 	mov	r7,zero
  80c2f0:	080dc6c0 	call	80dc6c <__multadd>
  80c2f4:	d9001617 	ldw	r4,88(sp)
  80c2f8:	980b883a 	mov	r5,r19
  80c2fc:	01800284 	movi	r6,10
  80c300:	000f883a 	mov	r7,zero
  80c304:	d8800615 	stw	r2,24(sp)
  80c308:	080dc6c0 	call	80dc6c <__multadd>
  80c30c:	1027883a 	mov	r19,r2
  80c310:	003fc206 	br	80c21c <_dtoa_r+0x948>
  80c314:	2445c83a 	sub	r2,r4,r17
  80c318:	a088983a 	sll	r4,r20,r2
  80c31c:	003e4b06 	br	80bc4c <_dtoa_r+0x378>
  80c320:	01bfffc4 	movi	r6,-1
  80c324:	00800044 	movi	r2,1
  80c328:	d9800e15 	stw	r6,56(sp)
  80c32c:	d9800f15 	stw	r6,60(sp)
  80c330:	d8800b15 	stw	r2,44(sp)
  80c334:	d8c01617 	ldw	r3,88(sp)
  80c338:	008005c4 	movi	r2,23
  80c33c:	18001115 	stw	zero,68(r3)
  80c340:	1580082e 	bgeu	r2,r22,80c364 <_dtoa_r+0xa90>
  80c344:	00c00104 	movi	r3,4
  80c348:	0009883a 	mov	r4,zero
  80c34c:	18c7883a 	add	r3,r3,r3
  80c350:	18800504 	addi	r2,r3,20
  80c354:	21000044 	addi	r4,r4,1
  80c358:	b0bffc2e 	bgeu	r22,r2,80c34c <_dtoa_r+0xa78>
  80c35c:	d9801617 	ldw	r6,88(sp)
  80c360:	31001115 	stw	r4,68(r6)
  80c364:	dc000f17 	ldw	r16,60(sp)
  80c368:	003e4b06 	br	80bc98 <_dtoa_r+0x3c4>
  80c36c:	d9801717 	ldw	r6,92(sp)
  80c370:	0023883a 	mov	r17,zero
  80c374:	31bfff04 	addi	r6,r6,-4
  80c378:	d9801715 	stw	r6,92(sp)
  80c37c:	003df806 	br	80bb60 <_dtoa_r+0x28c>
  80c380:	00800804 	movi	r2,32
  80c384:	10c9c83a 	sub	r4,r2,r3
  80c388:	00c00104 	movi	r3,4
  80c38c:	19005a16 	blt	r3,r4,80c4f8 <_dtoa_r+0xc24>
  80c390:	008000c4 	movi	r2,3
  80c394:	113f7e16 	blt	r2,r4,80c190 <_dtoa_r+0x8bc>
  80c398:	20800704 	addi	r2,r4,28
  80c39c:	003f7506 	br	80c174 <_dtoa_r+0x8a0>
  80c3a0:	d9801717 	ldw	r6,92(sp)
  80c3a4:	00800044 	movi	r2,1
  80c3a8:	1180a10e 	bge	r2,r6,80c630 <_dtoa_r+0xd5c>
  80c3ac:	d9800f17 	ldw	r6,60(sp)
  80c3b0:	d8c01017 	ldw	r3,64(sp)
  80c3b4:	30bfffc4 	addi	r2,r6,-1
  80c3b8:	1881c616 	blt	r3,r2,80cad4 <_dtoa_r+0x1200>
  80c3bc:	18a5c83a 	sub	r18,r3,r2
  80c3c0:	d8800f17 	ldw	r2,60(sp)
  80c3c4:	10026216 	blt	r2,zero,80cd50 <_dtoa_r+0x147c>
  80c3c8:	dc001117 	ldw	r16,68(sp)
  80c3cc:	1007883a 	mov	r3,r2
  80c3d0:	d9800a17 	ldw	r6,40(sp)
  80c3d4:	d8801117 	ldw	r2,68(sp)
  80c3d8:	d9001617 	ldw	r4,88(sp)
  80c3dc:	30cd883a 	add	r6,r6,r3
  80c3e0:	10c5883a 	add	r2,r2,r3
  80c3e4:	01400044 	movi	r5,1
  80c3e8:	d9800a15 	stw	r6,40(sp)
  80c3ec:	d8801115 	stw	r2,68(sp)
  80c3f0:	080dc300 	call	80dc30 <__i2b>
  80c3f4:	1027883a 	mov	r19,r2
  80c3f8:	003f2506 	br	80c090 <_dtoa_r+0x7bc>
  80c3fc:	00c02074 	movhi	r3,129
  80c400:	18c25704 	addi	r3,r3,2396
  80c404:	003d6706 	br	80b9a4 <_dtoa_r+0xd0>
  80c408:	dd800517 	ldw	r22,20(sp)
  80c40c:	04000044 	movi	r16,1
  80c410:	00000706 	br	80c430 <_dtoa_r+0xb5c>
  80c414:	d9400717 	ldw	r5,28(sp)
  80c418:	d9001617 	ldw	r4,88(sp)
  80c41c:	01800284 	movi	r6,10
  80c420:	000f883a 	mov	r7,zero
  80c424:	080dc6c0 	call	80dc6c <__multadd>
  80c428:	d8800715 	stw	r2,28(sp)
  80c42c:	84000044 	addi	r16,r16,1
  80c430:	d9000717 	ldw	r4,28(sp)
  80c434:	900b883a 	mov	r5,r18
  80c438:	080b6900 	call	80b690 <quorem>
  80c43c:	15c00c04 	addi	r23,r2,48
  80c440:	b5c00005 	stb	r23,0(r22)
  80c444:	d8c00f17 	ldw	r3,60(sp)
  80c448:	b5800044 	addi	r22,r22,1
  80c44c:	80fff116 	blt	r16,r3,80c414 <_dtoa_r+0xb40>
  80c450:	d8000615 	stw	zero,24(sp)
  80c454:	d9400717 	ldw	r5,28(sp)
  80c458:	d9001617 	ldw	r4,88(sp)
  80c45c:	01800044 	movi	r6,1
  80c460:	080d8900 	call	80d890 <__lshift>
  80c464:	1009883a 	mov	r4,r2
  80c468:	900b883a 	mov	r5,r18
  80c46c:	d8800715 	stw	r2,28(sp)
  80c470:	080d0a80 	call	80d0a8 <__mcmp>
  80c474:	00803c0e 	bge	zero,r2,80c568 <_dtoa_r+0xc94>
  80c478:	b009883a 	mov	r4,r22
  80c47c:	213fffc4 	addi	r4,r4,-1
  80c480:	21400003 	ldbu	r5,0(r4)
  80c484:	00800e44 	movi	r2,57
  80c488:	28c03fcc 	andi	r3,r5,255
  80c48c:	18c0201c 	xori	r3,r3,128
  80c490:	18ffe004 	addi	r3,r3,-128
  80c494:	1881981e 	bne	r3,r2,80caf8 <_dtoa_r+0x1224>
  80c498:	d9800517 	ldw	r6,20(sp)
  80c49c:	21bff71e 	bne	r4,r6,80c47c <_dtoa_r+0xba8>
  80c4a0:	d8800d17 	ldw	r2,52(sp)
  80c4a4:	37000044 	addi	fp,r6,1
  80c4a8:	10800044 	addi	r2,r2,1
  80c4ac:	d8800d15 	stw	r2,52(sp)
  80c4b0:	00800c44 	movi	r2,49
  80c4b4:	30800005 	stb	r2,0(r6)
  80c4b8:	d9001617 	ldw	r4,88(sp)
  80c4bc:	900b883a 	mov	r5,r18
  80c4c0:	080cf4c0 	call	80cf4c <_Bfree>
  80c4c4:	983ecd26 	beq	r19,zero,80bffc <_dtoa_r+0x728>
  80c4c8:	d8c00617 	ldw	r3,24(sp)
  80c4cc:	18000426 	beq	r3,zero,80c4e0 <_dtoa_r+0xc0c>
  80c4d0:	1cc00326 	beq	r3,r19,80c4e0 <_dtoa_r+0xc0c>
  80c4d4:	d9001617 	ldw	r4,88(sp)
  80c4d8:	180b883a 	mov	r5,r3
  80c4dc:	080cf4c0 	call	80cf4c <_Bfree>
  80c4e0:	d9001617 	ldw	r4,88(sp)
  80c4e4:	980b883a 	mov	r5,r19
  80c4e8:	080cf4c0 	call	80cf4c <_Bfree>
  80c4ec:	003ec306 	br	80bffc <_dtoa_r+0x728>
  80c4f0:	1805883a 	mov	r2,r3
  80c4f4:	003eeb06 	br	80c0a4 <_dtoa_r+0x7d0>
  80c4f8:	d9800a17 	ldw	r6,40(sp)
  80c4fc:	d8c01117 	ldw	r3,68(sp)
  80c500:	20bfff04 	addi	r2,r4,-4
  80c504:	308d883a 	add	r6,r6,r2
  80c508:	1887883a 	add	r3,r3,r2
  80c50c:	80a1883a 	add	r16,r16,r2
  80c510:	d9800a15 	stw	r6,40(sp)
  80c514:	d8c01115 	stw	r3,68(sp)
  80c518:	003f1d06 	br	80c190 <_dtoa_r+0x8bc>
  80c51c:	a03f0c1e 	bne	r20,zero,80c150 <_dtoa_r+0x87c>
  80c520:	00800434 	movhi	r2,16
  80c524:	10bfffc4 	addi	r2,r2,-1
  80c528:	a884703a 	and	r2,r21,r2
  80c52c:	103f081e 	bne	r2,zero,80c150 <_dtoa_r+0x87c>
  80c530:	a89ffc2c 	andhi	r2,r21,32752
  80c534:	103f0626 	beq	r2,zero,80c150 <_dtoa_r+0x87c>
  80c538:	d8c01117 	ldw	r3,68(sp)
  80c53c:	d9000a17 	ldw	r4,40(sp)
  80c540:	18c00044 	addi	r3,r3,1
  80c544:	21000044 	addi	r4,r4,1
  80c548:	d8c01115 	stw	r3,68(sp)
  80c54c:	d9000a15 	stw	r4,40(sp)
  80c550:	003f0006 	br	80c154 <_dtoa_r+0x880>
  80c554:	d9400717 	ldw	r5,28(sp)
  80c558:	d9001617 	ldw	r4,88(sp)
  80c55c:	080dd980 	call	80dd98 <__pow5mult>
  80c560:	d8800715 	stw	r2,28(sp)
  80c564:	003eed06 	br	80c11c <_dtoa_r+0x848>
  80c568:	1000021e 	bne	r2,zero,80c574 <_dtoa_r+0xca0>
  80c56c:	b880004c 	andi	r2,r23,1
  80c570:	103fc11e 	bne	r2,zero,80c478 <_dtoa_r+0xba4>
  80c574:	b5bfffc4 	addi	r22,r22,-1
  80c578:	b0c00007 	ldb	r3,0(r22)
  80c57c:	00800c04 	movi	r2,48
  80c580:	18bffc26 	beq	r3,r2,80c574 <_dtoa_r+0xca0>
  80c584:	b7000044 	addi	fp,r22,1
  80c588:	003fcb06 	br	80c4b8 <_dtoa_r+0xbe4>
  80c58c:	d9800d17 	ldw	r6,52(sp)
  80c590:	018fc83a 	sub	r7,zero,r6
  80c594:	3801f726 	beq	r7,zero,80cd74 <_dtoa_r+0x14a0>
  80c598:	398003cc 	andi	r6,r7,15
  80c59c:	300c90fa 	slli	r6,r6,3
  80c5a0:	01402074 	movhi	r5,129
  80c5a4:	29427404 	addi	r5,r5,2512
  80c5a8:	d9001217 	ldw	r4,72(sp)
  80c5ac:	314d883a 	add	r6,r6,r5
  80c5b0:	30c00117 	ldw	r3,4(r6)
  80c5b4:	30800017 	ldw	r2,0(r6)
  80c5b8:	d9401317 	ldw	r5,76(sp)
  80c5bc:	3821d13a 	srai	r16,r7,4
  80c5c0:	100d883a 	mov	r6,r2
  80c5c4:	180f883a 	mov	r7,r3
  80c5c8:	080f39c0 	call	80f39c <__muldf3>
  80c5cc:	1011883a 	mov	r8,r2
  80c5d0:	1813883a 	mov	r9,r3
  80c5d4:	1029883a 	mov	r20,r2
  80c5d8:	182b883a 	mov	r21,r3
  80c5dc:	8001e526 	beq	r16,zero,80cd74 <_dtoa_r+0x14a0>
  80c5e0:	05800084 	movi	r22,2
  80c5e4:	04402074 	movhi	r17,129
  80c5e8:	8c42a604 	addi	r17,r17,2712
  80c5ec:	8080004c 	andi	r2,r16,1
  80c5f0:	1005003a 	cmpeq	r2,r2,zero
  80c5f4:	1000081e 	bne	r2,zero,80c618 <_dtoa_r+0xd44>
  80c5f8:	89800017 	ldw	r6,0(r17)
  80c5fc:	89c00117 	ldw	r7,4(r17)
  80c600:	480b883a 	mov	r5,r9
  80c604:	4009883a 	mov	r4,r8
  80c608:	080f39c0 	call	80f39c <__muldf3>
  80c60c:	1011883a 	mov	r8,r2
  80c610:	b5800044 	addi	r22,r22,1
  80c614:	1813883a 	mov	r9,r3
  80c618:	8021d07a 	srai	r16,r16,1
  80c61c:	8c400204 	addi	r17,r17,8
  80c620:	803ff21e 	bne	r16,zero,80c5ec <_dtoa_r+0xd18>
  80c624:	4029883a 	mov	r20,r8
  80c628:	482b883a 	mov	r21,r9
  80c62c:	003dca06 	br	80bd58 <_dtoa_r+0x484>
  80c630:	d9000817 	ldw	r4,32(sp)
  80c634:	2005003a 	cmpeq	r2,r4,zero
  80c638:	1001f61e 	bne	r2,zero,80ce14 <_dtoa_r+0x1540>
  80c63c:	dc001117 	ldw	r16,68(sp)
  80c640:	dc801017 	ldw	r18,64(sp)
  80c644:	18c10cc4 	addi	r3,r3,1075
  80c648:	003f6106 	br	80c3d0 <_dtoa_r+0xafc>
  80c64c:	d8000b15 	stw	zero,44(sp)
  80c650:	d9802617 	ldw	r6,152(sp)
  80c654:	d8c00d17 	ldw	r3,52(sp)
  80c658:	30800044 	addi	r2,r6,1
  80c65c:	18ad883a 	add	r22,r3,r2
  80c660:	b13fffc4 	addi	r4,r22,-1
  80c664:	d9000e15 	stw	r4,56(sp)
  80c668:	0581f60e 	bge	zero,r22,80ce44 <_dtoa_r+0x1570>
  80c66c:	dd800f15 	stw	r22,60(sp)
  80c670:	003f3006 	br	80c334 <_dtoa_r+0xa60>
  80c674:	d8000b15 	stw	zero,44(sp)
  80c678:	d9002617 	ldw	r4,152(sp)
  80c67c:	0101eb0e 	bge	zero,r4,80ce2c <_dtoa_r+0x1558>
  80c680:	202d883a 	mov	r22,r4
  80c684:	d9000e15 	stw	r4,56(sp)
  80c688:	d9000f15 	stw	r4,60(sp)
  80c68c:	003f2906 	br	80c334 <_dtoa_r+0xa60>
  80c690:	01800044 	movi	r6,1
  80c694:	d9800b15 	stw	r6,44(sp)
  80c698:	003ff706 	br	80c678 <_dtoa_r+0xda4>
  80c69c:	01000044 	movi	r4,1
  80c6a0:	d9000b15 	stw	r4,44(sp)
  80c6a4:	003fea06 	br	80c650 <_dtoa_r+0xd7c>
  80c6a8:	04000c0e 	bge	zero,r16,80c6dc <_dtoa_r+0xe08>
  80c6ac:	d9400717 	ldw	r5,28(sp)
  80c6b0:	d9001617 	ldw	r4,88(sp)
  80c6b4:	01800044 	movi	r6,1
  80c6b8:	080d8900 	call	80d890 <__lshift>
  80c6bc:	1009883a 	mov	r4,r2
  80c6c0:	900b883a 	mov	r5,r18
  80c6c4:	d8800715 	stw	r2,28(sp)
  80c6c8:	080d0a80 	call	80d0a8 <__mcmp>
  80c6cc:	0081e00e 	bge	zero,r2,80ce50 <_dtoa_r+0x157c>
  80c6d0:	bdc00044 	addi	r23,r23,1
  80c6d4:	00800e84 	movi	r2,58
  80c6d8:	b881a226 	beq	r23,r2,80cd64 <_dtoa_r+0x1490>
  80c6dc:	b7000044 	addi	fp,r22,1
  80c6e0:	b5c00005 	stb	r23,0(r22)
  80c6e4:	003f7406 	br	80c4b8 <_dtoa_r+0xbe4>
  80c6e8:	00800e44 	movi	r2,57
  80c6ec:	b8819d26 	beq	r23,r2,80cd64 <_dtoa_r+0x1490>
  80c6f0:	053ffa0e 	bge	zero,r20,80c6dc <_dtoa_r+0xe08>
  80c6f4:	8dc00c44 	addi	r23,r17,49
  80c6f8:	003ff806 	br	80c6dc <_dtoa_r+0xe08>
  80c6fc:	d9001617 	ldw	r4,88(sp)
  80c700:	a80b883a 	mov	r5,r21
  80c704:	04000044 	movi	r16,1
  80c708:	080cf4c0 	call	80cf4c <_Bfree>
  80c70c:	003edf06 	br	80c28c <_dtoa_r+0x9b8>
  80c710:	d9001617 	ldw	r4,88(sp)
  80c714:	980b883a 	mov	r5,r19
  80c718:	01800284 	movi	r6,10
  80c71c:	000f883a 	mov	r7,zero
  80c720:	080dc6c0 	call	80dc6c <__multadd>
  80c724:	1027883a 	mov	r19,r2
  80c728:	d8800615 	stw	r2,24(sp)
  80c72c:	003ebb06 	br	80c21c <_dtoa_r+0x948>
  80c730:	d9801117 	ldw	r6,68(sp)
  80c734:	d8800d17 	ldw	r2,52(sp)
  80c738:	d8000915 	stw	zero,36(sp)
  80c73c:	308dc83a 	sub	r6,r6,r2
  80c740:	0087c83a 	sub	r3,zero,r2
  80c744:	d9801115 	stw	r6,68(sp)
  80c748:	d8c01015 	stw	r3,64(sp)
  80c74c:	003cfe06 	br	80bb48 <_dtoa_r+0x274>
  80c750:	018dc83a 	sub	r6,zero,r6
  80c754:	d9801115 	stw	r6,68(sp)
  80c758:	d8000a15 	stw	zero,40(sp)
  80c75c:	003cf306 	br	80bb2c <_dtoa_r+0x258>
  80c760:	d9000d17 	ldw	r4,52(sp)
  80c764:	080fc600 	call	80fc60 <__floatsidf>
  80c768:	880b883a 	mov	r5,r17
  80c76c:	8009883a 	mov	r4,r16
  80c770:	180f883a 	mov	r7,r3
  80c774:	100d883a 	mov	r6,r2
  80c778:	080fa400 	call	80fa40 <__nedf2>
  80c77c:	103ce126 	beq	r2,zero,80bb04 <_dtoa_r+0x230>
  80c780:	d9800d17 	ldw	r6,52(sp)
  80c784:	31bfffc4 	addi	r6,r6,-1
  80c788:	d9800d15 	stw	r6,52(sp)
  80c78c:	003cdd06 	br	80bb04 <_dtoa_r+0x230>
  80c790:	d9000717 	ldw	r4,28(sp)
  80c794:	900b883a 	mov	r5,r18
  80c798:	080d0a80 	call	80d0a8 <__mcmp>
  80c79c:	103e8d0e 	bge	r2,zero,80c1d4 <_dtoa_r+0x900>
  80c7a0:	d9400717 	ldw	r5,28(sp)
  80c7a4:	d9001617 	ldw	r4,88(sp)
  80c7a8:	01800284 	movi	r6,10
  80c7ac:	000f883a 	mov	r7,zero
  80c7b0:	080dc6c0 	call	80dc6c <__multadd>
  80c7b4:	d9800d17 	ldw	r6,52(sp)
  80c7b8:	d8800715 	stw	r2,28(sp)
  80c7bc:	31bfffc4 	addi	r6,r6,-1
  80c7c0:	d9800d15 	stw	r6,52(sp)
  80c7c4:	b001a71e 	bne	r22,zero,80ce64 <_dtoa_r+0x1590>
  80c7c8:	d8800e17 	ldw	r2,56(sp)
  80c7cc:	d8800f15 	stw	r2,60(sp)
  80c7d0:	003e8006 	br	80c1d4 <_dtoa_r+0x900>
  80c7d4:	90800417 	ldw	r2,16(r18)
  80c7d8:	1085883a 	add	r2,r2,r2
  80c7dc:	1085883a 	add	r2,r2,r2
  80c7e0:	1485883a 	add	r2,r2,r18
  80c7e4:	11000417 	ldw	r4,16(r2)
  80c7e8:	080cf740 	call	80cf74 <__hi0bits>
  80c7ec:	00c00804 	movi	r3,32
  80c7f0:	1887c83a 	sub	r3,r3,r2
  80c7f4:	003e5a06 	br	80c160 <_dtoa_r+0x88c>
  80c7f8:	d9400717 	ldw	r5,28(sp)
  80c7fc:	d9801017 	ldw	r6,64(sp)
  80c800:	d9001617 	ldw	r4,88(sp)
  80c804:	080dd980 	call	80dd98 <__pow5mult>
  80c808:	d8800715 	stw	r2,28(sp)
  80c80c:	003e4306 	br	80c11c <_dtoa_r+0x848>
  80c810:	d9800f17 	ldw	r6,60(sp)
  80c814:	d8800d17 	ldw	r2,52(sp)
  80c818:	d9800315 	stw	r6,12(sp)
  80c81c:	d8800415 	stw	r2,16(sp)
  80c820:	d8c00b17 	ldw	r3,44(sp)
  80c824:	1805003a 	cmpeq	r2,r3,zero
  80c828:	1000e21e 	bne	r2,zero,80cbb4 <_dtoa_r+0x12e0>
  80c82c:	d9000317 	ldw	r4,12(sp)
  80c830:	0005883a 	mov	r2,zero
  80c834:	00cff834 	movhi	r3,16352
  80c838:	200c90fa 	slli	r6,r4,3
  80c83c:	01002074 	movhi	r4,129
  80c840:	21027404 	addi	r4,r4,2512
  80c844:	180b883a 	mov	r5,r3
  80c848:	310d883a 	add	r6,r6,r4
  80c84c:	327fff17 	ldw	r9,-4(r6)
  80c850:	323ffe17 	ldw	r8,-8(r6)
  80c854:	1009883a 	mov	r4,r2
  80c858:	480f883a 	mov	r7,r9
  80c85c:	400d883a 	mov	r6,r8
  80c860:	080f7600 	call	80f760 <__divdf3>
  80c864:	180b883a 	mov	r5,r3
  80c868:	b00d883a 	mov	r6,r22
  80c86c:	b80f883a 	mov	r7,r23
  80c870:	1009883a 	mov	r4,r2
  80c874:	080f2a80 	call	80f2a8 <__subdf3>
  80c878:	a80b883a 	mov	r5,r21
  80c87c:	a009883a 	mov	r4,r20
  80c880:	d8c01915 	stw	r3,100(sp)
  80c884:	d8801815 	stw	r2,96(sp)
  80c888:	080fd580 	call	80fd58 <__fixdfsi>
  80c88c:	1009883a 	mov	r4,r2
  80c890:	1027883a 	mov	r19,r2
  80c894:	080fc600 	call	80fc60 <__floatsidf>
  80c898:	a80b883a 	mov	r5,r21
  80c89c:	a009883a 	mov	r4,r20
  80c8a0:	180f883a 	mov	r7,r3
  80c8a4:	100d883a 	mov	r6,r2
  80c8a8:	080f2a80 	call	80f2a8 <__subdf3>
  80c8ac:	d9801817 	ldw	r6,96(sp)
  80c8b0:	1823883a 	mov	r17,r3
  80c8b4:	d8801415 	stw	r2,80(sp)
  80c8b8:	302d883a 	mov	r22,r6
  80c8bc:	d9800517 	ldw	r6,20(sp)
  80c8c0:	9cc00c04 	addi	r19,r19,48
  80c8c4:	dc401515 	stw	r17,84(sp)
  80c8c8:	d8c01917 	ldw	r3,100(sp)
  80c8cc:	34c00005 	stb	r19,0(r6)
  80c8d0:	d8800517 	ldw	r2,20(sp)
  80c8d4:	d9401917 	ldw	r5,100(sp)
  80c8d8:	d9801417 	ldw	r6,80(sp)
  80c8dc:	b009883a 	mov	r4,r22
  80c8e0:	880f883a 	mov	r7,r17
  80c8e4:	182f883a 	mov	r23,r3
  80c8e8:	17000044 	addi	fp,r2,1
  80c8ec:	080fac80 	call	80fac8 <__gtdf2>
  80c8f0:	00804e16 	blt	zero,r2,80ca2c <_dtoa_r+0x1158>
  80c8f4:	d9801417 	ldw	r6,80(sp)
  80c8f8:	0005883a 	mov	r2,zero
  80c8fc:	00cffc34 	movhi	r3,16368
  80c900:	180b883a 	mov	r5,r3
  80c904:	880f883a 	mov	r7,r17
  80c908:	1009883a 	mov	r4,r2
  80c90c:	080f2a80 	call	80f2a8 <__subdf3>
  80c910:	d9401917 	ldw	r5,100(sp)
  80c914:	180f883a 	mov	r7,r3
  80c918:	b009883a 	mov	r4,r22
  80c91c:	100d883a 	mov	r6,r2
  80c920:	080fac80 	call	80fac8 <__gtdf2>
  80c924:	00bda216 	blt	zero,r2,80bfb0 <_dtoa_r+0x6dc>
  80c928:	d8c00317 	ldw	r3,12(sp)
  80c92c:	00800044 	movi	r2,1
  80c930:	10c01216 	blt	r2,r3,80c97c <_dtoa_r+0x10a8>
  80c934:	003d4506 	br	80be4c <_dtoa_r+0x578>
  80c938:	d9801417 	ldw	r6,80(sp)
  80c93c:	0005883a 	mov	r2,zero
  80c940:	00cffc34 	movhi	r3,16368
  80c944:	180b883a 	mov	r5,r3
  80c948:	880f883a 	mov	r7,r17
  80c94c:	1009883a 	mov	r4,r2
  80c950:	080f2a80 	call	80f2a8 <__subdf3>
  80c954:	d9c01b17 	ldw	r7,108(sp)
  80c958:	180b883a 	mov	r5,r3
  80c95c:	1009883a 	mov	r4,r2
  80c960:	b00d883a 	mov	r6,r22
  80c964:	080fbd80 	call	80fbd8 <__ltdf2>
  80c968:	103d9116 	blt	r2,zero,80bfb0 <_dtoa_r+0x6dc>
  80c96c:	d9800517 	ldw	r6,20(sp)
  80c970:	d9000317 	ldw	r4,12(sp)
  80c974:	3105883a 	add	r2,r6,r4
  80c978:	e0bd3426 	beq	fp,r2,80be4c <_dtoa_r+0x578>
  80c97c:	04500934 	movhi	r17,16420
  80c980:	0021883a 	mov	r16,zero
  80c984:	b80b883a 	mov	r5,r23
  80c988:	b009883a 	mov	r4,r22
  80c98c:	800d883a 	mov	r6,r16
  80c990:	880f883a 	mov	r7,r17
  80c994:	080f39c0 	call	80f39c <__muldf3>
  80c998:	d9401517 	ldw	r5,84(sp)
  80c99c:	d9001417 	ldw	r4,80(sp)
  80c9a0:	880f883a 	mov	r7,r17
  80c9a4:	000d883a 	mov	r6,zero
  80c9a8:	d8801a15 	stw	r2,104(sp)
  80c9ac:	d8c01b15 	stw	r3,108(sp)
  80c9b0:	080f39c0 	call	80f39c <__muldf3>
  80c9b4:	180b883a 	mov	r5,r3
  80c9b8:	1009883a 	mov	r4,r2
  80c9bc:	1823883a 	mov	r17,r3
  80c9c0:	1021883a 	mov	r16,r2
  80c9c4:	080fd580 	call	80fd58 <__fixdfsi>
  80c9c8:	1009883a 	mov	r4,r2
  80c9cc:	102b883a 	mov	r21,r2
  80c9d0:	080fc600 	call	80fc60 <__floatsidf>
  80c9d4:	880b883a 	mov	r5,r17
  80c9d8:	8009883a 	mov	r4,r16
  80c9dc:	180f883a 	mov	r7,r3
  80c9e0:	100d883a 	mov	r6,r2
  80c9e4:	080f2a80 	call	80f2a8 <__subdf3>
  80c9e8:	1021883a 	mov	r16,r2
  80c9ec:	d9001b17 	ldw	r4,108(sp)
  80c9f0:	1823883a 	mov	r17,r3
  80c9f4:	dc001415 	stw	r16,80(sp)
  80c9f8:	ad400c04 	addi	r21,r21,48
  80c9fc:	dc401515 	stw	r17,84(sp)
  80ca00:	d8801a17 	ldw	r2,104(sp)
  80ca04:	e5400005 	stb	r21,0(fp)
  80ca08:	202f883a 	mov	r23,r4
  80ca0c:	d9c01b17 	ldw	r7,108(sp)
  80ca10:	d9001417 	ldw	r4,80(sp)
  80ca14:	880b883a 	mov	r5,r17
  80ca18:	100d883a 	mov	r6,r2
  80ca1c:	102d883a 	mov	r22,r2
  80ca20:	e7000044 	addi	fp,fp,1
  80ca24:	080fbd80 	call	80fbd8 <__ltdf2>
  80ca28:	103fc30e 	bge	r2,zero,80c938 <_dtoa_r+0x1064>
  80ca2c:	d9000417 	ldw	r4,16(sp)
  80ca30:	d9000d15 	stw	r4,52(sp)
  80ca34:	003d7106 	br	80bffc <_dtoa_r+0x728>
  80ca38:	d9801717 	ldw	r6,92(sp)
  80ca3c:	00800084 	movi	r2,2
  80ca40:	11bde60e 	bge	r2,r6,80c1dc <_dtoa_r+0x908>
  80ca44:	203cfb1e 	bne	r4,zero,80be34 <_dtoa_r+0x560>
  80ca48:	d9001617 	ldw	r4,88(sp)
  80ca4c:	900b883a 	mov	r5,r18
  80ca50:	01800144 	movi	r6,5
  80ca54:	000f883a 	mov	r7,zero
  80ca58:	080dc6c0 	call	80dc6c <__multadd>
  80ca5c:	d9000717 	ldw	r4,28(sp)
  80ca60:	100b883a 	mov	r5,r2
  80ca64:	1025883a 	mov	r18,r2
  80ca68:	080d0a80 	call	80d0a8 <__mcmp>
  80ca6c:	00bcf10e 	bge	zero,r2,80be34 <_dtoa_r+0x560>
  80ca70:	d8c00d17 	ldw	r3,52(sp)
  80ca74:	d9000517 	ldw	r4,20(sp)
  80ca78:	d8000615 	stw	zero,24(sp)
  80ca7c:	18c00044 	addi	r3,r3,1
  80ca80:	d8c00d15 	stw	r3,52(sp)
  80ca84:	00800c44 	movi	r2,49
  80ca88:	27000044 	addi	fp,r4,1
  80ca8c:	20800005 	stb	r2,0(r4)
  80ca90:	003e8906 	br	80c4b8 <_dtoa_r+0xbe4>
  80ca94:	d8c00517 	ldw	r3,20(sp)
  80ca98:	003bc206 	br	80b9a4 <_dtoa_r+0xd0>
  80ca9c:	01802074 	movhi	r6,129
  80caa0:	3182a604 	addi	r6,r6,2712
  80caa4:	30c00917 	ldw	r3,36(r6)
  80caa8:	30800817 	ldw	r2,32(r6)
  80caac:	d9001217 	ldw	r4,72(sp)
  80cab0:	d9401317 	ldw	r5,76(sp)
  80cab4:	180f883a 	mov	r7,r3
  80cab8:	100d883a 	mov	r6,r2
  80cabc:	080f7600 	call	80f760 <__divdf3>
  80cac0:	948003cc 	andi	r18,r18,15
  80cac4:	058000c4 	movi	r22,3
  80cac8:	1029883a 	mov	r20,r2
  80cacc:	182b883a 	mov	r21,r3
  80cad0:	003c8906 	br	80bcf8 <_dtoa_r+0x424>
  80cad4:	d9001017 	ldw	r4,64(sp)
  80cad8:	d9800917 	ldw	r6,36(sp)
  80cadc:	0025883a 	mov	r18,zero
  80cae0:	1105c83a 	sub	r2,r2,r4
  80cae4:	2089883a 	add	r4,r4,r2
  80cae8:	308d883a 	add	r6,r6,r2
  80caec:	d9001015 	stw	r4,64(sp)
  80caf0:	d9800915 	stw	r6,36(sp)
  80caf4:	003e3206 	br	80c3c0 <_dtoa_r+0xaec>
  80caf8:	28800044 	addi	r2,r5,1
  80cafc:	27000044 	addi	fp,r4,1
  80cb00:	20800005 	stb	r2,0(r4)
  80cb04:	003e6c06 	br	80c4b8 <_dtoa_r+0xbe4>
  80cb08:	d8800f17 	ldw	r2,60(sp)
  80cb0c:	00bce016 	blt	zero,r2,80be90 <_dtoa_r+0x5bc>
  80cb10:	d9800f17 	ldw	r6,60(sp)
  80cb14:	303cc51e 	bne	r6,zero,80be2c <_dtoa_r+0x558>
  80cb18:	0005883a 	mov	r2,zero
  80cb1c:	00d00534 	movhi	r3,16404
  80cb20:	980b883a 	mov	r5,r19
  80cb24:	180f883a 	mov	r7,r3
  80cb28:	9009883a 	mov	r4,r18
  80cb2c:	100d883a 	mov	r6,r2
  80cb30:	080f39c0 	call	80f39c <__muldf3>
  80cb34:	180b883a 	mov	r5,r3
  80cb38:	a80f883a 	mov	r7,r21
  80cb3c:	1009883a 	mov	r4,r2
  80cb40:	a00d883a 	mov	r6,r20
  80cb44:	080fb500 	call	80fb50 <__gedf2>
  80cb48:	103cb80e 	bge	r2,zero,80be2c <_dtoa_r+0x558>
  80cb4c:	0027883a 	mov	r19,zero
  80cb50:	0025883a 	mov	r18,zero
  80cb54:	003fc606 	br	80ca70 <_dtoa_r+0x119c>
  80cb58:	99400117 	ldw	r5,4(r19)
  80cb5c:	d9001617 	ldw	r4,88(sp)
  80cb60:	080d4cc0 	call	80d4cc <_Balloc>
  80cb64:	99800417 	ldw	r6,16(r19)
  80cb68:	11000304 	addi	r4,r2,12
  80cb6c:	99400304 	addi	r5,r19,12
  80cb70:	318d883a 	add	r6,r6,r6
  80cb74:	318d883a 	add	r6,r6,r6
  80cb78:	31800204 	addi	r6,r6,8
  80cb7c:	1023883a 	mov	r17,r2
  80cb80:	08010b80 	call	8010b8 <memcpy>
  80cb84:	d9001617 	ldw	r4,88(sp)
  80cb88:	880b883a 	mov	r5,r17
  80cb8c:	01800044 	movi	r6,1
  80cb90:	080d8900 	call	80d890 <__lshift>
  80cb94:	100b883a 	mov	r5,r2
  80cb98:	003d9c06 	br	80c20c <_dtoa_r+0x938>
  80cb9c:	00800e44 	movi	r2,57
  80cba0:	b8807026 	beq	r23,r2,80cd64 <_dtoa_r+0x1490>
  80cba4:	b8800044 	addi	r2,r23,1
  80cba8:	b7000044 	addi	fp,r22,1
  80cbac:	b0800005 	stb	r2,0(r22)
  80cbb0:	003e4106 	br	80c4b8 <_dtoa_r+0xbe4>
  80cbb4:	d8800317 	ldw	r2,12(sp)
  80cbb8:	01802074 	movhi	r6,129
  80cbbc:	31827404 	addi	r6,r6,2512
  80cbc0:	b009883a 	mov	r4,r22
  80cbc4:	100e90fa 	slli	r7,r2,3
  80cbc8:	b80b883a 	mov	r5,r23
  80cbcc:	398f883a 	add	r7,r7,r6
  80cbd0:	38bffe17 	ldw	r2,-8(r7)
  80cbd4:	d9800517 	ldw	r6,20(sp)
  80cbd8:	38ffff17 	ldw	r3,-4(r7)
  80cbdc:	37000044 	addi	fp,r6,1
  80cbe0:	180f883a 	mov	r7,r3
  80cbe4:	100d883a 	mov	r6,r2
  80cbe8:	080f39c0 	call	80f39c <__muldf3>
  80cbec:	a80b883a 	mov	r5,r21
  80cbf0:	a009883a 	mov	r4,r20
  80cbf4:	182f883a 	mov	r23,r3
  80cbf8:	102d883a 	mov	r22,r2
  80cbfc:	080fd580 	call	80fd58 <__fixdfsi>
  80cc00:	1009883a 	mov	r4,r2
  80cc04:	1027883a 	mov	r19,r2
  80cc08:	080fc600 	call	80fc60 <__floatsidf>
  80cc0c:	a80b883a 	mov	r5,r21
  80cc10:	a009883a 	mov	r4,r20
  80cc14:	180f883a 	mov	r7,r3
  80cc18:	100d883a 	mov	r6,r2
  80cc1c:	080f2a80 	call	80f2a8 <__subdf3>
  80cc20:	180b883a 	mov	r5,r3
  80cc24:	d8c00517 	ldw	r3,20(sp)
  80cc28:	9cc00c04 	addi	r19,r19,48
  80cc2c:	1009883a 	mov	r4,r2
  80cc30:	1cc00005 	stb	r19,0(r3)
  80cc34:	2021883a 	mov	r16,r4
  80cc38:	d9000317 	ldw	r4,12(sp)
  80cc3c:	00800044 	movi	r2,1
  80cc40:	2823883a 	mov	r17,r5
  80cc44:	20802226 	beq	r4,r2,80ccd0 <_dtoa_r+0x13fc>
  80cc48:	1029883a 	mov	r20,r2
  80cc4c:	0005883a 	mov	r2,zero
  80cc50:	00d00934 	movhi	r3,16420
  80cc54:	180f883a 	mov	r7,r3
  80cc58:	100d883a 	mov	r6,r2
  80cc5c:	880b883a 	mov	r5,r17
  80cc60:	8009883a 	mov	r4,r16
  80cc64:	080f39c0 	call	80f39c <__muldf3>
  80cc68:	180b883a 	mov	r5,r3
  80cc6c:	1009883a 	mov	r4,r2
  80cc70:	1823883a 	mov	r17,r3
  80cc74:	1021883a 	mov	r16,r2
  80cc78:	080fd580 	call	80fd58 <__fixdfsi>
  80cc7c:	1009883a 	mov	r4,r2
  80cc80:	102b883a 	mov	r21,r2
  80cc84:	080fc600 	call	80fc60 <__floatsidf>
  80cc88:	880b883a 	mov	r5,r17
  80cc8c:	8009883a 	mov	r4,r16
  80cc90:	180f883a 	mov	r7,r3
  80cc94:	100d883a 	mov	r6,r2
  80cc98:	080f2a80 	call	80f2a8 <__subdf3>
  80cc9c:	180b883a 	mov	r5,r3
  80cca0:	d8c00517 	ldw	r3,20(sp)
  80cca4:	1009883a 	mov	r4,r2
  80cca8:	ad400c04 	addi	r21,r21,48
  80ccac:	1d05883a 	add	r2,r3,r20
  80ccb0:	15400005 	stb	r21,0(r2)
  80ccb4:	2021883a 	mov	r16,r4
  80ccb8:	d9000317 	ldw	r4,12(sp)
  80ccbc:	a5000044 	addi	r20,r20,1
  80ccc0:	2823883a 	mov	r17,r5
  80ccc4:	a13fe11e 	bne	r20,r4,80cc4c <_dtoa_r+0x1378>
  80ccc8:	e505883a 	add	r2,fp,r20
  80cccc:	173fffc4 	addi	fp,r2,-1
  80ccd0:	0025883a 	mov	r18,zero
  80ccd4:	04cff834 	movhi	r19,16352
  80ccd8:	b009883a 	mov	r4,r22
  80ccdc:	b80b883a 	mov	r5,r23
  80cce0:	900d883a 	mov	r6,r18
  80cce4:	980f883a 	mov	r7,r19
  80cce8:	080f3280 	call	80f328 <__adddf3>
  80ccec:	180b883a 	mov	r5,r3
  80ccf0:	1009883a 	mov	r4,r2
  80ccf4:	800d883a 	mov	r6,r16
  80ccf8:	880f883a 	mov	r7,r17
  80ccfc:	080fbd80 	call	80fbd8 <__ltdf2>
  80cd00:	103cab16 	blt	r2,zero,80bfb0 <_dtoa_r+0x6dc>
  80cd04:	0009883a 	mov	r4,zero
  80cd08:	980b883a 	mov	r5,r19
  80cd0c:	b80f883a 	mov	r7,r23
  80cd10:	b00d883a 	mov	r6,r22
  80cd14:	080f2a80 	call	80f2a8 <__subdf3>
  80cd18:	180b883a 	mov	r5,r3
  80cd1c:	880f883a 	mov	r7,r17
  80cd20:	1009883a 	mov	r4,r2
  80cd24:	800d883a 	mov	r6,r16
  80cd28:	080fac80 	call	80fac8 <__gtdf2>
  80cd2c:	00bc470e 	bge	zero,r2,80be4c <_dtoa_r+0x578>
  80cd30:	00c00c04 	movi	r3,48
  80cd34:	e73fffc4 	addi	fp,fp,-1
  80cd38:	e0800007 	ldb	r2,0(fp)
  80cd3c:	10fffd26 	beq	r2,r3,80cd34 <_dtoa_r+0x1460>
  80cd40:	d9800417 	ldw	r6,16(sp)
  80cd44:	e7000044 	addi	fp,fp,1
  80cd48:	d9800d15 	stw	r6,52(sp)
  80cd4c:	003cab06 	br	80bffc <_dtoa_r+0x728>
  80cd50:	d8c00f17 	ldw	r3,60(sp)
  80cd54:	d9001117 	ldw	r4,68(sp)
  80cd58:	20e1c83a 	sub	r16,r4,r3
  80cd5c:	0007883a 	mov	r3,zero
  80cd60:	003d9b06 	br	80c3d0 <_dtoa_r+0xafc>
  80cd64:	00800e44 	movi	r2,57
  80cd68:	b0800005 	stb	r2,0(r22)
  80cd6c:	b5800044 	addi	r22,r22,1
  80cd70:	003dc106 	br	80c478 <_dtoa_r+0xba4>
  80cd74:	05800084 	movi	r22,2
  80cd78:	003bf706 	br	80bd58 <_dtoa_r+0x484>
  80cd7c:	d9000f17 	ldw	r4,60(sp)
  80cd80:	013c000e 	bge	zero,r4,80bd84 <_dtoa_r+0x4b0>
  80cd84:	d9800e17 	ldw	r6,56(sp)
  80cd88:	01bc300e 	bge	zero,r6,80be4c <_dtoa_r+0x578>
  80cd8c:	0005883a 	mov	r2,zero
  80cd90:	00d00934 	movhi	r3,16420
  80cd94:	a80b883a 	mov	r5,r21
  80cd98:	180f883a 	mov	r7,r3
  80cd9c:	a009883a 	mov	r4,r20
  80cda0:	100d883a 	mov	r6,r2
  80cda4:	080f39c0 	call	80f39c <__muldf3>
  80cda8:	b1000044 	addi	r4,r22,1
  80cdac:	1021883a 	mov	r16,r2
  80cdb0:	1823883a 	mov	r17,r3
  80cdb4:	080fc600 	call	80fc60 <__floatsidf>
  80cdb8:	880b883a 	mov	r5,r17
  80cdbc:	8009883a 	mov	r4,r16
  80cdc0:	180f883a 	mov	r7,r3
  80cdc4:	100d883a 	mov	r6,r2
  80cdc8:	080f39c0 	call	80f39c <__muldf3>
  80cdcc:	0011883a 	mov	r8,zero
  80cdd0:	02500734 	movhi	r9,16412
  80cdd4:	180b883a 	mov	r5,r3
  80cdd8:	480f883a 	mov	r7,r9
  80cddc:	1009883a 	mov	r4,r2
  80cde0:	400d883a 	mov	r6,r8
  80cde4:	080f3280 	call	80f328 <__adddf3>
  80cde8:	102d883a 	mov	r22,r2
  80cdec:	00bf3034 	movhi	r2,64704
  80cdf0:	10ef883a 	add	r23,r2,r3
  80cdf4:	d8800d17 	ldw	r2,52(sp)
  80cdf8:	d8c00e17 	ldw	r3,56(sp)
  80cdfc:	8029883a 	mov	r20,r16
  80ce00:	10bfffc4 	addi	r2,r2,-1
  80ce04:	882b883a 	mov	r21,r17
  80ce08:	d8800415 	stw	r2,16(sp)
  80ce0c:	d8c00315 	stw	r3,12(sp)
  80ce10:	003e8306 	br	80c820 <_dtoa_r+0xf4c>
  80ce14:	d8800117 	ldw	r2,4(sp)
  80ce18:	dc001117 	ldw	r16,68(sp)
  80ce1c:	dc801017 	ldw	r18,64(sp)
  80ce20:	00c00d84 	movi	r3,54
  80ce24:	1887c83a 	sub	r3,r3,r2
  80ce28:	003d6906 	br	80c3d0 <_dtoa_r+0xafc>
  80ce2c:	01800044 	movi	r6,1
  80ce30:	3021883a 	mov	r16,r6
  80ce34:	d9800f15 	stw	r6,60(sp)
  80ce38:	d9802615 	stw	r6,152(sp)
  80ce3c:	d9800e15 	stw	r6,56(sp)
  80ce40:	003b9306 	br	80bc90 <_dtoa_r+0x3bc>
  80ce44:	b021883a 	mov	r16,r22
  80ce48:	dd800f15 	stw	r22,60(sp)
  80ce4c:	003b9006 	br	80bc90 <_dtoa_r+0x3bc>
  80ce50:	103e221e 	bne	r2,zero,80c6dc <_dtoa_r+0xe08>
  80ce54:	b880004c 	andi	r2,r23,1
  80ce58:	1005003a 	cmpeq	r2,r2,zero
  80ce5c:	103e1f1e 	bne	r2,zero,80c6dc <_dtoa_r+0xe08>
  80ce60:	003e1b06 	br	80c6d0 <_dtoa_r+0xdfc>
  80ce64:	d9001617 	ldw	r4,88(sp)
  80ce68:	980b883a 	mov	r5,r19
  80ce6c:	01800284 	movi	r6,10
  80ce70:	000f883a 	mov	r7,zero
  80ce74:	080dc6c0 	call	80dc6c <__multadd>
  80ce78:	d8c00e17 	ldw	r3,56(sp)
  80ce7c:	1027883a 	mov	r19,r2
  80ce80:	d8c00f15 	stw	r3,60(sp)
  80ce84:	003cd306 	br	80c1d4 <_dtoa_r+0x900>

0080ce88 <__locale_charset>:
  80ce88:	d0a01017 	ldw	r2,-32704(gp)
  80ce8c:	f800283a 	ret

0080ce90 <_localeconv_r>:
  80ce90:	00802074 	movhi	r2,129
  80ce94:	10826804 	addi	r2,r2,2464
  80ce98:	f800283a 	ret

0080ce9c <localeconv>:
  80ce9c:	00802074 	movhi	r2,129
  80cea0:	10898b04 	addi	r2,r2,9772
  80cea4:	11000017 	ldw	r4,0(r2)
  80cea8:	080ce901 	jmpi	80ce90 <_localeconv_r>

0080ceac <_setlocale_r>:
  80ceac:	defffc04 	addi	sp,sp,-16
  80ceb0:	00c02074 	movhi	r3,129
  80ceb4:	18c22b04 	addi	r3,r3,2220
  80ceb8:	dc800215 	stw	r18,8(sp)
  80cebc:	dc400115 	stw	r17,4(sp)
  80cec0:	dc000015 	stw	r16,0(sp)
  80cec4:	2023883a 	mov	r17,r4
  80cec8:	2825883a 	mov	r18,r5
  80cecc:	dfc00315 	stw	ra,12(sp)
  80ced0:	3021883a 	mov	r16,r6
  80ced4:	3009883a 	mov	r4,r6
  80ced8:	180b883a 	mov	r5,r3
  80cedc:	30000926 	beq	r6,zero,80cf04 <_setlocale_r+0x58>
  80cee0:	080e0480 	call	80e048 <strcmp>
  80cee4:	8009883a 	mov	r4,r16
  80cee8:	01402074 	movhi	r5,129
  80ceec:	29424f04 	addi	r5,r5,2364
  80cef0:	10000b1e 	bne	r2,zero,80cf20 <_setlocale_r+0x74>
  80cef4:	8c000d15 	stw	r16,52(r17)
  80cef8:	8c800c15 	stw	r18,48(r17)
  80cefc:	00c02074 	movhi	r3,129
  80cf00:	18c22b04 	addi	r3,r3,2220
  80cf04:	1805883a 	mov	r2,r3
  80cf08:	dfc00317 	ldw	ra,12(sp)
  80cf0c:	dc800217 	ldw	r18,8(sp)
  80cf10:	dc400117 	ldw	r17,4(sp)
  80cf14:	dc000017 	ldw	r16,0(sp)
  80cf18:	dec00404 	addi	sp,sp,16
  80cf1c:	f800283a 	ret
  80cf20:	080e0480 	call	80e048 <strcmp>
  80cf24:	0007883a 	mov	r3,zero
  80cf28:	103ff226 	beq	r2,zero,80cef4 <_setlocale_r+0x48>
  80cf2c:	003ff506 	br	80cf04 <_setlocale_r+0x58>

0080cf30 <setlocale>:
  80cf30:	01802074 	movhi	r6,129
  80cf34:	31898b04 	addi	r6,r6,9772
  80cf38:	2007883a 	mov	r3,r4
  80cf3c:	31000017 	ldw	r4,0(r6)
  80cf40:	280d883a 	mov	r6,r5
  80cf44:	180b883a 	mov	r5,r3
  80cf48:	080ceac1 	jmpi	80ceac <_setlocale_r>

0080cf4c <_Bfree>:
  80cf4c:	28000826 	beq	r5,zero,80cf70 <_Bfree+0x24>
  80cf50:	28800117 	ldw	r2,4(r5)
  80cf54:	21001317 	ldw	r4,76(r4)
  80cf58:	1085883a 	add	r2,r2,r2
  80cf5c:	1085883a 	add	r2,r2,r2
  80cf60:	1105883a 	add	r2,r2,r4
  80cf64:	10c00017 	ldw	r3,0(r2)
  80cf68:	28c00015 	stw	r3,0(r5)
  80cf6c:	11400015 	stw	r5,0(r2)
  80cf70:	f800283a 	ret

0080cf74 <__hi0bits>:
  80cf74:	20bfffec 	andhi	r2,r4,65535
  80cf78:	10001426 	beq	r2,zero,80cfcc <__hi0bits+0x58>
  80cf7c:	0007883a 	mov	r3,zero
  80cf80:	20bfc02c 	andhi	r2,r4,65280
  80cf84:	1000021e 	bne	r2,zero,80cf90 <__hi0bits+0x1c>
  80cf88:	2008923a 	slli	r4,r4,8
  80cf8c:	18c00204 	addi	r3,r3,8
  80cf90:	20bc002c 	andhi	r2,r4,61440
  80cf94:	1000021e 	bne	r2,zero,80cfa0 <__hi0bits+0x2c>
  80cf98:	2008913a 	slli	r4,r4,4
  80cf9c:	18c00104 	addi	r3,r3,4
  80cfa0:	20b0002c 	andhi	r2,r4,49152
  80cfa4:	1000031e 	bne	r2,zero,80cfb4 <__hi0bits+0x40>
  80cfa8:	2105883a 	add	r2,r4,r4
  80cfac:	18c00084 	addi	r3,r3,2
  80cfb0:	1089883a 	add	r4,r2,r2
  80cfb4:	20000316 	blt	r4,zero,80cfc4 <__hi0bits+0x50>
  80cfb8:	2090002c 	andhi	r2,r4,16384
  80cfbc:	10000626 	beq	r2,zero,80cfd8 <__hi0bits+0x64>
  80cfc0:	18c00044 	addi	r3,r3,1
  80cfc4:	1805883a 	mov	r2,r3
  80cfc8:	f800283a 	ret
  80cfcc:	2008943a 	slli	r4,r4,16
  80cfd0:	00c00404 	movi	r3,16
  80cfd4:	003fea06 	br	80cf80 <__hi0bits+0xc>
  80cfd8:	00c00804 	movi	r3,32
  80cfdc:	1805883a 	mov	r2,r3
  80cfe0:	f800283a 	ret

0080cfe4 <__lo0bits>:
  80cfe4:	20c00017 	ldw	r3,0(r4)
  80cfe8:	188001cc 	andi	r2,r3,7
  80cfec:	10000a26 	beq	r2,zero,80d018 <__lo0bits+0x34>
  80cff0:	1880004c 	andi	r2,r3,1
  80cff4:	1005003a 	cmpeq	r2,r2,zero
  80cff8:	10002126 	beq	r2,zero,80d080 <__lo0bits+0x9c>
  80cffc:	1880008c 	andi	r2,r3,2
  80d000:	1000251e 	bne	r2,zero,80d098 <__lo0bits+0xb4>
  80d004:	1804d0ba 	srli	r2,r3,2
  80d008:	01400084 	movi	r5,2
  80d00c:	20800015 	stw	r2,0(r4)
  80d010:	2805883a 	mov	r2,r5
  80d014:	f800283a 	ret
  80d018:	18bfffcc 	andi	r2,r3,65535
  80d01c:	10001526 	beq	r2,zero,80d074 <__lo0bits+0x90>
  80d020:	000b883a 	mov	r5,zero
  80d024:	18803fcc 	andi	r2,r3,255
  80d028:	1000021e 	bne	r2,zero,80d034 <__lo0bits+0x50>
  80d02c:	1806d23a 	srli	r3,r3,8
  80d030:	29400204 	addi	r5,r5,8
  80d034:	188003cc 	andi	r2,r3,15
  80d038:	1000021e 	bne	r2,zero,80d044 <__lo0bits+0x60>
  80d03c:	1806d13a 	srli	r3,r3,4
  80d040:	29400104 	addi	r5,r5,4
  80d044:	188000cc 	andi	r2,r3,3
  80d048:	1000021e 	bne	r2,zero,80d054 <__lo0bits+0x70>
  80d04c:	1806d0ba 	srli	r3,r3,2
  80d050:	29400084 	addi	r5,r5,2
  80d054:	1880004c 	andi	r2,r3,1
  80d058:	1000031e 	bne	r2,zero,80d068 <__lo0bits+0x84>
  80d05c:	1806d07a 	srli	r3,r3,1
  80d060:	18000a26 	beq	r3,zero,80d08c <__lo0bits+0xa8>
  80d064:	29400044 	addi	r5,r5,1
  80d068:	2805883a 	mov	r2,r5
  80d06c:	20c00015 	stw	r3,0(r4)
  80d070:	f800283a 	ret
  80d074:	1806d43a 	srli	r3,r3,16
  80d078:	01400404 	movi	r5,16
  80d07c:	003fe906 	br	80d024 <__lo0bits+0x40>
  80d080:	000b883a 	mov	r5,zero
  80d084:	2805883a 	mov	r2,r5
  80d088:	f800283a 	ret
  80d08c:	01400804 	movi	r5,32
  80d090:	2805883a 	mov	r2,r5
  80d094:	f800283a 	ret
  80d098:	1804d07a 	srli	r2,r3,1
  80d09c:	01400044 	movi	r5,1
  80d0a0:	20800015 	stw	r2,0(r4)
  80d0a4:	003fda06 	br	80d010 <__lo0bits+0x2c>

0080d0a8 <__mcmp>:
  80d0a8:	20800417 	ldw	r2,16(r4)
  80d0ac:	28c00417 	ldw	r3,16(r5)
  80d0b0:	10cfc83a 	sub	r7,r2,r3
  80d0b4:	38000c1e 	bne	r7,zero,80d0e8 <__mcmp+0x40>
  80d0b8:	18c5883a 	add	r2,r3,r3
  80d0bc:	1085883a 	add	r2,r2,r2
  80d0c0:	10c00504 	addi	r3,r2,20
  80d0c4:	21000504 	addi	r4,r4,20
  80d0c8:	28cb883a 	add	r5,r5,r3
  80d0cc:	2085883a 	add	r2,r4,r2
  80d0d0:	10bfff04 	addi	r2,r2,-4
  80d0d4:	297fff04 	addi	r5,r5,-4
  80d0d8:	11800017 	ldw	r6,0(r2)
  80d0dc:	28c00017 	ldw	r3,0(r5)
  80d0e0:	30c0031e 	bne	r6,r3,80d0f0 <__mcmp+0x48>
  80d0e4:	20bffa36 	bltu	r4,r2,80d0d0 <__mcmp+0x28>
  80d0e8:	3805883a 	mov	r2,r7
  80d0ec:	f800283a 	ret
  80d0f0:	30c00336 	bltu	r6,r3,80d100 <__mcmp+0x58>
  80d0f4:	01c00044 	movi	r7,1
  80d0f8:	3805883a 	mov	r2,r7
  80d0fc:	f800283a 	ret
  80d100:	01ffffc4 	movi	r7,-1
  80d104:	003ff806 	br	80d0e8 <__mcmp+0x40>

0080d108 <__ulp>:
  80d108:	295ffc2c 	andhi	r5,r5,32752
  80d10c:	013f3034 	movhi	r4,64704
  80d110:	290b883a 	add	r5,r5,r4
  80d114:	0145c83a 	sub	r2,zero,r5
  80d118:	1007d53a 	srai	r3,r2,20
  80d11c:	000d883a 	mov	r6,zero
  80d120:	0140040e 	bge	zero,r5,80d134 <__ulp+0x2c>
  80d124:	280f883a 	mov	r7,r5
  80d128:	3807883a 	mov	r3,r7
  80d12c:	3005883a 	mov	r2,r6
  80d130:	f800283a 	ret
  80d134:	008004c4 	movi	r2,19
  80d138:	193ffb04 	addi	r4,r3,-20
  80d13c:	10c00c0e 	bge	r2,r3,80d170 <__ulp+0x68>
  80d140:	008007c4 	movi	r2,31
  80d144:	1107c83a 	sub	r3,r2,r4
  80d148:	00800784 	movi	r2,30
  80d14c:	01400044 	movi	r5,1
  80d150:	11000216 	blt	r2,r4,80d15c <__ulp+0x54>
  80d154:	00800044 	movi	r2,1
  80d158:	10ca983a 	sll	r5,r2,r3
  80d15c:	000f883a 	mov	r7,zero
  80d160:	280d883a 	mov	r6,r5
  80d164:	3807883a 	mov	r3,r7
  80d168:	3005883a 	mov	r2,r6
  80d16c:	f800283a 	ret
  80d170:	00800234 	movhi	r2,8
  80d174:	10cfd83a 	sra	r7,r2,r3
  80d178:	000d883a 	mov	r6,zero
  80d17c:	3005883a 	mov	r2,r6
  80d180:	3807883a 	mov	r3,r7
  80d184:	f800283a 	ret

0080d188 <__b2d>:
  80d188:	20800417 	ldw	r2,16(r4)
  80d18c:	defff904 	addi	sp,sp,-28
  80d190:	dd000415 	stw	r20,16(sp)
  80d194:	1085883a 	add	r2,r2,r2
  80d198:	25000504 	addi	r20,r4,20
  80d19c:	1085883a 	add	r2,r2,r2
  80d1a0:	dc000015 	stw	r16,0(sp)
  80d1a4:	a0a1883a 	add	r16,r20,r2
  80d1a8:	dd400515 	stw	r21,20(sp)
  80d1ac:	857fff17 	ldw	r21,-4(r16)
  80d1b0:	dc400115 	stw	r17,4(sp)
  80d1b4:	dfc00615 	stw	ra,24(sp)
  80d1b8:	a809883a 	mov	r4,r21
  80d1bc:	2823883a 	mov	r17,r5
  80d1c0:	dcc00315 	stw	r19,12(sp)
  80d1c4:	dc800215 	stw	r18,8(sp)
  80d1c8:	080cf740 	call	80cf74 <__hi0bits>
  80d1cc:	100b883a 	mov	r5,r2
  80d1d0:	00800804 	movi	r2,32
  80d1d4:	1145c83a 	sub	r2,r2,r5
  80d1d8:	88800015 	stw	r2,0(r17)
  80d1dc:	00800284 	movi	r2,10
  80d1e0:	80ffff04 	addi	r3,r16,-4
  80d1e4:	11401416 	blt	r2,r5,80d238 <__b2d+0xb0>
  80d1e8:	008002c4 	movi	r2,11
  80d1ec:	1149c83a 	sub	r4,r2,r5
  80d1f0:	a0c02736 	bltu	r20,r3,80d290 <__b2d+0x108>
  80d1f4:	000d883a 	mov	r6,zero
  80d1f8:	28800544 	addi	r2,r5,21
  80d1fc:	a906d83a 	srl	r3,r21,r4
  80d200:	a884983a 	sll	r2,r21,r2
  80d204:	1ccffc34 	orhi	r19,r3,16368
  80d208:	11a4b03a 	or	r18,r2,r6
  80d20c:	9005883a 	mov	r2,r18
  80d210:	9807883a 	mov	r3,r19
  80d214:	dfc00617 	ldw	ra,24(sp)
  80d218:	dd400517 	ldw	r21,20(sp)
  80d21c:	dd000417 	ldw	r20,16(sp)
  80d220:	dcc00317 	ldw	r19,12(sp)
  80d224:	dc800217 	ldw	r18,8(sp)
  80d228:	dc400117 	ldw	r17,4(sp)
  80d22c:	dc000017 	ldw	r16,0(sp)
  80d230:	dec00704 	addi	sp,sp,28
  80d234:	f800283a 	ret
  80d238:	a0c00e36 	bltu	r20,r3,80d274 <__b2d+0xec>
  80d23c:	293ffd44 	addi	r4,r5,-11
  80d240:	000d883a 	mov	r6,zero
  80d244:	20000f26 	beq	r4,zero,80d284 <__b2d+0xfc>
  80d248:	00800804 	movi	r2,32
  80d24c:	110bc83a 	sub	r5,r2,r4
  80d250:	a0c01236 	bltu	r20,r3,80d29c <__b2d+0x114>
  80d254:	000f883a 	mov	r7,zero
  80d258:	a904983a 	sll	r2,r21,r4
  80d25c:	3146d83a 	srl	r3,r6,r5
  80d260:	3108983a 	sll	r4,r6,r4
  80d264:	108ffc34 	orhi	r2,r2,16368
  80d268:	18a6b03a 	or	r19,r3,r2
  80d26c:	3924b03a 	or	r18,r7,r4
  80d270:	003fe606 	br	80d20c <__b2d+0x84>
  80d274:	293ffd44 	addi	r4,r5,-11
  80d278:	81bffe17 	ldw	r6,-8(r16)
  80d27c:	80fffe04 	addi	r3,r16,-8
  80d280:	203ff11e 	bne	r4,zero,80d248 <__b2d+0xc0>
  80d284:	accffc34 	orhi	r19,r21,16368
  80d288:	3025883a 	mov	r18,r6
  80d28c:	003fdf06 	br	80d20c <__b2d+0x84>
  80d290:	18bfff17 	ldw	r2,-4(r3)
  80d294:	110cd83a 	srl	r6,r2,r4
  80d298:	003fd706 	br	80d1f8 <__b2d+0x70>
  80d29c:	18bfff17 	ldw	r2,-4(r3)
  80d2a0:	114ed83a 	srl	r7,r2,r5
  80d2a4:	003fec06 	br	80d258 <__b2d+0xd0>

0080d2a8 <__ratio>:
  80d2a8:	defff904 	addi	sp,sp,-28
  80d2ac:	dc400215 	stw	r17,8(sp)
  80d2b0:	2823883a 	mov	r17,r5
  80d2b4:	d80b883a 	mov	r5,sp
  80d2b8:	dfc00615 	stw	ra,24(sp)
  80d2bc:	dd000515 	stw	r20,20(sp)
  80d2c0:	dcc00415 	stw	r19,16(sp)
  80d2c4:	dc800315 	stw	r18,12(sp)
  80d2c8:	2025883a 	mov	r18,r4
  80d2cc:	080d1880 	call	80d188 <__b2d>
  80d2d0:	8809883a 	mov	r4,r17
  80d2d4:	d9400104 	addi	r5,sp,4
  80d2d8:	1027883a 	mov	r19,r2
  80d2dc:	1829883a 	mov	r20,r3
  80d2e0:	080d1880 	call	80d188 <__b2d>
  80d2e4:	89000417 	ldw	r4,16(r17)
  80d2e8:	91c00417 	ldw	r7,16(r18)
  80d2ec:	d9800117 	ldw	r6,4(sp)
  80d2f0:	180b883a 	mov	r5,r3
  80d2f4:	390fc83a 	sub	r7,r7,r4
  80d2f8:	1009883a 	mov	r4,r2
  80d2fc:	d8800017 	ldw	r2,0(sp)
  80d300:	380e917a 	slli	r7,r7,5
  80d304:	2011883a 	mov	r8,r4
  80d308:	1185c83a 	sub	r2,r2,r6
  80d30c:	11c5883a 	add	r2,r2,r7
  80d310:	1006953a 	slli	r3,r2,20
  80d314:	2813883a 	mov	r9,r5
  80d318:	00800d0e 	bge	zero,r2,80d350 <__ratio+0xa8>
  80d31c:	1d29883a 	add	r20,r3,r20
  80d320:	a00b883a 	mov	r5,r20
  80d324:	480f883a 	mov	r7,r9
  80d328:	9809883a 	mov	r4,r19
  80d32c:	400d883a 	mov	r6,r8
  80d330:	080f7600 	call	80f760 <__divdf3>
  80d334:	dfc00617 	ldw	ra,24(sp)
  80d338:	dd000517 	ldw	r20,20(sp)
  80d33c:	dcc00417 	ldw	r19,16(sp)
  80d340:	dc800317 	ldw	r18,12(sp)
  80d344:	dc400217 	ldw	r17,8(sp)
  80d348:	dec00704 	addi	sp,sp,28
  80d34c:	f800283a 	ret
  80d350:	28d3c83a 	sub	r9,r5,r3
  80d354:	003ff206 	br	80d320 <__ratio+0x78>

0080d358 <_mprec_log10>:
  80d358:	defffe04 	addi	sp,sp,-8
  80d35c:	008005c4 	movi	r2,23
  80d360:	dc000015 	stw	r16,0(sp)
  80d364:	dfc00115 	stw	ra,4(sp)
  80d368:	2021883a 	mov	r16,r4
  80d36c:	11000c16 	blt	r2,r4,80d3a0 <_mprec_log10+0x48>
  80d370:	200490fa 	slli	r2,r4,3
  80d374:	00c02074 	movhi	r3,129
  80d378:	18c27404 	addi	r3,r3,2512
  80d37c:	10c5883a 	add	r2,r2,r3
  80d380:	12400117 	ldw	r9,4(r2)
  80d384:	12000017 	ldw	r8,0(r2)
  80d388:	4807883a 	mov	r3,r9
  80d38c:	4005883a 	mov	r2,r8
  80d390:	dfc00117 	ldw	ra,4(sp)
  80d394:	dc000017 	ldw	r16,0(sp)
  80d398:	dec00204 	addi	sp,sp,8
  80d39c:	f800283a 	ret
  80d3a0:	0011883a 	mov	r8,zero
  80d3a4:	024ffc34 	movhi	r9,16368
  80d3a8:	0005883a 	mov	r2,zero
  80d3ac:	00d00934 	movhi	r3,16420
  80d3b0:	480b883a 	mov	r5,r9
  80d3b4:	4009883a 	mov	r4,r8
  80d3b8:	180f883a 	mov	r7,r3
  80d3bc:	100d883a 	mov	r6,r2
  80d3c0:	080f39c0 	call	80f39c <__muldf3>
  80d3c4:	843fffc4 	addi	r16,r16,-1
  80d3c8:	1011883a 	mov	r8,r2
  80d3cc:	1813883a 	mov	r9,r3
  80d3d0:	803ff51e 	bne	r16,zero,80d3a8 <_mprec_log10+0x50>
  80d3d4:	4005883a 	mov	r2,r8
  80d3d8:	4807883a 	mov	r3,r9
  80d3dc:	dfc00117 	ldw	ra,4(sp)
  80d3e0:	dc000017 	ldw	r16,0(sp)
  80d3e4:	dec00204 	addi	sp,sp,8
  80d3e8:	f800283a 	ret

0080d3ec <__copybits>:
  80d3ec:	297fffc4 	addi	r5,r5,-1
  80d3f0:	30800417 	ldw	r2,16(r6)
  80d3f4:	280bd17a 	srai	r5,r5,5
  80d3f8:	31800504 	addi	r6,r6,20
  80d3fc:	1085883a 	add	r2,r2,r2
  80d400:	294b883a 	add	r5,r5,r5
  80d404:	294b883a 	add	r5,r5,r5
  80d408:	1085883a 	add	r2,r2,r2
  80d40c:	290b883a 	add	r5,r5,r4
  80d410:	3087883a 	add	r3,r6,r2
  80d414:	29400104 	addi	r5,r5,4
  80d418:	30c0052e 	bgeu	r6,r3,80d430 <__copybits+0x44>
  80d41c:	30800017 	ldw	r2,0(r6)
  80d420:	31800104 	addi	r6,r6,4
  80d424:	20800015 	stw	r2,0(r4)
  80d428:	21000104 	addi	r4,r4,4
  80d42c:	30fffb36 	bltu	r6,r3,80d41c <__copybits+0x30>
  80d430:	2140032e 	bgeu	r4,r5,80d440 <__copybits+0x54>
  80d434:	20000015 	stw	zero,0(r4)
  80d438:	21000104 	addi	r4,r4,4
  80d43c:	217ffd36 	bltu	r4,r5,80d434 <__copybits+0x48>
  80d440:	f800283a 	ret

0080d444 <__any_on>:
  80d444:	20800417 	ldw	r2,16(r4)
  80d448:	2807d17a 	srai	r3,r5,5
  80d44c:	21000504 	addi	r4,r4,20
  80d450:	10c00d0e 	bge	r2,r3,80d488 <__any_on+0x44>
  80d454:	1085883a 	add	r2,r2,r2
  80d458:	1085883a 	add	r2,r2,r2
  80d45c:	208d883a 	add	r6,r4,r2
  80d460:	2180182e 	bgeu	r4,r6,80d4c4 <__any_on+0x80>
  80d464:	30bfff17 	ldw	r2,-4(r6)
  80d468:	30ffff04 	addi	r3,r6,-4
  80d46c:	1000041e 	bne	r2,zero,80d480 <__any_on+0x3c>
  80d470:	20c0142e 	bgeu	r4,r3,80d4c4 <__any_on+0x80>
  80d474:	18ffff04 	addi	r3,r3,-4
  80d478:	18800017 	ldw	r2,0(r3)
  80d47c:	103ffc26 	beq	r2,zero,80d470 <__any_on+0x2c>
  80d480:	00800044 	movi	r2,1
  80d484:	f800283a 	ret
  80d488:	18800a0e 	bge	r3,r2,80d4b4 <__any_on+0x70>
  80d48c:	294007cc 	andi	r5,r5,31
  80d490:	28000826 	beq	r5,zero,80d4b4 <__any_on+0x70>
  80d494:	18c5883a 	add	r2,r3,r3
  80d498:	1085883a 	add	r2,r2,r2
  80d49c:	208d883a 	add	r6,r4,r2
  80d4a0:	30c00017 	ldw	r3,0(r6)
  80d4a4:	1944d83a 	srl	r2,r3,r5
  80d4a8:	1144983a 	sll	r2,r2,r5
  80d4ac:	18bff41e 	bne	r3,r2,80d480 <__any_on+0x3c>
  80d4b0:	003feb06 	br	80d460 <__any_on+0x1c>
  80d4b4:	18c5883a 	add	r2,r3,r3
  80d4b8:	1085883a 	add	r2,r2,r2
  80d4bc:	208d883a 	add	r6,r4,r2
  80d4c0:	003fe706 	br	80d460 <__any_on+0x1c>
  80d4c4:	0005883a 	mov	r2,zero
  80d4c8:	f800283a 	ret

0080d4cc <_Balloc>:
  80d4cc:	20c01317 	ldw	r3,76(r4)
  80d4d0:	defffb04 	addi	sp,sp,-20
  80d4d4:	dcc00315 	stw	r19,12(sp)
  80d4d8:	dc800215 	stw	r18,8(sp)
  80d4dc:	dfc00415 	stw	ra,16(sp)
  80d4e0:	2825883a 	mov	r18,r5
  80d4e4:	dc400115 	stw	r17,4(sp)
  80d4e8:	dc000015 	stw	r16,0(sp)
  80d4ec:	2027883a 	mov	r19,r4
  80d4f0:	01800404 	movi	r6,16
  80d4f4:	01400104 	movi	r5,4
  80d4f8:	18001726 	beq	r3,zero,80d558 <_Balloc+0x8c>
  80d4fc:	01400044 	movi	r5,1
  80d500:	9485883a 	add	r2,r18,r18
  80d504:	2ca2983a 	sll	r17,r5,r18
  80d508:	1085883a 	add	r2,r2,r2
  80d50c:	10c7883a 	add	r3,r2,r3
  80d510:	1c000017 	ldw	r16,0(r3)
  80d514:	8c4d883a 	add	r6,r17,r17
  80d518:	318d883a 	add	r6,r6,r6
  80d51c:	9809883a 	mov	r4,r19
  80d520:	31800504 	addi	r6,r6,20
  80d524:	80001226 	beq	r16,zero,80d570 <_Balloc+0xa4>
  80d528:	80800017 	ldw	r2,0(r16)
  80d52c:	18800015 	stw	r2,0(r3)
  80d530:	80000415 	stw	zero,16(r16)
  80d534:	80000315 	stw	zero,12(r16)
  80d538:	8005883a 	mov	r2,r16
  80d53c:	dfc00417 	ldw	ra,16(sp)
  80d540:	dcc00317 	ldw	r19,12(sp)
  80d544:	dc800217 	ldw	r18,8(sp)
  80d548:	dc400117 	ldw	r17,4(sp)
  80d54c:	dc000017 	ldw	r16,0(sp)
  80d550:	dec00504 	addi	sp,sp,20
  80d554:	f800283a 	ret
  80d558:	080e1040 	call	80e104 <_calloc_r>
  80d55c:	1007883a 	mov	r3,r2
  80d560:	0021883a 	mov	r16,zero
  80d564:	98801315 	stw	r2,76(r19)
  80d568:	103fe41e 	bne	r2,zero,80d4fc <_Balloc+0x30>
  80d56c:	003ff206 	br	80d538 <_Balloc+0x6c>
  80d570:	080e1040 	call	80e104 <_calloc_r>
  80d574:	103ff026 	beq	r2,zero,80d538 <_Balloc+0x6c>
  80d578:	1021883a 	mov	r16,r2
  80d57c:	14800115 	stw	r18,4(r2)
  80d580:	14400215 	stw	r17,8(r2)
  80d584:	003fea06 	br	80d530 <_Balloc+0x64>

0080d588 <__d2b>:
  80d588:	defff504 	addi	sp,sp,-44
  80d58c:	dcc00515 	stw	r19,20(sp)
  80d590:	04c00044 	movi	r19,1
  80d594:	dc000215 	stw	r16,8(sp)
  80d598:	2821883a 	mov	r16,r5
  80d59c:	980b883a 	mov	r5,r19
  80d5a0:	ddc00915 	stw	r23,36(sp)
  80d5a4:	dd800815 	stw	r22,32(sp)
  80d5a8:	dd400715 	stw	r21,28(sp)
  80d5ac:	dd000615 	stw	r20,24(sp)
  80d5b0:	dc800415 	stw	r18,16(sp)
  80d5b4:	dc400315 	stw	r17,12(sp)
  80d5b8:	dfc00a15 	stw	ra,40(sp)
  80d5bc:	3023883a 	mov	r17,r6
  80d5c0:	382d883a 	mov	r22,r7
  80d5c4:	ddc00b17 	ldw	r23,44(sp)
  80d5c8:	080d4cc0 	call	80d4cc <_Balloc>
  80d5cc:	1025883a 	mov	r18,r2
  80d5d0:	00a00034 	movhi	r2,32768
  80d5d4:	10bfffc4 	addi	r2,r2,-1
  80d5d8:	8888703a 	and	r4,r17,r2
  80d5dc:	202ad53a 	srli	r21,r4,20
  80d5e0:	00800434 	movhi	r2,16
  80d5e4:	10bfffc4 	addi	r2,r2,-1
  80d5e8:	8886703a 	and	r3,r17,r2
  80d5ec:	a829003a 	cmpeq	r20,r21,zero
  80d5f0:	800b883a 	mov	r5,r16
  80d5f4:	d8c00115 	stw	r3,4(sp)
  80d5f8:	94000504 	addi	r16,r18,20
  80d5fc:	a000021e 	bne	r20,zero,80d608 <__d2b+0x80>
  80d600:	18c00434 	orhi	r3,r3,16
  80d604:	d8c00115 	stw	r3,4(sp)
  80d608:	28002726 	beq	r5,zero,80d6a8 <__d2b+0x120>
  80d60c:	d809883a 	mov	r4,sp
  80d610:	d9400015 	stw	r5,0(sp)
  80d614:	080cfe40 	call	80cfe4 <__lo0bits>
  80d618:	100d883a 	mov	r6,r2
  80d61c:	10003526 	beq	r2,zero,80d6f4 <__d2b+0x16c>
  80d620:	d8c00117 	ldw	r3,4(sp)
  80d624:	00800804 	movi	r2,32
  80d628:	1185c83a 	sub	r2,r2,r6
  80d62c:	d9000017 	ldw	r4,0(sp)
  80d630:	1886983a 	sll	r3,r3,r2
  80d634:	1906b03a 	or	r3,r3,r4
  80d638:	90c00515 	stw	r3,20(r18)
  80d63c:	d8c00117 	ldw	r3,4(sp)
  80d640:	1986d83a 	srl	r3,r3,r6
  80d644:	d8c00115 	stw	r3,4(sp)
  80d648:	180b003a 	cmpeq	r5,r3,zero
  80d64c:	00800084 	movi	r2,2
  80d650:	114bc83a 	sub	r5,r2,r5
  80d654:	80c00115 	stw	r3,4(r16)
  80d658:	91400415 	stw	r5,16(r18)
  80d65c:	a0001a1e 	bne	r20,zero,80d6c8 <__d2b+0x140>
  80d660:	3545883a 	add	r2,r6,r21
  80d664:	10bef344 	addi	r2,r2,-1075
  80d668:	00c00d44 	movi	r3,53
  80d66c:	b0800015 	stw	r2,0(r22)
  80d670:	1987c83a 	sub	r3,r3,r6
  80d674:	b8c00015 	stw	r3,0(r23)
  80d678:	9005883a 	mov	r2,r18
  80d67c:	dfc00a17 	ldw	ra,40(sp)
  80d680:	ddc00917 	ldw	r23,36(sp)
  80d684:	dd800817 	ldw	r22,32(sp)
  80d688:	dd400717 	ldw	r21,28(sp)
  80d68c:	dd000617 	ldw	r20,24(sp)
  80d690:	dcc00517 	ldw	r19,20(sp)
  80d694:	dc800417 	ldw	r18,16(sp)
  80d698:	dc400317 	ldw	r17,12(sp)
  80d69c:	dc000217 	ldw	r16,8(sp)
  80d6a0:	dec00b04 	addi	sp,sp,44
  80d6a4:	f800283a 	ret
  80d6a8:	d9000104 	addi	r4,sp,4
  80d6ac:	080cfe40 	call	80cfe4 <__lo0bits>
  80d6b0:	11800804 	addi	r6,r2,32
  80d6b4:	d8800117 	ldw	r2,4(sp)
  80d6b8:	94c00415 	stw	r19,16(r18)
  80d6bc:	980b883a 	mov	r5,r19
  80d6c0:	90800515 	stw	r2,20(r18)
  80d6c4:	a03fe626 	beq	r20,zero,80d660 <__d2b+0xd8>
  80d6c8:	2945883a 	add	r2,r5,r5
  80d6cc:	1085883a 	add	r2,r2,r2
  80d6d0:	1405883a 	add	r2,r2,r16
  80d6d4:	113fff17 	ldw	r4,-4(r2)
  80d6d8:	30fef384 	addi	r3,r6,-1074
  80d6dc:	2820917a 	slli	r16,r5,5
  80d6e0:	b0c00015 	stw	r3,0(r22)
  80d6e4:	080cf740 	call	80cf74 <__hi0bits>
  80d6e8:	80a1c83a 	sub	r16,r16,r2
  80d6ec:	bc000015 	stw	r16,0(r23)
  80d6f0:	003fe106 	br	80d678 <__d2b+0xf0>
  80d6f4:	d8800017 	ldw	r2,0(sp)
  80d6f8:	90800515 	stw	r2,20(r18)
  80d6fc:	d8c00117 	ldw	r3,4(sp)
  80d700:	003fd106 	br	80d648 <__d2b+0xc0>

0080d704 <__mdiff>:
  80d704:	defffb04 	addi	sp,sp,-20
  80d708:	dc000015 	stw	r16,0(sp)
  80d70c:	2821883a 	mov	r16,r5
  80d710:	dc800215 	stw	r18,8(sp)
  80d714:	300b883a 	mov	r5,r6
  80d718:	2025883a 	mov	r18,r4
  80d71c:	8009883a 	mov	r4,r16
  80d720:	dc400115 	stw	r17,4(sp)
  80d724:	dfc00415 	stw	ra,16(sp)
  80d728:	dcc00315 	stw	r19,12(sp)
  80d72c:	3023883a 	mov	r17,r6
  80d730:	080d0a80 	call	80d0a8 <__mcmp>
  80d734:	10004226 	beq	r2,zero,80d840 <__mdiff+0x13c>
  80d738:	10005016 	blt	r2,zero,80d87c <__mdiff+0x178>
  80d73c:	0027883a 	mov	r19,zero
  80d740:	81400117 	ldw	r5,4(r16)
  80d744:	9009883a 	mov	r4,r18
  80d748:	080d4cc0 	call	80d4cc <_Balloc>
  80d74c:	1019883a 	mov	r12,r2
  80d750:	82800417 	ldw	r10,16(r16)
  80d754:	88800417 	ldw	r2,16(r17)
  80d758:	81800504 	addi	r6,r16,20
  80d75c:	5287883a 	add	r3,r10,r10
  80d760:	1085883a 	add	r2,r2,r2
  80d764:	18c7883a 	add	r3,r3,r3
  80d768:	1085883a 	add	r2,r2,r2
  80d76c:	8a000504 	addi	r8,r17,20
  80d770:	64c00315 	stw	r19,12(r12)
  80d774:	30db883a 	add	r13,r6,r3
  80d778:	4097883a 	add	r11,r8,r2
  80d77c:	61c00504 	addi	r7,r12,20
  80d780:	0013883a 	mov	r9,zero
  80d784:	31000017 	ldw	r4,0(r6)
  80d788:	41400017 	ldw	r5,0(r8)
  80d78c:	42000104 	addi	r8,r8,4
  80d790:	20bfffcc 	andi	r2,r4,65535
  80d794:	28ffffcc 	andi	r3,r5,65535
  80d798:	10c5c83a 	sub	r2,r2,r3
  80d79c:	1245883a 	add	r2,r2,r9
  80d7a0:	2008d43a 	srli	r4,r4,16
  80d7a4:	280ad43a 	srli	r5,r5,16
  80d7a8:	1007d43a 	srai	r3,r2,16
  80d7ac:	3880000d 	sth	r2,0(r7)
  80d7b0:	2149c83a 	sub	r4,r4,r5
  80d7b4:	20c9883a 	add	r4,r4,r3
  80d7b8:	3900008d 	sth	r4,2(r7)
  80d7bc:	31800104 	addi	r6,r6,4
  80d7c0:	39c00104 	addi	r7,r7,4
  80d7c4:	2013d43a 	srai	r9,r4,16
  80d7c8:	42ffee36 	bltu	r8,r11,80d784 <__mdiff+0x80>
  80d7cc:	33400c2e 	bgeu	r6,r13,80d800 <__mdiff+0xfc>
  80d7d0:	30800017 	ldw	r2,0(r6)
  80d7d4:	31800104 	addi	r6,r6,4
  80d7d8:	10ffffcc 	andi	r3,r2,65535
  80d7dc:	1a47883a 	add	r3,r3,r9
  80d7e0:	1004d43a 	srli	r2,r2,16
  80d7e4:	1809d43a 	srai	r4,r3,16
  80d7e8:	38c0000d 	sth	r3,0(r7)
  80d7ec:	1105883a 	add	r2,r2,r4
  80d7f0:	3880008d 	sth	r2,2(r7)
  80d7f4:	1013d43a 	srai	r9,r2,16
  80d7f8:	39c00104 	addi	r7,r7,4
  80d7fc:	337ff436 	bltu	r6,r13,80d7d0 <__mdiff+0xcc>
  80d800:	38bfff17 	ldw	r2,-4(r7)
  80d804:	38ffff04 	addi	r3,r7,-4
  80d808:	1000041e 	bne	r2,zero,80d81c <__mdiff+0x118>
  80d80c:	18ffff04 	addi	r3,r3,-4
  80d810:	18800017 	ldw	r2,0(r3)
  80d814:	52bfffc4 	addi	r10,r10,-1
  80d818:	103ffc26 	beq	r2,zero,80d80c <__mdiff+0x108>
  80d81c:	6005883a 	mov	r2,r12
  80d820:	62800415 	stw	r10,16(r12)
  80d824:	dfc00417 	ldw	ra,16(sp)
  80d828:	dcc00317 	ldw	r19,12(sp)
  80d82c:	dc800217 	ldw	r18,8(sp)
  80d830:	dc400117 	ldw	r17,4(sp)
  80d834:	dc000017 	ldw	r16,0(sp)
  80d838:	dec00504 	addi	sp,sp,20
  80d83c:	f800283a 	ret
  80d840:	9009883a 	mov	r4,r18
  80d844:	000b883a 	mov	r5,zero
  80d848:	080d4cc0 	call	80d4cc <_Balloc>
  80d84c:	1019883a 	mov	r12,r2
  80d850:	00800044 	movi	r2,1
  80d854:	60800415 	stw	r2,16(r12)
  80d858:	6005883a 	mov	r2,r12
  80d85c:	60000515 	stw	zero,20(r12)
  80d860:	dfc00417 	ldw	ra,16(sp)
  80d864:	dcc00317 	ldw	r19,12(sp)
  80d868:	dc800217 	ldw	r18,8(sp)
  80d86c:	dc400117 	ldw	r17,4(sp)
  80d870:	dc000017 	ldw	r16,0(sp)
  80d874:	dec00504 	addi	sp,sp,20
  80d878:	f800283a 	ret
  80d87c:	880d883a 	mov	r6,r17
  80d880:	04c00044 	movi	r19,1
  80d884:	8023883a 	mov	r17,r16
  80d888:	3021883a 	mov	r16,r6
  80d88c:	003fac06 	br	80d740 <__mdiff+0x3c>

0080d890 <__lshift>:
  80d890:	defff904 	addi	sp,sp,-28
  80d894:	28800417 	ldw	r2,16(r5)
  80d898:	dc000015 	stw	r16,0(sp)
  80d89c:	3021d17a 	srai	r16,r6,5
  80d8a0:	28c00217 	ldw	r3,8(r5)
  80d8a4:	10800044 	addi	r2,r2,1
  80d8a8:	dc400115 	stw	r17,4(sp)
  80d8ac:	80a3883a 	add	r17,r16,r2
  80d8b0:	dd400515 	stw	r21,20(sp)
  80d8b4:	dd000415 	stw	r20,16(sp)
  80d8b8:	dc800215 	stw	r18,8(sp)
  80d8bc:	dfc00615 	stw	ra,24(sp)
  80d8c0:	2825883a 	mov	r18,r5
  80d8c4:	dcc00315 	stw	r19,12(sp)
  80d8c8:	3029883a 	mov	r20,r6
  80d8cc:	202b883a 	mov	r21,r4
  80d8d0:	29400117 	ldw	r5,4(r5)
  80d8d4:	1c40030e 	bge	r3,r17,80d8e4 <__lshift+0x54>
  80d8d8:	18c7883a 	add	r3,r3,r3
  80d8dc:	29400044 	addi	r5,r5,1
  80d8e0:	1c7ffd16 	blt	r3,r17,80d8d8 <__lshift+0x48>
  80d8e4:	a809883a 	mov	r4,r21
  80d8e8:	080d4cc0 	call	80d4cc <_Balloc>
  80d8ec:	1027883a 	mov	r19,r2
  80d8f0:	11400504 	addi	r5,r2,20
  80d8f4:	0400090e 	bge	zero,r16,80d91c <__lshift+0x8c>
  80d8f8:	2805883a 	mov	r2,r5
  80d8fc:	0007883a 	mov	r3,zero
  80d900:	18c00044 	addi	r3,r3,1
  80d904:	10000015 	stw	zero,0(r2)
  80d908:	10800104 	addi	r2,r2,4
  80d90c:	80fffc1e 	bne	r16,r3,80d900 <__lshift+0x70>
  80d910:	8405883a 	add	r2,r16,r16
  80d914:	1085883a 	add	r2,r2,r2
  80d918:	288b883a 	add	r5,r5,r2
  80d91c:	90800417 	ldw	r2,16(r18)
  80d920:	91000504 	addi	r4,r18,20
  80d924:	a18007cc 	andi	r6,r20,31
  80d928:	1085883a 	add	r2,r2,r2
  80d92c:	1085883a 	add	r2,r2,r2
  80d930:	208f883a 	add	r7,r4,r2
  80d934:	30001e26 	beq	r6,zero,80d9b0 <__lshift+0x120>
  80d938:	00800804 	movi	r2,32
  80d93c:	1191c83a 	sub	r8,r2,r6
  80d940:	0007883a 	mov	r3,zero
  80d944:	20800017 	ldw	r2,0(r4)
  80d948:	1184983a 	sll	r2,r2,r6
  80d94c:	1884b03a 	or	r2,r3,r2
  80d950:	28800015 	stw	r2,0(r5)
  80d954:	20c00017 	ldw	r3,0(r4)
  80d958:	21000104 	addi	r4,r4,4
  80d95c:	29400104 	addi	r5,r5,4
  80d960:	1a06d83a 	srl	r3,r3,r8
  80d964:	21fff736 	bltu	r4,r7,80d944 <__lshift+0xb4>
  80d968:	28c00015 	stw	r3,0(r5)
  80d96c:	18000126 	beq	r3,zero,80d974 <__lshift+0xe4>
  80d970:	8c400044 	addi	r17,r17,1
  80d974:	88bfffc4 	addi	r2,r17,-1
  80d978:	98800415 	stw	r2,16(r19)
  80d97c:	a809883a 	mov	r4,r21
  80d980:	900b883a 	mov	r5,r18
  80d984:	080cf4c0 	call	80cf4c <_Bfree>
  80d988:	9805883a 	mov	r2,r19
  80d98c:	dfc00617 	ldw	ra,24(sp)
  80d990:	dd400517 	ldw	r21,20(sp)
  80d994:	dd000417 	ldw	r20,16(sp)
  80d998:	dcc00317 	ldw	r19,12(sp)
  80d99c:	dc800217 	ldw	r18,8(sp)
  80d9a0:	dc400117 	ldw	r17,4(sp)
  80d9a4:	dc000017 	ldw	r16,0(sp)
  80d9a8:	dec00704 	addi	sp,sp,28
  80d9ac:	f800283a 	ret
  80d9b0:	20800017 	ldw	r2,0(r4)
  80d9b4:	21000104 	addi	r4,r4,4
  80d9b8:	28800015 	stw	r2,0(r5)
  80d9bc:	29400104 	addi	r5,r5,4
  80d9c0:	21ffec2e 	bgeu	r4,r7,80d974 <__lshift+0xe4>
  80d9c4:	20800017 	ldw	r2,0(r4)
  80d9c8:	21000104 	addi	r4,r4,4
  80d9cc:	28800015 	stw	r2,0(r5)
  80d9d0:	29400104 	addi	r5,r5,4
  80d9d4:	21fff636 	bltu	r4,r7,80d9b0 <__lshift+0x120>
  80d9d8:	003fe606 	br	80d974 <__lshift+0xe4>

0080d9dc <__multiply>:
  80d9dc:	defff004 	addi	sp,sp,-64
  80d9e0:	dc800815 	stw	r18,32(sp)
  80d9e4:	dc400715 	stw	r17,28(sp)
  80d9e8:	2c800417 	ldw	r18,16(r5)
  80d9ec:	34400417 	ldw	r17,16(r6)
  80d9f0:	dcc00915 	stw	r19,36(sp)
  80d9f4:	dc000615 	stw	r16,24(sp)
  80d9f8:	dfc00f15 	stw	ra,60(sp)
  80d9fc:	df000e15 	stw	fp,56(sp)
  80da00:	ddc00d15 	stw	r23,52(sp)
  80da04:	dd800c15 	stw	r22,48(sp)
  80da08:	dd400b15 	stw	r21,44(sp)
  80da0c:	dd000a15 	stw	r20,40(sp)
  80da10:	2821883a 	mov	r16,r5
  80da14:	3027883a 	mov	r19,r6
  80da18:	9440040e 	bge	r18,r17,80da2c <__multiply+0x50>
  80da1c:	8825883a 	mov	r18,r17
  80da20:	2c400417 	ldw	r17,16(r5)
  80da24:	2827883a 	mov	r19,r5
  80da28:	3021883a 	mov	r16,r6
  80da2c:	80800217 	ldw	r2,8(r16)
  80da30:	9447883a 	add	r3,r18,r17
  80da34:	d8c00415 	stw	r3,16(sp)
  80da38:	81400117 	ldw	r5,4(r16)
  80da3c:	10c0010e 	bge	r2,r3,80da44 <__multiply+0x68>
  80da40:	29400044 	addi	r5,r5,1
  80da44:	080d4cc0 	call	80d4cc <_Balloc>
  80da48:	d8800515 	stw	r2,20(sp)
  80da4c:	d9000417 	ldw	r4,16(sp)
  80da50:	d8c00517 	ldw	r3,20(sp)
  80da54:	2105883a 	add	r2,r4,r4
  80da58:	1085883a 	add	r2,r2,r2
  80da5c:	19000504 	addi	r4,r3,20
  80da60:	2085883a 	add	r2,r4,r2
  80da64:	d8800315 	stw	r2,12(sp)
  80da68:	2080052e 	bgeu	r4,r2,80da80 <__multiply+0xa4>
  80da6c:	2005883a 	mov	r2,r4
  80da70:	d8c00317 	ldw	r3,12(sp)
  80da74:	10000015 	stw	zero,0(r2)
  80da78:	10800104 	addi	r2,r2,4
  80da7c:	10fffc36 	bltu	r2,r3,80da70 <__multiply+0x94>
  80da80:	8c45883a 	add	r2,r17,r17
  80da84:	9487883a 	add	r3,r18,r18
  80da88:	9dc00504 	addi	r23,r19,20
  80da8c:	1085883a 	add	r2,r2,r2
  80da90:	84000504 	addi	r16,r16,20
  80da94:	18c7883a 	add	r3,r3,r3
  80da98:	b885883a 	add	r2,r23,r2
  80da9c:	dc000015 	stw	r16,0(sp)
  80daa0:	d8800215 	stw	r2,8(sp)
  80daa4:	80f9883a 	add	fp,r16,r3
  80daa8:	b880432e 	bgeu	r23,r2,80dbb8 <__multiply+0x1dc>
  80daac:	d9000115 	stw	r4,4(sp)
  80dab0:	b9000017 	ldw	r4,0(r23)
  80dab4:	253fffcc 	andi	r20,r4,65535
  80dab8:	a0001a26 	beq	r20,zero,80db24 <__multiply+0x148>
  80dabc:	dcc00017 	ldw	r19,0(sp)
  80dac0:	dc800117 	ldw	r18,4(sp)
  80dac4:	002b883a 	mov	r21,zero
  80dac8:	9c400017 	ldw	r17,0(r19)
  80dacc:	94000017 	ldw	r16,0(r18)
  80dad0:	a009883a 	mov	r4,r20
  80dad4:	897fffcc 	andi	r5,r17,65535
  80dad8:	0802c140 	call	802c14 <__mulsi3>
  80dadc:	880ad43a 	srli	r5,r17,16
  80dae0:	80ffffcc 	andi	r3,r16,65535
  80dae4:	a8c7883a 	add	r3,r21,r3
  80dae8:	a009883a 	mov	r4,r20
  80daec:	10e3883a 	add	r17,r2,r3
  80daf0:	8020d43a 	srli	r16,r16,16
  80daf4:	0802c140 	call	802c14 <__mulsi3>
  80daf8:	8806d43a 	srli	r3,r17,16
  80dafc:	1405883a 	add	r2,r2,r16
  80db00:	9cc00104 	addi	r19,r19,4
  80db04:	1887883a 	add	r3,r3,r2
  80db08:	90c0008d 	sth	r3,2(r18)
  80db0c:	9440000d 	sth	r17,0(r18)
  80db10:	182ad43a 	srli	r21,r3,16
  80db14:	94800104 	addi	r18,r18,4
  80db18:	9f3feb36 	bltu	r19,fp,80dac8 <__multiply+0xec>
  80db1c:	95400015 	stw	r21,0(r18)
  80db20:	b9000017 	ldw	r4,0(r23)
  80db24:	202ad43a 	srli	r21,r4,16
  80db28:	a8001c26 	beq	r21,zero,80db9c <__multiply+0x1c0>
  80db2c:	d9000117 	ldw	r4,4(sp)
  80db30:	dd000017 	ldw	r20,0(sp)
  80db34:	002d883a 	mov	r22,zero
  80db38:	24c00017 	ldw	r19,0(r4)
  80db3c:	2025883a 	mov	r18,r4
  80db40:	9823883a 	mov	r17,r19
  80db44:	a4000017 	ldw	r16,0(r20)
  80db48:	a809883a 	mov	r4,r21
  80db4c:	a5000104 	addi	r20,r20,4
  80db50:	817fffcc 	andi	r5,r16,65535
  80db54:	0802c140 	call	802c14 <__mulsi3>
  80db58:	8806d43a 	srli	r3,r17,16
  80db5c:	800ad43a 	srli	r5,r16,16
  80db60:	94c0000d 	sth	r19,0(r18)
  80db64:	b0c7883a 	add	r3,r22,r3
  80db68:	10e1883a 	add	r16,r2,r3
  80db6c:	9400008d 	sth	r16,2(r18)
  80db70:	a809883a 	mov	r4,r21
  80db74:	94800104 	addi	r18,r18,4
  80db78:	0802c140 	call	802c14 <__mulsi3>
  80db7c:	94400017 	ldw	r17,0(r18)
  80db80:	8020d43a 	srli	r16,r16,16
  80db84:	88ffffcc 	andi	r3,r17,65535
  80db88:	10c5883a 	add	r2,r2,r3
  80db8c:	80a7883a 	add	r19,r16,r2
  80db90:	982cd43a 	srli	r22,r19,16
  80db94:	a73feb36 	bltu	r20,fp,80db44 <__multiply+0x168>
  80db98:	94c00015 	stw	r19,0(r18)
  80db9c:	d8800217 	ldw	r2,8(sp)
  80dba0:	bdc00104 	addi	r23,r23,4
  80dba4:	b880042e 	bgeu	r23,r2,80dbb8 <__multiply+0x1dc>
  80dba8:	d8c00117 	ldw	r3,4(sp)
  80dbac:	18c00104 	addi	r3,r3,4
  80dbb0:	d8c00115 	stw	r3,4(sp)
  80dbb4:	003fbe06 	br	80dab0 <__multiply+0xd4>
  80dbb8:	d9000417 	ldw	r4,16(sp)
  80dbbc:	01000c0e 	bge	zero,r4,80dbf0 <__multiply+0x214>
  80dbc0:	d8c00317 	ldw	r3,12(sp)
  80dbc4:	18bfff17 	ldw	r2,-4(r3)
  80dbc8:	18ffff04 	addi	r3,r3,-4
  80dbcc:	10000326 	beq	r2,zero,80dbdc <__multiply+0x200>
  80dbd0:	00000706 	br	80dbf0 <__multiply+0x214>
  80dbd4:	18800017 	ldw	r2,0(r3)
  80dbd8:	1000051e 	bne	r2,zero,80dbf0 <__multiply+0x214>
  80dbdc:	d9000417 	ldw	r4,16(sp)
  80dbe0:	18ffff04 	addi	r3,r3,-4
  80dbe4:	213fffc4 	addi	r4,r4,-1
  80dbe8:	d9000415 	stw	r4,16(sp)
  80dbec:	203ff91e 	bne	r4,zero,80dbd4 <__multiply+0x1f8>
  80dbf0:	d8800417 	ldw	r2,16(sp)
  80dbf4:	d8c00517 	ldw	r3,20(sp)
  80dbf8:	18800415 	stw	r2,16(r3)
  80dbfc:	1805883a 	mov	r2,r3
  80dc00:	dfc00f17 	ldw	ra,60(sp)
  80dc04:	df000e17 	ldw	fp,56(sp)
  80dc08:	ddc00d17 	ldw	r23,52(sp)
  80dc0c:	dd800c17 	ldw	r22,48(sp)
  80dc10:	dd400b17 	ldw	r21,44(sp)
  80dc14:	dd000a17 	ldw	r20,40(sp)
  80dc18:	dcc00917 	ldw	r19,36(sp)
  80dc1c:	dc800817 	ldw	r18,32(sp)
  80dc20:	dc400717 	ldw	r17,28(sp)
  80dc24:	dc000617 	ldw	r16,24(sp)
  80dc28:	dec01004 	addi	sp,sp,64
  80dc2c:	f800283a 	ret

0080dc30 <__i2b>:
  80dc30:	defffd04 	addi	sp,sp,-12
  80dc34:	dc000015 	stw	r16,0(sp)
  80dc38:	04000044 	movi	r16,1
  80dc3c:	dc800115 	stw	r18,4(sp)
  80dc40:	2825883a 	mov	r18,r5
  80dc44:	800b883a 	mov	r5,r16
  80dc48:	dfc00215 	stw	ra,8(sp)
  80dc4c:	080d4cc0 	call	80d4cc <_Balloc>
  80dc50:	14000415 	stw	r16,16(r2)
  80dc54:	14800515 	stw	r18,20(r2)
  80dc58:	dfc00217 	ldw	ra,8(sp)
  80dc5c:	dc800117 	ldw	r18,4(sp)
  80dc60:	dc000017 	ldw	r16,0(sp)
  80dc64:	dec00304 	addi	sp,sp,12
  80dc68:	f800283a 	ret

0080dc6c <__multadd>:
  80dc6c:	defff604 	addi	sp,sp,-40
  80dc70:	dd800615 	stw	r22,24(sp)
  80dc74:	2d800417 	ldw	r22,16(r5)
  80dc78:	df000815 	stw	fp,32(sp)
  80dc7c:	ddc00715 	stw	r23,28(sp)
  80dc80:	dd400515 	stw	r21,20(sp)
  80dc84:	dd000415 	stw	r20,16(sp)
  80dc88:	dcc00315 	stw	r19,12(sp)
  80dc8c:	dc800215 	stw	r18,8(sp)
  80dc90:	dfc00915 	stw	ra,36(sp)
  80dc94:	dc400115 	stw	r17,4(sp)
  80dc98:	dc000015 	stw	r16,0(sp)
  80dc9c:	282f883a 	mov	r23,r5
  80dca0:	2039883a 	mov	fp,r4
  80dca4:	302b883a 	mov	r21,r6
  80dca8:	3829883a 	mov	r20,r7
  80dcac:	2c800504 	addi	r18,r5,20
  80dcb0:	0027883a 	mov	r19,zero
  80dcb4:	94400017 	ldw	r17,0(r18)
  80dcb8:	a80b883a 	mov	r5,r21
  80dcbc:	9cc00044 	addi	r19,r19,1
  80dcc0:	893fffcc 	andi	r4,r17,65535
  80dcc4:	0802c140 	call	802c14 <__mulsi3>
  80dcc8:	8808d43a 	srli	r4,r17,16
  80dccc:	1521883a 	add	r16,r2,r20
  80dcd0:	a80b883a 	mov	r5,r21
  80dcd4:	0802c140 	call	802c14 <__mulsi3>
  80dcd8:	8008d43a 	srli	r4,r16,16
  80dcdc:	843fffcc 	andi	r16,r16,65535
  80dce0:	1105883a 	add	r2,r2,r4
  80dce4:	1006943a 	slli	r3,r2,16
  80dce8:	1028d43a 	srli	r20,r2,16
  80dcec:	1c07883a 	add	r3,r3,r16
  80dcf0:	90c00015 	stw	r3,0(r18)
  80dcf4:	94800104 	addi	r18,r18,4
  80dcf8:	9dbfee16 	blt	r19,r22,80dcb4 <__multadd+0x48>
  80dcfc:	a0000826 	beq	r20,zero,80dd20 <__multadd+0xb4>
  80dd00:	b8800217 	ldw	r2,8(r23)
  80dd04:	b080130e 	bge	r22,r2,80dd54 <__multadd+0xe8>
  80dd08:	b585883a 	add	r2,r22,r22
  80dd0c:	1085883a 	add	r2,r2,r2
  80dd10:	15c5883a 	add	r2,r2,r23
  80dd14:	b0c00044 	addi	r3,r22,1
  80dd18:	15000515 	stw	r20,20(r2)
  80dd1c:	b8c00415 	stw	r3,16(r23)
  80dd20:	b805883a 	mov	r2,r23
  80dd24:	dfc00917 	ldw	ra,36(sp)
  80dd28:	df000817 	ldw	fp,32(sp)
  80dd2c:	ddc00717 	ldw	r23,28(sp)
  80dd30:	dd800617 	ldw	r22,24(sp)
  80dd34:	dd400517 	ldw	r21,20(sp)
  80dd38:	dd000417 	ldw	r20,16(sp)
  80dd3c:	dcc00317 	ldw	r19,12(sp)
  80dd40:	dc800217 	ldw	r18,8(sp)
  80dd44:	dc400117 	ldw	r17,4(sp)
  80dd48:	dc000017 	ldw	r16,0(sp)
  80dd4c:	dec00a04 	addi	sp,sp,40
  80dd50:	f800283a 	ret
  80dd54:	b9400117 	ldw	r5,4(r23)
  80dd58:	e009883a 	mov	r4,fp
  80dd5c:	29400044 	addi	r5,r5,1
  80dd60:	080d4cc0 	call	80d4cc <_Balloc>
  80dd64:	b9800417 	ldw	r6,16(r23)
  80dd68:	b9400304 	addi	r5,r23,12
  80dd6c:	11000304 	addi	r4,r2,12
  80dd70:	318d883a 	add	r6,r6,r6
  80dd74:	318d883a 	add	r6,r6,r6
  80dd78:	31800204 	addi	r6,r6,8
  80dd7c:	1023883a 	mov	r17,r2
  80dd80:	08010b80 	call	8010b8 <memcpy>
  80dd84:	b80b883a 	mov	r5,r23
  80dd88:	e009883a 	mov	r4,fp
  80dd8c:	080cf4c0 	call	80cf4c <_Bfree>
  80dd90:	882f883a 	mov	r23,r17
  80dd94:	003fdc06 	br	80dd08 <__multadd+0x9c>

0080dd98 <__pow5mult>:
  80dd98:	defffa04 	addi	sp,sp,-24
  80dd9c:	308000cc 	andi	r2,r6,3
  80dda0:	dd000415 	stw	r20,16(sp)
  80dda4:	dcc00315 	stw	r19,12(sp)
  80dda8:	dc000015 	stw	r16,0(sp)
  80ddac:	dfc00515 	stw	ra,20(sp)
  80ddb0:	dc800215 	stw	r18,8(sp)
  80ddb4:	dc400115 	stw	r17,4(sp)
  80ddb8:	3021883a 	mov	r16,r6
  80ddbc:	2027883a 	mov	r19,r4
  80ddc0:	2829883a 	mov	r20,r5
  80ddc4:	10002b1e 	bne	r2,zero,80de74 <__pow5mult+0xdc>
  80ddc8:	8025d0ba 	srai	r18,r16,2
  80ddcc:	90001b26 	beq	r18,zero,80de3c <__pow5mult+0xa4>
  80ddd0:	9c001217 	ldw	r16,72(r19)
  80ddd4:	8000081e 	bne	r16,zero,80ddf8 <__pow5mult+0x60>
  80ddd8:	00003006 	br	80de9c <__pow5mult+0x104>
  80dddc:	800b883a 	mov	r5,r16
  80dde0:	800d883a 	mov	r6,r16
  80dde4:	9809883a 	mov	r4,r19
  80dde8:	90001426 	beq	r18,zero,80de3c <__pow5mult+0xa4>
  80ddec:	80800017 	ldw	r2,0(r16)
  80ddf0:	10001b26 	beq	r2,zero,80de60 <__pow5mult+0xc8>
  80ddf4:	1021883a 	mov	r16,r2
  80ddf8:	9080004c 	andi	r2,r18,1
  80ddfc:	1005003a 	cmpeq	r2,r2,zero
  80de00:	9025d07a 	srai	r18,r18,1
  80de04:	800d883a 	mov	r6,r16
  80de08:	9809883a 	mov	r4,r19
  80de0c:	a00b883a 	mov	r5,r20
  80de10:	103ff21e 	bne	r2,zero,80dddc <__pow5mult+0x44>
  80de14:	080d9dc0 	call	80d9dc <__multiply>
  80de18:	a00b883a 	mov	r5,r20
  80de1c:	9809883a 	mov	r4,r19
  80de20:	1023883a 	mov	r17,r2
  80de24:	080cf4c0 	call	80cf4c <_Bfree>
  80de28:	8829883a 	mov	r20,r17
  80de2c:	800b883a 	mov	r5,r16
  80de30:	800d883a 	mov	r6,r16
  80de34:	9809883a 	mov	r4,r19
  80de38:	903fec1e 	bne	r18,zero,80ddec <__pow5mult+0x54>
  80de3c:	a005883a 	mov	r2,r20
  80de40:	dfc00517 	ldw	ra,20(sp)
  80de44:	dd000417 	ldw	r20,16(sp)
  80de48:	dcc00317 	ldw	r19,12(sp)
  80de4c:	dc800217 	ldw	r18,8(sp)
  80de50:	dc400117 	ldw	r17,4(sp)
  80de54:	dc000017 	ldw	r16,0(sp)
  80de58:	dec00604 	addi	sp,sp,24
  80de5c:	f800283a 	ret
  80de60:	080d9dc0 	call	80d9dc <__multiply>
  80de64:	80800015 	stw	r2,0(r16)
  80de68:	1021883a 	mov	r16,r2
  80de6c:	10000015 	stw	zero,0(r2)
  80de70:	003fe106 	br	80ddf8 <__pow5mult+0x60>
  80de74:	1085883a 	add	r2,r2,r2
  80de78:	00c02074 	movhi	r3,129
  80de7c:	18c2ba04 	addi	r3,r3,2792
  80de80:	1085883a 	add	r2,r2,r2
  80de84:	10c5883a 	add	r2,r2,r3
  80de88:	11bfff17 	ldw	r6,-4(r2)
  80de8c:	000f883a 	mov	r7,zero
  80de90:	080dc6c0 	call	80dc6c <__multadd>
  80de94:	1029883a 	mov	r20,r2
  80de98:	003fcb06 	br	80ddc8 <__pow5mult+0x30>
  80de9c:	9809883a 	mov	r4,r19
  80dea0:	01409c44 	movi	r5,625
  80dea4:	080dc300 	call	80dc30 <__i2b>
  80dea8:	98801215 	stw	r2,72(r19)
  80deac:	1021883a 	mov	r16,r2
  80deb0:	10000015 	stw	zero,0(r2)
  80deb4:	003fd006 	br	80ddf8 <__pow5mult+0x60>

0080deb8 <__s2b>:
  80deb8:	defff904 	addi	sp,sp,-28
  80debc:	dcc00315 	stw	r19,12(sp)
  80dec0:	dc800215 	stw	r18,8(sp)
  80dec4:	2827883a 	mov	r19,r5
  80dec8:	2025883a 	mov	r18,r4
  80decc:	01400244 	movi	r5,9
  80ded0:	39000204 	addi	r4,r7,8
  80ded4:	dd000415 	stw	r20,16(sp)
  80ded8:	dc400115 	stw	r17,4(sp)
  80dedc:	dfc00615 	stw	ra,24(sp)
  80dee0:	dd400515 	stw	r21,20(sp)
  80dee4:	dc000015 	stw	r16,0(sp)
  80dee8:	3829883a 	mov	r20,r7
  80deec:	3023883a 	mov	r17,r6
  80def0:	08100400 	call	810040 <__divsi3>
  80def4:	00c00044 	movi	r3,1
  80def8:	1880350e 	bge	r3,r2,80dfd0 <__s2b+0x118>
  80defc:	000b883a 	mov	r5,zero
  80df00:	18c7883a 	add	r3,r3,r3
  80df04:	29400044 	addi	r5,r5,1
  80df08:	18bffd16 	blt	r3,r2,80df00 <__s2b+0x48>
  80df0c:	9009883a 	mov	r4,r18
  80df10:	080d4cc0 	call	80d4cc <_Balloc>
  80df14:	1011883a 	mov	r8,r2
  80df18:	d8800717 	ldw	r2,28(sp)
  80df1c:	00c00044 	movi	r3,1
  80df20:	01800244 	movi	r6,9
  80df24:	40800515 	stw	r2,20(r8)
  80df28:	40c00415 	stw	r3,16(r8)
  80df2c:	3440260e 	bge	r6,r17,80dfc8 <__s2b+0x110>
  80df30:	3021883a 	mov	r16,r6
  80df34:	99ab883a 	add	r21,r19,r6
  80df38:	9c05883a 	add	r2,r19,r16
  80df3c:	11c00007 	ldb	r7,0(r2)
  80df40:	400b883a 	mov	r5,r8
  80df44:	9009883a 	mov	r4,r18
  80df48:	39fff404 	addi	r7,r7,-48
  80df4c:	01800284 	movi	r6,10
  80df50:	080dc6c0 	call	80dc6c <__multadd>
  80df54:	84000044 	addi	r16,r16,1
  80df58:	1011883a 	mov	r8,r2
  80df5c:	8c3ff61e 	bne	r17,r16,80df38 <__s2b+0x80>
  80df60:	ac45883a 	add	r2,r21,r17
  80df64:	117ffe04 	addi	r5,r2,-8
  80df68:	880d883a 	mov	r6,r17
  80df6c:	35000c0e 	bge	r6,r20,80dfa0 <__s2b+0xe8>
  80df70:	a185c83a 	sub	r2,r20,r6
  80df74:	2821883a 	mov	r16,r5
  80df78:	28a3883a 	add	r17,r5,r2
  80df7c:	81c00007 	ldb	r7,0(r16)
  80df80:	400b883a 	mov	r5,r8
  80df84:	9009883a 	mov	r4,r18
  80df88:	39fff404 	addi	r7,r7,-48
  80df8c:	01800284 	movi	r6,10
  80df90:	080dc6c0 	call	80dc6c <__multadd>
  80df94:	84000044 	addi	r16,r16,1
  80df98:	1011883a 	mov	r8,r2
  80df9c:	847ff71e 	bne	r16,r17,80df7c <__s2b+0xc4>
  80dfa0:	4005883a 	mov	r2,r8
  80dfa4:	dfc00617 	ldw	ra,24(sp)
  80dfa8:	dd400517 	ldw	r21,20(sp)
  80dfac:	dd000417 	ldw	r20,16(sp)
  80dfb0:	dcc00317 	ldw	r19,12(sp)
  80dfb4:	dc800217 	ldw	r18,8(sp)
  80dfb8:	dc400117 	ldw	r17,4(sp)
  80dfbc:	dc000017 	ldw	r16,0(sp)
  80dfc0:	dec00704 	addi	sp,sp,28
  80dfc4:	f800283a 	ret
  80dfc8:	99400284 	addi	r5,r19,10
  80dfcc:	003fe706 	br	80df6c <__s2b+0xb4>
  80dfd0:	000b883a 	mov	r5,zero
  80dfd4:	003fcd06 	br	80df0c <__s2b+0x54>

0080dfd8 <__isinfd>:
  80dfd8:	200d883a 	mov	r6,r4
  80dfdc:	0109c83a 	sub	r4,zero,r4
  80dfe0:	2188b03a 	or	r4,r4,r6
  80dfe4:	2008d7fa 	srli	r4,r4,31
  80dfe8:	00a00034 	movhi	r2,32768
  80dfec:	10bfffc4 	addi	r2,r2,-1
  80dff0:	1144703a 	and	r2,r2,r5
  80dff4:	2088b03a 	or	r4,r4,r2
  80dff8:	009ffc34 	movhi	r2,32752
  80dffc:	1105c83a 	sub	r2,r2,r4
  80e000:	0087c83a 	sub	r3,zero,r2
  80e004:	10c4b03a 	or	r2,r2,r3
  80e008:	1004d7fa 	srli	r2,r2,31
  80e00c:	00c00044 	movi	r3,1
  80e010:	1885c83a 	sub	r2,r3,r2
  80e014:	f800283a 	ret

0080e018 <__isnand>:
  80e018:	200d883a 	mov	r6,r4
  80e01c:	0109c83a 	sub	r4,zero,r4
  80e020:	2188b03a 	or	r4,r4,r6
  80e024:	2008d7fa 	srli	r4,r4,31
  80e028:	00a00034 	movhi	r2,32768
  80e02c:	10bfffc4 	addi	r2,r2,-1
  80e030:	1144703a 	and	r2,r2,r5
  80e034:	2088b03a 	or	r4,r4,r2
  80e038:	009ffc34 	movhi	r2,32752
  80e03c:	1105c83a 	sub	r2,r2,r4
  80e040:	1004d7fa 	srli	r2,r2,31
  80e044:	f800283a 	ret

0080e048 <strcmp>:
  80e048:	2144b03a 	or	r2,r4,r5
  80e04c:	108000cc 	andi	r2,r2,3
  80e050:	10001d1e 	bne	r2,zero,80e0c8 <strcmp+0x80>
  80e054:	200f883a 	mov	r7,r4
  80e058:	28800017 	ldw	r2,0(r5)
  80e05c:	21000017 	ldw	r4,0(r4)
  80e060:	280d883a 	mov	r6,r5
  80e064:	2080161e 	bne	r4,r2,80e0c0 <strcmp+0x78>
  80e068:	023fbff4 	movhi	r8,65279
  80e06c:	423fbfc4 	addi	r8,r8,-257
  80e070:	2207883a 	add	r3,r4,r8
  80e074:	01602074 	movhi	r5,32897
  80e078:	29602004 	addi	r5,r5,-32640
  80e07c:	1946703a 	and	r3,r3,r5
  80e080:	0104303a 	nor	r2,zero,r4
  80e084:	10c4703a 	and	r2,r2,r3
  80e088:	10001c1e 	bne	r2,zero,80e0fc <strcmp+0xb4>
  80e08c:	4013883a 	mov	r9,r8
  80e090:	2811883a 	mov	r8,r5
  80e094:	00000106 	br	80e09c <strcmp+0x54>
  80e098:	1800181e 	bne	r3,zero,80e0fc <strcmp+0xb4>
  80e09c:	39c00104 	addi	r7,r7,4
  80e0a0:	39000017 	ldw	r4,0(r7)
  80e0a4:	31800104 	addi	r6,r6,4
  80e0a8:	31400017 	ldw	r5,0(r6)
  80e0ac:	2245883a 	add	r2,r4,r9
  80e0b0:	1204703a 	and	r2,r2,r8
  80e0b4:	0106303a 	nor	r3,zero,r4
  80e0b8:	1886703a 	and	r3,r3,r2
  80e0bc:	217ff626 	beq	r4,r5,80e098 <strcmp+0x50>
  80e0c0:	3809883a 	mov	r4,r7
  80e0c4:	300b883a 	mov	r5,r6
  80e0c8:	20c00007 	ldb	r3,0(r4)
  80e0cc:	1800051e 	bne	r3,zero,80e0e4 <strcmp+0x9c>
  80e0d0:	00000606 	br	80e0ec <strcmp+0xa4>
  80e0d4:	21000044 	addi	r4,r4,1
  80e0d8:	20c00007 	ldb	r3,0(r4)
  80e0dc:	29400044 	addi	r5,r5,1
  80e0e0:	18000226 	beq	r3,zero,80e0ec <strcmp+0xa4>
  80e0e4:	28800007 	ldb	r2,0(r5)
  80e0e8:	18bffa26 	beq	r3,r2,80e0d4 <strcmp+0x8c>
  80e0ec:	20c00003 	ldbu	r3,0(r4)
  80e0f0:	28800003 	ldbu	r2,0(r5)
  80e0f4:	1885c83a 	sub	r2,r3,r2
  80e0f8:	f800283a 	ret
  80e0fc:	0005883a 	mov	r2,zero
  80e100:	f800283a 	ret

0080e104 <_calloc_r>:
  80e104:	defffe04 	addi	sp,sp,-8
  80e108:	dc400015 	stw	r17,0(sp)
  80e10c:	2023883a 	mov	r17,r4
  80e110:	2809883a 	mov	r4,r5
  80e114:	300b883a 	mov	r5,r6
  80e118:	dfc00115 	stw	ra,4(sp)
  80e11c:	0802c140 	call	802c14 <__mulsi3>
  80e120:	100b883a 	mov	r5,r2
  80e124:	8809883a 	mov	r4,r17
  80e128:	08008940 	call	800894 <_malloc_r>
  80e12c:	1023883a 	mov	r17,r2
  80e130:	01c00904 	movi	r7,36
  80e134:	10000d26 	beq	r2,zero,80e16c <_calloc_r+0x68>
  80e138:	10ffff17 	ldw	r3,-4(r2)
  80e13c:	1009883a 	mov	r4,r2
  80e140:	00bfff04 	movi	r2,-4
  80e144:	1886703a 	and	r3,r3,r2
  80e148:	1887883a 	add	r3,r3,r2
  80e14c:	180d883a 	mov	r6,r3
  80e150:	000b883a 	mov	r5,zero
  80e154:	38c01736 	bltu	r7,r3,80e1b4 <_calloc_r+0xb0>
  80e158:	008004c4 	movi	r2,19
  80e15c:	10c00836 	bltu	r2,r3,80e180 <_calloc_r+0x7c>
  80e160:	20000215 	stw	zero,8(r4)
  80e164:	20000015 	stw	zero,0(r4)
  80e168:	20000115 	stw	zero,4(r4)
  80e16c:	8805883a 	mov	r2,r17
  80e170:	dfc00117 	ldw	ra,4(sp)
  80e174:	dc400017 	ldw	r17,0(sp)
  80e178:	dec00204 	addi	sp,sp,8
  80e17c:	f800283a 	ret
  80e180:	008006c4 	movi	r2,27
  80e184:	88000015 	stw	zero,0(r17)
  80e188:	88000115 	stw	zero,4(r17)
  80e18c:	89000204 	addi	r4,r17,8
  80e190:	10fff32e 	bgeu	r2,r3,80e160 <_calloc_r+0x5c>
  80e194:	88000215 	stw	zero,8(r17)
  80e198:	88000315 	stw	zero,12(r17)
  80e19c:	89000404 	addi	r4,r17,16
  80e1a0:	19ffef1e 	bne	r3,r7,80e160 <_calloc_r+0x5c>
  80e1a4:	89000604 	addi	r4,r17,24
  80e1a8:	88000415 	stw	zero,16(r17)
  80e1ac:	88000515 	stw	zero,20(r17)
  80e1b0:	003feb06 	br	80e160 <_calloc_r+0x5c>
  80e1b4:	08026500 	call	802650 <memset>
  80e1b8:	8805883a 	mov	r2,r17
  80e1bc:	dfc00117 	ldw	ra,4(sp)
  80e1c0:	dc400017 	ldw	r17,0(sp)
  80e1c4:	dec00204 	addi	sp,sp,8
  80e1c8:	f800283a 	ret

0080e1cc <__udivdi3>:
  80e1cc:	defff104 	addi	sp,sp,-60
  80e1d0:	0015883a 	mov	r10,zero
  80e1d4:	2005883a 	mov	r2,r4
  80e1d8:	3011883a 	mov	r8,r6
  80e1dc:	df000d15 	stw	fp,52(sp)
  80e1e0:	dd400a15 	stw	r21,40(sp)
  80e1e4:	dcc00815 	stw	r19,32(sp)
  80e1e8:	dfc00e15 	stw	ra,56(sp)
  80e1ec:	ddc00c15 	stw	r23,48(sp)
  80e1f0:	dd800b15 	stw	r22,44(sp)
  80e1f4:	dd000915 	stw	r20,36(sp)
  80e1f8:	dc800715 	stw	r18,28(sp)
  80e1fc:	dc400615 	stw	r17,24(sp)
  80e200:	dc000515 	stw	r16,20(sp)
  80e204:	da800315 	stw	r10,12(sp)
  80e208:	4027883a 	mov	r19,r8
  80e20c:	1039883a 	mov	fp,r2
  80e210:	282b883a 	mov	r21,r5
  80e214:	da800415 	stw	r10,16(sp)
  80e218:	3800401e 	bne	r7,zero,80e31c <__udivdi3+0x150>
  80e21c:	2a006536 	bltu	r5,r8,80e3b4 <__udivdi3+0x1e8>
  80e220:	4000b526 	beq	r8,zero,80e4f8 <__udivdi3+0x32c>
  80e224:	00bfffd4 	movui	r2,65535
  80e228:	14c0ad36 	bltu	r2,r19,80e4e0 <__udivdi3+0x314>
  80e22c:	00803fc4 	movi	r2,255
  80e230:	14c15e36 	bltu	r2,r19,80e7ac <__udivdi3+0x5e0>
  80e234:	000b883a 	mov	r5,zero
  80e238:	0005883a 	mov	r2,zero
  80e23c:	9884d83a 	srl	r2,r19,r2
  80e240:	01002074 	movhi	r4,129
  80e244:	2102c204 	addi	r4,r4,2824
  80e248:	01800804 	movi	r6,32
  80e24c:	1105883a 	add	r2,r2,r4
  80e250:	10c00003 	ldbu	r3,0(r2)
  80e254:	28c7883a 	add	r3,r5,r3
  80e258:	30e9c83a 	sub	r20,r6,r3
  80e25c:	a0010a1e 	bne	r20,zero,80e688 <__udivdi3+0x4bc>
  80e260:	982ed43a 	srli	r23,r19,16
  80e264:	acebc83a 	sub	r21,r21,r19
  80e268:	9dbfffcc 	andi	r22,r19,65535
  80e26c:	05000044 	movi	r20,1
  80e270:	a809883a 	mov	r4,r21
  80e274:	b80b883a 	mov	r5,r23
  80e278:	08101000 	call	810100 <__udivsi3>
  80e27c:	100b883a 	mov	r5,r2
  80e280:	b009883a 	mov	r4,r22
  80e284:	1021883a 	mov	r16,r2
  80e288:	0802c140 	call	802c14 <__mulsi3>
  80e28c:	a809883a 	mov	r4,r21
  80e290:	b80b883a 	mov	r5,r23
  80e294:	1023883a 	mov	r17,r2
  80e298:	08101080 	call	810108 <__umodsi3>
  80e29c:	1004943a 	slli	r2,r2,16
  80e2a0:	e006d43a 	srli	r3,fp,16
  80e2a4:	10c4b03a 	or	r2,r2,r3
  80e2a8:	1440042e 	bgeu	r2,r17,80e2bc <__udivdi3+0xf0>
  80e2ac:	14c5883a 	add	r2,r2,r19
  80e2b0:	843fffc4 	addi	r16,r16,-1
  80e2b4:	14c00136 	bltu	r2,r19,80e2bc <__udivdi3+0xf0>
  80e2b8:	14415c36 	bltu	r2,r17,80e82c <__udivdi3+0x660>
  80e2bc:	1463c83a 	sub	r17,r2,r17
  80e2c0:	8809883a 	mov	r4,r17
  80e2c4:	b80b883a 	mov	r5,r23
  80e2c8:	08101000 	call	810100 <__udivsi3>
  80e2cc:	100b883a 	mov	r5,r2
  80e2d0:	b009883a 	mov	r4,r22
  80e2d4:	102b883a 	mov	r21,r2
  80e2d8:	0802c140 	call	802c14 <__mulsi3>
  80e2dc:	8809883a 	mov	r4,r17
  80e2e0:	b80b883a 	mov	r5,r23
  80e2e4:	1025883a 	mov	r18,r2
  80e2e8:	08101080 	call	810108 <__umodsi3>
  80e2ec:	1004943a 	slli	r2,r2,16
  80e2f0:	e0ffffcc 	andi	r3,fp,65535
  80e2f4:	10c4b03a 	or	r2,r2,r3
  80e2f8:	1480042e 	bgeu	r2,r18,80e30c <__udivdi3+0x140>
  80e2fc:	9885883a 	add	r2,r19,r2
  80e300:	ad7fffc4 	addi	r21,r21,-1
  80e304:	14c00136 	bltu	r2,r19,80e30c <__udivdi3+0x140>
  80e308:	14813c36 	bltu	r2,r18,80e7fc <__udivdi3+0x630>
  80e30c:	8004943a 	slli	r2,r16,16
  80e310:	a009883a 	mov	r4,r20
  80e314:	a884b03a 	or	r2,r21,r2
  80e318:	00001506 	br	80e370 <__udivdi3+0x1a4>
  80e31c:	380d883a 	mov	r6,r7
  80e320:	29c06c36 	bltu	r5,r7,80e4d4 <__udivdi3+0x308>
  80e324:	00bfffd4 	movui	r2,65535
  80e328:	11c06436 	bltu	r2,r7,80e4bc <__udivdi3+0x2f0>
  80e32c:	00803fc4 	movi	r2,255
  80e330:	11c11836 	bltu	r2,r7,80e794 <__udivdi3+0x5c8>
  80e334:	000b883a 	mov	r5,zero
  80e338:	0005883a 	mov	r2,zero
  80e33c:	3084d83a 	srl	r2,r6,r2
  80e340:	01002074 	movhi	r4,129
  80e344:	2102c204 	addi	r4,r4,2824
  80e348:	01c00804 	movi	r7,32
  80e34c:	1105883a 	add	r2,r2,r4
  80e350:	10c00003 	ldbu	r3,0(r2)
  80e354:	28c7883a 	add	r3,r5,r3
  80e358:	38edc83a 	sub	r22,r7,r3
  80e35c:	b000731e 	bne	r22,zero,80e52c <__udivdi3+0x360>
  80e360:	35400136 	bltu	r6,r21,80e368 <__udivdi3+0x19c>
  80e364:	e4c05b36 	bltu	fp,r19,80e4d4 <__udivdi3+0x308>
  80e368:	00800044 	movi	r2,1
  80e36c:	0009883a 	mov	r4,zero
  80e370:	d8800315 	stw	r2,12(sp)
  80e374:	d9400317 	ldw	r5,12(sp)
  80e378:	d9000415 	stw	r4,16(sp)
  80e37c:	2007883a 	mov	r3,r4
  80e380:	2805883a 	mov	r2,r5
  80e384:	dfc00e17 	ldw	ra,56(sp)
  80e388:	df000d17 	ldw	fp,52(sp)
  80e38c:	ddc00c17 	ldw	r23,48(sp)
  80e390:	dd800b17 	ldw	r22,44(sp)
  80e394:	dd400a17 	ldw	r21,40(sp)
  80e398:	dd000917 	ldw	r20,36(sp)
  80e39c:	dcc00817 	ldw	r19,32(sp)
  80e3a0:	dc800717 	ldw	r18,28(sp)
  80e3a4:	dc400617 	ldw	r17,24(sp)
  80e3a8:	dc000517 	ldw	r16,20(sp)
  80e3ac:	dec00f04 	addi	sp,sp,60
  80e3b0:	f800283a 	ret
  80e3b4:	00bfffd4 	movui	r2,65535
  80e3b8:	12005636 	bltu	r2,r8,80e514 <__udivdi3+0x348>
  80e3bc:	00803fc4 	movi	r2,255
  80e3c0:	12010036 	bltu	r2,r8,80e7c4 <__udivdi3+0x5f8>
  80e3c4:	000b883a 	mov	r5,zero
  80e3c8:	0005883a 	mov	r2,zero
  80e3cc:	9884d83a 	srl	r2,r19,r2
  80e3d0:	01002074 	movhi	r4,129
  80e3d4:	2102c204 	addi	r4,r4,2824
  80e3d8:	01800804 	movi	r6,32
  80e3dc:	1105883a 	add	r2,r2,r4
  80e3e0:	10c00003 	ldbu	r3,0(r2)
  80e3e4:	28c7883a 	add	r3,r5,r3
  80e3e8:	30cbc83a 	sub	r5,r6,r3
  80e3ec:	28000626 	beq	r5,zero,80e408 <__udivdi3+0x23c>
  80e3f0:	3145c83a 	sub	r2,r6,r5
  80e3f4:	e084d83a 	srl	r2,fp,r2
  80e3f8:	a946983a 	sll	r3,r21,r5
  80e3fc:	e178983a 	sll	fp,fp,r5
  80e400:	9966983a 	sll	r19,r19,r5
  80e404:	18aab03a 	or	r21,r3,r2
  80e408:	982ed43a 	srli	r23,r19,16
  80e40c:	a809883a 	mov	r4,r21
  80e410:	9cbfffcc 	andi	r18,r19,65535
  80e414:	b80b883a 	mov	r5,r23
  80e418:	08101000 	call	810100 <__udivsi3>
  80e41c:	100b883a 	mov	r5,r2
  80e420:	9009883a 	mov	r4,r18
  80e424:	1021883a 	mov	r16,r2
  80e428:	0802c140 	call	802c14 <__mulsi3>
  80e42c:	a809883a 	mov	r4,r21
  80e430:	b80b883a 	mov	r5,r23
  80e434:	1023883a 	mov	r17,r2
  80e438:	08101080 	call	810108 <__umodsi3>
  80e43c:	1004943a 	slli	r2,r2,16
  80e440:	e006d43a 	srli	r3,fp,16
  80e444:	10c4b03a 	or	r2,r2,r3
  80e448:	1440042e 	bgeu	r2,r17,80e45c <__udivdi3+0x290>
  80e44c:	14c5883a 	add	r2,r2,r19
  80e450:	843fffc4 	addi	r16,r16,-1
  80e454:	14c00136 	bltu	r2,r19,80e45c <__udivdi3+0x290>
  80e458:	1440ea36 	bltu	r2,r17,80e804 <__udivdi3+0x638>
  80e45c:	1463c83a 	sub	r17,r2,r17
  80e460:	8809883a 	mov	r4,r17
  80e464:	b80b883a 	mov	r5,r23
  80e468:	08101000 	call	810100 <__udivsi3>
  80e46c:	100b883a 	mov	r5,r2
  80e470:	9009883a 	mov	r4,r18
  80e474:	102b883a 	mov	r21,r2
  80e478:	0802c140 	call	802c14 <__mulsi3>
  80e47c:	8809883a 	mov	r4,r17
  80e480:	b80b883a 	mov	r5,r23
  80e484:	1025883a 	mov	r18,r2
  80e488:	08101080 	call	810108 <__umodsi3>
  80e48c:	1004943a 	slli	r2,r2,16
  80e490:	e0ffffcc 	andi	r3,fp,65535
  80e494:	10c4b03a 	or	r2,r2,r3
  80e498:	1480042e 	bgeu	r2,r18,80e4ac <__udivdi3+0x2e0>
  80e49c:	9885883a 	add	r2,r19,r2
  80e4a0:	ad7fffc4 	addi	r21,r21,-1
  80e4a4:	14c00136 	bltu	r2,r19,80e4ac <__udivdi3+0x2e0>
  80e4a8:	1480d936 	bltu	r2,r18,80e810 <__udivdi3+0x644>
  80e4ac:	8004943a 	slli	r2,r16,16
  80e4b0:	0009883a 	mov	r4,zero
  80e4b4:	a884b03a 	or	r2,r21,r2
  80e4b8:	003fad06 	br	80e370 <__udivdi3+0x1a4>
  80e4bc:	00804034 	movhi	r2,256
  80e4c0:	10bfffc4 	addi	r2,r2,-1
  80e4c4:	11c0b636 	bltu	r2,r7,80e7a0 <__udivdi3+0x5d4>
  80e4c8:	01400404 	movi	r5,16
  80e4cc:	2805883a 	mov	r2,r5
  80e4d0:	003f9a06 	br	80e33c <__udivdi3+0x170>
  80e4d4:	0005883a 	mov	r2,zero
  80e4d8:	0009883a 	mov	r4,zero
  80e4dc:	003fa406 	br	80e370 <__udivdi3+0x1a4>
  80e4e0:	00804034 	movhi	r2,256
  80e4e4:	10bfffc4 	addi	r2,r2,-1
  80e4e8:	14c0b336 	bltu	r2,r19,80e7b8 <__udivdi3+0x5ec>
  80e4ec:	01400404 	movi	r5,16
  80e4f0:	2805883a 	mov	r2,r5
  80e4f4:	003f5106 	br	80e23c <__udivdi3+0x70>
  80e4f8:	01000044 	movi	r4,1
  80e4fc:	000b883a 	mov	r5,zero
  80e500:	08101000 	call	810100 <__udivsi3>
  80e504:	1027883a 	mov	r19,r2
  80e508:	00bfffd4 	movui	r2,65535
  80e50c:	14fff436 	bltu	r2,r19,80e4e0 <__udivdi3+0x314>
  80e510:	003f4606 	br	80e22c <__udivdi3+0x60>
  80e514:	00804034 	movhi	r2,256
  80e518:	10bfffc4 	addi	r2,r2,-1
  80e51c:	1200ac36 	bltu	r2,r8,80e7d0 <__udivdi3+0x604>
  80e520:	01400404 	movi	r5,16
  80e524:	2805883a 	mov	r2,r5
  80e528:	003fa806 	br	80e3cc <__udivdi3+0x200>
  80e52c:	3d85c83a 	sub	r2,r7,r22
  80e530:	3588983a 	sll	r4,r6,r22
  80e534:	9886d83a 	srl	r3,r19,r2
  80e538:	a8a2d83a 	srl	r17,r21,r2
  80e53c:	e084d83a 	srl	r2,fp,r2
  80e540:	20eeb03a 	or	r23,r4,r3
  80e544:	b824d43a 	srli	r18,r23,16
  80e548:	ad86983a 	sll	r3,r21,r22
  80e54c:	8809883a 	mov	r4,r17
  80e550:	900b883a 	mov	r5,r18
  80e554:	1886b03a 	or	r3,r3,r2
  80e558:	d8c00115 	stw	r3,4(sp)
  80e55c:	bc3fffcc 	andi	r16,r23,65535
  80e560:	08101000 	call	810100 <__udivsi3>
  80e564:	100b883a 	mov	r5,r2
  80e568:	8009883a 	mov	r4,r16
  80e56c:	1029883a 	mov	r20,r2
  80e570:	0802c140 	call	802c14 <__mulsi3>
  80e574:	900b883a 	mov	r5,r18
  80e578:	8809883a 	mov	r4,r17
  80e57c:	102b883a 	mov	r21,r2
  80e580:	08101080 	call	810108 <__umodsi3>
  80e584:	d9400117 	ldw	r5,4(sp)
  80e588:	1004943a 	slli	r2,r2,16
  80e58c:	9da6983a 	sll	r19,r19,r22
  80e590:	2806d43a 	srli	r3,r5,16
  80e594:	10c4b03a 	or	r2,r2,r3
  80e598:	1540032e 	bgeu	r2,r21,80e5a8 <__udivdi3+0x3dc>
  80e59c:	15c5883a 	add	r2,r2,r23
  80e5a0:	a53fffc4 	addi	r20,r20,-1
  80e5a4:	15c0912e 	bgeu	r2,r23,80e7ec <__udivdi3+0x620>
  80e5a8:	1563c83a 	sub	r17,r2,r21
  80e5ac:	8809883a 	mov	r4,r17
  80e5b0:	900b883a 	mov	r5,r18
  80e5b4:	08101000 	call	810100 <__udivsi3>
  80e5b8:	100b883a 	mov	r5,r2
  80e5bc:	8009883a 	mov	r4,r16
  80e5c0:	102b883a 	mov	r21,r2
  80e5c4:	0802c140 	call	802c14 <__mulsi3>
  80e5c8:	8809883a 	mov	r4,r17
  80e5cc:	900b883a 	mov	r5,r18
  80e5d0:	1021883a 	mov	r16,r2
  80e5d4:	08101080 	call	810108 <__umodsi3>
  80e5d8:	da800117 	ldw	r10,4(sp)
  80e5dc:	1004943a 	slli	r2,r2,16
  80e5e0:	50ffffcc 	andi	r3,r10,65535
  80e5e4:	10c6b03a 	or	r3,r2,r3
  80e5e8:	1c00032e 	bgeu	r3,r16,80e5f8 <__udivdi3+0x42c>
  80e5ec:	1dc7883a 	add	r3,r3,r23
  80e5f0:	ad7fffc4 	addi	r21,r21,-1
  80e5f4:	1dc0792e 	bgeu	r3,r23,80e7dc <__udivdi3+0x610>
  80e5f8:	a004943a 	slli	r2,r20,16
  80e5fc:	982ed43a 	srli	r23,r19,16
  80e600:	9cffffcc 	andi	r19,r19,65535
  80e604:	a8a4b03a 	or	r18,r21,r2
  80e608:	947fffcc 	andi	r17,r18,65535
  80e60c:	902ad43a 	srli	r21,r18,16
  80e610:	8809883a 	mov	r4,r17
  80e614:	980b883a 	mov	r5,r19
  80e618:	1c21c83a 	sub	r16,r3,r16
  80e61c:	0802c140 	call	802c14 <__mulsi3>
  80e620:	8809883a 	mov	r4,r17
  80e624:	b80b883a 	mov	r5,r23
  80e628:	1029883a 	mov	r20,r2
  80e62c:	0802c140 	call	802c14 <__mulsi3>
  80e630:	980b883a 	mov	r5,r19
  80e634:	a809883a 	mov	r4,r21
  80e638:	1023883a 	mov	r17,r2
  80e63c:	0802c140 	call	802c14 <__mulsi3>
  80e640:	a809883a 	mov	r4,r21
  80e644:	b80b883a 	mov	r5,r23
  80e648:	1027883a 	mov	r19,r2
  80e64c:	0802c140 	call	802c14 <__mulsi3>
  80e650:	1009883a 	mov	r4,r2
  80e654:	a004d43a 	srli	r2,r20,16
  80e658:	8ce3883a 	add	r17,r17,r19
  80e65c:	1447883a 	add	r3,r2,r17
  80e660:	1cc0022e 	bgeu	r3,r19,80e66c <__udivdi3+0x4a0>
  80e664:	00800074 	movhi	r2,1
  80e668:	2089883a 	add	r4,r4,r2
  80e66c:	1804d43a 	srli	r2,r3,16
  80e670:	2085883a 	add	r2,r4,r2
  80e674:	80804436 	bltu	r16,r2,80e788 <__udivdi3+0x5bc>
  80e678:	80803e26 	beq	r16,r2,80e774 <__udivdi3+0x5a8>
  80e67c:	9005883a 	mov	r2,r18
  80e680:	0009883a 	mov	r4,zero
  80e684:	003f3a06 	br	80e370 <__udivdi3+0x1a4>
  80e688:	9d26983a 	sll	r19,r19,r20
  80e68c:	3505c83a 	sub	r2,r6,r20
  80e690:	a8a2d83a 	srl	r17,r21,r2
  80e694:	982ed43a 	srli	r23,r19,16
  80e698:	e084d83a 	srl	r2,fp,r2
  80e69c:	ad06983a 	sll	r3,r21,r20
  80e6a0:	8809883a 	mov	r4,r17
  80e6a4:	b80b883a 	mov	r5,r23
  80e6a8:	1886b03a 	or	r3,r3,r2
  80e6ac:	d8c00015 	stw	r3,0(sp)
  80e6b0:	9dbfffcc 	andi	r22,r19,65535
  80e6b4:	08101000 	call	810100 <__udivsi3>
  80e6b8:	100b883a 	mov	r5,r2
  80e6bc:	b009883a 	mov	r4,r22
  80e6c0:	d8800215 	stw	r2,8(sp)
  80e6c4:	0802c140 	call	802c14 <__mulsi3>
  80e6c8:	8809883a 	mov	r4,r17
  80e6cc:	b80b883a 	mov	r5,r23
  80e6d0:	102b883a 	mov	r21,r2
  80e6d4:	08101080 	call	810108 <__umodsi3>
  80e6d8:	d9000017 	ldw	r4,0(sp)
  80e6dc:	1004943a 	slli	r2,r2,16
  80e6e0:	2006d43a 	srli	r3,r4,16
  80e6e4:	10c4b03a 	or	r2,r2,r3
  80e6e8:	1540052e 	bgeu	r2,r21,80e700 <__udivdi3+0x534>
  80e6ec:	d9400217 	ldw	r5,8(sp)
  80e6f0:	14c5883a 	add	r2,r2,r19
  80e6f4:	297fffc4 	addi	r5,r5,-1
  80e6f8:	d9400215 	stw	r5,8(sp)
  80e6fc:	14c0462e 	bgeu	r2,r19,80e818 <__udivdi3+0x64c>
  80e700:	1563c83a 	sub	r17,r2,r21
  80e704:	8809883a 	mov	r4,r17
  80e708:	b80b883a 	mov	r5,r23
  80e70c:	08101000 	call	810100 <__udivsi3>
  80e710:	100b883a 	mov	r5,r2
  80e714:	b009883a 	mov	r4,r22
  80e718:	1025883a 	mov	r18,r2
  80e71c:	0802c140 	call	802c14 <__mulsi3>
  80e720:	8809883a 	mov	r4,r17
  80e724:	b80b883a 	mov	r5,r23
  80e728:	1021883a 	mov	r16,r2
  80e72c:	08101080 	call	810108 <__umodsi3>
  80e730:	da800017 	ldw	r10,0(sp)
  80e734:	1004943a 	slli	r2,r2,16
  80e738:	50ffffcc 	andi	r3,r10,65535
  80e73c:	10c6b03a 	or	r3,r2,r3
  80e740:	1c00062e 	bgeu	r3,r16,80e75c <__udivdi3+0x590>
  80e744:	1cc7883a 	add	r3,r3,r19
  80e748:	94bfffc4 	addi	r18,r18,-1
  80e74c:	1cc00336 	bltu	r3,r19,80e75c <__udivdi3+0x590>
  80e750:	1c00022e 	bgeu	r3,r16,80e75c <__udivdi3+0x590>
  80e754:	94bfffc4 	addi	r18,r18,-1
  80e758:	1cc7883a 	add	r3,r3,r19
  80e75c:	d9000217 	ldw	r4,8(sp)
  80e760:	e538983a 	sll	fp,fp,r20
  80e764:	1c2bc83a 	sub	r21,r3,r16
  80e768:	2004943a 	slli	r2,r4,16
  80e76c:	90a8b03a 	or	r20,r18,r2
  80e770:	003ebf06 	br	80e270 <__udivdi3+0xa4>
  80e774:	1804943a 	slli	r2,r3,16
  80e778:	e588983a 	sll	r4,fp,r22
  80e77c:	a0ffffcc 	andi	r3,r20,65535
  80e780:	10c5883a 	add	r2,r2,r3
  80e784:	20bfbd2e 	bgeu	r4,r2,80e67c <__udivdi3+0x4b0>
  80e788:	90bfffc4 	addi	r2,r18,-1
  80e78c:	0009883a 	mov	r4,zero
  80e790:	003ef706 	br	80e370 <__udivdi3+0x1a4>
  80e794:	01400204 	movi	r5,8
  80e798:	2805883a 	mov	r2,r5
  80e79c:	003ee706 	br	80e33c <__udivdi3+0x170>
  80e7a0:	01400604 	movi	r5,24
  80e7a4:	2805883a 	mov	r2,r5
  80e7a8:	003ee406 	br	80e33c <__udivdi3+0x170>
  80e7ac:	01400204 	movi	r5,8
  80e7b0:	2805883a 	mov	r2,r5
  80e7b4:	003ea106 	br	80e23c <__udivdi3+0x70>
  80e7b8:	01400604 	movi	r5,24
  80e7bc:	2805883a 	mov	r2,r5
  80e7c0:	003e9e06 	br	80e23c <__udivdi3+0x70>
  80e7c4:	01400204 	movi	r5,8
  80e7c8:	2805883a 	mov	r2,r5
  80e7cc:	003eff06 	br	80e3cc <__udivdi3+0x200>
  80e7d0:	01400604 	movi	r5,24
  80e7d4:	2805883a 	mov	r2,r5
  80e7d8:	003efc06 	br	80e3cc <__udivdi3+0x200>
  80e7dc:	1c3f862e 	bgeu	r3,r16,80e5f8 <__udivdi3+0x42c>
  80e7e0:	1dc7883a 	add	r3,r3,r23
  80e7e4:	ad7fffc4 	addi	r21,r21,-1
  80e7e8:	003f8306 	br	80e5f8 <__udivdi3+0x42c>
  80e7ec:	157f6e2e 	bgeu	r2,r21,80e5a8 <__udivdi3+0x3dc>
  80e7f0:	a53fffc4 	addi	r20,r20,-1
  80e7f4:	15c5883a 	add	r2,r2,r23
  80e7f8:	003f6b06 	br	80e5a8 <__udivdi3+0x3dc>
  80e7fc:	ad7fffc4 	addi	r21,r21,-1
  80e800:	003ec206 	br	80e30c <__udivdi3+0x140>
  80e804:	843fffc4 	addi	r16,r16,-1
  80e808:	14c5883a 	add	r2,r2,r19
  80e80c:	003f1306 	br	80e45c <__udivdi3+0x290>
  80e810:	ad7fffc4 	addi	r21,r21,-1
  80e814:	003f2506 	br	80e4ac <__udivdi3+0x2e0>
  80e818:	157fb92e 	bgeu	r2,r21,80e700 <__udivdi3+0x534>
  80e81c:	297fffc4 	addi	r5,r5,-1
  80e820:	14c5883a 	add	r2,r2,r19
  80e824:	d9400215 	stw	r5,8(sp)
  80e828:	003fb506 	br	80e700 <__udivdi3+0x534>
  80e82c:	843fffc4 	addi	r16,r16,-1
  80e830:	14c5883a 	add	r2,r2,r19
  80e834:	003ea106 	br	80e2bc <__udivdi3+0xf0>

0080e838 <__umoddi3>:
  80e838:	defff004 	addi	sp,sp,-64
  80e83c:	3011883a 	mov	r8,r6
  80e840:	000d883a 	mov	r6,zero
  80e844:	dd400b15 	stw	r21,44(sp)
  80e848:	dcc00915 	stw	r19,36(sp)
  80e84c:	dc000615 	stw	r16,24(sp)
  80e850:	dfc00f15 	stw	ra,60(sp)
  80e854:	df000e15 	stw	fp,56(sp)
  80e858:	ddc00d15 	stw	r23,52(sp)
  80e85c:	dd800c15 	stw	r22,48(sp)
  80e860:	dd000a15 	stw	r20,40(sp)
  80e864:	dc800815 	stw	r18,32(sp)
  80e868:	dc400715 	stw	r17,28(sp)
  80e86c:	2817883a 	mov	r11,r5
  80e870:	d9800415 	stw	r6,16(sp)
  80e874:	4027883a 	mov	r19,r8
  80e878:	d9800515 	stw	r6,20(sp)
  80e87c:	2021883a 	mov	r16,r4
  80e880:	282b883a 	mov	r21,r5
  80e884:	38002c1e 	bne	r7,zero,80e938 <__umoddi3+0x100>
  80e888:	2a005636 	bltu	r5,r8,80e9e4 <__umoddi3+0x1ac>
  80e88c:	40009a26 	beq	r8,zero,80eaf8 <__umoddi3+0x2c0>
  80e890:	00bfffd4 	movui	r2,65535
  80e894:	14c09236 	bltu	r2,r19,80eae0 <__umoddi3+0x2a8>
  80e898:	00803fc4 	movi	r2,255
  80e89c:	14c15c36 	bltu	r2,r19,80ee10 <__umoddi3+0x5d8>
  80e8a0:	000b883a 	mov	r5,zero
  80e8a4:	0005883a 	mov	r2,zero
  80e8a8:	9884d83a 	srl	r2,r19,r2
  80e8ac:	01002074 	movhi	r4,129
  80e8b0:	2102c204 	addi	r4,r4,2824
  80e8b4:	01800804 	movi	r6,32
  80e8b8:	1105883a 	add	r2,r2,r4
  80e8bc:	10c00003 	ldbu	r3,0(r2)
  80e8c0:	28c7883a 	add	r3,r5,r3
  80e8c4:	30e5c83a 	sub	r18,r6,r3
  80e8c8:	9000a41e 	bne	r18,zero,80eb5c <__umoddi3+0x324>
  80e8cc:	982ed43a 	srli	r23,r19,16
  80e8d0:	acebc83a 	sub	r21,r21,r19
  80e8d4:	9d3fffcc 	andi	r20,r19,65535
  80e8d8:	002d883a 	mov	r22,zero
  80e8dc:	a809883a 	mov	r4,r21
  80e8e0:	b80b883a 	mov	r5,r23
  80e8e4:	08101000 	call	810100 <__udivsi3>
  80e8e8:	100b883a 	mov	r5,r2
  80e8ec:	a009883a 	mov	r4,r20
  80e8f0:	0802c140 	call	802c14 <__mulsi3>
  80e8f4:	a809883a 	mov	r4,r21
  80e8f8:	b80b883a 	mov	r5,r23
  80e8fc:	1023883a 	mov	r17,r2
  80e900:	08101080 	call	810108 <__umodsi3>
  80e904:	1004943a 	slli	r2,r2,16
  80e908:	8006d43a 	srli	r3,r16,16
  80e90c:	10c4b03a 	or	r2,r2,r3
  80e910:	1440032e 	bgeu	r2,r17,80e920 <__umoddi3+0xe8>
  80e914:	14c5883a 	add	r2,r2,r19
  80e918:	14c00136 	bltu	r2,r19,80e920 <__umoddi3+0xe8>
  80e91c:	14415836 	bltu	r2,r17,80ee80 <__umoddi3+0x648>
  80e920:	1463c83a 	sub	r17,r2,r17
  80e924:	8809883a 	mov	r4,r17
  80e928:	b80b883a 	mov	r5,r23
  80e92c:	08101000 	call	810100 <__udivsi3>
  80e930:	a009883a 	mov	r4,r20
  80e934:	00005306 	br	80ea84 <__umoddi3+0x24c>
  80e938:	380d883a 	mov	r6,r7
  80e93c:	29c0132e 	bgeu	r5,r7,80e98c <__umoddi3+0x154>
  80e940:	d9000415 	stw	r4,16(sp)
  80e944:	d9400515 	stw	r5,20(sp)
  80e948:	d9400417 	ldw	r5,16(sp)
  80e94c:	5813883a 	mov	r9,r11
  80e950:	2811883a 	mov	r8,r5
  80e954:	4005883a 	mov	r2,r8
  80e958:	4807883a 	mov	r3,r9
  80e95c:	dfc00f17 	ldw	ra,60(sp)
  80e960:	df000e17 	ldw	fp,56(sp)
  80e964:	ddc00d17 	ldw	r23,52(sp)
  80e968:	dd800c17 	ldw	r22,48(sp)
  80e96c:	dd400b17 	ldw	r21,44(sp)
  80e970:	dd000a17 	ldw	r20,40(sp)
  80e974:	dcc00917 	ldw	r19,36(sp)
  80e978:	dc800817 	ldw	r18,32(sp)
  80e97c:	dc400717 	ldw	r17,28(sp)
  80e980:	dc000617 	ldw	r16,24(sp)
  80e984:	dec01004 	addi	sp,sp,64
  80e988:	f800283a 	ret
  80e98c:	00bfffd4 	movui	r2,65535
  80e990:	11c06636 	bltu	r2,r7,80eb2c <__umoddi3+0x2f4>
  80e994:	00803fc4 	movi	r2,255
  80e998:	11c12036 	bltu	r2,r7,80ee1c <__umoddi3+0x5e4>
  80e99c:	000b883a 	mov	r5,zero
  80e9a0:	0005883a 	mov	r2,zero
  80e9a4:	3084d83a 	srl	r2,r6,r2
  80e9a8:	01002074 	movhi	r4,129
  80e9ac:	2102c204 	addi	r4,r4,2824
  80e9b0:	01c00804 	movi	r7,32
  80e9b4:	1105883a 	add	r2,r2,r4
  80e9b8:	10c00003 	ldbu	r3,0(r2)
  80e9bc:	28c7883a 	add	r3,r5,r3
  80e9c0:	38e5c83a 	sub	r18,r7,r3
  80e9c4:	9000941e 	bne	r18,zero,80ec18 <__umoddi3+0x3e0>
  80e9c8:	35405e36 	bltu	r6,r21,80eb44 <__umoddi3+0x30c>
  80e9cc:	84c05d2e 	bgeu	r16,r19,80eb44 <__umoddi3+0x30c>
  80e9d0:	8011883a 	mov	r8,r16
  80e9d4:	a813883a 	mov	r9,r21
  80e9d8:	dc000415 	stw	r16,16(sp)
  80e9dc:	dd400515 	stw	r21,20(sp)
  80e9e0:	003fdc06 	br	80e954 <__umoddi3+0x11c>
  80e9e4:	00bfffd4 	movui	r2,65535
  80e9e8:	12004a36 	bltu	r2,r8,80eb14 <__umoddi3+0x2dc>
  80e9ec:	00803fc4 	movi	r2,255
  80e9f0:	12010d36 	bltu	r2,r8,80ee28 <__umoddi3+0x5f0>
  80e9f4:	000b883a 	mov	r5,zero
  80e9f8:	0005883a 	mov	r2,zero
  80e9fc:	9884d83a 	srl	r2,r19,r2
  80ea00:	01002074 	movhi	r4,129
  80ea04:	2102c204 	addi	r4,r4,2824
  80ea08:	01800804 	movi	r6,32
  80ea0c:	1105883a 	add	r2,r2,r4
  80ea10:	10c00003 	ldbu	r3,0(r2)
  80ea14:	28c7883a 	add	r3,r5,r3
  80ea18:	30c7c83a 	sub	r3,r6,r3
  80ea1c:	1800dc1e 	bne	r3,zero,80ed90 <__umoddi3+0x558>
  80ea20:	002d883a 	mov	r22,zero
  80ea24:	982ed43a 	srli	r23,r19,16
  80ea28:	a809883a 	mov	r4,r21
  80ea2c:	9cbfffcc 	andi	r18,r19,65535
  80ea30:	b80b883a 	mov	r5,r23
  80ea34:	08101000 	call	810100 <__udivsi3>
  80ea38:	100b883a 	mov	r5,r2
  80ea3c:	9009883a 	mov	r4,r18
  80ea40:	0802c140 	call	802c14 <__mulsi3>
  80ea44:	a809883a 	mov	r4,r21
  80ea48:	b80b883a 	mov	r5,r23
  80ea4c:	1023883a 	mov	r17,r2
  80ea50:	08101080 	call	810108 <__umodsi3>
  80ea54:	1004943a 	slli	r2,r2,16
  80ea58:	8006d43a 	srli	r3,r16,16
  80ea5c:	10c4b03a 	or	r2,r2,r3
  80ea60:	1440032e 	bgeu	r2,r17,80ea70 <__umoddi3+0x238>
  80ea64:	14c5883a 	add	r2,r2,r19
  80ea68:	14c00136 	bltu	r2,r19,80ea70 <__umoddi3+0x238>
  80ea6c:	14410236 	bltu	r2,r17,80ee78 <__umoddi3+0x640>
  80ea70:	1463c83a 	sub	r17,r2,r17
  80ea74:	8809883a 	mov	r4,r17
  80ea78:	b80b883a 	mov	r5,r23
  80ea7c:	08101000 	call	810100 <__udivsi3>
  80ea80:	9009883a 	mov	r4,r18
  80ea84:	100b883a 	mov	r5,r2
  80ea88:	0802c140 	call	802c14 <__mulsi3>
  80ea8c:	8809883a 	mov	r4,r17
  80ea90:	b80b883a 	mov	r5,r23
  80ea94:	102b883a 	mov	r21,r2
  80ea98:	08101080 	call	810108 <__umodsi3>
  80ea9c:	1004943a 	slli	r2,r2,16
  80eaa0:	80ffffcc 	andi	r3,r16,65535
  80eaa4:	10c4b03a 	or	r2,r2,r3
  80eaa8:	1540042e 	bgeu	r2,r21,80eabc <__umoddi3+0x284>
  80eaac:	14c5883a 	add	r2,r2,r19
  80eab0:	14c00236 	bltu	r2,r19,80eabc <__umoddi3+0x284>
  80eab4:	1540012e 	bgeu	r2,r21,80eabc <__umoddi3+0x284>
  80eab8:	14c5883a 	add	r2,r2,r19
  80eabc:	1545c83a 	sub	r2,r2,r21
  80eac0:	1584d83a 	srl	r2,r2,r22
  80eac4:	0013883a 	mov	r9,zero
  80eac8:	d8800415 	stw	r2,16(sp)
  80eacc:	d8c00417 	ldw	r3,16(sp)
  80ead0:	0005883a 	mov	r2,zero
  80ead4:	d8800515 	stw	r2,20(sp)
  80ead8:	1811883a 	mov	r8,r3
  80eadc:	003f9d06 	br	80e954 <__umoddi3+0x11c>
  80eae0:	00804034 	movhi	r2,256
  80eae4:	10bfffc4 	addi	r2,r2,-1
  80eae8:	14c0c636 	bltu	r2,r19,80ee04 <__umoddi3+0x5cc>
  80eaec:	01400404 	movi	r5,16
  80eaf0:	2805883a 	mov	r2,r5
  80eaf4:	003f6c06 	br	80e8a8 <__umoddi3+0x70>
  80eaf8:	01000044 	movi	r4,1
  80eafc:	000b883a 	mov	r5,zero
  80eb00:	08101000 	call	810100 <__udivsi3>
  80eb04:	1027883a 	mov	r19,r2
  80eb08:	00bfffd4 	movui	r2,65535
  80eb0c:	14fff436 	bltu	r2,r19,80eae0 <__umoddi3+0x2a8>
  80eb10:	003f6106 	br	80e898 <__umoddi3+0x60>
  80eb14:	00804034 	movhi	r2,256
  80eb18:	10bfffc4 	addi	r2,r2,-1
  80eb1c:	1200c536 	bltu	r2,r8,80ee34 <__umoddi3+0x5fc>
  80eb20:	01400404 	movi	r5,16
  80eb24:	2805883a 	mov	r2,r5
  80eb28:	003fb406 	br	80e9fc <__umoddi3+0x1c4>
  80eb2c:	00804034 	movhi	r2,256
  80eb30:	10bfffc4 	addi	r2,r2,-1
  80eb34:	11c0c236 	bltu	r2,r7,80ee40 <__umoddi3+0x608>
  80eb38:	01400404 	movi	r5,16
  80eb3c:	2805883a 	mov	r2,r5
  80eb40:	003f9806 	br	80e9a4 <__umoddi3+0x16c>
  80eb44:	84c9c83a 	sub	r4,r16,r19
  80eb48:	8105803a 	cmpltu	r2,r16,r4
  80eb4c:	a987c83a 	sub	r3,r21,r6
  80eb50:	18abc83a 	sub	r21,r3,r2
  80eb54:	2021883a 	mov	r16,r4
  80eb58:	003f9d06 	br	80e9d0 <__umoddi3+0x198>
  80eb5c:	9ca6983a 	sll	r19,r19,r18
  80eb60:	3485c83a 	sub	r2,r6,r18
  80eb64:	a8a2d83a 	srl	r17,r21,r2
  80eb68:	982ed43a 	srli	r23,r19,16
  80eb6c:	ac86983a 	sll	r3,r21,r18
  80eb70:	8084d83a 	srl	r2,r16,r2
  80eb74:	8809883a 	mov	r4,r17
  80eb78:	b80b883a 	mov	r5,r23
  80eb7c:	18b8b03a 	or	fp,r3,r2
  80eb80:	9d3fffcc 	andi	r20,r19,65535
  80eb84:	08101000 	call	810100 <__udivsi3>
  80eb88:	100b883a 	mov	r5,r2
  80eb8c:	a009883a 	mov	r4,r20
  80eb90:	0802c140 	call	802c14 <__mulsi3>
  80eb94:	8809883a 	mov	r4,r17
  80eb98:	b80b883a 	mov	r5,r23
  80eb9c:	102b883a 	mov	r21,r2
  80eba0:	08101080 	call	810108 <__umodsi3>
  80eba4:	1004943a 	slli	r2,r2,16
  80eba8:	e006d43a 	srli	r3,fp,16
  80ebac:	902d883a 	mov	r22,r18
  80ebb0:	10c4b03a 	or	r2,r2,r3
  80ebb4:	1540022e 	bgeu	r2,r21,80ebc0 <__umoddi3+0x388>
  80ebb8:	14c5883a 	add	r2,r2,r19
  80ebbc:	14c0ab2e 	bgeu	r2,r19,80ee6c <__umoddi3+0x634>
  80ebc0:	1563c83a 	sub	r17,r2,r21
  80ebc4:	8809883a 	mov	r4,r17
  80ebc8:	b80b883a 	mov	r5,r23
  80ebcc:	08101000 	call	810100 <__udivsi3>
  80ebd0:	100b883a 	mov	r5,r2
  80ebd4:	a009883a 	mov	r4,r20
  80ebd8:	0802c140 	call	802c14 <__mulsi3>
  80ebdc:	8809883a 	mov	r4,r17
  80ebe0:	b80b883a 	mov	r5,r23
  80ebe4:	102b883a 	mov	r21,r2
  80ebe8:	08101080 	call	810108 <__umodsi3>
  80ebec:	1004943a 	slli	r2,r2,16
  80ebf0:	e0ffffcc 	andi	r3,fp,65535
  80ebf4:	10c4b03a 	or	r2,r2,r3
  80ebf8:	1540042e 	bgeu	r2,r21,80ec0c <__umoddi3+0x3d4>
  80ebfc:	14c5883a 	add	r2,r2,r19
  80ec00:	14c00236 	bltu	r2,r19,80ec0c <__umoddi3+0x3d4>
  80ec04:	1540012e 	bgeu	r2,r21,80ec0c <__umoddi3+0x3d4>
  80ec08:	14c5883a 	add	r2,r2,r19
  80ec0c:	84a0983a 	sll	r16,r16,r18
  80ec10:	156bc83a 	sub	r21,r2,r21
  80ec14:	003f3106 	br	80e8dc <__umoddi3+0xa4>
  80ec18:	3c8fc83a 	sub	r7,r7,r18
  80ec1c:	3486983a 	sll	r3,r6,r18
  80ec20:	99c4d83a 	srl	r2,r19,r7
  80ec24:	a9e2d83a 	srl	r17,r21,r7
  80ec28:	ac8c983a 	sll	r6,r21,r18
  80ec2c:	18acb03a 	or	r22,r3,r2
  80ec30:	b02ed43a 	srli	r23,r22,16
  80ec34:	81c4d83a 	srl	r2,r16,r7
  80ec38:	8809883a 	mov	r4,r17
  80ec3c:	b80b883a 	mov	r5,r23
  80ec40:	308cb03a 	or	r6,r6,r2
  80ec44:	d9c00315 	stw	r7,12(sp)
  80ec48:	d9800215 	stw	r6,8(sp)
  80ec4c:	b53fffcc 	andi	r20,r22,65535
  80ec50:	08101000 	call	810100 <__udivsi3>
  80ec54:	100b883a 	mov	r5,r2
  80ec58:	a009883a 	mov	r4,r20
  80ec5c:	1039883a 	mov	fp,r2
  80ec60:	0802c140 	call	802c14 <__mulsi3>
  80ec64:	8809883a 	mov	r4,r17
  80ec68:	b80b883a 	mov	r5,r23
  80ec6c:	102b883a 	mov	r21,r2
  80ec70:	08101080 	call	810108 <__umodsi3>
  80ec74:	d9000217 	ldw	r4,8(sp)
  80ec78:	1004943a 	slli	r2,r2,16
  80ec7c:	9ca6983a 	sll	r19,r19,r18
  80ec80:	2006d43a 	srli	r3,r4,16
  80ec84:	84a0983a 	sll	r16,r16,r18
  80ec88:	dcc00015 	stw	r19,0(sp)
  80ec8c:	10c4b03a 	or	r2,r2,r3
  80ec90:	dc000115 	stw	r16,4(sp)
  80ec94:	1540032e 	bgeu	r2,r21,80eca4 <__umoddi3+0x46c>
  80ec98:	1585883a 	add	r2,r2,r22
  80ec9c:	e73fffc4 	addi	fp,fp,-1
  80eca0:	15806e2e 	bgeu	r2,r22,80ee5c <__umoddi3+0x624>
  80eca4:	1563c83a 	sub	r17,r2,r21
  80eca8:	8809883a 	mov	r4,r17
  80ecac:	b80b883a 	mov	r5,r23
  80ecb0:	08101000 	call	810100 <__udivsi3>
  80ecb4:	100b883a 	mov	r5,r2
  80ecb8:	a009883a 	mov	r4,r20
  80ecbc:	1021883a 	mov	r16,r2
  80ecc0:	0802c140 	call	802c14 <__mulsi3>
  80ecc4:	b80b883a 	mov	r5,r23
  80ecc8:	8809883a 	mov	r4,r17
  80eccc:	1029883a 	mov	r20,r2
  80ecd0:	08101080 	call	810108 <__umodsi3>
  80ecd4:	d9400217 	ldw	r5,8(sp)
  80ecd8:	1004943a 	slli	r2,r2,16
  80ecdc:	28ffffcc 	andi	r3,r5,65535
  80ece0:	10c4b03a 	or	r2,r2,r3
  80ece4:	1500032e 	bgeu	r2,r20,80ecf4 <__umoddi3+0x4bc>
  80ece8:	1585883a 	add	r2,r2,r22
  80ecec:	843fffc4 	addi	r16,r16,-1
  80ecf0:	1580562e 	bgeu	r2,r22,80ee4c <__umoddi3+0x614>
  80ecf4:	d9800017 	ldw	r6,0(sp)
  80ecf8:	e022943a 	slli	r17,fp,16
  80ecfc:	302ed43a 	srli	r23,r6,16
  80ed00:	8462b03a 	or	r17,r16,r17
  80ed04:	34ffffcc 	andi	r19,r6,65535
  80ed08:	882ad43a 	srli	r21,r17,16
  80ed0c:	8c7fffcc 	andi	r17,r17,65535
  80ed10:	8809883a 	mov	r4,r17
  80ed14:	980b883a 	mov	r5,r19
  80ed18:	1521c83a 	sub	r16,r2,r20
  80ed1c:	0802c140 	call	802c14 <__mulsi3>
  80ed20:	8809883a 	mov	r4,r17
  80ed24:	b80b883a 	mov	r5,r23
  80ed28:	1029883a 	mov	r20,r2
  80ed2c:	0802c140 	call	802c14 <__mulsi3>
  80ed30:	980b883a 	mov	r5,r19
  80ed34:	a809883a 	mov	r4,r21
  80ed38:	1023883a 	mov	r17,r2
  80ed3c:	0802c140 	call	802c14 <__mulsi3>
  80ed40:	a809883a 	mov	r4,r21
  80ed44:	b80b883a 	mov	r5,r23
  80ed48:	1027883a 	mov	r19,r2
  80ed4c:	0802c140 	call	802c14 <__mulsi3>
  80ed50:	100b883a 	mov	r5,r2
  80ed54:	a004d43a 	srli	r2,r20,16
  80ed58:	8ce3883a 	add	r17,r17,r19
  80ed5c:	1449883a 	add	r4,r2,r17
  80ed60:	24c0022e 	bgeu	r4,r19,80ed6c <__umoddi3+0x534>
  80ed64:	00800074 	movhi	r2,1
  80ed68:	288b883a 	add	r5,r5,r2
  80ed6c:	2004d43a 	srli	r2,r4,16
  80ed70:	2008943a 	slli	r4,r4,16
  80ed74:	a0ffffcc 	andi	r3,r20,65535
  80ed78:	288d883a 	add	r6,r5,r2
  80ed7c:	20c9883a 	add	r4,r4,r3
  80ed80:	81800b36 	bltu	r16,r6,80edb0 <__umoddi3+0x578>
  80ed84:	81804026 	beq	r16,r6,80ee88 <__umoddi3+0x650>
  80ed88:	818dc83a 	sub	r6,r16,r6
  80ed8c:	00000f06 	br	80edcc <__umoddi3+0x594>
  80ed90:	30c5c83a 	sub	r2,r6,r3
  80ed94:	182d883a 	mov	r22,r3
  80ed98:	8084d83a 	srl	r2,r16,r2
  80ed9c:	a8c6983a 	sll	r3,r21,r3
  80eda0:	9da6983a 	sll	r19,r19,r22
  80eda4:	85a0983a 	sll	r16,r16,r22
  80eda8:	18aab03a 	or	r21,r3,r2
  80edac:	003f1d06 	br	80ea24 <__umoddi3+0x1ec>
  80edb0:	d8c00017 	ldw	r3,0(sp)
  80edb4:	20c5c83a 	sub	r2,r4,r3
  80edb8:	2089803a 	cmpltu	r4,r4,r2
  80edbc:	3587c83a 	sub	r3,r6,r22
  80edc0:	1907c83a 	sub	r3,r3,r4
  80edc4:	80cdc83a 	sub	r6,r16,r3
  80edc8:	1009883a 	mov	r4,r2
  80edcc:	d9400117 	ldw	r5,4(sp)
  80edd0:	2905c83a 	sub	r2,r5,r4
  80edd4:	2887803a 	cmpltu	r3,r5,r2
  80edd8:	30c7c83a 	sub	r3,r6,r3
  80eddc:	d9800317 	ldw	r6,12(sp)
  80ede0:	1484d83a 	srl	r2,r2,r18
  80ede4:	1988983a 	sll	r4,r3,r6
  80ede8:	1c86d83a 	srl	r3,r3,r18
  80edec:	2088b03a 	or	r4,r4,r2
  80edf0:	2011883a 	mov	r8,r4
  80edf4:	1813883a 	mov	r9,r3
  80edf8:	d9000415 	stw	r4,16(sp)
  80edfc:	d8c00515 	stw	r3,20(sp)
  80ee00:	003ed406 	br	80e954 <__umoddi3+0x11c>
  80ee04:	01400604 	movi	r5,24
  80ee08:	2805883a 	mov	r2,r5
  80ee0c:	003ea606 	br	80e8a8 <__umoddi3+0x70>
  80ee10:	01400204 	movi	r5,8
  80ee14:	2805883a 	mov	r2,r5
  80ee18:	003ea306 	br	80e8a8 <__umoddi3+0x70>
  80ee1c:	01400204 	movi	r5,8
  80ee20:	2805883a 	mov	r2,r5
  80ee24:	003edf06 	br	80e9a4 <__umoddi3+0x16c>
  80ee28:	01400204 	movi	r5,8
  80ee2c:	2805883a 	mov	r2,r5
  80ee30:	003ef206 	br	80e9fc <__umoddi3+0x1c4>
  80ee34:	01400604 	movi	r5,24
  80ee38:	2805883a 	mov	r2,r5
  80ee3c:	003eef06 	br	80e9fc <__umoddi3+0x1c4>
  80ee40:	01400604 	movi	r5,24
  80ee44:	2805883a 	mov	r2,r5
  80ee48:	003ed606 	br	80e9a4 <__umoddi3+0x16c>
  80ee4c:	153fa92e 	bgeu	r2,r20,80ecf4 <__umoddi3+0x4bc>
  80ee50:	843fffc4 	addi	r16,r16,-1
  80ee54:	1585883a 	add	r2,r2,r22
  80ee58:	003fa606 	br	80ecf4 <__umoddi3+0x4bc>
  80ee5c:	157f912e 	bgeu	r2,r21,80eca4 <__umoddi3+0x46c>
  80ee60:	e73fffc4 	addi	fp,fp,-1
  80ee64:	1585883a 	add	r2,r2,r22
  80ee68:	003f8e06 	br	80eca4 <__umoddi3+0x46c>
  80ee6c:	157f542e 	bgeu	r2,r21,80ebc0 <__umoddi3+0x388>
  80ee70:	14c5883a 	add	r2,r2,r19
  80ee74:	003f5206 	br	80ebc0 <__umoddi3+0x388>
  80ee78:	14c5883a 	add	r2,r2,r19
  80ee7c:	003efc06 	br	80ea70 <__umoddi3+0x238>
  80ee80:	14c5883a 	add	r2,r2,r19
  80ee84:	003ea606 	br	80e920 <__umoddi3+0xe8>
  80ee88:	d8800117 	ldw	r2,4(sp)
  80ee8c:	113fc836 	bltu	r2,r4,80edb0 <__umoddi3+0x578>
  80ee90:	000d883a 	mov	r6,zero
  80ee94:	003fcd06 	br	80edcc <__umoddi3+0x594>

0080ee98 <_fpadd_parts>:
  80ee98:	defff804 	addi	sp,sp,-32
  80ee9c:	dcc00315 	stw	r19,12(sp)
  80eea0:	2027883a 	mov	r19,r4
  80eea4:	21000017 	ldw	r4,0(r4)
  80eea8:	00c00044 	movi	r3,1
  80eeac:	dd400515 	stw	r21,20(sp)
  80eeb0:	dd000415 	stw	r20,16(sp)
  80eeb4:	ddc00715 	stw	r23,28(sp)
  80eeb8:	dd800615 	stw	r22,24(sp)
  80eebc:	dc800215 	stw	r18,8(sp)
  80eec0:	dc400115 	stw	r17,4(sp)
  80eec4:	dc000015 	stw	r16,0(sp)
  80eec8:	282b883a 	mov	r21,r5
  80eecc:	3029883a 	mov	r20,r6
  80eed0:	1900632e 	bgeu	r3,r4,80f060 <_fpadd_parts+0x1c8>
  80eed4:	28800017 	ldw	r2,0(r5)
  80eed8:	1880812e 	bgeu	r3,r2,80f0e0 <_fpadd_parts+0x248>
  80eedc:	00c00104 	movi	r3,4
  80eee0:	20c0dc26 	beq	r4,r3,80f254 <_fpadd_parts+0x3bc>
  80eee4:	10c07e26 	beq	r2,r3,80f0e0 <_fpadd_parts+0x248>
  80eee8:	00c00084 	movi	r3,2
  80eeec:	10c06726 	beq	r2,r3,80f08c <_fpadd_parts+0x1f4>
  80eef0:	20c07b26 	beq	r4,r3,80f0e0 <_fpadd_parts+0x248>
  80eef4:	9dc00217 	ldw	r23,8(r19)
  80eef8:	28c00217 	ldw	r3,8(r5)
  80eefc:	9c400317 	ldw	r17,12(r19)
  80ef00:	2bc00317 	ldw	r15,12(r5)
  80ef04:	b8cdc83a 	sub	r6,r23,r3
  80ef08:	9c800417 	ldw	r18,16(r19)
  80ef0c:	2c000417 	ldw	r16,16(r5)
  80ef10:	3009883a 	mov	r4,r6
  80ef14:	30009716 	blt	r6,zero,80f174 <_fpadd_parts+0x2dc>
  80ef18:	00800fc4 	movi	r2,63
  80ef1c:	11806b16 	blt	r2,r6,80f0cc <_fpadd_parts+0x234>
  80ef20:	0100a40e 	bge	zero,r4,80f1b4 <_fpadd_parts+0x31c>
  80ef24:	35bff804 	addi	r22,r6,-32
  80ef28:	b000bc16 	blt	r22,zero,80f21c <_fpadd_parts+0x384>
  80ef2c:	8596d83a 	srl	r11,r16,r22
  80ef30:	0019883a 	mov	r12,zero
  80ef34:	0013883a 	mov	r9,zero
  80ef38:	01000044 	movi	r4,1
  80ef3c:	0015883a 	mov	r10,zero
  80ef40:	b000be16 	blt	r22,zero,80f23c <_fpadd_parts+0x3a4>
  80ef44:	2590983a 	sll	r8,r4,r22
  80ef48:	000f883a 	mov	r7,zero
  80ef4c:	00bfffc4 	movi	r2,-1
  80ef50:	3889883a 	add	r4,r7,r2
  80ef54:	408b883a 	add	r5,r8,r2
  80ef58:	21cd803a 	cmpltu	r6,r4,r7
  80ef5c:	314b883a 	add	r5,r6,r5
  80ef60:	7904703a 	and	r2,r15,r4
  80ef64:	8146703a 	and	r3,r16,r5
  80ef68:	10c4b03a 	or	r2,r2,r3
  80ef6c:	10000226 	beq	r2,zero,80ef78 <_fpadd_parts+0xe0>
  80ef70:	02400044 	movi	r9,1
  80ef74:	0015883a 	mov	r10,zero
  80ef78:	5a5eb03a 	or	r15,r11,r9
  80ef7c:	62a0b03a 	or	r16,r12,r10
  80ef80:	99400117 	ldw	r5,4(r19)
  80ef84:	a8800117 	ldw	r2,4(r21)
  80ef88:	28806e26 	beq	r5,r2,80f144 <_fpadd_parts+0x2ac>
  80ef8c:	28006626 	beq	r5,zero,80f128 <_fpadd_parts+0x290>
  80ef90:	7c45c83a 	sub	r2,r15,r17
  80ef94:	7889803a 	cmpltu	r4,r15,r2
  80ef98:	8487c83a 	sub	r3,r16,r18
  80ef9c:	1909c83a 	sub	r4,r3,r4
  80efa0:	100d883a 	mov	r6,r2
  80efa4:	200f883a 	mov	r7,r4
  80efa8:	38007716 	blt	r7,zero,80f188 <_fpadd_parts+0x2f0>
  80efac:	a5c00215 	stw	r23,8(r20)
  80efb0:	a1c00415 	stw	r7,16(r20)
  80efb4:	a0000115 	stw	zero,4(r20)
  80efb8:	a1800315 	stw	r6,12(r20)
  80efbc:	a2000317 	ldw	r8,12(r20)
  80efc0:	a2400417 	ldw	r9,16(r20)
  80efc4:	00bfffc4 	movi	r2,-1
  80efc8:	408b883a 	add	r5,r8,r2
  80efcc:	2a09803a 	cmpltu	r4,r5,r8
  80efd0:	488d883a 	add	r6,r9,r2
  80efd4:	01c40034 	movhi	r7,4096
  80efd8:	39ffffc4 	addi	r7,r7,-1
  80efdc:	218d883a 	add	r6,r4,r6
  80efe0:	39801736 	bltu	r7,r6,80f040 <_fpadd_parts+0x1a8>
  80efe4:	31c06526 	beq	r6,r7,80f17c <_fpadd_parts+0x2e4>
  80efe8:	a3000217 	ldw	r12,8(r20)
  80efec:	4209883a 	add	r4,r8,r8
  80eff0:	00bfffc4 	movi	r2,-1
  80eff4:	220f803a 	cmpltu	r7,r4,r8
  80eff8:	4a4b883a 	add	r5,r9,r9
  80effc:	394f883a 	add	r7,r7,r5
  80f000:	2095883a 	add	r10,r4,r2
  80f004:	3897883a 	add	r11,r7,r2
  80f008:	510d803a 	cmpltu	r6,r10,r4
  80f00c:	6099883a 	add	r12,r12,r2
  80f010:	32d7883a 	add	r11,r6,r11
  80f014:	00840034 	movhi	r2,4096
  80f018:	10bfffc4 	addi	r2,r2,-1
  80f01c:	2011883a 	mov	r8,r4
  80f020:	3813883a 	mov	r9,r7
  80f024:	a1000315 	stw	r4,12(r20)
  80f028:	a1c00415 	stw	r7,16(r20)
  80f02c:	a3000215 	stw	r12,8(r20)
  80f030:	12c00336 	bltu	r2,r11,80f040 <_fpadd_parts+0x1a8>
  80f034:	58bfed1e 	bne	r11,r2,80efec <_fpadd_parts+0x154>
  80f038:	00bfff84 	movi	r2,-2
  80f03c:	12bfeb2e 	bgeu	r2,r10,80efec <_fpadd_parts+0x154>
  80f040:	a2800417 	ldw	r10,16(r20)
  80f044:	008000c4 	movi	r2,3
  80f048:	00c80034 	movhi	r3,8192
  80f04c:	18ffffc4 	addi	r3,r3,-1
  80f050:	a2400317 	ldw	r9,12(r20)
  80f054:	a0800015 	stw	r2,0(r20)
  80f058:	1a802336 	bltu	r3,r10,80f0e8 <_fpadd_parts+0x250>
  80f05c:	a027883a 	mov	r19,r20
  80f060:	9805883a 	mov	r2,r19
  80f064:	ddc00717 	ldw	r23,28(sp)
  80f068:	dd800617 	ldw	r22,24(sp)
  80f06c:	dd400517 	ldw	r21,20(sp)
  80f070:	dd000417 	ldw	r20,16(sp)
  80f074:	dcc00317 	ldw	r19,12(sp)
  80f078:	dc800217 	ldw	r18,8(sp)
  80f07c:	dc400117 	ldw	r17,4(sp)
  80f080:	dc000017 	ldw	r16,0(sp)
  80f084:	dec00804 	addi	sp,sp,32
  80f088:	f800283a 	ret
  80f08c:	20fff41e 	bne	r4,r3,80f060 <_fpadd_parts+0x1c8>
  80f090:	31000015 	stw	r4,0(r6)
  80f094:	98800117 	ldw	r2,4(r19)
  80f098:	30800115 	stw	r2,4(r6)
  80f09c:	98c00217 	ldw	r3,8(r19)
  80f0a0:	30c00215 	stw	r3,8(r6)
  80f0a4:	98800317 	ldw	r2,12(r19)
  80f0a8:	30800315 	stw	r2,12(r6)
  80f0ac:	98c00417 	ldw	r3,16(r19)
  80f0b0:	30c00415 	stw	r3,16(r6)
  80f0b4:	98800117 	ldw	r2,4(r19)
  80f0b8:	28c00117 	ldw	r3,4(r5)
  80f0bc:	3027883a 	mov	r19,r6
  80f0c0:	10c4703a 	and	r2,r2,r3
  80f0c4:	30800115 	stw	r2,4(r6)
  80f0c8:	003fe506 	br	80f060 <_fpadd_parts+0x1c8>
  80f0cc:	1dc02616 	blt	r3,r23,80f168 <_fpadd_parts+0x2d0>
  80f0d0:	0023883a 	mov	r17,zero
  80f0d4:	182f883a 	mov	r23,r3
  80f0d8:	0025883a 	mov	r18,zero
  80f0dc:	003fa806 	br	80ef80 <_fpadd_parts+0xe8>
  80f0e0:	a827883a 	mov	r19,r21
  80f0e4:	003fde06 	br	80f060 <_fpadd_parts+0x1c8>
  80f0e8:	01800044 	movi	r6,1
  80f0ec:	500497fa 	slli	r2,r10,31
  80f0f0:	4808d07a 	srli	r4,r9,1
  80f0f4:	518ad83a 	srl	r5,r10,r6
  80f0f8:	a2000217 	ldw	r8,8(r20)
  80f0fc:	1108b03a 	or	r4,r2,r4
  80f100:	0007883a 	mov	r3,zero
  80f104:	4984703a 	and	r2,r9,r6
  80f108:	208cb03a 	or	r6,r4,r2
  80f10c:	28ceb03a 	or	r7,r5,r3
  80f110:	42000044 	addi	r8,r8,1
  80f114:	a027883a 	mov	r19,r20
  80f118:	a1c00415 	stw	r7,16(r20)
  80f11c:	a2000215 	stw	r8,8(r20)
  80f120:	a1800315 	stw	r6,12(r20)
  80f124:	003fce06 	br	80f060 <_fpadd_parts+0x1c8>
  80f128:	8bc5c83a 	sub	r2,r17,r15
  80f12c:	8889803a 	cmpltu	r4,r17,r2
  80f130:	9407c83a 	sub	r3,r18,r16
  80f134:	1909c83a 	sub	r4,r3,r4
  80f138:	100d883a 	mov	r6,r2
  80f13c:	200f883a 	mov	r7,r4
  80f140:	003f9906 	br	80efa8 <_fpadd_parts+0x110>
  80f144:	7c45883a 	add	r2,r15,r17
  80f148:	13c9803a 	cmpltu	r4,r2,r15
  80f14c:	8487883a 	add	r3,r16,r18
  80f150:	20c9883a 	add	r4,r4,r3
  80f154:	a1400115 	stw	r5,4(r20)
  80f158:	a5c00215 	stw	r23,8(r20)
  80f15c:	a0800315 	stw	r2,12(r20)
  80f160:	a1000415 	stw	r4,16(r20)
  80f164:	003fb606 	br	80f040 <_fpadd_parts+0x1a8>
  80f168:	001f883a 	mov	r15,zero
  80f16c:	0021883a 	mov	r16,zero
  80f170:	003f8306 	br	80ef80 <_fpadd_parts+0xe8>
  80f174:	018dc83a 	sub	r6,zero,r6
  80f178:	003f6706 	br	80ef18 <_fpadd_parts+0x80>
  80f17c:	00bfff84 	movi	r2,-2
  80f180:	117faf36 	bltu	r2,r5,80f040 <_fpadd_parts+0x1a8>
  80f184:	003f9806 	br	80efe8 <_fpadd_parts+0x150>
  80f188:	0005883a 	mov	r2,zero
  80f18c:	1189c83a 	sub	r4,r2,r6
  80f190:	1105803a 	cmpltu	r2,r2,r4
  80f194:	01cbc83a 	sub	r5,zero,r7
  80f198:	2885c83a 	sub	r2,r5,r2
  80f19c:	01800044 	movi	r6,1
  80f1a0:	a1800115 	stw	r6,4(r20)
  80f1a4:	a5c00215 	stw	r23,8(r20)
  80f1a8:	a1000315 	stw	r4,12(r20)
  80f1ac:	a0800415 	stw	r2,16(r20)
  80f1b0:	003f8206 	br	80efbc <_fpadd_parts+0x124>
  80f1b4:	203f7226 	beq	r4,zero,80ef80 <_fpadd_parts+0xe8>
  80f1b8:	35bff804 	addi	r22,r6,-32
  80f1bc:	b9af883a 	add	r23,r23,r6
  80f1c0:	b0003116 	blt	r22,zero,80f288 <_fpadd_parts+0x3f0>
  80f1c4:	959ad83a 	srl	r13,r18,r22
  80f1c8:	001d883a 	mov	r14,zero
  80f1cc:	000f883a 	mov	r7,zero
  80f1d0:	01000044 	movi	r4,1
  80f1d4:	0011883a 	mov	r8,zero
  80f1d8:	b0002516 	blt	r22,zero,80f270 <_fpadd_parts+0x3d8>
  80f1dc:	2594983a 	sll	r10,r4,r22
  80f1e0:	0013883a 	mov	r9,zero
  80f1e4:	00bfffc4 	movi	r2,-1
  80f1e8:	4889883a 	add	r4,r9,r2
  80f1ec:	508b883a 	add	r5,r10,r2
  80f1f0:	224d803a 	cmpltu	r6,r4,r9
  80f1f4:	314b883a 	add	r5,r6,r5
  80f1f8:	8904703a 	and	r2,r17,r4
  80f1fc:	9146703a 	and	r3,r18,r5
  80f200:	10c4b03a 	or	r2,r2,r3
  80f204:	10000226 	beq	r2,zero,80f210 <_fpadd_parts+0x378>
  80f208:	01c00044 	movi	r7,1
  80f20c:	0011883a 	mov	r8,zero
  80f210:	69e2b03a 	or	r17,r13,r7
  80f214:	7224b03a 	or	r18,r14,r8
  80f218:	003f5906 	br	80ef80 <_fpadd_parts+0xe8>
  80f21c:	8407883a 	add	r3,r16,r16
  80f220:	008007c4 	movi	r2,31
  80f224:	1185c83a 	sub	r2,r2,r6
  80f228:	1886983a 	sll	r3,r3,r2
  80f22c:	7996d83a 	srl	r11,r15,r6
  80f230:	8198d83a 	srl	r12,r16,r6
  80f234:	1ad6b03a 	or	r11,r3,r11
  80f238:	003f3e06 	br	80ef34 <_fpadd_parts+0x9c>
  80f23c:	2006d07a 	srli	r3,r4,1
  80f240:	008007c4 	movi	r2,31
  80f244:	1185c83a 	sub	r2,r2,r6
  80f248:	1890d83a 	srl	r8,r3,r2
  80f24c:	218e983a 	sll	r7,r4,r6
  80f250:	003f3e06 	br	80ef4c <_fpadd_parts+0xb4>
  80f254:	113f821e 	bne	r2,r4,80f060 <_fpadd_parts+0x1c8>
  80f258:	28c00117 	ldw	r3,4(r5)
  80f25c:	98800117 	ldw	r2,4(r19)
  80f260:	10ff7f26 	beq	r2,r3,80f060 <_fpadd_parts+0x1c8>
  80f264:	04c02074 	movhi	r19,129
  80f268:	9cc2bd04 	addi	r19,r19,2804
  80f26c:	003f7c06 	br	80f060 <_fpadd_parts+0x1c8>
  80f270:	2006d07a 	srli	r3,r4,1
  80f274:	008007c4 	movi	r2,31
  80f278:	1185c83a 	sub	r2,r2,r6
  80f27c:	1894d83a 	srl	r10,r3,r2
  80f280:	2192983a 	sll	r9,r4,r6
  80f284:	003fd706 	br	80f1e4 <_fpadd_parts+0x34c>
  80f288:	9487883a 	add	r3,r18,r18
  80f28c:	008007c4 	movi	r2,31
  80f290:	1185c83a 	sub	r2,r2,r6
  80f294:	1886983a 	sll	r3,r3,r2
  80f298:	899ad83a 	srl	r13,r17,r6
  80f29c:	919cd83a 	srl	r14,r18,r6
  80f2a0:	1b5ab03a 	or	r13,r3,r13
  80f2a4:	003fc906 	br	80f1cc <_fpadd_parts+0x334>

0080f2a8 <__subdf3>:
  80f2a8:	deffea04 	addi	sp,sp,-88
  80f2ac:	dcc01415 	stw	r19,80(sp)
  80f2b0:	dcc00404 	addi	r19,sp,16
  80f2b4:	2011883a 	mov	r8,r4
  80f2b8:	2813883a 	mov	r9,r5
  80f2bc:	dc401315 	stw	r17,76(sp)
  80f2c0:	d809883a 	mov	r4,sp
  80f2c4:	980b883a 	mov	r5,r19
  80f2c8:	dc400904 	addi	r17,sp,36
  80f2cc:	dfc01515 	stw	ra,84(sp)
  80f2d0:	da400115 	stw	r9,4(sp)
  80f2d4:	d9c00315 	stw	r7,12(sp)
  80f2d8:	da000015 	stw	r8,0(sp)
  80f2dc:	d9800215 	stw	r6,8(sp)
  80f2e0:	08105c80 	call	8105c8 <__unpack_d>
  80f2e4:	d9000204 	addi	r4,sp,8
  80f2e8:	880b883a 	mov	r5,r17
  80f2ec:	08105c80 	call	8105c8 <__unpack_d>
  80f2f0:	d8800a17 	ldw	r2,40(sp)
  80f2f4:	880b883a 	mov	r5,r17
  80f2f8:	9809883a 	mov	r4,r19
  80f2fc:	d9800e04 	addi	r6,sp,56
  80f300:	1080005c 	xori	r2,r2,1
  80f304:	d8800a15 	stw	r2,40(sp)
  80f308:	080ee980 	call	80ee98 <_fpadd_parts>
  80f30c:	1009883a 	mov	r4,r2
  80f310:	08102b40 	call	8102b4 <__pack_d>
  80f314:	dfc01517 	ldw	ra,84(sp)
  80f318:	dcc01417 	ldw	r19,80(sp)
  80f31c:	dc401317 	ldw	r17,76(sp)
  80f320:	dec01604 	addi	sp,sp,88
  80f324:	f800283a 	ret

0080f328 <__adddf3>:
  80f328:	deffea04 	addi	sp,sp,-88
  80f32c:	dcc01415 	stw	r19,80(sp)
  80f330:	dcc00404 	addi	r19,sp,16
  80f334:	2011883a 	mov	r8,r4
  80f338:	2813883a 	mov	r9,r5
  80f33c:	dc401315 	stw	r17,76(sp)
  80f340:	d809883a 	mov	r4,sp
  80f344:	980b883a 	mov	r5,r19
  80f348:	dc400904 	addi	r17,sp,36
  80f34c:	dfc01515 	stw	ra,84(sp)
  80f350:	da400115 	stw	r9,4(sp)
  80f354:	d9c00315 	stw	r7,12(sp)
  80f358:	da000015 	stw	r8,0(sp)
  80f35c:	d9800215 	stw	r6,8(sp)
  80f360:	08105c80 	call	8105c8 <__unpack_d>
  80f364:	d9000204 	addi	r4,sp,8
  80f368:	880b883a 	mov	r5,r17
  80f36c:	08105c80 	call	8105c8 <__unpack_d>
  80f370:	d9800e04 	addi	r6,sp,56
  80f374:	9809883a 	mov	r4,r19
  80f378:	880b883a 	mov	r5,r17
  80f37c:	080ee980 	call	80ee98 <_fpadd_parts>
  80f380:	1009883a 	mov	r4,r2
  80f384:	08102b40 	call	8102b4 <__pack_d>
  80f388:	dfc01517 	ldw	ra,84(sp)
  80f38c:	dcc01417 	ldw	r19,80(sp)
  80f390:	dc401317 	ldw	r17,76(sp)
  80f394:	dec01604 	addi	sp,sp,88
  80f398:	f800283a 	ret

0080f39c <__muldf3>:
  80f39c:	deffe004 	addi	sp,sp,-128
  80f3a0:	dc401815 	stw	r17,96(sp)
  80f3a4:	dc400404 	addi	r17,sp,16
  80f3a8:	2011883a 	mov	r8,r4
  80f3ac:	2813883a 	mov	r9,r5
  80f3b0:	dc001715 	stw	r16,92(sp)
  80f3b4:	d809883a 	mov	r4,sp
  80f3b8:	880b883a 	mov	r5,r17
  80f3bc:	dc000904 	addi	r16,sp,36
  80f3c0:	dfc01f15 	stw	ra,124(sp)
  80f3c4:	da400115 	stw	r9,4(sp)
  80f3c8:	d9c00315 	stw	r7,12(sp)
  80f3cc:	da000015 	stw	r8,0(sp)
  80f3d0:	d9800215 	stw	r6,8(sp)
  80f3d4:	ddc01e15 	stw	r23,120(sp)
  80f3d8:	dd801d15 	stw	r22,116(sp)
  80f3dc:	dd401c15 	stw	r21,112(sp)
  80f3e0:	dd001b15 	stw	r20,108(sp)
  80f3e4:	dcc01a15 	stw	r19,104(sp)
  80f3e8:	dc801915 	stw	r18,100(sp)
  80f3ec:	08105c80 	call	8105c8 <__unpack_d>
  80f3f0:	d9000204 	addi	r4,sp,8
  80f3f4:	800b883a 	mov	r5,r16
  80f3f8:	08105c80 	call	8105c8 <__unpack_d>
  80f3fc:	d9000417 	ldw	r4,16(sp)
  80f400:	00800044 	movi	r2,1
  80f404:	1100102e 	bgeu	r2,r4,80f448 <__muldf3+0xac>
  80f408:	d8c00917 	ldw	r3,36(sp)
  80f40c:	10c0062e 	bgeu	r2,r3,80f428 <__muldf3+0x8c>
  80f410:	00800104 	movi	r2,4
  80f414:	20800a26 	beq	r4,r2,80f440 <__muldf3+0xa4>
  80f418:	1880cc26 	beq	r3,r2,80f74c <__muldf3+0x3b0>
  80f41c:	00800084 	movi	r2,2
  80f420:	20800926 	beq	r4,r2,80f448 <__muldf3+0xac>
  80f424:	1880191e 	bne	r3,r2,80f48c <__muldf3+0xf0>
  80f428:	d8c00a17 	ldw	r3,40(sp)
  80f42c:	d8800517 	ldw	r2,20(sp)
  80f430:	8009883a 	mov	r4,r16
  80f434:	10c4c03a 	cmpne	r2,r2,r3
  80f438:	d8800a15 	stw	r2,40(sp)
  80f43c:	00000706 	br	80f45c <__muldf3+0xc0>
  80f440:	00800084 	movi	r2,2
  80f444:	1880c326 	beq	r3,r2,80f754 <__muldf3+0x3b8>
  80f448:	d8800517 	ldw	r2,20(sp)
  80f44c:	d8c00a17 	ldw	r3,40(sp)
  80f450:	8809883a 	mov	r4,r17
  80f454:	10c4c03a 	cmpne	r2,r2,r3
  80f458:	d8800515 	stw	r2,20(sp)
  80f45c:	08102b40 	call	8102b4 <__pack_d>
  80f460:	dfc01f17 	ldw	ra,124(sp)
  80f464:	ddc01e17 	ldw	r23,120(sp)
  80f468:	dd801d17 	ldw	r22,116(sp)
  80f46c:	dd401c17 	ldw	r21,112(sp)
  80f470:	dd001b17 	ldw	r20,108(sp)
  80f474:	dcc01a17 	ldw	r19,104(sp)
  80f478:	dc801917 	ldw	r18,100(sp)
  80f47c:	dc401817 	ldw	r17,96(sp)
  80f480:	dc001717 	ldw	r16,92(sp)
  80f484:	dec02004 	addi	sp,sp,128
  80f488:	f800283a 	ret
  80f48c:	dd800717 	ldw	r22,28(sp)
  80f490:	dc800c17 	ldw	r18,48(sp)
  80f494:	002b883a 	mov	r21,zero
  80f498:	0023883a 	mov	r17,zero
  80f49c:	a80b883a 	mov	r5,r21
  80f4a0:	b00d883a 	mov	r6,r22
  80f4a4:	880f883a 	mov	r7,r17
  80f4a8:	ddc00817 	ldw	r23,32(sp)
  80f4ac:	dcc00d17 	ldw	r19,52(sp)
  80f4b0:	9009883a 	mov	r4,r18
  80f4b4:	08101100 	call	810110 <__muldi3>
  80f4b8:	001b883a 	mov	r13,zero
  80f4bc:	680f883a 	mov	r7,r13
  80f4c0:	b009883a 	mov	r4,r22
  80f4c4:	000b883a 	mov	r5,zero
  80f4c8:	980d883a 	mov	r6,r19
  80f4cc:	b82d883a 	mov	r22,r23
  80f4d0:	002f883a 	mov	r23,zero
  80f4d4:	db401615 	stw	r13,88(sp)
  80f4d8:	d8801315 	stw	r2,76(sp)
  80f4dc:	d8c01415 	stw	r3,80(sp)
  80f4e0:	dcc01515 	stw	r19,84(sp)
  80f4e4:	08101100 	call	810110 <__muldi3>
  80f4e8:	b00d883a 	mov	r6,r22
  80f4ec:	000b883a 	mov	r5,zero
  80f4f0:	9009883a 	mov	r4,r18
  80f4f4:	b80f883a 	mov	r7,r23
  80f4f8:	1021883a 	mov	r16,r2
  80f4fc:	1823883a 	mov	r17,r3
  80f500:	08101100 	call	810110 <__muldi3>
  80f504:	8085883a 	add	r2,r16,r2
  80f508:	140d803a 	cmpltu	r6,r2,r16
  80f50c:	88c7883a 	add	r3,r17,r3
  80f510:	30cd883a 	add	r6,r6,r3
  80f514:	1029883a 	mov	r20,r2
  80f518:	302b883a 	mov	r21,r6
  80f51c:	da801317 	ldw	r10,76(sp)
  80f520:	dac01417 	ldw	r11,80(sp)
  80f524:	db001517 	ldw	r12,84(sp)
  80f528:	db401617 	ldw	r13,88(sp)
  80f52c:	3440612e 	bgeu	r6,r17,80f6b4 <__muldf3+0x318>
  80f530:	0009883a 	mov	r4,zero
  80f534:	5105883a 	add	r2,r10,r4
  80f538:	128d803a 	cmpltu	r6,r2,r10
  80f53c:	5d07883a 	add	r3,r11,r20
  80f540:	30cd883a 	add	r6,r6,r3
  80f544:	0021883a 	mov	r16,zero
  80f548:	04400044 	movi	r17,1
  80f54c:	1025883a 	mov	r18,r2
  80f550:	3027883a 	mov	r19,r6
  80f554:	32c06236 	bltu	r6,r11,80f6e0 <__muldf3+0x344>
  80f558:	59807a26 	beq	r11,r6,80f744 <__muldf3+0x3a8>
  80f55c:	680b883a 	mov	r5,r13
  80f560:	b80f883a 	mov	r7,r23
  80f564:	6009883a 	mov	r4,r12
  80f568:	b00d883a 	mov	r6,r22
  80f56c:	08101100 	call	810110 <__muldi3>
  80f570:	1009883a 	mov	r4,r2
  80f574:	000f883a 	mov	r7,zero
  80f578:	1545883a 	add	r2,r2,r21
  80f57c:	1111803a 	cmpltu	r8,r2,r4
  80f580:	19c7883a 	add	r3,r3,r7
  80f584:	40c7883a 	add	r3,r8,r3
  80f588:	88cb883a 	add	r5,r17,r3
  80f58c:	d8c00617 	ldw	r3,24(sp)
  80f590:	8089883a 	add	r4,r16,r2
  80f594:	d8800b17 	ldw	r2,44(sp)
  80f598:	18c00104 	addi	r3,r3,4
  80f59c:	240d803a 	cmpltu	r6,r4,r16
  80f5a0:	10c7883a 	add	r3,r2,r3
  80f5a4:	2013883a 	mov	r9,r4
  80f5a8:	d8800a17 	ldw	r2,40(sp)
  80f5ac:	d9000517 	ldw	r4,20(sp)
  80f5b0:	314d883a 	add	r6,r6,r5
  80f5b4:	3015883a 	mov	r10,r6
  80f5b8:	2088c03a 	cmpne	r4,r4,r2
  80f5bc:	00880034 	movhi	r2,8192
  80f5c0:	10bfffc4 	addi	r2,r2,-1
  80f5c4:	d9000f15 	stw	r4,60(sp)
  80f5c8:	d8c01015 	stw	r3,64(sp)
  80f5cc:	1180162e 	bgeu	r2,r6,80f628 <__muldf3+0x28c>
  80f5d0:	1811883a 	mov	r8,r3
  80f5d4:	101f883a 	mov	r15,r2
  80f5d8:	980497fa 	slli	r2,r19,31
  80f5dc:	9016d07a 	srli	r11,r18,1
  80f5e0:	500697fa 	slli	r3,r10,31
  80f5e4:	480cd07a 	srli	r6,r9,1
  80f5e8:	500ed07a 	srli	r7,r10,1
  80f5ec:	12d6b03a 	or	r11,r2,r11
  80f5f0:	00800044 	movi	r2,1
  80f5f4:	198cb03a 	or	r6,r3,r6
  80f5f8:	4888703a 	and	r4,r9,r2
  80f5fc:	9818d07a 	srli	r12,r19,1
  80f600:	001b883a 	mov	r13,zero
  80f604:	03a00034 	movhi	r14,32768
  80f608:	3013883a 	mov	r9,r6
  80f60c:	3815883a 	mov	r10,r7
  80f610:	4091883a 	add	r8,r8,r2
  80f614:	20000226 	beq	r4,zero,80f620 <__muldf3+0x284>
  80f618:	5b64b03a 	or	r18,r11,r13
  80f61c:	63a6b03a 	or	r19,r12,r14
  80f620:	7abfed36 	bltu	r15,r10,80f5d8 <__muldf3+0x23c>
  80f624:	da001015 	stw	r8,64(sp)
  80f628:	00840034 	movhi	r2,4096
  80f62c:	10bfffc4 	addi	r2,r2,-1
  80f630:	12801436 	bltu	r2,r10,80f684 <__muldf3+0x2e8>
  80f634:	da001017 	ldw	r8,64(sp)
  80f638:	101f883a 	mov	r15,r2
  80f63c:	4a45883a 	add	r2,r9,r9
  80f640:	124d803a 	cmpltu	r6,r2,r9
  80f644:	5287883a 	add	r3,r10,r10
  80f648:	9497883a 	add	r11,r18,r18
  80f64c:	5c8f803a 	cmpltu	r7,r11,r18
  80f650:	9cd9883a 	add	r12,r19,r19
  80f654:	01000044 	movi	r4,1
  80f658:	30cd883a 	add	r6,r6,r3
  80f65c:	3b0f883a 	add	r7,r7,r12
  80f660:	423fffc4 	addi	r8,r8,-1
  80f664:	1013883a 	mov	r9,r2
  80f668:	3015883a 	mov	r10,r6
  80f66c:	111ab03a 	or	r13,r2,r4
  80f670:	98003016 	blt	r19,zero,80f734 <__muldf3+0x398>
  80f674:	5825883a 	mov	r18,r11
  80f678:	3827883a 	mov	r19,r7
  80f67c:	7abfef2e 	bgeu	r15,r10,80f63c <__muldf3+0x2a0>
  80f680:	da001015 	stw	r8,64(sp)
  80f684:	00803fc4 	movi	r2,255
  80f688:	488e703a 	and	r7,r9,r2
  80f68c:	00802004 	movi	r2,128
  80f690:	0007883a 	mov	r3,zero
  80f694:	0011883a 	mov	r8,zero
  80f698:	38801826 	beq	r7,r2,80f6fc <__muldf3+0x360>
  80f69c:	008000c4 	movi	r2,3
  80f6a0:	d9000e04 	addi	r4,sp,56
  80f6a4:	da801215 	stw	r10,72(sp)
  80f6a8:	d8800e15 	stw	r2,56(sp)
  80f6ac:	da401115 	stw	r9,68(sp)
  80f6b0:	003f6a06 	br	80f45c <__muldf3+0xc0>
  80f6b4:	89802126 	beq	r17,r6,80f73c <__muldf3+0x3a0>
  80f6b8:	0009883a 	mov	r4,zero
  80f6bc:	5105883a 	add	r2,r10,r4
  80f6c0:	128d803a 	cmpltu	r6,r2,r10
  80f6c4:	5d07883a 	add	r3,r11,r20
  80f6c8:	30cd883a 	add	r6,r6,r3
  80f6cc:	0021883a 	mov	r16,zero
  80f6d0:	0023883a 	mov	r17,zero
  80f6d4:	1025883a 	mov	r18,r2
  80f6d8:	3027883a 	mov	r19,r6
  80f6dc:	32ff9e2e 	bgeu	r6,r11,80f558 <__muldf3+0x1bc>
  80f6e0:	00800044 	movi	r2,1
  80f6e4:	8089883a 	add	r4,r16,r2
  80f6e8:	240d803a 	cmpltu	r6,r4,r16
  80f6ec:	344d883a 	add	r6,r6,r17
  80f6f0:	2021883a 	mov	r16,r4
  80f6f4:	3023883a 	mov	r17,r6
  80f6f8:	003f9806 	br	80f55c <__muldf3+0x1c0>
  80f6fc:	403fe71e 	bne	r8,zero,80f69c <__muldf3+0x300>
  80f700:	01004004 	movi	r4,256
  80f704:	4904703a 	and	r2,r9,r4
  80f708:	10c4b03a 	or	r2,r2,r3
  80f70c:	103fe31e 	bne	r2,zero,80f69c <__muldf3+0x300>
  80f710:	94c4b03a 	or	r2,r18,r19
  80f714:	103fe126 	beq	r2,zero,80f69c <__muldf3+0x300>
  80f718:	49c5883a 	add	r2,r9,r7
  80f71c:	1251803a 	cmpltu	r8,r2,r9
  80f720:	4291883a 	add	r8,r8,r10
  80f724:	013fc004 	movi	r4,-256
  80f728:	1112703a 	and	r9,r2,r4
  80f72c:	4015883a 	mov	r10,r8
  80f730:	003fda06 	br	80f69c <__muldf3+0x300>
  80f734:	6813883a 	mov	r9,r13
  80f738:	003fce06 	br	80f674 <__muldf3+0x2d8>
  80f73c:	143f7c36 	bltu	r2,r16,80f530 <__muldf3+0x194>
  80f740:	003fdd06 	br	80f6b8 <__muldf3+0x31c>
  80f744:	12bf852e 	bgeu	r2,r10,80f55c <__muldf3+0x1c0>
  80f748:	003fe506 	br	80f6e0 <__muldf3+0x344>
  80f74c:	00800084 	movi	r2,2
  80f750:	20bf351e 	bne	r4,r2,80f428 <__muldf3+0x8c>
  80f754:	01002074 	movhi	r4,129
  80f758:	2102bd04 	addi	r4,r4,2804
  80f75c:	003f3f06 	br	80f45c <__muldf3+0xc0>

0080f760 <__divdf3>:
  80f760:	deffed04 	addi	sp,sp,-76
  80f764:	dcc01115 	stw	r19,68(sp)
  80f768:	dcc00404 	addi	r19,sp,16
  80f76c:	2011883a 	mov	r8,r4
  80f770:	2813883a 	mov	r9,r5
  80f774:	dc000e15 	stw	r16,56(sp)
  80f778:	d809883a 	mov	r4,sp
  80f77c:	980b883a 	mov	r5,r19
  80f780:	dc000904 	addi	r16,sp,36
  80f784:	dfc01215 	stw	ra,72(sp)
  80f788:	da400115 	stw	r9,4(sp)
  80f78c:	d9c00315 	stw	r7,12(sp)
  80f790:	da000015 	stw	r8,0(sp)
  80f794:	d9800215 	stw	r6,8(sp)
  80f798:	dc801015 	stw	r18,64(sp)
  80f79c:	dc400f15 	stw	r17,60(sp)
  80f7a0:	08105c80 	call	8105c8 <__unpack_d>
  80f7a4:	d9000204 	addi	r4,sp,8
  80f7a8:	800b883a 	mov	r5,r16
  80f7ac:	08105c80 	call	8105c8 <__unpack_d>
  80f7b0:	d9000417 	ldw	r4,16(sp)
  80f7b4:	00800044 	movi	r2,1
  80f7b8:	11000b2e 	bgeu	r2,r4,80f7e8 <__divdf3+0x88>
  80f7bc:	d9400917 	ldw	r5,36(sp)
  80f7c0:	1140762e 	bgeu	r2,r5,80f99c <__divdf3+0x23c>
  80f7c4:	d8800517 	ldw	r2,20(sp)
  80f7c8:	d8c00a17 	ldw	r3,40(sp)
  80f7cc:	01800104 	movi	r6,4
  80f7d0:	10c4f03a 	xor	r2,r2,r3
  80f7d4:	d8800515 	stw	r2,20(sp)
  80f7d8:	21800226 	beq	r4,r6,80f7e4 <__divdf3+0x84>
  80f7dc:	00800084 	movi	r2,2
  80f7e0:	2080141e 	bne	r4,r2,80f834 <__divdf3+0xd4>
  80f7e4:	29000926 	beq	r5,r4,80f80c <__divdf3+0xac>
  80f7e8:	9809883a 	mov	r4,r19
  80f7ec:	08102b40 	call	8102b4 <__pack_d>
  80f7f0:	dfc01217 	ldw	ra,72(sp)
  80f7f4:	dcc01117 	ldw	r19,68(sp)
  80f7f8:	dc801017 	ldw	r18,64(sp)
  80f7fc:	dc400f17 	ldw	r17,60(sp)
  80f800:	dc000e17 	ldw	r16,56(sp)
  80f804:	dec01304 	addi	sp,sp,76
  80f808:	f800283a 	ret
  80f80c:	01002074 	movhi	r4,129
  80f810:	2102bd04 	addi	r4,r4,2804
  80f814:	08102b40 	call	8102b4 <__pack_d>
  80f818:	dfc01217 	ldw	ra,72(sp)
  80f81c:	dcc01117 	ldw	r19,68(sp)
  80f820:	dc801017 	ldw	r18,64(sp)
  80f824:	dc400f17 	ldw	r17,60(sp)
  80f828:	dc000e17 	ldw	r16,56(sp)
  80f82c:	dec01304 	addi	sp,sp,76
  80f830:	f800283a 	ret
  80f834:	29805b26 	beq	r5,r6,80f9a4 <__divdf3+0x244>
  80f838:	28802d26 	beq	r5,r2,80f8f0 <__divdf3+0x190>
  80f83c:	d8c00617 	ldw	r3,24(sp)
  80f840:	d8800b17 	ldw	r2,44(sp)
  80f844:	d9c00817 	ldw	r7,32(sp)
  80f848:	dc400d17 	ldw	r17,52(sp)
  80f84c:	188bc83a 	sub	r5,r3,r2
  80f850:	d9800717 	ldw	r6,28(sp)
  80f854:	dc000c17 	ldw	r16,48(sp)
  80f858:	d9400615 	stw	r5,24(sp)
  80f85c:	3c403836 	bltu	r7,r17,80f940 <__divdf3+0x1e0>
  80f860:	89c03626 	beq	r17,r7,80f93c <__divdf3+0x1dc>
  80f864:	0015883a 	mov	r10,zero
  80f868:	001d883a 	mov	r14,zero
  80f86c:	02c40034 	movhi	r11,4096
  80f870:	001f883a 	mov	r15,zero
  80f874:	003f883a 	mov	ra,zero
  80f878:	04800f44 	movi	r18,61
  80f87c:	00000f06 	br	80f8bc <__divdf3+0x15c>
  80f880:	601d883a 	mov	r14,r12
  80f884:	681f883a 	mov	r15,r13
  80f888:	400d883a 	mov	r6,r8
  80f88c:	100f883a 	mov	r7,r2
  80f890:	3191883a 	add	r8,r6,r6
  80f894:	5808d07a 	srli	r4,r11,1
  80f898:	4185803a 	cmpltu	r2,r8,r6
  80f89c:	39d3883a 	add	r9,r7,r7
  80f8a0:	28c6b03a 	or	r3,r5,r3
  80f8a4:	1245883a 	add	r2,r2,r9
  80f8a8:	1815883a 	mov	r10,r3
  80f8ac:	2017883a 	mov	r11,r4
  80f8b0:	400d883a 	mov	r6,r8
  80f8b4:	100f883a 	mov	r7,r2
  80f8b8:	fc801726 	beq	ra,r18,80f918 <__divdf3+0x1b8>
  80f8bc:	580a97fa 	slli	r5,r11,31
  80f8c0:	5006d07a 	srli	r3,r10,1
  80f8c4:	ffc00044 	addi	ra,ra,1
  80f8c8:	3c7ff136 	bltu	r7,r17,80f890 <__divdf3+0x130>
  80f8cc:	3411c83a 	sub	r8,r6,r16
  80f8d0:	3205803a 	cmpltu	r2,r6,r8
  80f8d4:	3c53c83a 	sub	r9,r7,r17
  80f8d8:	7298b03a 	or	r12,r14,r10
  80f8dc:	7adab03a 	or	r13,r15,r11
  80f8e0:	4885c83a 	sub	r2,r9,r2
  80f8e4:	89ffe61e 	bne	r17,r7,80f880 <__divdf3+0x120>
  80f8e8:	343fe936 	bltu	r6,r16,80f890 <__divdf3+0x130>
  80f8ec:	003fe406 	br	80f880 <__divdf3+0x120>
  80f8f0:	9809883a 	mov	r4,r19
  80f8f4:	d9800415 	stw	r6,16(sp)
  80f8f8:	08102b40 	call	8102b4 <__pack_d>
  80f8fc:	dfc01217 	ldw	ra,72(sp)
  80f900:	dcc01117 	ldw	r19,68(sp)
  80f904:	dc801017 	ldw	r18,64(sp)
  80f908:	dc400f17 	ldw	r17,60(sp)
  80f90c:	dc000e17 	ldw	r16,56(sp)
  80f910:	dec01304 	addi	sp,sp,76
  80f914:	f800283a 	ret
  80f918:	00803fc4 	movi	r2,255
  80f91c:	7090703a 	and	r8,r14,r2
  80f920:	00802004 	movi	r2,128
  80f924:	0007883a 	mov	r3,zero
  80f928:	0013883a 	mov	r9,zero
  80f92c:	40800d26 	beq	r8,r2,80f964 <__divdf3+0x204>
  80f930:	dbc00815 	stw	r15,32(sp)
  80f934:	db800715 	stw	r14,28(sp)
  80f938:	003fab06 	br	80f7e8 <__divdf3+0x88>
  80f93c:	343fc92e 	bgeu	r6,r16,80f864 <__divdf3+0x104>
  80f940:	3185883a 	add	r2,r6,r6
  80f944:	1189803a 	cmpltu	r4,r2,r6
  80f948:	39c7883a 	add	r3,r7,r7
  80f94c:	20c9883a 	add	r4,r4,r3
  80f950:	297fffc4 	addi	r5,r5,-1
  80f954:	100d883a 	mov	r6,r2
  80f958:	200f883a 	mov	r7,r4
  80f95c:	d9400615 	stw	r5,24(sp)
  80f960:	003fc006 	br	80f864 <__divdf3+0x104>
  80f964:	483ff21e 	bne	r9,zero,80f930 <__divdf3+0x1d0>
  80f968:	01004004 	movi	r4,256
  80f96c:	7104703a 	and	r2,r14,r4
  80f970:	10c4b03a 	or	r2,r2,r3
  80f974:	103fee1e 	bne	r2,zero,80f930 <__divdf3+0x1d0>
  80f978:	31c4b03a 	or	r2,r6,r7
  80f97c:	103fec26 	beq	r2,zero,80f930 <__divdf3+0x1d0>
  80f980:	7205883a 	add	r2,r14,r8
  80f984:	1391803a 	cmpltu	r8,r2,r14
  80f988:	43d1883a 	add	r8,r8,r15
  80f98c:	013fc004 	movi	r4,-256
  80f990:	111c703a 	and	r14,r2,r4
  80f994:	401f883a 	mov	r15,r8
  80f998:	003fe506 	br	80f930 <__divdf3+0x1d0>
  80f99c:	8009883a 	mov	r4,r16
  80f9a0:	003f9206 	br	80f7ec <__divdf3+0x8c>
  80f9a4:	9809883a 	mov	r4,r19
  80f9a8:	d8000715 	stw	zero,28(sp)
  80f9ac:	d8000815 	stw	zero,32(sp)
  80f9b0:	d8000615 	stw	zero,24(sp)
  80f9b4:	003f8d06 	br	80f7ec <__divdf3+0x8c>

0080f9b8 <__eqdf2>:
  80f9b8:	deffef04 	addi	sp,sp,-68
  80f9bc:	dc400f15 	stw	r17,60(sp)
  80f9c0:	dc400404 	addi	r17,sp,16
  80f9c4:	2005883a 	mov	r2,r4
  80f9c8:	2807883a 	mov	r3,r5
  80f9cc:	dc000e15 	stw	r16,56(sp)
  80f9d0:	d809883a 	mov	r4,sp
  80f9d4:	880b883a 	mov	r5,r17
  80f9d8:	dc000904 	addi	r16,sp,36
  80f9dc:	d8c00115 	stw	r3,4(sp)
  80f9e0:	d8800015 	stw	r2,0(sp)
  80f9e4:	d9800215 	stw	r6,8(sp)
  80f9e8:	dfc01015 	stw	ra,64(sp)
  80f9ec:	d9c00315 	stw	r7,12(sp)
  80f9f0:	08105c80 	call	8105c8 <__unpack_d>
  80f9f4:	d9000204 	addi	r4,sp,8
  80f9f8:	800b883a 	mov	r5,r16
  80f9fc:	08105c80 	call	8105c8 <__unpack_d>
  80fa00:	d8800417 	ldw	r2,16(sp)
  80fa04:	00c00044 	movi	r3,1
  80fa08:	180d883a 	mov	r6,r3
  80fa0c:	1880062e 	bgeu	r3,r2,80fa28 <__eqdf2+0x70>
  80fa10:	d8800917 	ldw	r2,36(sp)
  80fa14:	8809883a 	mov	r4,r17
  80fa18:	800b883a 	mov	r5,r16
  80fa1c:	1880022e 	bgeu	r3,r2,80fa28 <__eqdf2+0x70>
  80fa20:	08107000 	call	810700 <__fpcmp_parts_d>
  80fa24:	100d883a 	mov	r6,r2
  80fa28:	3005883a 	mov	r2,r6
  80fa2c:	dfc01017 	ldw	ra,64(sp)
  80fa30:	dc400f17 	ldw	r17,60(sp)
  80fa34:	dc000e17 	ldw	r16,56(sp)
  80fa38:	dec01104 	addi	sp,sp,68
  80fa3c:	f800283a 	ret

0080fa40 <__nedf2>:
  80fa40:	deffef04 	addi	sp,sp,-68
  80fa44:	dc400f15 	stw	r17,60(sp)
  80fa48:	dc400404 	addi	r17,sp,16
  80fa4c:	2005883a 	mov	r2,r4
  80fa50:	2807883a 	mov	r3,r5
  80fa54:	dc000e15 	stw	r16,56(sp)
  80fa58:	d809883a 	mov	r4,sp
  80fa5c:	880b883a 	mov	r5,r17
  80fa60:	dc000904 	addi	r16,sp,36
  80fa64:	d8c00115 	stw	r3,4(sp)
  80fa68:	d8800015 	stw	r2,0(sp)
  80fa6c:	d9800215 	stw	r6,8(sp)
  80fa70:	dfc01015 	stw	ra,64(sp)
  80fa74:	d9c00315 	stw	r7,12(sp)
  80fa78:	08105c80 	call	8105c8 <__unpack_d>
  80fa7c:	d9000204 	addi	r4,sp,8
  80fa80:	800b883a 	mov	r5,r16
  80fa84:	08105c80 	call	8105c8 <__unpack_d>
  80fa88:	d8800417 	ldw	r2,16(sp)
  80fa8c:	00c00044 	movi	r3,1
  80fa90:	180d883a 	mov	r6,r3
  80fa94:	1880062e 	bgeu	r3,r2,80fab0 <__nedf2+0x70>
  80fa98:	d8800917 	ldw	r2,36(sp)
  80fa9c:	8809883a 	mov	r4,r17
  80faa0:	800b883a 	mov	r5,r16
  80faa4:	1880022e 	bgeu	r3,r2,80fab0 <__nedf2+0x70>
  80faa8:	08107000 	call	810700 <__fpcmp_parts_d>
  80faac:	100d883a 	mov	r6,r2
  80fab0:	3005883a 	mov	r2,r6
  80fab4:	dfc01017 	ldw	ra,64(sp)
  80fab8:	dc400f17 	ldw	r17,60(sp)
  80fabc:	dc000e17 	ldw	r16,56(sp)
  80fac0:	dec01104 	addi	sp,sp,68
  80fac4:	f800283a 	ret

0080fac8 <__gtdf2>:
  80fac8:	deffef04 	addi	sp,sp,-68
  80facc:	dc400f15 	stw	r17,60(sp)
  80fad0:	dc400404 	addi	r17,sp,16
  80fad4:	2005883a 	mov	r2,r4
  80fad8:	2807883a 	mov	r3,r5
  80fadc:	dc000e15 	stw	r16,56(sp)
  80fae0:	d809883a 	mov	r4,sp
  80fae4:	880b883a 	mov	r5,r17
  80fae8:	dc000904 	addi	r16,sp,36
  80faec:	d8c00115 	stw	r3,4(sp)
  80faf0:	d8800015 	stw	r2,0(sp)
  80faf4:	d9800215 	stw	r6,8(sp)
  80faf8:	dfc01015 	stw	ra,64(sp)
  80fafc:	d9c00315 	stw	r7,12(sp)
  80fb00:	08105c80 	call	8105c8 <__unpack_d>
  80fb04:	d9000204 	addi	r4,sp,8
  80fb08:	800b883a 	mov	r5,r16
  80fb0c:	08105c80 	call	8105c8 <__unpack_d>
  80fb10:	d8800417 	ldw	r2,16(sp)
  80fb14:	00c00044 	movi	r3,1
  80fb18:	01bfffc4 	movi	r6,-1
  80fb1c:	1880062e 	bgeu	r3,r2,80fb38 <__gtdf2+0x70>
  80fb20:	d8800917 	ldw	r2,36(sp)
  80fb24:	8809883a 	mov	r4,r17
  80fb28:	800b883a 	mov	r5,r16
  80fb2c:	1880022e 	bgeu	r3,r2,80fb38 <__gtdf2+0x70>
  80fb30:	08107000 	call	810700 <__fpcmp_parts_d>
  80fb34:	100d883a 	mov	r6,r2
  80fb38:	3005883a 	mov	r2,r6
  80fb3c:	dfc01017 	ldw	ra,64(sp)
  80fb40:	dc400f17 	ldw	r17,60(sp)
  80fb44:	dc000e17 	ldw	r16,56(sp)
  80fb48:	dec01104 	addi	sp,sp,68
  80fb4c:	f800283a 	ret

0080fb50 <__gedf2>:
  80fb50:	deffef04 	addi	sp,sp,-68
  80fb54:	dc400f15 	stw	r17,60(sp)
  80fb58:	dc400404 	addi	r17,sp,16
  80fb5c:	2005883a 	mov	r2,r4
  80fb60:	2807883a 	mov	r3,r5
  80fb64:	dc000e15 	stw	r16,56(sp)
  80fb68:	d809883a 	mov	r4,sp
  80fb6c:	880b883a 	mov	r5,r17
  80fb70:	dc000904 	addi	r16,sp,36
  80fb74:	d8c00115 	stw	r3,4(sp)
  80fb78:	d8800015 	stw	r2,0(sp)
  80fb7c:	d9800215 	stw	r6,8(sp)
  80fb80:	dfc01015 	stw	ra,64(sp)
  80fb84:	d9c00315 	stw	r7,12(sp)
  80fb88:	08105c80 	call	8105c8 <__unpack_d>
  80fb8c:	d9000204 	addi	r4,sp,8
  80fb90:	800b883a 	mov	r5,r16
  80fb94:	08105c80 	call	8105c8 <__unpack_d>
  80fb98:	d8800417 	ldw	r2,16(sp)
  80fb9c:	00c00044 	movi	r3,1
  80fba0:	01bfffc4 	movi	r6,-1
  80fba4:	1880062e 	bgeu	r3,r2,80fbc0 <__gedf2+0x70>
  80fba8:	d8800917 	ldw	r2,36(sp)
  80fbac:	8809883a 	mov	r4,r17
  80fbb0:	800b883a 	mov	r5,r16
  80fbb4:	1880022e 	bgeu	r3,r2,80fbc0 <__gedf2+0x70>
  80fbb8:	08107000 	call	810700 <__fpcmp_parts_d>
  80fbbc:	100d883a 	mov	r6,r2
  80fbc0:	3005883a 	mov	r2,r6
  80fbc4:	dfc01017 	ldw	ra,64(sp)
  80fbc8:	dc400f17 	ldw	r17,60(sp)
  80fbcc:	dc000e17 	ldw	r16,56(sp)
  80fbd0:	dec01104 	addi	sp,sp,68
  80fbd4:	f800283a 	ret

0080fbd8 <__ltdf2>:
  80fbd8:	deffef04 	addi	sp,sp,-68
  80fbdc:	dc400f15 	stw	r17,60(sp)
  80fbe0:	dc400404 	addi	r17,sp,16
  80fbe4:	2005883a 	mov	r2,r4
  80fbe8:	2807883a 	mov	r3,r5
  80fbec:	dc000e15 	stw	r16,56(sp)
  80fbf0:	d809883a 	mov	r4,sp
  80fbf4:	880b883a 	mov	r5,r17
  80fbf8:	dc000904 	addi	r16,sp,36
  80fbfc:	d8c00115 	stw	r3,4(sp)
  80fc00:	d8800015 	stw	r2,0(sp)
  80fc04:	d9800215 	stw	r6,8(sp)
  80fc08:	dfc01015 	stw	ra,64(sp)
  80fc0c:	d9c00315 	stw	r7,12(sp)
  80fc10:	08105c80 	call	8105c8 <__unpack_d>
  80fc14:	d9000204 	addi	r4,sp,8
  80fc18:	800b883a 	mov	r5,r16
  80fc1c:	08105c80 	call	8105c8 <__unpack_d>
  80fc20:	d8800417 	ldw	r2,16(sp)
  80fc24:	00c00044 	movi	r3,1
  80fc28:	180d883a 	mov	r6,r3
  80fc2c:	1880062e 	bgeu	r3,r2,80fc48 <__ltdf2+0x70>
  80fc30:	d8800917 	ldw	r2,36(sp)
  80fc34:	8809883a 	mov	r4,r17
  80fc38:	800b883a 	mov	r5,r16
  80fc3c:	1880022e 	bgeu	r3,r2,80fc48 <__ltdf2+0x70>
  80fc40:	08107000 	call	810700 <__fpcmp_parts_d>
  80fc44:	100d883a 	mov	r6,r2
  80fc48:	3005883a 	mov	r2,r6
  80fc4c:	dfc01017 	ldw	ra,64(sp)
  80fc50:	dc400f17 	ldw	r17,60(sp)
  80fc54:	dc000e17 	ldw	r16,56(sp)
  80fc58:	dec01104 	addi	sp,sp,68
  80fc5c:	f800283a 	ret

0080fc60 <__floatsidf>:
  80fc60:	2006d7fa 	srli	r3,r4,31
  80fc64:	defff604 	addi	sp,sp,-40
  80fc68:	008000c4 	movi	r2,3
  80fc6c:	dfc00915 	stw	ra,36(sp)
  80fc70:	dcc00815 	stw	r19,32(sp)
  80fc74:	dc800715 	stw	r18,28(sp)
  80fc78:	dc400615 	stw	r17,24(sp)
  80fc7c:	dc000515 	stw	r16,20(sp)
  80fc80:	d8800015 	stw	r2,0(sp)
  80fc84:	d8c00115 	stw	r3,4(sp)
  80fc88:	20000f1e 	bne	r4,zero,80fcc8 <__floatsidf+0x68>
  80fc8c:	00800084 	movi	r2,2
  80fc90:	d8800015 	stw	r2,0(sp)
  80fc94:	d809883a 	mov	r4,sp
  80fc98:	08102b40 	call	8102b4 <__pack_d>
  80fc9c:	1009883a 	mov	r4,r2
  80fca0:	180b883a 	mov	r5,r3
  80fca4:	2005883a 	mov	r2,r4
  80fca8:	2807883a 	mov	r3,r5
  80fcac:	dfc00917 	ldw	ra,36(sp)
  80fcb0:	dcc00817 	ldw	r19,32(sp)
  80fcb4:	dc800717 	ldw	r18,28(sp)
  80fcb8:	dc400617 	ldw	r17,24(sp)
  80fcbc:	dc000517 	ldw	r16,20(sp)
  80fcc0:	dec00a04 	addi	sp,sp,40
  80fcc4:	f800283a 	ret
  80fcc8:	00800f04 	movi	r2,60
  80fccc:	1807003a 	cmpeq	r3,r3,zero
  80fcd0:	d8800215 	stw	r2,8(sp)
  80fcd4:	18001126 	beq	r3,zero,80fd1c <__floatsidf+0xbc>
  80fcd8:	0027883a 	mov	r19,zero
  80fcdc:	2025883a 	mov	r18,r4
  80fce0:	d9000315 	stw	r4,12(sp)
  80fce4:	dcc00415 	stw	r19,16(sp)
  80fce8:	08102340 	call	810234 <__clzsi2>
  80fcec:	11000744 	addi	r4,r2,29
  80fcf0:	013fe80e 	bge	zero,r4,80fc94 <__floatsidf+0x34>
  80fcf4:	10bfff44 	addi	r2,r2,-3
  80fcf8:	10000c16 	blt	r2,zero,80fd2c <__floatsidf+0xcc>
  80fcfc:	90a2983a 	sll	r17,r18,r2
  80fd00:	0021883a 	mov	r16,zero
  80fd04:	d8800217 	ldw	r2,8(sp)
  80fd08:	dc400415 	stw	r17,16(sp)
  80fd0c:	dc000315 	stw	r16,12(sp)
  80fd10:	1105c83a 	sub	r2,r2,r4
  80fd14:	d8800215 	stw	r2,8(sp)
  80fd18:	003fde06 	br	80fc94 <__floatsidf+0x34>
  80fd1c:	00a00034 	movhi	r2,32768
  80fd20:	20800a26 	beq	r4,r2,80fd4c <__floatsidf+0xec>
  80fd24:	0109c83a 	sub	r4,zero,r4
  80fd28:	003feb06 	br	80fcd8 <__floatsidf+0x78>
  80fd2c:	9006d07a 	srli	r3,r18,1
  80fd30:	008007c4 	movi	r2,31
  80fd34:	1105c83a 	sub	r2,r2,r4
  80fd38:	1886d83a 	srl	r3,r3,r2
  80fd3c:	9922983a 	sll	r17,r19,r4
  80fd40:	9120983a 	sll	r16,r18,r4
  80fd44:	1c62b03a 	or	r17,r3,r17
  80fd48:	003fee06 	br	80fd04 <__floatsidf+0xa4>
  80fd4c:	0009883a 	mov	r4,zero
  80fd50:	01707834 	movhi	r5,49632
  80fd54:	003fd306 	br	80fca4 <__floatsidf+0x44>

0080fd58 <__fixdfsi>:
  80fd58:	defff804 	addi	sp,sp,-32
  80fd5c:	2005883a 	mov	r2,r4
  80fd60:	2807883a 	mov	r3,r5
  80fd64:	d809883a 	mov	r4,sp
  80fd68:	d9400204 	addi	r5,sp,8
  80fd6c:	d8c00115 	stw	r3,4(sp)
  80fd70:	d8800015 	stw	r2,0(sp)
  80fd74:	dfc00715 	stw	ra,28(sp)
  80fd78:	08105c80 	call	8105c8 <__unpack_d>
  80fd7c:	d8c00217 	ldw	r3,8(sp)
  80fd80:	00800084 	movi	r2,2
  80fd84:	1880051e 	bne	r3,r2,80fd9c <__fixdfsi+0x44>
  80fd88:	0007883a 	mov	r3,zero
  80fd8c:	1805883a 	mov	r2,r3
  80fd90:	dfc00717 	ldw	ra,28(sp)
  80fd94:	dec00804 	addi	sp,sp,32
  80fd98:	f800283a 	ret
  80fd9c:	00800044 	movi	r2,1
  80fda0:	10fff92e 	bgeu	r2,r3,80fd88 <__fixdfsi+0x30>
  80fda4:	00800104 	movi	r2,4
  80fda8:	18800426 	beq	r3,r2,80fdbc <__fixdfsi+0x64>
  80fdac:	d8c00417 	ldw	r3,16(sp)
  80fdb0:	183ff516 	blt	r3,zero,80fd88 <__fixdfsi+0x30>
  80fdb4:	00800784 	movi	r2,30
  80fdb8:	10c0080e 	bge	r2,r3,80fddc <__fixdfsi+0x84>
  80fdbc:	d8800317 	ldw	r2,12(sp)
  80fdc0:	1000121e 	bne	r2,zero,80fe0c <__fixdfsi+0xb4>
  80fdc4:	00e00034 	movhi	r3,32768
  80fdc8:	18ffffc4 	addi	r3,r3,-1
  80fdcc:	1805883a 	mov	r2,r3
  80fdd0:	dfc00717 	ldw	ra,28(sp)
  80fdd4:	dec00804 	addi	sp,sp,32
  80fdd8:	f800283a 	ret
  80fddc:	00800f04 	movi	r2,60
  80fde0:	10d1c83a 	sub	r8,r2,r3
  80fde4:	40bff804 	addi	r2,r8,-32
  80fde8:	d9800517 	ldw	r6,20(sp)
  80fdec:	d9c00617 	ldw	r7,24(sp)
  80fdf0:	10000816 	blt	r2,zero,80fe14 <__fixdfsi+0xbc>
  80fdf4:	3888d83a 	srl	r4,r7,r2
  80fdf8:	d8800317 	ldw	r2,12(sp)
  80fdfc:	2007883a 	mov	r3,r4
  80fe00:	103fe226 	beq	r2,zero,80fd8c <__fixdfsi+0x34>
  80fe04:	0107c83a 	sub	r3,zero,r4
  80fe08:	003fe006 	br	80fd8c <__fixdfsi+0x34>
  80fe0c:	00e00034 	movhi	r3,32768
  80fe10:	003fde06 	br	80fd8c <__fixdfsi+0x34>
  80fe14:	39c7883a 	add	r3,r7,r7
  80fe18:	008007c4 	movi	r2,31
  80fe1c:	1205c83a 	sub	r2,r2,r8
  80fe20:	1886983a 	sll	r3,r3,r2
  80fe24:	3208d83a 	srl	r4,r6,r8
  80fe28:	1908b03a 	or	r4,r3,r4
  80fe2c:	003ff206 	br	80fdf8 <__fixdfsi+0xa0>

0080fe30 <__floatunsidf>:
  80fe30:	defff204 	addi	sp,sp,-56
  80fe34:	dfc00d15 	stw	ra,52(sp)
  80fe38:	ddc00c15 	stw	r23,48(sp)
  80fe3c:	dd800b15 	stw	r22,44(sp)
  80fe40:	dd400a15 	stw	r21,40(sp)
  80fe44:	dd000915 	stw	r20,36(sp)
  80fe48:	dcc00815 	stw	r19,32(sp)
  80fe4c:	dc800715 	stw	r18,28(sp)
  80fe50:	dc400615 	stw	r17,24(sp)
  80fe54:	dc000515 	stw	r16,20(sp)
  80fe58:	d8000115 	stw	zero,4(sp)
  80fe5c:	20000f1e 	bne	r4,zero,80fe9c <__floatunsidf+0x6c>
  80fe60:	00800084 	movi	r2,2
  80fe64:	d8800015 	stw	r2,0(sp)
  80fe68:	d809883a 	mov	r4,sp
  80fe6c:	08102b40 	call	8102b4 <__pack_d>
  80fe70:	dfc00d17 	ldw	ra,52(sp)
  80fe74:	ddc00c17 	ldw	r23,48(sp)
  80fe78:	dd800b17 	ldw	r22,44(sp)
  80fe7c:	dd400a17 	ldw	r21,40(sp)
  80fe80:	dd000917 	ldw	r20,36(sp)
  80fe84:	dcc00817 	ldw	r19,32(sp)
  80fe88:	dc800717 	ldw	r18,28(sp)
  80fe8c:	dc400617 	ldw	r17,24(sp)
  80fe90:	dc000517 	ldw	r16,20(sp)
  80fe94:	dec00e04 	addi	sp,sp,56
  80fe98:	f800283a 	ret
  80fe9c:	008000c4 	movi	r2,3
  80fea0:	00c00f04 	movi	r3,60
  80fea4:	002f883a 	mov	r23,zero
  80fea8:	202d883a 	mov	r22,r4
  80feac:	d8800015 	stw	r2,0(sp)
  80feb0:	d8c00215 	stw	r3,8(sp)
  80feb4:	d9000315 	stw	r4,12(sp)
  80feb8:	ddc00415 	stw	r23,16(sp)
  80febc:	08102340 	call	810234 <__clzsi2>
  80fec0:	12400744 	addi	r9,r2,29
  80fec4:	48000b16 	blt	r9,zero,80fef4 <__floatunsidf+0xc4>
  80fec8:	483fe726 	beq	r9,zero,80fe68 <__floatunsidf+0x38>
  80fecc:	10bfff44 	addi	r2,r2,-3
  80fed0:	10002e16 	blt	r2,zero,80ff8c <__floatunsidf+0x15c>
  80fed4:	b0a2983a 	sll	r17,r22,r2
  80fed8:	0021883a 	mov	r16,zero
  80fedc:	d8800217 	ldw	r2,8(sp)
  80fee0:	dc400415 	stw	r17,16(sp)
  80fee4:	dc000315 	stw	r16,12(sp)
  80fee8:	1245c83a 	sub	r2,r2,r9
  80feec:	d8800215 	stw	r2,8(sp)
  80fef0:	003fdd06 	br	80fe68 <__floatunsidf+0x38>
  80fef4:	0255c83a 	sub	r10,zero,r9
  80fef8:	51bff804 	addi	r6,r10,-32
  80fefc:	30001b16 	blt	r6,zero,80ff6c <__floatunsidf+0x13c>
  80ff00:	b9a8d83a 	srl	r20,r23,r6
  80ff04:	002b883a 	mov	r21,zero
  80ff08:	000f883a 	mov	r7,zero
  80ff0c:	01000044 	movi	r4,1
  80ff10:	0011883a 	mov	r8,zero
  80ff14:	30002516 	blt	r6,zero,80ffac <__floatunsidf+0x17c>
  80ff18:	21a6983a 	sll	r19,r4,r6
  80ff1c:	0025883a 	mov	r18,zero
  80ff20:	00bfffc4 	movi	r2,-1
  80ff24:	9089883a 	add	r4,r18,r2
  80ff28:	988b883a 	add	r5,r19,r2
  80ff2c:	248d803a 	cmpltu	r6,r4,r18
  80ff30:	314b883a 	add	r5,r6,r5
  80ff34:	b104703a 	and	r2,r22,r4
  80ff38:	b946703a 	and	r3,r23,r5
  80ff3c:	10c4b03a 	or	r2,r2,r3
  80ff40:	10000226 	beq	r2,zero,80ff4c <__floatunsidf+0x11c>
  80ff44:	01c00044 	movi	r7,1
  80ff48:	0011883a 	mov	r8,zero
  80ff4c:	d9000217 	ldw	r4,8(sp)
  80ff50:	a1c4b03a 	or	r2,r20,r7
  80ff54:	aa06b03a 	or	r3,r21,r8
  80ff58:	2249c83a 	sub	r4,r4,r9
  80ff5c:	d8c00415 	stw	r3,16(sp)
  80ff60:	d9000215 	stw	r4,8(sp)
  80ff64:	d8800315 	stw	r2,12(sp)
  80ff68:	003fbf06 	br	80fe68 <__floatunsidf+0x38>
  80ff6c:	bdc7883a 	add	r3,r23,r23
  80ff70:	008007c4 	movi	r2,31
  80ff74:	1285c83a 	sub	r2,r2,r10
  80ff78:	1886983a 	sll	r3,r3,r2
  80ff7c:	b2a8d83a 	srl	r20,r22,r10
  80ff80:	baaad83a 	srl	r21,r23,r10
  80ff84:	1d28b03a 	or	r20,r3,r20
  80ff88:	003fdf06 	br	80ff08 <__floatunsidf+0xd8>
  80ff8c:	b006d07a 	srli	r3,r22,1
  80ff90:	008007c4 	movi	r2,31
  80ff94:	1245c83a 	sub	r2,r2,r9
  80ff98:	1886d83a 	srl	r3,r3,r2
  80ff9c:	ba62983a 	sll	r17,r23,r9
  80ffa0:	b260983a 	sll	r16,r22,r9
  80ffa4:	1c62b03a 	or	r17,r3,r17
  80ffa8:	003fcc06 	br	80fedc <__floatunsidf+0xac>
  80ffac:	2006d07a 	srli	r3,r4,1
  80ffb0:	008007c4 	movi	r2,31
  80ffb4:	1285c83a 	sub	r2,r2,r10
  80ffb8:	18a6d83a 	srl	r19,r3,r2
  80ffbc:	22a4983a 	sll	r18,r4,r10
  80ffc0:	003fd706 	br	80ff20 <__floatunsidf+0xf0>

0080ffc4 <udivmodsi4>:
  80ffc4:	29001b2e 	bgeu	r5,r4,810034 <udivmodsi4+0x70>
  80ffc8:	28001a16 	blt	r5,zero,810034 <udivmodsi4+0x70>
  80ffcc:	00800044 	movi	r2,1
  80ffd0:	0007883a 	mov	r3,zero
  80ffd4:	01c007c4 	movi	r7,31
  80ffd8:	00000306 	br	80ffe8 <udivmodsi4+0x24>
  80ffdc:	19c01326 	beq	r3,r7,81002c <udivmodsi4+0x68>
  80ffe0:	18c00044 	addi	r3,r3,1
  80ffe4:	28000416 	blt	r5,zero,80fff8 <udivmodsi4+0x34>
  80ffe8:	294b883a 	add	r5,r5,r5
  80ffec:	1085883a 	add	r2,r2,r2
  80fff0:	293ffa36 	bltu	r5,r4,80ffdc <udivmodsi4+0x18>
  80fff4:	10000d26 	beq	r2,zero,81002c <udivmodsi4+0x68>
  80fff8:	0007883a 	mov	r3,zero
  80fffc:	21400236 	bltu	r4,r5,810008 <udivmodsi4+0x44>
  810000:	2149c83a 	sub	r4,r4,r5
  810004:	1886b03a 	or	r3,r3,r2
  810008:	1004d07a 	srli	r2,r2,1
  81000c:	280ad07a 	srli	r5,r5,1
  810010:	103ffa1e 	bne	r2,zero,80fffc <udivmodsi4+0x38>
  810014:	30000226 	beq	r6,zero,810020 <udivmodsi4+0x5c>
  810018:	2005883a 	mov	r2,r4
  81001c:	f800283a 	ret
  810020:	1809883a 	mov	r4,r3
  810024:	2005883a 	mov	r2,r4
  810028:	f800283a 	ret
  81002c:	0007883a 	mov	r3,zero
  810030:	003ff806 	br	810014 <udivmodsi4+0x50>
  810034:	00800044 	movi	r2,1
  810038:	0007883a 	mov	r3,zero
  81003c:	003fef06 	br	80fffc <udivmodsi4+0x38>

00810040 <__divsi3>:
  810040:	defffe04 	addi	sp,sp,-8
  810044:	dc000015 	stw	r16,0(sp)
  810048:	dfc00115 	stw	ra,4(sp)
  81004c:	0021883a 	mov	r16,zero
  810050:	20000c16 	blt	r4,zero,810084 <__divsi3+0x44>
  810054:	000d883a 	mov	r6,zero
  810058:	28000e16 	blt	r5,zero,810094 <__divsi3+0x54>
  81005c:	080ffc40 	call	80ffc4 <udivmodsi4>
  810060:	1007883a 	mov	r3,r2
  810064:	8005003a 	cmpeq	r2,r16,zero
  810068:	1000011e 	bne	r2,zero,810070 <__divsi3+0x30>
  81006c:	00c7c83a 	sub	r3,zero,r3
  810070:	1805883a 	mov	r2,r3
  810074:	dfc00117 	ldw	ra,4(sp)
  810078:	dc000017 	ldw	r16,0(sp)
  81007c:	dec00204 	addi	sp,sp,8
  810080:	f800283a 	ret
  810084:	0109c83a 	sub	r4,zero,r4
  810088:	04000044 	movi	r16,1
  81008c:	000d883a 	mov	r6,zero
  810090:	283ff20e 	bge	r5,zero,81005c <__divsi3+0x1c>
  810094:	014bc83a 	sub	r5,zero,r5
  810098:	8021003a 	cmpeq	r16,r16,zero
  81009c:	003fef06 	br	81005c <__divsi3+0x1c>

008100a0 <__modsi3>:
  8100a0:	deffff04 	addi	sp,sp,-4
  8100a4:	dfc00015 	stw	ra,0(sp)
  8100a8:	01800044 	movi	r6,1
  8100ac:	2807883a 	mov	r3,r5
  8100b0:	20000416 	blt	r4,zero,8100c4 <__modsi3+0x24>
  8100b4:	28000c16 	blt	r5,zero,8100e8 <__modsi3+0x48>
  8100b8:	dfc00017 	ldw	ra,0(sp)
  8100bc:	dec00104 	addi	sp,sp,4
  8100c0:	080ffc41 	jmpi	80ffc4 <udivmodsi4>
  8100c4:	0109c83a 	sub	r4,zero,r4
  8100c8:	28000b16 	blt	r5,zero,8100f8 <__modsi3+0x58>
  8100cc:	180b883a 	mov	r5,r3
  8100d0:	01800044 	movi	r6,1
  8100d4:	080ffc40 	call	80ffc4 <udivmodsi4>
  8100d8:	0085c83a 	sub	r2,zero,r2
  8100dc:	dfc00017 	ldw	ra,0(sp)
  8100e0:	dec00104 	addi	sp,sp,4
  8100e4:	f800283a 	ret
  8100e8:	014bc83a 	sub	r5,zero,r5
  8100ec:	dfc00017 	ldw	ra,0(sp)
  8100f0:	dec00104 	addi	sp,sp,4
  8100f4:	080ffc41 	jmpi	80ffc4 <udivmodsi4>
  8100f8:	0147c83a 	sub	r3,zero,r5
  8100fc:	003ff306 	br	8100cc <__modsi3+0x2c>

00810100 <__udivsi3>:
  810100:	000d883a 	mov	r6,zero
  810104:	080ffc41 	jmpi	80ffc4 <udivmodsi4>

00810108 <__umodsi3>:
  810108:	01800044 	movi	r6,1
  81010c:	080ffc41 	jmpi	80ffc4 <udivmodsi4>

00810110 <__muldi3>:
  810110:	defff204 	addi	sp,sp,-56
  810114:	df000c15 	stw	fp,48(sp)
  810118:	3038d43a 	srli	fp,r6,16
  81011c:	dd000815 	stw	r20,32(sp)
  810120:	dc400515 	stw	r17,20(sp)
  810124:	2028d43a 	srli	r20,r4,16
  810128:	247fffcc 	andi	r17,r4,65535
  81012c:	dc000415 	stw	r16,16(sp)
  810130:	343fffcc 	andi	r16,r6,65535
  810134:	dcc00715 	stw	r19,28(sp)
  810138:	d9000015 	stw	r4,0(sp)
  81013c:	2827883a 	mov	r19,r5
  810140:	8809883a 	mov	r4,r17
  810144:	d9400115 	stw	r5,4(sp)
  810148:	800b883a 	mov	r5,r16
  81014c:	d9800215 	stw	r6,8(sp)
  810150:	dfc00d15 	stw	ra,52(sp)
  810154:	d9c00315 	stw	r7,12(sp)
  810158:	dd800a15 	stw	r22,40(sp)
  81015c:	dd400915 	stw	r21,36(sp)
  810160:	302d883a 	mov	r22,r6
  810164:	ddc00b15 	stw	r23,44(sp)
  810168:	dc800615 	stw	r18,24(sp)
  81016c:	0802c140 	call	802c14 <__mulsi3>
  810170:	8809883a 	mov	r4,r17
  810174:	e00b883a 	mov	r5,fp
  810178:	102b883a 	mov	r21,r2
  81017c:	0802c140 	call	802c14 <__mulsi3>
  810180:	800b883a 	mov	r5,r16
  810184:	a009883a 	mov	r4,r20
  810188:	1023883a 	mov	r17,r2
  81018c:	0802c140 	call	802c14 <__mulsi3>
  810190:	a009883a 	mov	r4,r20
  810194:	e00b883a 	mov	r5,fp
  810198:	1021883a 	mov	r16,r2
  81019c:	0802c140 	call	802c14 <__mulsi3>
  8101a0:	a8ffffcc 	andi	r3,r21,65535
  8101a4:	a82ad43a 	srli	r21,r21,16
  8101a8:	8c23883a 	add	r17,r17,r16
  8101ac:	1011883a 	mov	r8,r2
  8101b0:	ac6b883a 	add	r21,r21,r17
  8101b4:	a804943a 	slli	r2,r21,16
  8101b8:	b009883a 	mov	r4,r22
  8101bc:	980b883a 	mov	r5,r19
  8101c0:	10c7883a 	add	r3,r2,r3
  8101c4:	a812d43a 	srli	r9,r21,16
  8101c8:	180d883a 	mov	r6,r3
  8101cc:	ac00022e 	bgeu	r21,r16,8101d8 <__muldi3+0xc8>
  8101d0:	00800074 	movhi	r2,1
  8101d4:	4091883a 	add	r8,r8,r2
  8101d8:	4267883a 	add	r19,r8,r9
  8101dc:	302d883a 	mov	r22,r6
  8101e0:	0802c140 	call	802c14 <__mulsi3>
  8101e4:	d9400317 	ldw	r5,12(sp)
  8101e8:	d9000017 	ldw	r4,0(sp)
  8101ec:	1023883a 	mov	r17,r2
  8101f0:	0802c140 	call	802c14 <__mulsi3>
  8101f4:	14cb883a 	add	r5,r2,r19
  8101f8:	894b883a 	add	r5,r17,r5
  8101fc:	b005883a 	mov	r2,r22
  810200:	2807883a 	mov	r3,r5
  810204:	dfc00d17 	ldw	ra,52(sp)
  810208:	df000c17 	ldw	fp,48(sp)
  81020c:	ddc00b17 	ldw	r23,44(sp)
  810210:	dd800a17 	ldw	r22,40(sp)
  810214:	dd400917 	ldw	r21,36(sp)
  810218:	dd000817 	ldw	r20,32(sp)
  81021c:	dcc00717 	ldw	r19,28(sp)
  810220:	dc800617 	ldw	r18,24(sp)
  810224:	dc400517 	ldw	r17,20(sp)
  810228:	dc000417 	ldw	r16,16(sp)
  81022c:	dec00e04 	addi	sp,sp,56
  810230:	f800283a 	ret

00810234 <__clzsi2>:
  810234:	00bfffd4 	movui	r2,65535
  810238:	11000e36 	bltu	r2,r4,810274 <__clzsi2+0x40>
  81023c:	00803fc4 	movi	r2,255
  810240:	01400204 	movi	r5,8
  810244:	0007883a 	mov	r3,zero
  810248:	11001036 	bltu	r2,r4,81028c <__clzsi2+0x58>
  81024c:	000b883a 	mov	r5,zero
  810250:	20c6d83a 	srl	r3,r4,r3
  810254:	00802074 	movhi	r2,129
  810258:	1082c204 	addi	r2,r2,2824
  81025c:	1887883a 	add	r3,r3,r2
  810260:	18800003 	ldbu	r2,0(r3)
  810264:	00c00804 	movi	r3,32
  810268:	2885883a 	add	r2,r5,r2
  81026c:	1885c83a 	sub	r2,r3,r2
  810270:	f800283a 	ret
  810274:	01400404 	movi	r5,16
  810278:	00804034 	movhi	r2,256
  81027c:	10bfffc4 	addi	r2,r2,-1
  810280:	2807883a 	mov	r3,r5
  810284:	113ff22e 	bgeu	r2,r4,810250 <__clzsi2+0x1c>
  810288:	01400604 	movi	r5,24
  81028c:	2807883a 	mov	r3,r5
  810290:	20c6d83a 	srl	r3,r4,r3
  810294:	00802074 	movhi	r2,129
  810298:	1082c204 	addi	r2,r2,2824
  81029c:	1887883a 	add	r3,r3,r2
  8102a0:	18800003 	ldbu	r2,0(r3)
  8102a4:	00c00804 	movi	r3,32
  8102a8:	2885883a 	add	r2,r5,r2
  8102ac:	1885c83a 	sub	r2,r3,r2
  8102b0:	f800283a 	ret

008102b4 <__pack_d>:
  8102b4:	20c00017 	ldw	r3,0(r4)
  8102b8:	defffd04 	addi	sp,sp,-12
  8102bc:	dc000015 	stw	r16,0(sp)
  8102c0:	dc800215 	stw	r18,8(sp)
  8102c4:	dc400115 	stw	r17,4(sp)
  8102c8:	00800044 	movi	r2,1
  8102cc:	22000317 	ldw	r8,12(r4)
  8102d0:	001f883a 	mov	r15,zero
  8102d4:	22400417 	ldw	r9,16(r4)
  8102d8:	24000117 	ldw	r16,4(r4)
  8102dc:	10c0552e 	bgeu	r2,r3,810434 <__pack_d+0x180>
  8102e0:	00800104 	movi	r2,4
  8102e4:	18804f26 	beq	r3,r2,810424 <__pack_d+0x170>
  8102e8:	00800084 	movi	r2,2
  8102ec:	18800226 	beq	r3,r2,8102f8 <__pack_d+0x44>
  8102f0:	4244b03a 	or	r2,r8,r9
  8102f4:	10001a1e 	bne	r2,zero,810360 <__pack_d+0xac>
  8102f8:	000d883a 	mov	r6,zero
  8102fc:	000f883a 	mov	r7,zero
  810300:	0011883a 	mov	r8,zero
  810304:	00800434 	movhi	r2,16
  810308:	10bfffc4 	addi	r2,r2,-1
  81030c:	301d883a 	mov	r14,r6
  810310:	3884703a 	and	r2,r7,r2
  810314:	400a953a 	slli	r5,r8,20
  810318:	79bffc2c 	andhi	r6,r15,65520
  81031c:	308cb03a 	or	r6,r6,r2
  810320:	00e00434 	movhi	r3,32784
  810324:	18ffffc4 	addi	r3,r3,-1
  810328:	800497fa 	slli	r2,r16,31
  81032c:	30c6703a 	and	r3,r6,r3
  810330:	1946b03a 	or	r3,r3,r5
  810334:	01600034 	movhi	r5,32768
  810338:	297fffc4 	addi	r5,r5,-1
  81033c:	194a703a 	and	r5,r3,r5
  810340:	288ab03a 	or	r5,r5,r2
  810344:	2807883a 	mov	r3,r5
  810348:	7005883a 	mov	r2,r14
  81034c:	dc800217 	ldw	r18,8(sp)
  810350:	dc400117 	ldw	r17,4(sp)
  810354:	dc000017 	ldw	r16,0(sp)
  810358:	dec00304 	addi	sp,sp,12
  81035c:	f800283a 	ret
  810360:	21000217 	ldw	r4,8(r4)
  810364:	00bf0084 	movi	r2,-1022
  810368:	20803f16 	blt	r4,r2,810468 <__pack_d+0x1b4>
  81036c:	0080ffc4 	movi	r2,1023
  810370:	11002c16 	blt	r2,r4,810424 <__pack_d+0x170>
  810374:	00803fc4 	movi	r2,255
  810378:	408c703a 	and	r6,r8,r2
  81037c:	00802004 	movi	r2,128
  810380:	0007883a 	mov	r3,zero
  810384:	000f883a 	mov	r7,zero
  810388:	2280ffc4 	addi	r10,r4,1023
  81038c:	30801e26 	beq	r6,r2,810408 <__pack_d+0x154>
  810390:	00801fc4 	movi	r2,127
  810394:	4089883a 	add	r4,r8,r2
  810398:	220d803a 	cmpltu	r6,r4,r8
  81039c:	324d883a 	add	r6,r6,r9
  8103a0:	2011883a 	mov	r8,r4
  8103a4:	3013883a 	mov	r9,r6
  8103a8:	00880034 	movhi	r2,8192
  8103ac:	10bfffc4 	addi	r2,r2,-1
  8103b0:	12400d36 	bltu	r2,r9,8103e8 <__pack_d+0x134>
  8103b4:	4804963a 	slli	r2,r9,24
  8103b8:	400cd23a 	srli	r6,r8,8
  8103bc:	480ed23a 	srli	r7,r9,8
  8103c0:	013fffc4 	movi	r4,-1
  8103c4:	118cb03a 	or	r6,r2,r6
  8103c8:	01400434 	movhi	r5,16
  8103cc:	297fffc4 	addi	r5,r5,-1
  8103d0:	3104703a 	and	r2,r6,r4
  8103d4:	3946703a 	and	r3,r7,r5
  8103d8:	5201ffcc 	andi	r8,r10,2047
  8103dc:	100d883a 	mov	r6,r2
  8103e0:	180f883a 	mov	r7,r3
  8103e4:	003fc706 	br	810304 <__pack_d+0x50>
  8103e8:	480897fa 	slli	r4,r9,31
  8103ec:	4004d07a 	srli	r2,r8,1
  8103f0:	4806d07a 	srli	r3,r9,1
  8103f4:	52800044 	addi	r10,r10,1
  8103f8:	2084b03a 	or	r2,r4,r2
  8103fc:	1011883a 	mov	r8,r2
  810400:	1813883a 	mov	r9,r3
  810404:	003feb06 	br	8103b4 <__pack_d+0x100>
  810408:	383fe11e 	bne	r7,zero,810390 <__pack_d+0xdc>
  81040c:	01004004 	movi	r4,256
  810410:	4104703a 	and	r2,r8,r4
  810414:	10c4b03a 	or	r2,r2,r3
  810418:	103fe326 	beq	r2,zero,8103a8 <__pack_d+0xf4>
  81041c:	3005883a 	mov	r2,r6
  810420:	003fdc06 	br	810394 <__pack_d+0xe0>
  810424:	000d883a 	mov	r6,zero
  810428:	000f883a 	mov	r7,zero
  81042c:	0201ffc4 	movi	r8,2047
  810430:	003fb406 	br	810304 <__pack_d+0x50>
  810434:	0005883a 	mov	r2,zero
  810438:	00c00234 	movhi	r3,8
  81043c:	408cb03a 	or	r6,r8,r2
  810440:	48ceb03a 	or	r7,r9,r3
  810444:	013fffc4 	movi	r4,-1
  810448:	01400434 	movhi	r5,16
  81044c:	297fffc4 	addi	r5,r5,-1
  810450:	3104703a 	and	r2,r6,r4
  810454:	3946703a 	and	r3,r7,r5
  810458:	100d883a 	mov	r6,r2
  81045c:	180f883a 	mov	r7,r3
  810460:	0201ffc4 	movi	r8,2047
  810464:	003fa706 	br	810304 <__pack_d+0x50>
  810468:	1109c83a 	sub	r4,r2,r4
  81046c:	00800e04 	movi	r2,56
  810470:	11004316 	blt	r2,r4,810580 <__pack_d+0x2cc>
  810474:	21fff804 	addi	r7,r4,-32
  810478:	38004516 	blt	r7,zero,810590 <__pack_d+0x2dc>
  81047c:	49d8d83a 	srl	r12,r9,r7
  810480:	001b883a 	mov	r13,zero
  810484:	0023883a 	mov	r17,zero
  810488:	01400044 	movi	r5,1
  81048c:	0025883a 	mov	r18,zero
  810490:	38004716 	blt	r7,zero,8105b0 <__pack_d+0x2fc>
  810494:	29d6983a 	sll	r11,r5,r7
  810498:	0015883a 	mov	r10,zero
  81049c:	00bfffc4 	movi	r2,-1
  8104a0:	5089883a 	add	r4,r10,r2
  8104a4:	588b883a 	add	r5,r11,r2
  8104a8:	228d803a 	cmpltu	r6,r4,r10
  8104ac:	314b883a 	add	r5,r6,r5
  8104b0:	4104703a 	and	r2,r8,r4
  8104b4:	4946703a 	and	r3,r9,r5
  8104b8:	10c4b03a 	or	r2,r2,r3
  8104bc:	10000226 	beq	r2,zero,8104c8 <__pack_d+0x214>
  8104c0:	04400044 	movi	r17,1
  8104c4:	0025883a 	mov	r18,zero
  8104c8:	00803fc4 	movi	r2,255
  8104cc:	644eb03a 	or	r7,r12,r17
  8104d0:	3892703a 	and	r9,r7,r2
  8104d4:	00802004 	movi	r2,128
  8104d8:	6c90b03a 	or	r8,r13,r18
  8104dc:	0015883a 	mov	r10,zero
  8104e0:	48801626 	beq	r9,r2,81053c <__pack_d+0x288>
  8104e4:	01001fc4 	movi	r4,127
  8104e8:	3905883a 	add	r2,r7,r4
  8104ec:	11cd803a 	cmpltu	r6,r2,r7
  8104f0:	320d883a 	add	r6,r6,r8
  8104f4:	100f883a 	mov	r7,r2
  8104f8:	00840034 	movhi	r2,4096
  8104fc:	10bfffc4 	addi	r2,r2,-1
  810500:	3011883a 	mov	r8,r6
  810504:	0007883a 	mov	r3,zero
  810508:	11801b36 	bltu	r2,r6,810578 <__pack_d+0x2c4>
  81050c:	4004963a 	slli	r2,r8,24
  810510:	3808d23a 	srli	r4,r7,8
  810514:	400ad23a 	srli	r5,r8,8
  810518:	1813883a 	mov	r9,r3
  81051c:	1108b03a 	or	r4,r2,r4
  810520:	00bfffc4 	movi	r2,-1
  810524:	00c00434 	movhi	r3,16
  810528:	18ffffc4 	addi	r3,r3,-1
  81052c:	208c703a 	and	r6,r4,r2
  810530:	28ce703a 	and	r7,r5,r3
  810534:	4a01ffcc 	andi	r8,r9,2047
  810538:	003f7206 	br	810304 <__pack_d+0x50>
  81053c:	503fe91e 	bne	r10,zero,8104e4 <__pack_d+0x230>
  810540:	01004004 	movi	r4,256
  810544:	3904703a 	and	r2,r7,r4
  810548:	0007883a 	mov	r3,zero
  81054c:	10c4b03a 	or	r2,r2,r3
  810550:	10000626 	beq	r2,zero,81056c <__pack_d+0x2b8>
  810554:	3a45883a 	add	r2,r7,r9
  810558:	11cd803a 	cmpltu	r6,r2,r7
  81055c:	320d883a 	add	r6,r6,r8
  810560:	100f883a 	mov	r7,r2
  810564:	3011883a 	mov	r8,r6
  810568:	0007883a 	mov	r3,zero
  81056c:	00840034 	movhi	r2,4096
  810570:	10bfffc4 	addi	r2,r2,-1
  810574:	123fe52e 	bgeu	r2,r8,81050c <__pack_d+0x258>
  810578:	00c00044 	movi	r3,1
  81057c:	003fe306 	br	81050c <__pack_d+0x258>
  810580:	0009883a 	mov	r4,zero
  810584:	0013883a 	mov	r9,zero
  810588:	000b883a 	mov	r5,zero
  81058c:	003fe406 	br	810520 <__pack_d+0x26c>
  810590:	4a47883a 	add	r3,r9,r9
  810594:	008007c4 	movi	r2,31
  810598:	1105c83a 	sub	r2,r2,r4
  81059c:	1886983a 	sll	r3,r3,r2
  8105a0:	4118d83a 	srl	r12,r8,r4
  8105a4:	491ad83a 	srl	r13,r9,r4
  8105a8:	1b18b03a 	or	r12,r3,r12
  8105ac:	003fb506 	br	810484 <__pack_d+0x1d0>
  8105b0:	2806d07a 	srli	r3,r5,1
  8105b4:	008007c4 	movi	r2,31
  8105b8:	1105c83a 	sub	r2,r2,r4
  8105bc:	1896d83a 	srl	r11,r3,r2
  8105c0:	2914983a 	sll	r10,r5,r4
  8105c4:	003fb506 	br	81049c <__pack_d+0x1e8>

008105c8 <__unpack_d>:
  8105c8:	20c00117 	ldw	r3,4(r4)
  8105cc:	22400017 	ldw	r9,0(r4)
  8105d0:	00800434 	movhi	r2,16
  8105d4:	10bfffc4 	addi	r2,r2,-1
  8105d8:	1808d53a 	srli	r4,r3,20
  8105dc:	180cd7fa 	srli	r6,r3,31
  8105e0:	1894703a 	and	r10,r3,r2
  8105e4:	2201ffcc 	andi	r8,r4,2047
  8105e8:	281b883a 	mov	r13,r5
  8105ec:	4817883a 	mov	r11,r9
  8105f0:	29800115 	stw	r6,4(r5)
  8105f4:	5019883a 	mov	r12,r10
  8105f8:	40001e1e 	bne	r8,zero,810674 <__unpack_d+0xac>
  8105fc:	4a84b03a 	or	r2,r9,r10
  810600:	10001926 	beq	r2,zero,810668 <__unpack_d+0xa0>
  810604:	4804d63a 	srli	r2,r9,24
  810608:	500c923a 	slli	r6,r10,8
  81060c:	013f0084 	movi	r4,-1022
  810610:	00c40034 	movhi	r3,4096
  810614:	18ffffc4 	addi	r3,r3,-1
  810618:	118cb03a 	or	r6,r2,r6
  81061c:	008000c4 	movi	r2,3
  810620:	480a923a 	slli	r5,r9,8
  810624:	68800015 	stw	r2,0(r13)
  810628:	69000215 	stw	r4,8(r13)
  81062c:	19800b36 	bltu	r3,r6,81065c <__unpack_d+0x94>
  810630:	200f883a 	mov	r7,r4
  810634:	1811883a 	mov	r8,r3
  810638:	2945883a 	add	r2,r5,r5
  81063c:	1149803a 	cmpltu	r4,r2,r5
  810640:	3187883a 	add	r3,r6,r6
  810644:	20c9883a 	add	r4,r4,r3
  810648:	100b883a 	mov	r5,r2
  81064c:	200d883a 	mov	r6,r4
  810650:	39ffffc4 	addi	r7,r7,-1
  810654:	413ff82e 	bgeu	r8,r4,810638 <__unpack_d+0x70>
  810658:	69c00215 	stw	r7,8(r13)
  81065c:	69800415 	stw	r6,16(r13)
  810660:	69400315 	stw	r5,12(r13)
  810664:	f800283a 	ret
  810668:	00800084 	movi	r2,2
  81066c:	28800015 	stw	r2,0(r5)
  810670:	f800283a 	ret
  810674:	0081ffc4 	movi	r2,2047
  810678:	40800f26 	beq	r8,r2,8106b8 <__unpack_d+0xf0>
  81067c:	480cd63a 	srli	r6,r9,24
  810680:	5006923a 	slli	r3,r10,8
  810684:	4804923a 	slli	r2,r9,8
  810688:	0009883a 	mov	r4,zero
  81068c:	30c6b03a 	or	r3,r6,r3
  810690:	01440034 	movhi	r5,4096
  810694:	110cb03a 	or	r6,r2,r4
  810698:	423f0044 	addi	r8,r8,-1023
  81069c:	194eb03a 	or	r7,r3,r5
  8106a0:	008000c4 	movi	r2,3
  8106a4:	69c00415 	stw	r7,16(r13)
  8106a8:	6a000215 	stw	r8,8(r13)
  8106ac:	68800015 	stw	r2,0(r13)
  8106b0:	69800315 	stw	r6,12(r13)
  8106b4:	f800283a 	ret
  8106b8:	4a84b03a 	or	r2,r9,r10
  8106bc:	1000031e 	bne	r2,zero,8106cc <__unpack_d+0x104>
  8106c0:	00800104 	movi	r2,4
  8106c4:	28800015 	stw	r2,0(r5)
  8106c8:	f800283a 	ret
  8106cc:	0009883a 	mov	r4,zero
  8106d0:	01400234 	movhi	r5,8
  8106d4:	4904703a 	and	r2,r9,r4
  8106d8:	5146703a 	and	r3,r10,r5
  8106dc:	10c4b03a 	or	r2,r2,r3
  8106e0:	10000526 	beq	r2,zero,8106f8 <__unpack_d+0x130>
  8106e4:	00800044 	movi	r2,1
  8106e8:	68800015 	stw	r2,0(r13)
  8106ec:	6b000415 	stw	r12,16(r13)
  8106f0:	6ac00315 	stw	r11,12(r13)
  8106f4:	f800283a 	ret
  8106f8:	68000015 	stw	zero,0(r13)
  8106fc:	003ffb06 	br	8106ec <__unpack_d+0x124>

00810700 <__fpcmp_parts_d>:
  810700:	21800017 	ldw	r6,0(r4)
  810704:	00c00044 	movi	r3,1
  810708:	19800a2e 	bgeu	r3,r6,810734 <__fpcmp_parts_d+0x34>
  81070c:	28800017 	ldw	r2,0(r5)
  810710:	1880082e 	bgeu	r3,r2,810734 <__fpcmp_parts_d+0x34>
  810714:	00c00104 	movi	r3,4
  810718:	30c02626 	beq	r6,r3,8107b4 <__fpcmp_parts_d+0xb4>
  81071c:	10c02226 	beq	r2,r3,8107a8 <__fpcmp_parts_d+0xa8>
  810720:	00c00084 	movi	r3,2
  810724:	30c00526 	beq	r6,r3,81073c <__fpcmp_parts_d+0x3c>
  810728:	10c0071e 	bne	r2,r3,810748 <__fpcmp_parts_d+0x48>
  81072c:	20800117 	ldw	r2,4(r4)
  810730:	1000091e 	bne	r2,zero,810758 <__fpcmp_parts_d+0x58>
  810734:	00800044 	movi	r2,1
  810738:	f800283a 	ret
  81073c:	10c01a1e 	bne	r2,r3,8107a8 <__fpcmp_parts_d+0xa8>
  810740:	0005883a 	mov	r2,zero
  810744:	f800283a 	ret
  810748:	22000117 	ldw	r8,4(r4)
  81074c:	28800117 	ldw	r2,4(r5)
  810750:	40800326 	beq	r8,r2,810760 <__fpcmp_parts_d+0x60>
  810754:	403ff726 	beq	r8,zero,810734 <__fpcmp_parts_d+0x34>
  810758:	00bfffc4 	movi	r2,-1
  81075c:	f800283a 	ret
  810760:	20c00217 	ldw	r3,8(r4)
  810764:	28800217 	ldw	r2,8(r5)
  810768:	10fffa16 	blt	r2,r3,810754 <__fpcmp_parts_d+0x54>
  81076c:	18800916 	blt	r3,r2,810794 <__fpcmp_parts_d+0x94>
  810770:	21c00417 	ldw	r7,16(r4)
  810774:	28c00417 	ldw	r3,16(r5)
  810778:	21800317 	ldw	r6,12(r4)
  81077c:	28800317 	ldw	r2,12(r5)
  810780:	19fff436 	bltu	r3,r7,810754 <__fpcmp_parts_d+0x54>
  810784:	38c00526 	beq	r7,r3,81079c <__fpcmp_parts_d+0x9c>
  810788:	38c00236 	bltu	r7,r3,810794 <__fpcmp_parts_d+0x94>
  81078c:	19ffec1e 	bne	r3,r7,810740 <__fpcmp_parts_d+0x40>
  810790:	30bfeb2e 	bgeu	r6,r2,810740 <__fpcmp_parts_d+0x40>
  810794:	403fe71e 	bne	r8,zero,810734 <__fpcmp_parts_d+0x34>
  810798:	003fef06 	br	810758 <__fpcmp_parts_d+0x58>
  81079c:	11bffa2e 	bgeu	r2,r6,810788 <__fpcmp_parts_d+0x88>
  8107a0:	403fe426 	beq	r8,zero,810734 <__fpcmp_parts_d+0x34>
  8107a4:	003fec06 	br	810758 <__fpcmp_parts_d+0x58>
  8107a8:	28800117 	ldw	r2,4(r5)
  8107ac:	103fe11e 	bne	r2,zero,810734 <__fpcmp_parts_d+0x34>
  8107b0:	003fe906 	br	810758 <__fpcmp_parts_d+0x58>
  8107b4:	11bfdd1e 	bne	r2,r6,81072c <__fpcmp_parts_d+0x2c>
  8107b8:	28c00117 	ldw	r3,4(r5)
  8107bc:	20800117 	ldw	r2,4(r4)
  8107c0:	1885c83a 	sub	r2,r3,r2
  8107c4:	f800283a 	ret

008107c8 <alt_sim_halt>:
  8107c8:	defffd04 	addi	sp,sp,-12
  8107cc:	df000215 	stw	fp,8(sp)
  8107d0:	df000204 	addi	fp,sp,8
  8107d4:	e13fff15 	stw	r4,-4(fp)
  8107d8:	e0bfff17 	ldw	r2,-4(fp)
  8107dc:	e0bffe15 	stw	r2,-8(fp)
  8107e0:	e0bffe17 	ldw	r2,-8(fp)
  8107e4:	1005003a 	cmpeq	r2,r2,zero
  8107e8:	1000021e 	bne	r2,zero,8107f4 <alt_sim_halt+0x2c>
  8107ec:	002af070 	cmpltui	zero,zero,43969
  8107f0:	00000106 	br	8107f8 <alt_sim_halt+0x30>
  8107f4:	002af0b0 	cmpltui	zero,zero,43970
  8107f8:	e037883a 	mov	sp,fp
  8107fc:	df000017 	ldw	fp,0(sp)
  810800:	dec00104 	addi	sp,sp,4
  810804:	f800283a 	ret

00810808 <_exit>:
  810808:	defffd04 	addi	sp,sp,-12
  81080c:	dfc00215 	stw	ra,8(sp)
  810810:	df000115 	stw	fp,4(sp)
  810814:	df000104 	addi	fp,sp,4
  810818:	e13fff15 	stw	r4,-4(fp)
  81081c:	e13fff17 	ldw	r4,-4(fp)
  810820:	08107c80 	call	8107c8 <alt_sim_halt>
  810824:	003fff06 	br	810824 <_exit+0x1c>
  810828:	00000010 	cmplti	zero,zero,0
  81082c:	00000000 	call	0 <__alt_mem_sdram-0x800000>
  810830:	00527a01 	jmpi	527a0 <__alt_mem_sdram-0x7ad860>
  810834:	011f7c01 	jmpi	11f7c0 <__alt_mem_sdram-0x6e0840>
  810838:	001b0c0b 	ldhu	zero,27696(zero)
  81083c:	00000028 	cmpgeui	zero,zero,0
  810840:	00000018 	cmpnei	zero,zero,0
  810844:	0080e1cc 	andi	r2,zero,903
  810848:	0000066c 	andhi	zero,zero,25
  81084c:	3c0e4400 	call	3c0e440 <__alt_data_end+0x2c0e440>
  810850:	910a9074 	orhi	r4,r18,10817
  810854:	94089209 	0x94089209
  810858:	97049606 	br	811ab4 <jtag_uart+0x4fc>
  81085c:	93019f03 	ldbu	r12,1660(r18)
  810860:	9c059507 	ldb	r16,5716(r19)
  810864:	00000002 	0x2
  810868:	00000028 	cmpgeui	zero,zero,0
  81086c:	00000044 	movi	zero,1
  810870:	0080e838 	rdprs	r2,zero,928
  810874:	00000660 	cmpeqi	zero,zero,25
  810878:	400e4400 	call	400e440 <__alt_data_end+0x300e440>
  81087c:	92099170 	cmpltui	r8,r18,9797
  810880:	96069408 	cmpgei	et,r18,6736
  810884:	9c039704 	addi	r16,r19,3676
  810888:	90019f02 	0x90019f02
  81088c:	9507930a 	0x9507930a
  810890:	00000005 	stb	zero,0(zero)
  810894:	0080b4dc 	xori	r2,zero,723
