
test5_app.elf:     file format elf32-littlenios2
test5_app.elf
architecture: nios2, flags 0x00000112:
EXEC_P, HAS_SYMS, D_PAGED
start address 0x00800274

Program Header:
    LOAD off    0x00001000 vaddr 0x00800000 paddr 0x00800000 align 2**12
         filesz 0x00000020 memsz 0x00000020 flags r-x
    LOAD off    0x00001020 vaddr 0x00800020 paddr 0x00800020 align 2**12
         filesz 0x0001305c memsz 0x0001305c flags r-x
    LOAD off    0x0001407c vaddr 0x0081307c paddr 0x00814bb8 align 2**12
         filesz 0x00001b3c memsz 0x00001b3c flags rw-
    LOAD off    0x000166f4 vaddr 0x008166f4 paddr 0x008166f4 align 2**12
         filesz 0x00000000 memsz 0x00000510 flags rw-

Sections:
Idx Name          Size      VMA       LMA       File off  Algn
  0 .entry        00000020  00800000  00800000  00001000  2**5
                  CONTENTS, ALLOC, LOAD, READONLY, CODE
  1 .exceptions   00000254  00800020  00800020  00001020  2**2
                  CONTENTS, ALLOC, LOAD, READONLY, CODE
  2 .text         00012634  00800274  00800274  00001274  2**2
                  CONTENTS, ALLOC, LOAD, READONLY, CODE
  3 .rodata       000007d4  008128a8  008128a8  000138a8  2**2
                  CONTENTS, ALLOC, LOAD, READONLY, DATA
  4 .rwdata       00001b3c  0081307c  00814bb8  0001407c  2**2
                  CONTENTS, ALLOC, LOAD, DATA, SMALL_DATA
  5 .bss          00000510  008166f4  008166f4  000166f4  2**2
                  ALLOC, SMALL_DATA
  6 .comment      00000026  00000000  00000000  00015bb8  2**0
                  CONTENTS, READONLY
  7 .debug_aranges 00000f10  00000000  00000000  00015be0  2**3
                  CONTENTS, READONLY, DEBUGGING
  8 .debug_pubnames 00001fd1  00000000  00000000  00016af0  2**0
                  CONTENTS, READONLY, DEBUGGING
  9 .debug_info   0002b6d8  00000000  00000000  00018ac1  2**0
                  CONTENTS, READONLY, DEBUGGING
 10 .debug_abbrev 00008f9c  00000000  00000000  00044199  2**0
                  CONTENTS, READONLY, DEBUGGING
 11 .debug_line   0001a2a4  00000000  00000000  0004d135  2**0
                  CONTENTS, READONLY, DEBUGGING
 12 .debug_frame  000028d0  00000000  00000000  000673dc  2**2
                  CONTENTS, READONLY, DEBUGGING
 13 .debug_str    000028d7  00000000  00000000  00069cac  2**0
                  CONTENTS, READONLY, DEBUGGING
 14 .debug_loc    0000d6e4  00000000  00000000  0006c583  2**0
                  CONTENTS, READONLY, DEBUGGING
 15 .debug_alt_sim_info 00000020  00000000  00000000  00079c68  2**2
                  CONTENTS, READONLY, DEBUGGING
 16 .debug_ranges 000009c0  00000000  00000000  00079c88  2**3
                  CONTENTS, READONLY, DEBUGGING
 17 .thread_model 00000008  00000000  00000000  0007f1ea  2**0
                  CONTENTS, READONLY
 18 .cpu          00000003  00000000  00000000  0007f1f2  2**0
                  CONTENTS, READONLY
 19 .qsys         00000001  00000000  00000000  0007f1f5  2**0
                  CONTENTS, READONLY
 20 .simulation_enabled 00000001  00000000  00000000  0007f1f6  2**0
                  CONTENTS, READONLY
 21 .sysid_hash   00000004  00000000  00000000  0007f1f7  2**0
                  CONTENTS, READONLY
 22 .sysid_base   00000004  00000000  00000000  0007f1fb  2**0
                  CONTENTS, READONLY
 23 .sysid_time   00000004  00000000  00000000  0007f1ff  2**0
                  CONTENTS, READONLY
 24 .stderr_dev   00000009  00000000  00000000  0007f203  2**0
                  CONTENTS, READONLY
 25 .stdin_dev    00000009  00000000  00000000  0007f20c  2**0
                  CONTENTS, READONLY
 26 .stdout_dev   00000009  00000000  00000000  0007f215  2**0
                  CONTENTS, READONLY
 27 .sopc_system_name 00000012  00000000  00000000  0007f21e  2**0
                  CONTENTS, READONLY
 28 .jdi          000054a1  00000000  00000000  0007f230  2**0
                  CONTENTS, READONLY
 29 .sopcinfo     00038d0a  00000000  00000000  000846d1  2**0
                  CONTENTS, READONLY
SYMBOL TABLE:
00800000 l    d  .entry	00000000 .entry
00800020 l    d  .exceptions	00000000 .exceptions
00800274 l    d  .text	00000000 .text
008128a8 l    d  .rodata	00000000 .rodata
0081307c l    d  .rwdata	00000000 .rwdata
008166f4 l    d  .bss	00000000 .bss
00000000 l    d  .comment	00000000 .comment
00000000 l    d  .debug_aranges	00000000 .debug_aranges
00000000 l    d  .debug_pubnames	00000000 .debug_pubnames
00000000 l    d  .debug_info	00000000 .debug_info
00000000 l    d  .debug_abbrev	00000000 .debug_abbrev
00000000 l    d  .debug_line	00000000 .debug_line
00000000 l    d  .debug_frame	00000000 .debug_frame
00000000 l    d  .debug_str	00000000 .debug_str
00000000 l    d  .debug_loc	00000000 .debug_loc
00000000 l    d  .debug_alt_sim_info	00000000 .debug_alt_sim_info
00000000 l    d  .debug_ranges	00000000 .debug_ranges
0080031c l       .text	00000000 alt_after_alt_main
00800020 l       .exceptions	00000000 save_context
008000a8 l       .exceptions	00000000 save_sp_to_pxCurrentTCB
008000c0 l       .exceptions	00000000 hw_irq_test
00800178 l       .exceptions	00000000 soft_exceptions
008000d4 l       .exceptions	00000000 hw_irq_handler
008000f0 l       .exceptions	00000000 restore_context
00800194 l       .exceptions	00000000 call_scheduler
00000000 l    df *ABS*	00000000 alt_irq_handler.c
00000000 l    df *ABS*	00000000 display.c
0080038c l     F .text	00000140 display_main
00000000 l    df *ABS*	00000000 keypad.c
00800560 l     F .text	0000009c kp_main
008005fc l     F .text	00000078 kp_getCurrent
00814b70 l     O .rwdata	00000002 output.2585
00000000 l    df *ABS*	00000000 main.c
00000000 l    df *ABS*	00000000 manager.c
008166fc l     O .bss	00000004 qKP
00816700 l     O .bss	00000004 qMOVE
00800774 l     F .text	000000bc man_main
00800830 l     F .text	000001dc man_key_down
00800a0c l     F .text	000001d8 man_key_up
00000000 l    df *ABS*	00000000 messaging.c
00000000 l    df *ABS*	00000000 movement.c
00816704 l     O .bss	00000004 xSemaphore
00816708 l     O .bss	00000004 qMove
008167a8 l     O .bss	00000040 ServoData
00800fe8 l     F .text	000000bc move_servo_task
00800f54 l     F .text	00000094 move_main_task
008010a4 l     F .text	000000fc move_servo_cont
00000000 l    df *ABS*	00000000 pwm.c
0081670c l     O .bss	00000004 xSemaphore
00000000 l    df *ABS*	00000000 lib2-mul.c
00000000 l    df *ABS*	00000000 printf.c
00000000 l    df *ABS*	00000000 puts.c
00000000 l    df *ABS*	00000000 strlen.c
00000000 l    df *ABS*	00000000 vfprintf.c
0080162c l     F .text	00000058 __sprint_r
00812aa6 l     O .rodata	00000010 blanks.3452
00812a96 l     O .rodata	00000010 zeroes.3453
00000000 l    df *ABS*	00000000 wsetup.c
00000000 l    df *ABS*	00000000 dtoa.c
008036a8 l     F .text	00000244 quorem
00000000 l    df *ABS*	00000000 fflush.c
00000000 l    df *ABS*	00000000 findfp.c
008050d0 l     F .text	00000058 std
008051dc l     F .text	00000008 __fp_lock
008051e4 l     F .text	00000008 __fp_unlock
00000000 l    df *ABS*	00000000 mallocr.c
00000000 l    df *ABS*	00000000 fvwrite.c
00000000 l    df *ABS*	00000000 fwalk.c
00000000 l    df *ABS*	00000000 impure.c
008130ac l     O .rwdata	00000400 impure_data
00000000 l    df *ABS*	00000000 locale.c
00814b80 l     O .rwdata	00000004 charset
00812adc l     O .rodata	00000030 lconv
00000000 l    df *ABS*	00000000 makebuf.c
00000000 l    df *ABS*	00000000 mallocr.c
00000000 l    df *ABS*	00000000 memchr.c
00000000 l    df *ABS*	00000000 memcpy.c
00000000 l    df *ABS*	00000000 memmove.c
00000000 l    df *ABS*	00000000 memset.c
00000000 l    df *ABS*	00000000 mprec.c
00812c24 l     O .rodata	0000000c p05.2458
00000000 l    df *ABS*	00000000 mallocr.c
00000000 l    df *ABS*	00000000 s_isinfd.c
00000000 l    df *ABS*	00000000 s_isnand.c
00000000 l    df *ABS*	00000000 sbrkr.c
00000000 l    df *ABS*	00000000 stdio.c
00000000 l    df *ABS*	00000000 strcmp.c
00000000 l    df *ABS*	00000000 writer.c
00000000 l    df *ABS*	00000000 mallocr.c
00000000 l    df *ABS*	00000000 closer.c
00000000 l    df *ABS*	00000000 fclose.c
00000000 l    df *ABS*	00000000 fstatr.c
00000000 l    df *ABS*	00000000 int_errno.c
00000000 l    df *ABS*	00000000 isattyr.c
00000000 l    df *ABS*	00000000 lseekr.c
00000000 l    df *ABS*	00000000 readr.c
00000000 l    df *ABS*	00000000 libgcc2.c
00000000 l    df *ABS*	00000000 libgcc2.c
00000000 l    df *ABS*	00000000 dp-bit.c
00809590 l     F .text	00000410 _fpadd_parts
00000000 l    df *ABS*	00000000 dp-bit.c
00000000 l    df *ABS*	00000000 dp-bit.c
00000000 l    df *ABS*	00000000 dp-bit.c
00000000 l    df *ABS*	00000000 dp-bit.c
00000000 l    df *ABS*	00000000 dp-bit.c
00000000 l    df *ABS*	00000000 dp-bit.c
00000000 l    df *ABS*	00000000 dp-bit.c
00000000 l    df *ABS*	00000000 dp-bit.c
00000000 l    df *ABS*	00000000 dp-bit.c
00000000 l    df *ABS*	00000000 dp-bit.c
00000000 l    df *ABS*	00000000 dp-bit.c
00000000 l    df *ABS*	00000000 lib2-divmod.c
0080a6bc l     F .text	0000007c udivmodsi4
00000000 l    df *ABS*	00000000 libgcc2.c
00000000 l    df *ABS*	00000000 libgcc2.c
00000000 l    df *ABS*	00000000 libgcc2.c
00000000 l    df *ABS*	00000000 dp-bit.c
00000000 l    df *ABS*	00000000 dp-bit.c
00000000 l    df *ABS*	00000000 dp-bit.c
00000000 l    df *ABS*	00000000 alt_main.c
00000000 l    df *ABS*	00000000 alt_malloc_lock.c
00000000 l    df *ABS*	00000000 queue.c
0080bd44 l     F .text	0000015c prvCopyDataToQueue
0080c0ec l     F .text	00000064 prvIsQueueFull
0080bf3c l     F .text	00000120 prvUnlockQueue
0080bea0 l     F .text	0000009c prvCopyDataFromQueue
0080c05c l     F .text	0000005c prvIsQueueEmpty
00000000 l    df *ABS*	00000000 tasks.c
00816740 l     O .bss	00000004 uxTasksDeleted
00816744 l     O .bss	00000004 uxCurrentNumberOfTasks
00816748 l     O .bss	00000004 xTickCount
0081674c l     O .bss	00000004 uxTopUsedPriority
00816750 l     O .bss	00000004 uxTopReadyPriority
00816754 l     O .bss	00000004 xSchedulerRunning
00816758 l     O .bss	00000004 uxSchedulerSuspended
0081675c l     O .bss	00000004 uxMissedTicks
00816760 l     O .bss	00000004 xMissedYield
00816764 l     O .bss	00000004 xNumOfOverflows
00816768 l     O .bss	00000004 uxTaskNumber
00814b8c l     O .rwdata	00000004 xNextTaskUnblockTime
0080d964 l     F .text	000000c4 prvAllocateTCBAndStack
0080d6a4 l     F .text	000000d4 prvInitialiseTCBVariables
0080d778 l     F .text	000000b8 prvInitialiseTaskLists
00816858 l     O .bss	00000064 pxReadyTasksLists
008168f8 l     O .bss	00000014 xTasksWaitingTermination
0080d8ec l     F .text	00000078 prvAddCurrentTaskToDelayedList
0081690c l     O .bss	00000014 xSuspendedTaskList
008168e4 l     O .bss	00000014 xPendingReadyList
0080d688 l     F .text	0000001c prvIdleTask
0080da28 l     F .text	00000148 prvListTaskWithinSingleList
0081676c l     O .bss	00000004 pxDelayedTaskList
00816770 l     O .bss	00000004 pxOverflowDelayedTaskList
0080d830 l     F .text	000000bc prvCheckTasksWaitingTermination
008168bc l     O .bss	00000014 xDelayedTaskList1
008168d0 l     O .bss	00000014 xDelayedTaskList2
0080dc44 l     F .text	0000003c prvDeleteTCB
00816810 l     O .bss	00000046 pcStatusString.3812
0080db70 l     F .text	00000064 usTaskCheckFreeStackSpace
00000000 l    df *ABS*	00000000 timers.c
00816774 l     O .bss	00000004 xTimerQueue
0080e710 l     F .text	00000094 prvCheckForValidListAndQueue
0080e228 l     F .text	00000034 prvTimerTask
0080e17c l     F .text	000000ac prvProcessExpiredTimer
0081677c l     O .bss	00000004 pxCurrentTimerList
0080e3c4 l     F .text	000000cc prvInsertTimerInActiveList
0080e2fc l     F .text	00000060 prvGetNextExpireTime
0080e25c l     F .text	000000a0 prvProcessTimerOrBlockTask
0080e490 l     F .text	00000178 prvProcessReceivedCommands
0080e35c l     F .text	00000068 prvSampleTimeNow
00816778 l     O .bss	00000004 xLastTime.1990
0080e608 l     F .text	00000108 prvSwitchTimerLists
00816780 l     O .bss	00000004 pxOverflowTimerList
00816920 l     O .bss	00000014 xActiveTimerList1
00816934 l     O .bss	00000014 xActiveTimerList2
00000000 l    df *ABS*	00000000 alt_close.c
0080e938 l     F .text	00000060 alt_get_errno
00000000 l    df *ABS*	00000000 alt_dev.c
0080e998 l     F .text	0000002c alt_dev_null_write
00000000 l    df *ABS*	00000000 alt_do_ctors.c
00000000 l    df *ABS*	00000000 alt_do_dtors.c
00000000 l    df *ABS*	00000000 alt_errno.c
00000000 l    df *ABS*	00000000 alt_fstat.c
0080eb64 l     F .text	00000060 alt_get_errno
00000000 l    df *ABS*	00000000 alt_io_redirect.c
0080ebc4 l     F .text	000000d8 alt_open_fd
00000000 l    df *ABS*	00000000 alt_isatty.c
0080edd8 l     F .text	00000060 alt_get_errno
00000000 l    df *ABS*	00000000 alt_load.c
0080eeb8 l     F .text	0000006c alt_load_section
0080ef2c l       .text	00000000 tx_next_char
0080ef4c l       .text	00000000 end_tx
0080ef34 l       .text	00000000 wait_tx_ready_loop
00000000 l    df *ABS*	00000000 alt_log_printf.c
00000000 l    df *ABS*	00000000 alt_lseek.c
0080fb28 l     F .text	00000060 alt_get_errno
00000000 l    df *ABS*	00000000 alt_open.c
0080fb88 l     F .text	000000f8 alt_file_locked
0080fe0c l     F .text	00000060 alt_get_errno
00000000 l    df *ABS*	00000000 alt_read.c
0080ff90 l     F .text	00000060 alt_get_errno
00000000 l    df *ABS*	00000000 alt_release_fd.c
00000000 l    df *ABS*	00000000 alt_sbrk.c
00814ba8 l     O .rwdata	00000004 heap_end
00000000 l    df *ABS*	00000000 alt_tick.c
00000000 l    df *ABS*	00000000 alt_write.c
008103fc l     F .text	00000060 alt_get_errno
00000000 l    df *ABS*	00000000 alt_sys_init.c
00813b08 l     O .rwdata	00001068 jtag_uart
008104ec l     F .text	00000038 alt_dev_reg
00000000 l    df *ABS*	00000000 altera_avalon_jtag_uart_fd.c
00000000 l    df *ABS*	00000000 altera_avalon_jtag_uart_init.c
0081083c l     F .text	0000023c altera_avalon_jtag_uart_irq
00810a78 l     F .text	000000b0 altera_avalon_jtag_uart_timeout
00000000 l    df *ABS*	00000000 altera_avalon_jtag_uart_ioctl.c
00000000 l    df *ABS*	00000000 altera_avalon_jtag_uart_read.c
00000000 l    df *ABS*	00000000 altera_avalon_jtag_uart_write.c
00000000 l    df *ABS*	00000000 altera_avalon_timer_sc.c
0081116c l     F .text	00000074 alt_avalon_timer_sc_irq
00000000 l    df *ABS*	00000000 alt_env_lock.c
00000000 l    df *ABS*	00000000 heap_3.c
00000000 l    df *ABS*	00000000 list.c
00000000 l    df *ABS*	00000000 port.c
00811708 l     F .text	00000028 prvReadGp
00000000 l    df *ABS*	00000000 alt_alarm_start.c
00000000 l    df *ABS*	00000000 alt_dcache_flush_all.c
00000000 l    df *ABS*	00000000 alt_dev_llist_insert.c
008119d4 l     F .text	00000060 alt_get_errno
00000000 l    df *ABS*	00000000 alt_find_dev.c
00000000 l    df *ABS*	00000000 alt_find_file.c
00000000 l    df *ABS*	00000000 alt_get_fd.c
00000000 l    df *ABS*	00000000 alt_icache_flush_all.c
00000000 l    df *ABS*	00000000 alt_iic.c
00000000 l    df *ABS*	00000000 alt_iic_isr_register.c
00000000 l    df *ABS*	00000000 alt_irq_vars.c
00000000 l    df *ABS*	00000000 altera_nios2_qsys_irq.c
00000000 l    df *ABS*	00000000 alt_icache_flush.c
00000000 l    df *ABS*	00000000 atexit.c
00000000 l    df *ABS*	00000000 errno.c
00000000 l    df *ABS*	00000000 exit.c
00000000 l    df *ABS*	00000000 malloc.c
00000000 l    df *ABS*	00000000 memcmp.c
00000000 l    df *ABS*	00000000 sprintf.c
00000000 l    df *ABS*	00000000 strcat.c
00000000 l    df *ABS*	00000000 strcpy.c
00000000 l    df *ABS*	00000000 strncpy.c
00000000 l    df *ABS*	00000000 __atexit.c
00000000 l    df *ABS*	00000000 __call_atexit.c
00812580 l     F .text	00000004 register_fini
00000000 l    df *ABS*	00000000 alt_exit.c
00812734 l     F .text	00000040 alt_sim_halt
00806ec0 g     F .text	00000094 _mprec_log10
00806fac g     F .text	00000088 __any_on
00808764 g     F .text	00000070 _isatty_r
00812bfc g     O .rodata	00000028 __mprec_tinytens
0080aef8 g     F .text	00000210 alt_main
00812304 g     F .text	0000008c strcpy
008011a0 g     F .text	0000004c move_get_state
00801504 g     F .text	000000a0 _puts_r
00816974 g     O .bss	00000100 alt_irq
008087d4 g     F .text	00000078 _lseek_r
008000d8 g       .exceptions	00000000 restore_sp_from_pxCurrentTCB
00814bb8 g       *ABS*	00000000 __flash_rwdata_start
0080a0b0 g     F .text	00000088 __eqdf2
008166f4 g     O .bss	00000004 tKP
00816c04 g       *ABS*	00000000 __alt_heap_start
0080c68c g     F .text	00000080 uxTaskPriorityGet
0080e004 g     F .text	000000b0 xTimerCreate
0080148c g     F .text	00000044 printf
0080821c g     F .text	00000068 __sseek
00805138 g     F .text	000000a4 __sinit
0080c18c g     F .text	000000a4 vQueueWaitForMessageRestricted
00805e44 g     F .text	00000084 _setlocale_r
00805238 g     F .text	0000009c __sfmoreglue
0080b15c g     F .text	0000003c __malloc_unlock
008013a4 g     F .text	000000b0 pwm_get_pos
0080f824 g     F .text	00000058 alt_log_jtag_uart_isr_proc
0080693c g     F .text	000000e0 memmove
0080dedc g     F .text	00000050 vTaskEnterCritical
00805228 g     F .text	00000010 _cleanup
0080b7c0 g     F .text	000000d4 xQueueGenericSendFromISR
00807034 g     F .text	000000bc _Balloc
00800c68 g     F .text	00000050 msg_rmQueue
00816788 g     O .bss	00000001 alt_log_write_on_flag
0080a1c0 g     F .text	00000088 __gtdf2
008120bc g     F .text	00000010 __errno
0081678b g     O .bss	00000001 alt_log_jtag_uart_isr_on_flag
00800000 g     F .entry	0000001c __reset
0080b46c g     F .text	0000008c xQueueGiveMutexRecursive
0081673c g     O .bss	00000004 pxCurrentTCB
00800020 g       *ABS*	00000000 __flash_exceptions_start
008086f0 g     F .text	00000074 _fstat_r
00816728 g     O .bss	00000004 errno
00816948 g     O .bss	00000011 alt_log_write_buf
00800d98 g     F .text	00000060 msg_recv_block
0080aec0  w    F .text	0000001c pre_constructors
00816730 g     O .bss	00000004 alt_argv
0081cb70 g       *ABS*	00000000 _gp
0080c70c g     F .text	000001cc vTaskPrioritySet
00816738 g     O .bss	00000004 alt_heapsem
008138e8 g     O .rwdata	00000180 alt_fd_list
00813a84 g     O .rwdata	0000001d alt_log_msg_alt_main
00811730 g     F .text	0000002c xPortStartScheduler
0081678a g     O .bss	00000001 alt_log_jtag_uart_alarm_on_flag
0080cca0 g     F .text	00000044 vTaskEndScheduler
00811a34 g     F .text	00000094 alt_find_dev
0080689c g     F .text	000000a0 memcpy
0080d2e8 g     F .text	00000084 vTaskPlaceOnEventList
0080c230 g     F .text	0000020c xTaskGenericCreate
0080c9d4 g     F .text	00000070 xTaskIsTaskSuspended
0080521c g     F .text	0000000c _cleanup_r
0080a358 g     F .text	000000f8 __floatsidf
0080ec9c g     F .text	00000078 alt_io_redirect
0080a2d0 g     F .text	00000088 __ltdf2
008128a8 g       *ABS*	00000000 __DTOR_END__
0080aedc  w    F .text	0000001c post_constructors
008015a4 g     F .text	00000014 puts
00811340 g     F .text	00000044 vPortFree
00806e10 g     F .text	000000b0 __ratio
00810c90 g     F .text	00000260 altera_avalon_jtag_uart_read
00812118 g     F .text	00000014 malloc
008014d0 g     F .text	00000034 _printf_r
0080a7f8 g     F .text	00000008 __udivsi3
0080ed14 g     F .text	000000c4 isatty
00812b0c g     O .rodata	000000c8 __mprec_tens
0080dbd4 g     F .text	00000070 uxTaskGetStackHighWaterMark
00805e20 g     F .text	00000008 __locale_charset
0081141c g     F .text	00000098 vListInsertEnd
00812018 g     F .text	00000090 alt_icache_flush
0080f9bc g     F .text	00000078 alt_log_system_clock
0081671c g     O .bss	00000004 __malloc_top_pad
00800d24 g     F .text	00000074 msg_recv_noblock
008006f8 g     F .text	0000007c man_start
00816784 g     O .bss	00000004 alt_fd_list_lock
00814b7c g     O .rwdata	00000004 __mb_cur_max
00805e28 g     F .text	0000000c _localeconv_r
00807798 g     F .text	0000003c __i2b
00805804 g     F .text	0000049c __sfvwrite_r
0080f610 g     F .text	00000054 alt_log_printf_proc
008081a4 g     F .text	00000070 _sbrk_r
0081678c g     O .bss	00000001 alt_log_jtag_uart_startup_info_on_flag
0080cb28 g     F .text	000000dc xTaskResumeFromISR
0080884c g     F .text	00000078 _read_r
008113f4 g     F .text	00000028 vListInitialiseItem
008134ac g     O .rwdata	0000000c __lc_ctype
00814ba0 g     O .rwdata	00000004 alt_max_fd
00811778 g     F .text	00000038 vPortSysTickHandler
0080acc0 g     F .text	00000138 __unpack_d
008085cc g     F .text	00000110 _fclose_r
008012f4 g     F .text	000000b0 pwm_set_pos
0080509c g     F .text	00000034 fflush
00816720 g     O .bss	00000004 __malloc_max_sbrked_mem
00809a20 g     F .text	00000074 __adddf3
0081695c g     O .bss	00000018 alt_log_jtag_uart_alarm_1
00806cf0 g     F .text	00000120 __b2d
00808f30 g     F .text	00000660 __umoddi3
0080fa34 g     F .text	000000f4 lseek
00814b78 g     O .rwdata	00000004 _global_impure_ptr
00807b40 g     F .text	000005f4 _realloc_r
00816c04 g       *ABS*	00000000 __bss_end
00811f00 g     F .text	000000f8 alt_iic_isr_register
008101bc g     F .text	00000110 alt_tick
00800cb8 g     F .text	0000006c msg_send
008088c4 g     F .text	0000066c __udivdi3
008166f8 g     O .bss	00000004 qKP
00812bd4 g     O .rodata	00000028 __mprec_bigtens
00807a20 g     F .text	00000120 __s2b
0080a528 g     F .text	00000194 __floatunsidf
00816790 g     O .bss	00000004 alt_system_clock_in_sec
0080f7dc g     F .text	00000048 alt_log_jtag_uart_startup_info
00806c10 g     F .text	00000060 __mcmp
00811300 g     F .text	00000040 pvPortMalloc
00805204 g     F .text	00000018 __fp_lock_all
00811eb8 g     F .text	00000048 alt_ic_irq_enabled
0080bc80 g     F .text	0000003c vQueueDelete
0081175c g     F .text	0000001c vPortEndScheduler
00811384 g     F .text	00000070 vListInitialise
00810124 g     F .text	00000098 alt_alarm_stop
00816789 g     O .bss	00000001 alt_log_sys_clk_on_flag
008167a4 g     O .bss	00000004 alt_irq_active
008001ac g     F .exceptions	000000c8 alt_irq_handler
0080f000 g     F .text	00000610 alt_log_private_printf
008138c0 g     O .rwdata	00000028 alt_dev_null
0080ce84 g     F .text	00000050 xTaskGetTickCount
0080b5f4 g     F .text	000001cc xQueueGenericSend
00813a68 g     O .rwdata	00000019 alt_log_msg_bss
0081307c g     O .rwdata	00000030 servo_data
00811904 g     F .text	0000001c alt_dcache_flush_all
00806adc g     F .text	00000070 __hi0bits
0080a450 g     F .text	000000d8 __fixdfsi
00814bb8 g       *ABS*	00000000 __ram_rwdata_end
00814b98 g     O .rwdata	00000008 alt_dev_list
008102cc g     F .text	00000130 write
0080d3cc g     F .text	000000e4 xTaskRemoveFromEventList
0081307c g       *ABS*	00000000 __ram_rodata_end
008011ec g     F .text	00000088 pwm_init
0080ea8c g     F .text	000000d8 fstat
00812274 g     F .text	00000090 strcat
00807900 g     F .text	00000120 __pow5mult
00816710 g     O .bss	00000004 __nlocale_changed
0080a800 g     F .text	00000008 __umodsi3
00816c04 g       *ABS*	00000000 end
0080c43c g     F .text	000000f0 vTaskDelete
0080ef50 g     F .text	0000004c alt_log_txchar
0081066c g     F .text	000001d0 altera_avalon_jtag_uart_init
008006d0 g     F .text	00000028 vAssertCalled
008128a4 g       *ABS*	00000000 __CTOR_LIST__
01000000 g       *ABS*	00000000 __alt_stack_pointer
008111e0 g     F .text	00000090 alt_avalon_timer_sc_init
0080a92c g     F .text	00000080 __clzsi2
00810ef0 g     F .text	0000027c altera_avalon_jtag_uart_write
00805128 g     F .text	00000004 __sfp_lock_acquire
008067b8 g     F .text	000000e4 memchr
00801684 g     F .text	00001ec4 ___vfprintf_internal_r
00812214 g     F .text	00000060 _sprintf_r
0080d4e8 g     F .text	000000ec xTaskCheckForTimeOut
008054f0 g     F .text	00000314 _free_r
00812584 g     F .text	000001b0 __call_exitprocs
00816714 g     O .bss	00000004 __mlocale_changed
00814b88 g     O .rwdata	00000004 __malloc_sbrk_base
00800274 g     F .text	000000ac _start
00816798 g     O .bss	00000004 _alt_tick_rate
0080cce4 g     F .text	00000028 vTaskSuspendAll
0080ced4 g     F .text	0000002c xTaskGetTickCountFromISR
008073f8 g     F .text	0000014c __lshift
0081679c g     O .bss	00000004 _alt_nticks
0080fe6c g     F .text	00000124 read
00810490 g     F .text	0000005c alt_sys_init
00811588 g     F .text	00000098 uxListRemove
0081244c g     F .text	00000134 __register_exitproc
0080de10 g     F .text	000000cc vTaskPriorityDisinherit
0080ef24 g       .text	00000000 tx_log_str
00807544 g     F .text	00000254 __multiply
00810b28 g     F .text	00000074 altera_avalon_jtag_uart_close
0080dcfc g     F .text	00000114 vTaskPriorityInherit
00801454 g     F .text	00000038 __mulsi3
0081307c g       *ABS*	00000000 __ram_rwdata_start
008128a8 g       *ABS*	00000000 __ram_rodata_start
00812390 g     F .text	000000bc strncpy
008167e8 g     O .bss	00000028 __malloc_current_mallinfo
0080ca44 g     F .text	000000e4 vTaskResume
008070f0 g     F .text	0000017c __d2b
0080d20c g     F .text	000000dc vTaskSwitchContext
00813b04 g     O .rwdata	00000004 alt_log_boot_on_flag
00810524 g     F .text	00000058 altera_avalon_jtag_uart_read_fd
00811be8 g     F .text	00000114 alt_get_fd
0080d36c g     F .text	00000060 vTaskPlaceOnEventListRestricted
0080adf8 g     F .text	000000c8 __fpcmp_parts_d
0080855c g     F .text	00000070 _close_r
0080f6f0 g     F .text	000000ec alt_log_jtag_uart_print_control_reg
0081212c g     F .text	00000074 memcmp
008105d4 g     F .text	00000048 altera_avalon_jtag_uart_close_fd
00816c04 g       *ABS*	00000000 __alt_stack_base
0081061c g     F .text	00000050 altera_avalon_jtag_uart_ioctl_fd
0080e0b4 g     F .text	000000c8 xTimerGenericCommand
0080d644 g     F .text	00000044 vTaskSetTaskNumber
0080356c g     F .text	0000013c __swsetup_r
0080c8d8 g     F .text	000000fc vTaskSuspend
00809e58 g     F .text	00000258 __divdf3
008052d4 g     F .text	000000f0 __sfp
00806f54 g     F .text	00000058 __copybits
0080cf00 g     F .text	00000020 uxTaskGetNumberOfTasks
00000000         *UND*	00000000 save_context
008134b8 g     O .rwdata	00000408 __malloc_av_
00805134 g     F .text	00000004 __sinit_lock_release
0080d08c g     F .text	00000180 vTaskIncrementTick
00809a94 g     F .text	000003c4 __muldf3
00808300 g     F .text	00000060 __sread
00811ac8 g     F .text	00000120 alt_find_file
00811920 g     F .text	000000b4 alt_dev_llist_insert
0080b108 g     F .text	00000054 __malloc_lock
00810068 g     F .text	000000bc sbrk
0080b4f8 g     F .text	000000a0 xQueueTakeMutexRecursive
0080bcbc g     F .text	0000002c ucQueueGetQueueNumber
00804ea0 g     F .text	000001fc _fflush_r
00808494 g     F .text	000000c8 _calloc_r
008166f4 g       *ABS*	00000000 __bss_start
0080cf20 g     F .text	0000016c vTaskList
0080d5f8 g     F .text	0000004c uxTaskGetTaskNumber
00806a1c g     F .text	00000098 memset
00800674 g     F .text	0000005c main
00816734 g     O .bss	00000004 alt_envp
00816724 g     O .bss	00000004 __malloc_max_total_mem
00801274 g     F .text	00000080 pwm_jump
0081057c g     F .text	00000058 altera_avalon_jtag_uart_write_fd
00800df8 g     F .text	0000015c move_Start
008114b4 g     F .text	000000d4 vListInsert
00808214 g     F .text	00000008 __sclose
01000000 g       *ABS*	00000000 __alt_heap_limit
008086dc g     F .text	00000014 fclose
0080df94 g     F .text	00000070 xTimerCreateTimerTask
00816a74 g     O .bss	00000190 _atexit0
008038ec g     F .text	000015b4 _dtoa_r
00806078 g     F .text	00000740 _malloc_r
0080bd18 g     F .text	0000002c ucQueueGetQueueType
00814ba4 g     O .rwdata	00000004 alt_errno
0080c52c g     F .text	000000e8 vTaskDelayUntil
0080f664 g     F .text	0000008c altera_avalon_jtag_uart_report_log
008112c4 g     F .text	0000003c __env_unlock
00805d68 g     F .text	000000b8 _fwalk
0080bb1c g     F .text	000000dc xQueueReceiveFromISR
0080dc80 g     F .text	00000028 xTaskGetCurrentTaskHandle
0080a738 g     F .text	00000060 __divsi3
00813ad8 g     O .rwdata	0000002a alt_log_msg_cache
00812c30 g     O .rodata	00000014 __thenan_df
0080b2c4 g     F .text	000000d8 xQueueGenericCreate
008053c4 g     F .text	0000012c _malloc_trim_r
008128a8 g       *ABS*	00000000 __CTOR_END__
00808360 g     F .text	000000bc strcmp
0080b598 g     F .text	0000005c xQueueCreateCountingSemaphore
008128a8 g       *ABS*	00000000 __flash_rodata_start
008128a8 g       *ABS*	00000000 __DTOR_LIST__
0080a138 g     F .text	00000088 __nedf2
0080bce8 g     F .text	00000030 vQueueSetQueueNumber
0081045c g     F .text	00000034 alt_irq_init
0080fff0 g     F .text	00000078 alt_release_fd
0080cd0c g     F .text	00000178 xTaskResumeAll
00813aa4 g     O .rwdata	00000031 alt_log_msg_stackpointer
008121a0 g     F .text	00000074 sprintf
00812c44 g     O .rodata	00000100 __clz_tab
0080cc04 g     F .text	0000009c vTaskStartScheduler
00816718 g     O .bss	00000004 _PathLocale
008120a8 g     F .text	00000014 atexit
0080841c g     F .text	00000078 _write_r
00805ec8 g     F .text	0000001c setlocale
0080c150 g     F .text	0000003c xQueueIsQueueFullFromISR
0080e808 g     F .text	00000030 pvTimerGetTimerID
00814b74 g     O .rwdata	00000004 _impure_ptr
0081672c g     O .bss	00000004 alt_argc
0080ea28 g     F .text	00000064 _do_dtors
00000000         *UND*	00000000 alt_irq_entry
00806c70 g     F .text	00000080 __ulp
00808134 g     F .text	00000040 __isinfd
008051ec g     F .text	00000018 __fp_unlock_all
0080d5d4 g     F .text	00000024 vTaskMissedYield
00800320 g     F .text	0000006c display_init
00814b90 g     O .rwdata	00000008 alt_fs_list
0080bbf8 g     F .text	00000058 uxQueueMessagesWaiting
0080b894 g     F .text	00000288 xQueueGenericReceive
00800020 g       *ABS*	00000000 __ram_exceptions_start
00805e34 g     F .text	00000010 localeconv
008004cc g     F .text	00000094 kp_startTask
00816794 g     O .bss	00000004 alt_log_sys_clk_count
0080f87c g     F .text	00000140 alt_log_write
00811d2c g     F .text	00000050 alt_ic_isr_register
0080b198 g     F .text	0000012c xQueueGenericReset
00814bb8 g       *ABS*	00000000 _edata
00816c04 g       *ABS*	00000000 _end
00800274 g       *ABS*	00000000 __ram_exceptions_end
00810b9c g     F .text	000000f4 altera_avalon_jtag_uart_ioctl
0080e7a4 g     F .text	00000064 xTimerIsTimerActive
00811e18 g     F .text	000000a0 alt_ic_irq_disable
00808284 g     F .text	0000007c __swrite
00814b84 g     O .rwdata	00000004 __malloc_trim_threshold
00811ff8 g     F .text	00000020 altera_nios2_qsys_irq_init
008120cc g     F .text	00000038 exit
00805ca0 g     F .text	000000c8 _fwalk_reent
0080726c g     F .text	0000018c __mdiff
0080a798 g     F .text	00000060 __modsi3
0080c614 g     F .text	00000078 vTaskDelay
01000000 g       *ABS*	00000000 __alt_data_end
0080512c g     F .text	00000004 __sfp_lock_release
00800000 g       *ABS*	00000000 __alt_mem_sdram
00800be4 g     F .text	00000084 msg_newQueue
0080dca8 g     F .text	00000054 xTaskGetSchedulerState
00812774 g     F .text	000000c4 _exit
00808174 g     F .text	00000030 __isnand
008117b0 g     F .text	00000154 alt_alarm_start
0080a808 g     F .text	00000124 __muldi3
00805ee4 g     F .text	00000194 __smakebuf_r
0080df2c g     F .text	00000068 vTaskExitCritical
008015b8 g     F .text	00000074 strlen
00811620 g     F .text	000000e8 pxPortInitialiseStack
0080fc80 g     F .text	0000018c open
0080a248 g     F .text	00000088 __gedf2
00811cfc g     F .text	00000030 alt_icache_flush_all
0080d4b0 g     F .text	00000038 vTaskSetTimeOutState
00814bb4 g     O .rwdata	00000004 alt_priority_mask
00811d7c g     F .text	0000009c alt_ic_irq_enable
00803548 g     F .text	00000024 __vfprintf_internal
0080bc50 g     F .text	00000030 uxQueueMessagesWaitingFromISR
00811270 g     F .text	00000054 __env_lock
0080c0b8 g     F .text	00000034 xQueueIsQueueEmptyFromISR
008099a0 g     F .text	00000080 __subdf3
00806b4c g     F .text	000000c4 __lo0bits
00814bac g     O .rwdata	00000008 alt_alarm_list
0080e9c4 g     F .text	00000064 _do_ctors
0080b39c g     F .text	000000d0 xQueueCreateMutex
0080e838 g     F .text	00000100 close
0080ef9c g     F .text	00000064 alt_log_repchar
008167a0 g     O .bss	00000004 alt_envsem
0080ee38 g     F .text	00000080 alt_load
0080a9ac g     F .text	00000314 __pack_d
00812104 g     F .text	00000014 free
00805130 g     F .text	00000004 __sinit_lock_acquire
008077d4 g     F .text	0000012c __multadd
00806ab4 g     F .text	00000028 _Bfree



Disassembly of section .entry:

00800000 <__reset>:
  800000:	00820014 	movui	r2,2048
  800004:	1001483a 	initi	r2
  800008:	10bff804 	addi	r2,r2,-32
  80000c:	00bffd16 	blt	zero,r2,800004 <__reset+0x4>
  800010:	00402034 	movhi	at,128
  800014:	08409d14 	ori	at,at,628
  800018:	0800683a 	jmp	at
  80001c:	00000000 	call	0 <__reset-0x800000>

Disassembly of section .exceptions:

00800020 <save_context>:
  800020:	ef7fff04 	addi	ea,ea,-4
  800024:	deffe204 	addi	sp,sp,-120
  800028:	dfc00015 	stw	ra,0(sp)
  80002c:	d8400215 	stw	at,8(sp)
  800030:	d8800315 	stw	r2,12(sp)
  800034:	d8c00415 	stw	r3,16(sp)
  800038:	d9000515 	stw	r4,20(sp)
  80003c:	d9400615 	stw	r5,24(sp)
  800040:	d9800715 	stw	r6,28(sp)
  800044:	d9c00815 	stw	r7,32(sp)
  800048:	da000915 	stw	r8,36(sp)
  80004c:	da400a15 	stw	r9,40(sp)
  800050:	da800b15 	stw	r10,44(sp)
  800054:	dac00c15 	stw	r11,48(sp)
  800058:	db000d15 	stw	r12,52(sp)
  80005c:	db400e15 	stw	r13,56(sp)
  800060:	db800f15 	stw	r14,60(sp)
  800064:	dbc01015 	stw	r15,64(sp)
  800068:	000b307a 	rdctl	r5,estatus
  80006c:	d9401115 	stw	r5,68(sp)
  800070:	df401215 	stw	ea,72(sp)
  800074:	dc001315 	stw	r16,76(sp)
  800078:	dc401415 	stw	r17,80(sp)
  80007c:	dc801515 	stw	r18,84(sp)
  800080:	dcc01615 	stw	r19,88(sp)
  800084:	dd001715 	stw	r20,92(sp)
  800088:	dd401815 	stw	r21,96(sp)
  80008c:	dd801915 	stw	r22,100(sp)
  800090:	ddc01a15 	stw	r23,104(sp)
  800094:	de801b15 	stw	gp,108(sp)
  800098:	df001c15 	stw	fp,112(sp)
  80009c:	08120bc0 	call	8120bc <__errno>
  8000a0:	10c00017 	ldw	r3,0(r2)
  8000a4:	d8c01d15 	stw	r3,116(sp)

008000a8 <save_sp_to_pxCurrentTCB>:
  8000a8:	080dca80 	call	80dca8 <xTaskGetSchedulerState>
  8000ac:	10000426 	beq	r2,zero,8000c0 <hw_irq_test>
  8000b0:	06002074 	movhi	et,129
  8000b4:	c619cf04 	addi	et,et,26428
  8000b8:	c6000017 	ldw	et,0(et)
  8000bc:	c6c00015 	stw	sp,0(et)

008000c0 <hw_irq_test>:
  8000c0:	0009313a 	rdctl	r4,ipending
  8000c4:	000b307a 	rdctl	r5,estatus
  8000c8:	2880004c 	andi	r2,r5,1
  8000cc:	10002a26 	beq	r2,zero,800178 <soft_exceptions>
  8000d0:	20002926 	beq	r4,zero,800178 <soft_exceptions>

008000d4 <hw_irq_handler>:
  8000d4:	08001ac0 	call	8001ac <alt_irq_handler>

008000d8 <restore_sp_from_pxCurrentTCB>:
  8000d8:	080dca80 	call	80dca8 <xTaskGetSchedulerState>
  8000dc:	10000426 	beq	r2,zero,8000f0 <restore_context>
  8000e0:	06002074 	movhi	et,129
  8000e4:	c619cf04 	addi	et,et,26428
  8000e8:	c6000017 	ldw	et,0(et)
  8000ec:	c6c00017 	ldw	sp,0(et)

008000f0 <restore_context>:
  8000f0:	08120bc0 	call	8120bc <__errno>
  8000f4:	d8c01d17 	ldw	r3,116(sp)
  8000f8:	10c00015 	stw	r3,0(r2)
  8000fc:	dfc00017 	ldw	ra,0(sp)
  800100:	d8400217 	ldw	at,8(sp)
  800104:	d8800317 	ldw	r2,12(sp)
  800108:	d8c00417 	ldw	r3,16(sp)
  80010c:	d9000517 	ldw	r4,20(sp)
  800110:	d9400617 	ldw	r5,24(sp)
  800114:	d9800717 	ldw	r6,28(sp)
  800118:	d9c00817 	ldw	r7,32(sp)
  80011c:	da000917 	ldw	r8,36(sp)
  800120:	da400a17 	ldw	r9,40(sp)
  800124:	da800b17 	ldw	r10,44(sp)
  800128:	dac00c17 	ldw	r11,48(sp)
  80012c:	db000d17 	ldw	r12,52(sp)
  800130:	db400e17 	ldw	r13,56(sp)
  800134:	db800f17 	ldw	r14,60(sp)
  800138:	dbc01017 	ldw	r15,64(sp)
  80013c:	de001117 	ldw	et,68(sp)
  800140:	c001707a 	wrctl	estatus,et
  800144:	df401217 	ldw	ea,72(sp)
  800148:	dc001317 	ldw	r16,76(sp)
  80014c:	dc401417 	ldw	r17,80(sp)
  800150:	dc801517 	ldw	r18,84(sp)
  800154:	dcc01617 	ldw	r19,88(sp)
  800158:	dd001717 	ldw	r20,92(sp)
  80015c:	dd401817 	ldw	r21,96(sp)
  800160:	dd801917 	ldw	r22,100(sp)
  800164:	ddc01a17 	ldw	r23,104(sp)
  800168:	de801b17 	ldw	gp,108(sp)
  80016c:	df001c17 	ldw	fp,112(sp)
  800170:	dec01e04 	addi	sp,sp,120
  800174:	ef80083a 	eret

00800178 <soft_exceptions>:
  800178:	ee000017 	ldw	et,0(ea)
  80017c:	00400ef4 	movhi	at,59
  800180:	085a0e94 	ori	at,at,26682
  800184:	c070c03a 	cmpne	et,et,at
  800188:	c0000226 	beq	et,zero,800194 <call_scheduler>
  80018c:	003da03a 	break	0
  800190:	003fd706 	br	8000f0 <restore_context>

00800194 <call_scheduler>:
  800194:	080dca80 	call	80dca8 <xTaskGetSchedulerState>
  800198:	103fd526 	beq	r2,zero,8000f0 <restore_context>
  80019c:	ef400104 	addi	ea,ea,4
  8001a0:	df401215 	stw	ea,72(sp)
  8001a4:	080d20c0 	call	80d20c <vTaskSwitchContext>
  8001a8:	003fcb06 	br	8000d8 <restore_sp_from_pxCurrentTCB>

008001ac <alt_irq_handler>:
  8001ac:	defff904 	addi	sp,sp,-28
  8001b0:	dfc00615 	stw	ra,24(sp)
  8001b4:	df000515 	stw	fp,20(sp)
  8001b8:	df000504 	addi	fp,sp,20
  8001bc:	0005313a 	rdctl	r2,ipending
  8001c0:	e0bffc15 	stw	r2,-16(fp)
  8001c4:	e0bffc17 	ldw	r2,-16(fp)
  8001c8:	e0bfff15 	stw	r2,-4(fp)
  8001cc:	e03ffd15 	stw	zero,-12(fp)
  8001d0:	00800044 	movi	r2,1
  8001d4:	e0bffe15 	stw	r2,-8(fp)
  8001d8:	e0ffff17 	ldw	r3,-4(fp)
  8001dc:	e0bffe17 	ldw	r2,-8(fp)
  8001e0:	1884703a 	and	r2,r3,r2
  8001e4:	1005003a 	cmpeq	r2,r2,zero
  8001e8:	1000161e 	bne	r2,zero,800244 <alt_irq_handler+0x98>
  8001ec:	e0bffd17 	ldw	r2,-12(fp)
  8001f0:	00c02074 	movhi	r3,129
  8001f4:	18da5d04 	addi	r3,r3,26996
  8001f8:	100490fa 	slli	r2,r2,3
  8001fc:	10c5883a 	add	r2,r2,r3
  800200:	11400017 	ldw	r5,0(r2)
  800204:	e0bffd17 	ldw	r2,-12(fp)
  800208:	00c02074 	movhi	r3,129
  80020c:	18da5d04 	addi	r3,r3,26996
  800210:	100490fa 	slli	r2,r2,3
  800214:	10c5883a 	add	r2,r2,r3
  800218:	10800104 	addi	r2,r2,4
  80021c:	11000017 	ldw	r4,0(r2)
  800220:	283ee83a 	callr	r5
  800224:	0005313a 	rdctl	r2,ipending
  800228:	e0bffb15 	stw	r2,-20(fp)
  80022c:	e0bffb17 	ldw	r2,-20(fp)
  800230:	e0bfff15 	stw	r2,-4(fp)
  800234:	e0bfff17 	ldw	r2,-4(fp)
  800238:	1004c03a 	cmpne	r2,r2,zero
  80023c:	103fe31e 	bne	r2,zero,8001cc <alt_irq_handler+0x20>
  800240:	00000706 	br	800260 <alt_irq_handler+0xb4>
  800244:	e0bffe17 	ldw	r2,-8(fp)
  800248:	1085883a 	add	r2,r2,r2
  80024c:	e0bffe15 	stw	r2,-8(fp)
  800250:	e0bffd17 	ldw	r2,-12(fp)
  800254:	10800044 	addi	r2,r2,1
  800258:	e0bffd15 	stw	r2,-12(fp)
  80025c:	003fde06 	br	8001d8 <alt_irq_handler+0x2c>
  800260:	e037883a 	mov	sp,fp
  800264:	dfc00117 	ldw	ra,4(sp)
  800268:	df000017 	ldw	fp,0(sp)
  80026c:	dec00204 	addi	sp,sp,8
  800270:	f800283a 	ret

Disassembly of section .text:

00800274 <_start>:
  800274:	01002074 	movhi	r4,129
  800278:	210ec104 	addi	r4,r4,15108
  80027c:	21400037 	ldwio	r5,0(r4)
  800280:	01400326 	beq	zero,r5,800290 <_start+0x1c>
  800284:	01002074 	movhi	r4,129
  800288:	210eb604 	addi	r4,r4,15064
  80028c:	080ef240 	call	80ef24 <tx_log_str>
  800290:	01002074 	movhi	r4,129
  800294:	210ec104 	addi	r4,r4,15108
  800298:	21400037 	ldwio	r5,0(r4)
  80029c:	01400326 	beq	zero,r5,8002ac <_start+0x38>
  8002a0:	01002074 	movhi	r4,129
  8002a4:	210ea904 	addi	r4,r4,15012
  8002a8:	080ef240 	call	80ef24 <tx_log_str>
  8002ac:	06c04034 	movhi	sp,256
  8002b0:	dec00014 	ori	sp,sp,0
  8002b4:	06802074 	movhi	gp,129
  8002b8:	d6b2dc14 	ori	gp,gp,52080
  8002bc:	01002074 	movhi	r4,129
  8002c0:	210ec104 	addi	r4,r4,15108
  8002c4:	21400037 	ldwio	r5,0(r4)
  8002c8:	01400326 	beq	zero,r5,8002d8 <_start+0x64>
  8002cc:	01002074 	movhi	r4,129
  8002d0:	210e9a04 	addi	r4,r4,14952
  8002d4:	080ef240 	call	80ef24 <tx_log_str>
  8002d8:	00802074 	movhi	r2,129
  8002dc:	1099bd14 	ori	r2,r2,26356
  8002e0:	00c02074 	movhi	r3,129
  8002e4:	18db0114 	ori	r3,r3,27652
  8002e8:	10c00326 	beq	r2,r3,8002f8 <_start+0x84>
  8002ec:	10000015 	stw	zero,0(r2)
  8002f0:	10800104 	addi	r2,r2,4
  8002f4:	10fffd36 	bltu	r2,r3,8002ec <_start+0x78>
  8002f8:	080ee380 	call	80ee38 <alt_load>
  8002fc:	01002074 	movhi	r4,129
  800300:	210ec104 	addi	r4,r4,15108
  800304:	21400037 	ldwio	r5,0(r4)
  800308:	01400326 	beq	zero,r5,800318 <_start+0xa4>
  80030c:	01002074 	movhi	r4,129
  800310:	210ea104 	addi	r4,r4,14980
  800314:	080ef240 	call	80ef24 <tx_log_str>
  800318:	080aef80 	call	80aef8 <alt_main>

0080031c <alt_after_alt_main>:
  80031c:	003fff06 	br	80031c <alt_after_alt_main>

00800320 <display_init>:
  800320:	defff904 	addi	sp,sp,-28
  800324:	dfc00615 	stw	ra,24(sp)
  800328:	df000515 	stw	fp,20(sp)
  80032c:	df000504 	addi	fp,sp,20
  800330:	01402074 	movhi	r5,129
  800334:	294a2a04 	addi	r5,r5,10408
  800338:	d8000015 	stw	zero,0(sp)
  80033c:	d8000115 	stw	zero,4(sp)
  800340:	d8000215 	stw	zero,8(sp)
  800344:	d8000315 	stw	zero,12(sp)
  800348:	01002034 	movhi	r4,128
  80034c:	2100e304 	addi	r4,r4,908
  800350:	01810004 	movi	r6,1024
  800354:	000f883a 	mov	r7,zero
  800358:	080c2300 	call	80c230 <xTaskGenericCreate>
  80035c:	10800060 	cmpeqi	r2,r2,1
  800360:	1000031e 	bne	r2,zero,800370 <display_init+0x50>
  800364:	00bfffc4 	movi	r2,-1
  800368:	e0bfff15 	stw	r2,-4(fp)
  80036c:	00000106 	br	800374 <display_init+0x54>
  800370:	e03fff15 	stw	zero,-4(fp)
  800374:	e0bfff17 	ldw	r2,-4(fp)
  800378:	e037883a 	mov	sp,fp
  80037c:	dfc00117 	ldw	ra,4(sp)
  800380:	df000017 	ldw	fp,0(sp)
  800384:	dec00204 	addi	sp,sp,8
  800388:	f800283a 	ret

0080038c <display_main>:
  80038c:	deffea04 	addi	sp,sp,-88
  800390:	dfc01515 	stw	ra,84(sp)
  800394:	df001415 	stw	fp,80(sp)
  800398:	df001404 	addi	fp,sp,80
  80039c:	e13fff15 	stw	r4,-4(fp)
  8003a0:	00b0d414 	movui	r2,50000
  8003a4:	e0bff515 	stw	r2,-44(fp)
  8003a8:	e03ff315 	stw	zero,-52(fp)
  8003ac:	00804034 	movhi	r2,256
  8003b0:	10840804 	addi	r2,r2,4128
  8003b4:	e0bff215 	stw	r2,-56(fp)
  8003b8:	0080fa04 	movi	r2,1000
  8003bc:	e0bff115 	stw	r2,-60(fp)
  8003c0:	e03ff615 	stw	zero,-40(fp)
  8003c4:	e03ff415 	stw	zero,-48(fp)
  8003c8:	00001106 	br	800410 <display_main+0x84>
  8003cc:	e0bff417 	ldw	r2,-48(fp)
  8003d0:	1085883a 	add	r2,r2,r2
  8003d4:	1085883a 	add	r2,r2,r2
  8003d8:	e17ff704 	addi	r5,fp,-36
  8003dc:	288b883a 	add	r5,r5,r2
  8003e0:	e13ff417 	ldw	r4,-48(fp)
  8003e4:	08013a40 	call	8013a4 <pwm_get_pos>
  8003e8:	e0bff417 	ldw	r2,-48(fp)
  8003ec:	1085883a 	add	r2,r2,r2
  8003f0:	1085883a 	add	r2,r2,r2
  8003f4:	e17ffb04 	addi	r5,fp,-20
  8003f8:	288b883a 	add	r5,r5,r2
  8003fc:	e13ff417 	ldw	r4,-48(fp)
  800400:	08011a00 	call	8011a0 <move_get_state>
  800404:	e0bff417 	ldw	r2,-48(fp)
  800408:	10800044 	addi	r2,r2,1
  80040c:	e0bff415 	stw	r2,-48(fp)
  800410:	e0bff417 	ldw	r2,-48(fp)
  800414:	10800110 	cmplti	r2,r2,4
  800418:	103fec1e 	bne	r2,zero,8003cc <display_main+0x40>
  80041c:	e1fff717 	ldw	r7,-36(fp)
  800420:	e23ffb17 	ldw	r8,-20(fp)
  800424:	e27ff817 	ldw	r9,-32(fp)
  800428:	e0bffc17 	ldw	r2,-16(fp)
  80042c:	e0fff917 	ldw	r3,-28(fp)
  800430:	e13ffd17 	ldw	r4,-12(fp)
  800434:	e17ffa17 	ldw	r5,-24(fp)
  800438:	e1bffe17 	ldw	r6,-8(fp)
  80043c:	d8800015 	stw	r2,0(sp)
  800440:	d8c00115 	stw	r3,4(sp)
  800444:	d9000215 	stw	r4,8(sp)
  800448:	d9400315 	stw	r5,12(sp)
  80044c:	d9800415 	stw	r6,16(sp)
  800450:	01002074 	movhi	r4,129
  800454:	210a2e04 	addi	r4,r4,10424
  800458:	380b883a 	mov	r5,r7
  80045c:	400d883a 	mov	r6,r8
  800460:	480f883a 	mov	r7,r9
  800464:	080148c0 	call	80148c <printf>
  800468:	e0fff217 	ldw	r3,-56(fp)
  80046c:	e0bff317 	ldw	r2,-52(fp)
  800470:	18800015 	stw	r2,0(r3)
  800474:	e0bff317 	ldw	r2,-52(fp)
  800478:	10800044 	addi	r2,r2,1
  80047c:	e0bff315 	stw	r2,-52(fp)
  800480:	e0bff517 	ldw	r2,-44(fp)
  800484:	1081f404 	addi	r2,r2,2000
  800488:	e0bff515 	stw	r2,-44(fp)
  80048c:	e0fff517 	ldw	r3,-44(fp)
  800490:	008000b4 	movhi	r2,2
  800494:	10a1a7c4 	addi	r2,r2,-31073
  800498:	10c0022e 	bgeu	r2,r3,8004a4 <display_main+0x118>
  80049c:	00b0d414 	movui	r2,50000
  8004a0:	e0bff515 	stw	r2,-44(fp)
  8004a4:	e0fff617 	ldw	r3,-40(fp)
  8004a8:	e0bff517 	ldw	r2,-44(fp)
  8004ac:	18800015 	stw	r2,0(r3)
  8004b0:	e0bff617 	ldw	r2,-40(fp)
  8004b4:	10c00104 	addi	r3,r2,4
  8004b8:	e0bff517 	ldw	r2,-44(fp)
  8004bc:	18800015 	stw	r2,0(r3)
  8004c0:	e13ff117 	ldw	r4,-60(fp)
  8004c4:	080c6140 	call	80c614 <vTaskDelay>
  8004c8:	003fbe06 	br	8003c4 <display_main+0x38>

008004cc <kp_startTask>:
  8004cc:	defff804 	addi	sp,sp,-32
  8004d0:	dfc00715 	stw	ra,28(sp)
  8004d4:	df000615 	stw	fp,24(sp)
  8004d8:	df000604 	addi	fp,sp,24
  8004dc:	e13ffe15 	stw	r4,-8(fp)
  8004e0:	e0bffe17 	ldw	r2,-8(fp)
  8004e4:	1004c03a 	cmpne	r2,r2,zero
  8004e8:	1000031e 	bne	r2,zero,8004f8 <kp_startTask+0x2c>
  8004ec:	00bfffc4 	movi	r2,-1
  8004f0:	e0bfff15 	stw	r2,-4(fp)
  8004f4:	00001406 	br	800548 <kp_startTask+0x7c>
  8004f8:	e0bffe17 	ldw	r2,-8(fp)
  8004fc:	d0a6e215 	stw	r2,-25720(gp)
  800500:	01402074 	movhi	r5,129
  800504:	294a3a04 	addi	r5,r5,10472
  800508:	d8000015 	stw	zero,0(sp)
  80050c:	d0a6e104 	addi	r2,gp,-25724
  800510:	d8800115 	stw	r2,4(sp)
  800514:	d8000215 	stw	zero,8(sp)
  800518:	d8000315 	stw	zero,12(sp)
  80051c:	01002034 	movhi	r4,128
  800520:	21015804 	addi	r4,r4,1376
  800524:	01810004 	movi	r6,1024
  800528:	000f883a 	mov	r7,zero
  80052c:	080c2300 	call	80c230 <xTaskGenericCreate>
  800530:	10800060 	cmpeqi	r2,r2,1
  800534:	1000031e 	bne	r2,zero,800544 <kp_startTask+0x78>
  800538:	00bfffc4 	movi	r2,-1
  80053c:	e0bfff15 	stw	r2,-4(fp)
  800540:	00000106 	br	800548 <kp_startTask+0x7c>
  800544:	e03fff15 	stw	zero,-4(fp)
  800548:	e0bfff17 	ldw	r2,-4(fp)
  80054c:	e037883a 	mov	sp,fp
  800550:	dfc00117 	ldw	ra,4(sp)
  800554:	df000017 	ldw	fp,0(sp)
  800558:	dec00204 	addi	sp,sp,8
  80055c:	f800283a 	ret

00800560 <kp_main>:
  800560:	defffa04 	addi	sp,sp,-24
  800564:	dfc00515 	stw	ra,20(sp)
  800568:	df000415 	stw	fp,16(sp)
  80056c:	df000404 	addi	fp,sp,16
  800570:	e13fff15 	stw	r4,-4(fp)
  800574:	e03ffc0d 	sth	zero,-16(fp)
  800578:	e03ffc8d 	sth	zero,-14(fp)
  80057c:	e03ffc0d 	sth	zero,-16(fp)
  800580:	01002074 	movhi	r4,129
  800584:	210a3e04 	addi	r4,r4,10488
  800588:	08015a40 	call	8015a4 <puts>
  80058c:	0100fa04 	movi	r4,1000
  800590:	080c6140 	call	80c614 <vTaskDelay>
  800594:	e13ffc84 	addi	r4,fp,-14
  800598:	08005fc0 	call	8005fc <kp_getCurrent>
  80059c:	e0bffc8b 	ldhu	r2,-14(fp)
  8005a0:	e0fffc0b 	ldhu	r3,-16(fp)
  8005a4:	10bfffcc 	andi	r2,r2,65535
  8005a8:	18801126 	beq	r3,r2,8005f0 <kp_main+0x90>
  8005ac:	00800044 	movi	r2,1
  8005b0:	e0bffd15 	stw	r2,-12(fp)
  8005b4:	e0bffc8b 	ldhu	r2,-14(fp)
  8005b8:	10bfffcc 	andi	r2,r2,65535
  8005bc:	1008943a 	slli	r4,r2,16
  8005c0:	e0fffc8b 	ldhu	r3,-14(fp)
  8005c4:	e0bffc0b 	ldhu	r2,-16(fp)
  8005c8:	1884f03a 	xor	r2,r3,r2
  8005cc:	10bfffcc 	andi	r2,r2,65535
  8005d0:	2084b03a 	or	r2,r4,r2
  8005d4:	e0bffe15 	stw	r2,-8(fp)
  8005d8:	d126e217 	ldw	r4,-25720(gp)
  8005dc:	e17ffd17 	ldw	r5,-12(fp)
  8005e0:	e1bffe17 	ldw	r6,-8(fp)
  8005e4:	0800cb80 	call	800cb8 <msg_send>
  8005e8:	e0bffc8b 	ldhu	r2,-14(fp)
  8005ec:	e0bffc0d 	sth	r2,-16(fp)
  8005f0:	01007d04 	movi	r4,500
  8005f4:	080c6140 	call	80c614 <vTaskDelay>
  8005f8:	003fe606 	br	800594 <kp_main+0x34>

008005fc <kp_getCurrent>:
  8005fc:	defffc04 	addi	sp,sp,-16
  800600:	df000315 	stw	fp,12(sp)
  800604:	df000304 	addi	fp,sp,12
  800608:	e13fff15 	stw	r4,-4(fp)
  80060c:	e03ffe15 	stw	zero,-8(fp)
  800610:	00000b06 	br	800640 <kp_getCurrent+0x44>
  800614:	e03ffd15 	stw	zero,-12(fp)
  800618:	00000306 	br	800628 <kp_getCurrent+0x2c>
  80061c:	e0bffd17 	ldw	r2,-12(fp)
  800620:	10800044 	addi	r2,r2,1
  800624:	e0bffd15 	stw	r2,-12(fp)
  800628:	e0bffd17 	ldw	r2,-12(fp)
  80062c:	10800110 	cmplti	r2,r2,4
  800630:	103ffa1e 	bne	r2,zero,80061c <kp_getCurrent+0x20>
  800634:	e0bffe17 	ldw	r2,-8(fp)
  800638:	10800044 	addi	r2,r2,1
  80063c:	e0bffe15 	stw	r2,-8(fp)
  800640:	e0bffe17 	ldw	r2,-8(fp)
  800644:	10800110 	cmplti	r2,r2,4
  800648:	103ff21e 	bne	r2,zero,800614 <kp_getCurrent+0x18>
  80064c:	d0e0000b 	ldhu	r3,-32768(gp)
  800650:	e0bfff17 	ldw	r2,-4(fp)
  800654:	10c0000d 	sth	r3,0(r2)
  800658:	d0a0000b 	ldhu	r2,-32768(gp)
  80065c:	1085883a 	add	r2,r2,r2
  800660:	d0a0000d 	sth	r2,-32768(gp)
  800664:	e037883a 	mov	sp,fp
  800668:	df000017 	ldw	fp,0(sp)
  80066c:	dec00104 	addi	sp,sp,4
  800670:	f800283a 	ret

00800674 <main>:
  800674:	defffe04 	addi	sp,sp,-8
  800678:	dfc00115 	stw	ra,4(sp)
  80067c:	df000015 	stw	fp,0(sp)
  800680:	d839883a 	mov	fp,sp
  800684:	01002074 	movhi	r4,129
  800688:	210a4304 	addi	r4,r4,10508
  80068c:	08015a40 	call	8015a4 <puts>
  800690:	08006f80 	call	8006f8 <man_start>
  800694:	1005003a 	cmpeq	r2,r2,zero
  800698:	1000061e 	bne	r2,zero,8006b4 <main+0x40>
  80069c:	01002074 	movhi	r4,129
  8006a0:	210a4a04 	addi	r4,r4,10536
  8006a4:	08015a40 	call	8015a4 <puts>
  8006a8:	0100fa04 	movi	r4,1000
  8006ac:	080c6140 	call	80c614 <vTaskDelay>
  8006b0:	003ffd06 	br	8006a8 <main+0x34>
  8006b4:	080cc040 	call	80cc04 <vTaskStartScheduler>
  8006b8:	0005883a 	mov	r2,zero
  8006bc:	e037883a 	mov	sp,fp
  8006c0:	dfc00117 	ldw	ra,4(sp)
  8006c4:	df000017 	ldw	fp,0(sp)
  8006c8:	dec00204 	addi	sp,sp,8
  8006cc:	f800283a 	ret

008006d0 <vAssertCalled>:
  8006d0:	defffe04 	addi	sp,sp,-8
  8006d4:	df000115 	stw	fp,4(sp)
  8006d8:	df000104 	addi	fp,sp,4
  8006dc:	0005303a 	rdctl	r2,status
  8006e0:	e0bfff15 	stw	r2,-4(fp)
  8006e4:	e0ffff17 	ldw	r3,-4(fp)
  8006e8:	00bfff84 	movi	r2,-2
  8006ec:	1884703a 	and	r2,r3,r2
  8006f0:	1001703a 	wrctl	status,r2
  8006f4:	003fff06 	br	8006f4 <vAssertCalled+0x24>

008006f8 <man_start>:
  8006f8:	defffa04 	addi	sp,sp,-24
  8006fc:	dfc00515 	stw	ra,20(sp)
  800700:	df000415 	stw	fp,16(sp)
  800704:	df000404 	addi	fp,sp,16
  800708:	d126e304 	addi	r4,gp,-25716
  80070c:	0800be40 	call	800be4 <msg_newQueue>
  800710:	d126e317 	ldw	r4,-25716(gp)
  800714:	08004cc0 	call	8004cc <kp_startTask>
  800718:	d126e404 	addi	r4,gp,-25712
  80071c:	0800be40 	call	800be4 <msg_newQueue>
  800720:	d126e417 	ldw	r4,-25712(gp)
  800724:	0800df80 	call	800df8 <move_Start>
  800728:	08011ec0 	call	8011ec <pwm_init>
  80072c:	08003200 	call	800320 <display_init>
  800730:	01402074 	movhi	r5,129
  800734:	294a5204 	addi	r5,r5,10568
  800738:	d8000015 	stw	zero,0(sp)
  80073c:	d8000115 	stw	zero,4(sp)
  800740:	d8000215 	stw	zero,8(sp)
  800744:	d8000315 	stw	zero,12(sp)
  800748:	01002034 	movhi	r4,128
  80074c:	2101dd04 	addi	r4,r4,1908
  800750:	01810004 	movi	r6,1024
  800754:	000f883a 	mov	r7,zero
  800758:	080c2300 	call	80c230 <xTaskGenericCreate>
  80075c:	0005883a 	mov	r2,zero
  800760:	e037883a 	mov	sp,fp
  800764:	dfc00117 	ldw	ra,4(sp)
  800768:	df000017 	ldw	fp,0(sp)
  80076c:	dec00204 	addi	sp,sp,8
  800770:	f800283a 	ret

00800774 <man_main>:
  800774:	defff804 	addi	sp,sp,-32
  800778:	dfc00715 	stw	ra,28(sp)
  80077c:	df000615 	stw	fp,24(sp)
  800780:	df000604 	addi	fp,sp,24
  800784:	e13fff15 	stw	r4,-4(fp)
  800788:	01002074 	movhi	r4,129
  80078c:	210a5504 	addi	r4,r4,10580
  800790:	08015a40 	call	8015a4 <puts>
  800794:	d126e317 	ldw	r4,-25716(gp)
  800798:	e17ffd04 	addi	r5,fp,-12
  80079c:	0800d980 	call	800d98 <msg_recv_block>
  8007a0:	e0bffe17 	ldw	r2,-8(fp)
  8007a4:	10bfffcc 	andi	r2,r2,65535
  8007a8:	e0bffc15 	stw	r2,-16(fp)
  8007ac:	e0bffe17 	ldw	r2,-8(fp)
  8007b0:	1004d43a 	srli	r2,r2,16
  8007b4:	e0bffb15 	stw	r2,-20(fp)
  8007b8:	e03ffa15 	stw	zero,-24(fp)
  8007bc:	00001806 	br	800820 <man_main+0xac>
  8007c0:	e0bffc17 	ldw	r2,-16(fp)
  8007c4:	1080004c 	andi	r2,r2,1
  8007c8:	10803fcc 	andi	r2,r2,255
  8007cc:	1005003a 	cmpeq	r2,r2,zero
  8007d0:	10000a1e 	bne	r2,zero,8007fc <man_main+0x88>
  8007d4:	e0bffb17 	ldw	r2,-20(fp)
  8007d8:	1080004c 	andi	r2,r2,1
  8007dc:	10803fcc 	andi	r2,r2,255
  8007e0:	1005003a 	cmpeq	r2,r2,zero
  8007e4:	1000031e 	bne	r2,zero,8007f4 <man_main+0x80>
  8007e8:	e13ffa17 	ldw	r4,-24(fp)
  8007ec:	08008300 	call	800830 <man_key_down>
  8007f0:	00000206 	br	8007fc <man_main+0x88>
  8007f4:	e13ffa17 	ldw	r4,-24(fp)
  8007f8:	0800a0c0 	call	800a0c <man_key_up>
  8007fc:	e0bffc17 	ldw	r2,-16(fp)
  800800:	1004d07a 	srli	r2,r2,1
  800804:	e0bffc15 	stw	r2,-16(fp)
  800808:	e0bffb17 	ldw	r2,-20(fp)
  80080c:	1004d07a 	srli	r2,r2,1
  800810:	e0bffb15 	stw	r2,-20(fp)
  800814:	e0bffa17 	ldw	r2,-24(fp)
  800818:	10800044 	addi	r2,r2,1
  80081c:	e0bffa15 	stw	r2,-24(fp)
  800820:	e0bffc17 	ldw	r2,-16(fp)
  800824:	1004c03a 	cmpne	r2,r2,zero
  800828:	103fe51e 	bne	r2,zero,8007c0 <man_main+0x4c>
  80082c:	003fd906 	br	800794 <man_main+0x20>

00800830 <man_key_down>:
  800830:	defffa04 	addi	sp,sp,-24
  800834:	dfc00515 	stw	ra,20(sp)
  800838:	df000415 	stw	fp,16(sp)
  80083c:	df000404 	addi	fp,sp,16
  800840:	e13ffe15 	stw	r4,-8(fp)
  800844:	00c00044 	movi	r3,1
  800848:	e0bffe17 	ldw	r2,-8(fp)
  80084c:	1884983a 	sll	r2,r3,r2
  800850:	e0bffe15 	stw	r2,-8(fp)
  800854:	e0bffe17 	ldw	r2,-8(fp)
  800858:	e0bfff15 	stw	r2,-4(fp)
  80085c:	e0ffff17 	ldw	r3,-4(fp)
  800860:	18800220 	cmpeqi	r2,r3,8
  800864:	1000391e 	bne	r2,zero,80094c <man_key_down+0x11c>
  800868:	e0ffff17 	ldw	r3,-4(fp)
  80086c:	18800248 	cmpgei	r2,r3,9
  800870:	10000a1e 	bne	r2,zero,80089c <man_key_down+0x6c>
  800874:	e0ffff17 	ldw	r3,-4(fp)
  800878:	188000a0 	cmpeqi	r2,r3,2
  80087c:	1000211e 	bne	r2,zero,800904 <man_key_down+0xd4>
  800880:	e0ffff17 	ldw	r3,-4(fp)
  800884:	18800120 	cmpeqi	r2,r3,4
  800888:	1000271e 	bne	r2,zero,800928 <man_key_down+0xf8>
  80088c:	e0ffff17 	ldw	r3,-4(fp)
  800890:	18800060 	cmpeqi	r2,r3,1
  800894:	1000121e 	bne	r2,zero,8008e0 <man_key_down+0xb0>
  800898:	00005706 	br	8009f8 <man_key_down+0x1c8>
  80089c:	e0ffff17 	ldw	r3,-4(fp)
  8008a0:	18800820 	cmpeqi	r2,r3,32
  8008a4:	10003a1e 	bne	r2,zero,800990 <man_key_down+0x160>
  8008a8:	e0ffff17 	ldw	r3,-4(fp)
  8008ac:	18800848 	cmpgei	r2,r3,33
  8008b0:	1000041e 	bne	r2,zero,8008c4 <man_key_down+0x94>
  8008b4:	e0ffff17 	ldw	r3,-4(fp)
  8008b8:	18800420 	cmpeqi	r2,r3,16
  8008bc:	10002c1e 	bne	r2,zero,800970 <man_key_down+0x140>
  8008c0:	00004d06 	br	8009f8 <man_key_down+0x1c8>
  8008c4:	e0ffff17 	ldw	r3,-4(fp)
  8008c8:	18801020 	cmpeqi	r2,r3,64
  8008cc:	1000391e 	bne	r2,zero,8009b4 <man_key_down+0x184>
  8008d0:	e0ffff17 	ldw	r3,-4(fp)
  8008d4:	18802020 	cmpeqi	r2,r3,128
  8008d8:	10003f1e 	bne	r2,zero,8009d8 <man_key_down+0x1a8>
  8008dc:	00004606 	br	8009f8 <man_key_down+0x1c8>
  8008e0:	00800084 	movi	r2,2
  8008e4:	e0bffc15 	stw	r2,-16(fp)
  8008e8:	00804004 	movi	r2,256
  8008ec:	e0bffd15 	stw	r2,-12(fp)
  8008f0:	d126e417 	ldw	r4,-25712(gp)
  8008f4:	e17ffc17 	ldw	r5,-16(fp)
  8008f8:	e1bffd17 	ldw	r6,-12(fp)
  8008fc:	0800cb80 	call	800cb8 <msg_send>
  800900:	00003d06 	br	8009f8 <man_key_down+0x1c8>
  800904:	00800084 	movi	r2,2
  800908:	e0bffc15 	stw	r2,-16(fp)
  80090c:	00804044 	movi	r2,257
  800910:	e0bffd15 	stw	r2,-12(fp)
  800914:	d126e417 	ldw	r4,-25712(gp)
  800918:	e17ffc17 	ldw	r5,-16(fp)
  80091c:	e1bffd17 	ldw	r6,-12(fp)
  800920:	0800cb80 	call	800cb8 <msg_send>
  800924:	00003406 	br	8009f8 <man_key_down+0x1c8>
  800928:	00800084 	movi	r2,2
  80092c:	e0bffc15 	stw	r2,-16(fp)
  800930:	00804084 	movi	r2,258
  800934:	e0bffd15 	stw	r2,-12(fp)
  800938:	d126e417 	ldw	r4,-25712(gp)
  80093c:	e17ffc17 	ldw	r5,-16(fp)
  800940:	e1bffd17 	ldw	r6,-12(fp)
  800944:	0800cb80 	call	800cb8 <msg_send>
  800948:	00002b06 	br	8009f8 <man_key_down+0x1c8>
  80094c:	00800084 	movi	r2,2
  800950:	e0bffc15 	stw	r2,-16(fp)
  800954:	008040c4 	movi	r2,259
  800958:	e0bffd15 	stw	r2,-12(fp)
  80095c:	d126e417 	ldw	r4,-25712(gp)
  800960:	e17ffc17 	ldw	r5,-16(fp)
  800964:	e1bffd17 	ldw	r6,-12(fp)
  800968:	0800cb80 	call	800cb8 <msg_send>
  80096c:	00002206 	br	8009f8 <man_key_down+0x1c8>
  800970:	00800084 	movi	r2,2
  800974:	e0bffc15 	stw	r2,-16(fp)
  800978:	e03ffd15 	stw	zero,-12(fp)
  80097c:	d126e417 	ldw	r4,-25712(gp)
  800980:	e17ffc17 	ldw	r5,-16(fp)
  800984:	e1bffd17 	ldw	r6,-12(fp)
  800988:	0800cb80 	call	800cb8 <msg_send>
  80098c:	00001a06 	br	8009f8 <man_key_down+0x1c8>
  800990:	00800084 	movi	r2,2
  800994:	e0bffc15 	stw	r2,-16(fp)
  800998:	00800044 	movi	r2,1
  80099c:	e0bffd15 	stw	r2,-12(fp)
  8009a0:	d126e417 	ldw	r4,-25712(gp)
  8009a4:	e17ffc17 	ldw	r5,-16(fp)
  8009a8:	e1bffd17 	ldw	r6,-12(fp)
  8009ac:	0800cb80 	call	800cb8 <msg_send>
  8009b0:	00001106 	br	8009f8 <man_key_down+0x1c8>
  8009b4:	00800084 	movi	r2,2
  8009b8:	e0bffc15 	stw	r2,-16(fp)
  8009bc:	00800084 	movi	r2,2
  8009c0:	e0bffd15 	stw	r2,-12(fp)
  8009c4:	d126e417 	ldw	r4,-25712(gp)
  8009c8:	e17ffc17 	ldw	r5,-16(fp)
  8009cc:	e1bffd17 	ldw	r6,-12(fp)
  8009d0:	0800cb80 	call	800cb8 <msg_send>
  8009d4:	00000806 	br	8009f8 <man_key_down+0x1c8>
  8009d8:	00800084 	movi	r2,2
  8009dc:	e0bffc15 	stw	r2,-16(fp)
  8009e0:	008000c4 	movi	r2,3
  8009e4:	e0bffd15 	stw	r2,-12(fp)
  8009e8:	d126e417 	ldw	r4,-25712(gp)
  8009ec:	e17ffc17 	ldw	r5,-16(fp)
  8009f0:	e1bffd17 	ldw	r6,-12(fp)
  8009f4:	0800cb80 	call	800cb8 <msg_send>
  8009f8:	e037883a 	mov	sp,fp
  8009fc:	dfc00117 	ldw	ra,4(sp)
  800a00:	df000017 	ldw	fp,0(sp)
  800a04:	dec00204 	addi	sp,sp,8
  800a08:	f800283a 	ret

00800a0c <man_key_up>:
  800a0c:	defffa04 	addi	sp,sp,-24
  800a10:	dfc00515 	stw	ra,20(sp)
  800a14:	df000415 	stw	fp,16(sp)
  800a18:	df000404 	addi	fp,sp,16
  800a1c:	e13ffe15 	stw	r4,-8(fp)
  800a20:	00c00044 	movi	r3,1
  800a24:	e0bffe17 	ldw	r2,-8(fp)
  800a28:	1884983a 	sll	r2,r3,r2
  800a2c:	e0bffe15 	stw	r2,-8(fp)
  800a30:	e0bffe17 	ldw	r2,-8(fp)
  800a34:	e0bfff15 	stw	r2,-4(fp)
  800a38:	e0ffff17 	ldw	r3,-4(fp)
  800a3c:	18800220 	cmpeqi	r2,r3,8
  800a40:	1000381e 	bne	r2,zero,800b24 <man_key_up+0x118>
  800a44:	e0ffff17 	ldw	r3,-4(fp)
  800a48:	18800248 	cmpgei	r2,r3,9
  800a4c:	10000a1e 	bne	r2,zero,800a78 <man_key_up+0x6c>
  800a50:	e0ffff17 	ldw	r3,-4(fp)
  800a54:	188000a0 	cmpeqi	r2,r3,2
  800a58:	1000201e 	bne	r2,zero,800adc <man_key_up+0xd0>
  800a5c:	e0ffff17 	ldw	r3,-4(fp)
  800a60:	18800120 	cmpeqi	r2,r3,4
  800a64:	1000261e 	bne	r2,zero,800b00 <man_key_up+0xf4>
  800a68:	e0ffff17 	ldw	r3,-4(fp)
  800a6c:	18800060 	cmpeqi	r2,r3,1
  800a70:	1000121e 	bne	r2,zero,800abc <man_key_up+0xb0>
  800a74:	00005606 	br	800bd0 <man_key_up+0x1c4>
  800a78:	e0ffff17 	ldw	r3,-4(fp)
  800a7c:	18800820 	cmpeqi	r2,r3,32
  800a80:	1000391e 	bne	r2,zero,800b68 <man_key_up+0x15c>
  800a84:	e0ffff17 	ldw	r3,-4(fp)
  800a88:	18800848 	cmpgei	r2,r3,33
  800a8c:	1000041e 	bne	r2,zero,800aa0 <man_key_up+0x94>
  800a90:	e0ffff17 	ldw	r3,-4(fp)
  800a94:	18800420 	cmpeqi	r2,r3,16
  800a98:	10002b1e 	bne	r2,zero,800b48 <man_key_up+0x13c>
  800a9c:	00004c06 	br	800bd0 <man_key_up+0x1c4>
  800aa0:	e0ffff17 	ldw	r3,-4(fp)
  800aa4:	18801020 	cmpeqi	r2,r3,64
  800aa8:	1000381e 	bne	r2,zero,800b8c <man_key_up+0x180>
  800aac:	e0ffff17 	ldw	r3,-4(fp)
  800ab0:	18802020 	cmpeqi	r2,r3,128
  800ab4:	10003e1e 	bne	r2,zero,800bb0 <man_key_up+0x1a4>
  800ab8:	00004506 	br	800bd0 <man_key_up+0x1c4>
  800abc:	00800104 	movi	r2,4
  800ac0:	e0bffc15 	stw	r2,-16(fp)
  800ac4:	e03ffd15 	stw	zero,-12(fp)
  800ac8:	d126e417 	ldw	r4,-25712(gp)
  800acc:	e17ffc17 	ldw	r5,-16(fp)
  800ad0:	e1bffd17 	ldw	r6,-12(fp)
  800ad4:	0800cb80 	call	800cb8 <msg_send>
  800ad8:	00003d06 	br	800bd0 <man_key_up+0x1c4>
  800adc:	00800104 	movi	r2,4
  800ae0:	e0bffc15 	stw	r2,-16(fp)
  800ae4:	00800044 	movi	r2,1
  800ae8:	e0bffd15 	stw	r2,-12(fp)
  800aec:	d126e417 	ldw	r4,-25712(gp)
  800af0:	e17ffc17 	ldw	r5,-16(fp)
  800af4:	e1bffd17 	ldw	r6,-12(fp)
  800af8:	0800cb80 	call	800cb8 <msg_send>
  800afc:	00003406 	br	800bd0 <man_key_up+0x1c4>
  800b00:	00800104 	movi	r2,4
  800b04:	e0bffc15 	stw	r2,-16(fp)
  800b08:	00800084 	movi	r2,2
  800b0c:	e0bffd15 	stw	r2,-12(fp)
  800b10:	d126e417 	ldw	r4,-25712(gp)
  800b14:	e17ffc17 	ldw	r5,-16(fp)
  800b18:	e1bffd17 	ldw	r6,-12(fp)
  800b1c:	0800cb80 	call	800cb8 <msg_send>
  800b20:	00002b06 	br	800bd0 <man_key_up+0x1c4>
  800b24:	00800104 	movi	r2,4
  800b28:	e0bffc15 	stw	r2,-16(fp)
  800b2c:	008000c4 	movi	r2,3
  800b30:	e0bffd15 	stw	r2,-12(fp)
  800b34:	d126e417 	ldw	r4,-25712(gp)
  800b38:	e17ffc17 	ldw	r5,-16(fp)
  800b3c:	e1bffd17 	ldw	r6,-12(fp)
  800b40:	0800cb80 	call	800cb8 <msg_send>
  800b44:	00002206 	br	800bd0 <man_key_up+0x1c4>
  800b48:	00800104 	movi	r2,4
  800b4c:	e0bffc15 	stw	r2,-16(fp)
  800b50:	e03ffd15 	stw	zero,-12(fp)
  800b54:	d126e417 	ldw	r4,-25712(gp)
  800b58:	e17ffc17 	ldw	r5,-16(fp)
  800b5c:	e1bffd17 	ldw	r6,-12(fp)
  800b60:	0800cb80 	call	800cb8 <msg_send>
  800b64:	00001a06 	br	800bd0 <man_key_up+0x1c4>
  800b68:	00800104 	movi	r2,4
  800b6c:	e0bffc15 	stw	r2,-16(fp)
  800b70:	00800044 	movi	r2,1
  800b74:	e0bffd15 	stw	r2,-12(fp)
  800b78:	d126e417 	ldw	r4,-25712(gp)
  800b7c:	e17ffc17 	ldw	r5,-16(fp)
  800b80:	e1bffd17 	ldw	r6,-12(fp)
  800b84:	0800cb80 	call	800cb8 <msg_send>
  800b88:	00001106 	br	800bd0 <man_key_up+0x1c4>
  800b8c:	00800104 	movi	r2,4
  800b90:	e0bffc15 	stw	r2,-16(fp)
  800b94:	00800084 	movi	r2,2
  800b98:	e0bffd15 	stw	r2,-12(fp)
  800b9c:	d126e417 	ldw	r4,-25712(gp)
  800ba0:	e17ffc17 	ldw	r5,-16(fp)
  800ba4:	e1bffd17 	ldw	r6,-12(fp)
  800ba8:	0800cb80 	call	800cb8 <msg_send>
  800bac:	00000806 	br	800bd0 <man_key_up+0x1c4>
  800bb0:	00800104 	movi	r2,4
  800bb4:	e0bffc15 	stw	r2,-16(fp)
  800bb8:	008000c4 	movi	r2,3
  800bbc:	e0bffd15 	stw	r2,-12(fp)
  800bc0:	d126e417 	ldw	r4,-25712(gp)
  800bc4:	e17ffc17 	ldw	r5,-16(fp)
  800bc8:	e1bffd17 	ldw	r6,-12(fp)
  800bcc:	0800cb80 	call	800cb8 <msg_send>
  800bd0:	e037883a 	mov	sp,fp
  800bd4:	dfc00117 	ldw	ra,4(sp)
  800bd8:	df000017 	ldw	fp,0(sp)
  800bdc:	dec00204 	addi	sp,sp,8
  800be0:	f800283a 	ret

00800be4 <msg_newQueue>:
  800be4:	defffb04 	addi	sp,sp,-20
  800be8:	dfc00415 	stw	ra,16(sp)
  800bec:	df000315 	stw	fp,12(sp)
  800bf0:	df000304 	addi	fp,sp,12
  800bf4:	e13ffe15 	stw	r4,-8(fp)
  800bf8:	e03ffd15 	stw	zero,-12(fp)
  800bfc:	01000284 	movi	r4,10
  800c00:	01400204 	movi	r5,8
  800c04:	000d883a 	mov	r6,zero
  800c08:	080b2c40 	call	80b2c4 <xQueueGenericCreate>
  800c0c:	e0bffd15 	stw	r2,-12(fp)
  800c10:	e0bffe17 	ldw	r2,-8(fp)
  800c14:	1004c03a 	cmpne	r2,r2,zero
  800c18:	1000031e 	bne	r2,zero,800c28 <msg_newQueue+0x44>
  800c1c:	00bfffc4 	movi	r2,-1
  800c20:	e0bfff15 	stw	r2,-4(fp)
  800c24:	00000a06 	br	800c50 <msg_newQueue+0x6c>
  800c28:	e0bffd17 	ldw	r2,-12(fp)
  800c2c:	1004c03a 	cmpne	r2,r2,zero
  800c30:	1000031e 	bne	r2,zero,800c40 <msg_newQueue+0x5c>
  800c34:	00bfffc4 	movi	r2,-1
  800c38:	e0bfff15 	stw	r2,-4(fp)
  800c3c:	00000406 	br	800c50 <msg_newQueue+0x6c>
  800c40:	e0fffe17 	ldw	r3,-8(fp)
  800c44:	e0bffd17 	ldw	r2,-12(fp)
  800c48:	18800015 	stw	r2,0(r3)
  800c4c:	e03fff15 	stw	zero,-4(fp)
  800c50:	e0bfff17 	ldw	r2,-4(fp)
  800c54:	e037883a 	mov	sp,fp
  800c58:	dfc00117 	ldw	ra,4(sp)
  800c5c:	df000017 	ldw	fp,0(sp)
  800c60:	dec00204 	addi	sp,sp,8
  800c64:	f800283a 	ret

00800c68 <msg_rmQueue>:
  800c68:	defffc04 	addi	sp,sp,-16
  800c6c:	dfc00315 	stw	ra,12(sp)
  800c70:	df000215 	stw	fp,8(sp)
  800c74:	df000204 	addi	fp,sp,8
  800c78:	e13ffe15 	stw	r4,-8(fp)
  800c7c:	e0bffe17 	ldw	r2,-8(fp)
  800c80:	1004c03a 	cmpne	r2,r2,zero
  800c84:	1000031e 	bne	r2,zero,800c94 <msg_rmQueue+0x2c>
  800c88:	00bfffc4 	movi	r2,-1
  800c8c:	e0bfff15 	stw	r2,-4(fp)
  800c90:	00000306 	br	800ca0 <msg_rmQueue+0x38>
  800c94:	e13ffe17 	ldw	r4,-8(fp)
  800c98:	080bc800 	call	80bc80 <vQueueDelete>
  800c9c:	e03fff15 	stw	zero,-4(fp)
  800ca0:	e0bfff17 	ldw	r2,-4(fp)
  800ca4:	e037883a 	mov	sp,fp
  800ca8:	dfc00117 	ldw	ra,4(sp)
  800cac:	df000017 	ldw	fp,0(sp)
  800cb0:	dec00204 	addi	sp,sp,8
  800cb4:	f800283a 	ret

00800cb8 <msg_send>:
  800cb8:	defffa04 	addi	sp,sp,-24
  800cbc:	dfc00515 	stw	ra,20(sp)
  800cc0:	df000415 	stw	fp,16(sp)
  800cc4:	df000404 	addi	fp,sp,16
  800cc8:	e13ffc15 	stw	r4,-16(fp)
  800ccc:	e17ffd15 	stw	r5,-12(fp)
  800cd0:	e1bffe15 	stw	r6,-8(fp)
  800cd4:	e17ffd04 	addi	r5,fp,-12
  800cd8:	e13ffc17 	ldw	r4,-16(fp)
  800cdc:	000d883a 	mov	r6,zero
  800ce0:	000f883a 	mov	r7,zero
  800ce4:	080b5f40 	call	80b5f4 <xQueueGenericSend>
  800ce8:	10800060 	cmpeqi	r2,r2,1
  800cec:	1000061e 	bne	r2,zero,800d08 <msg_send+0x50>
  800cf0:	01002074 	movhi	r4,129
  800cf4:	210a5a04 	addi	r4,r4,10600
  800cf8:	08015a40 	call	8015a4 <puts>
  800cfc:	00bfffc4 	movi	r2,-1
  800d00:	e0bfff15 	stw	r2,-4(fp)
  800d04:	00000106 	br	800d0c <msg_send+0x54>
  800d08:	e03fff15 	stw	zero,-4(fp)
  800d0c:	e0bfff17 	ldw	r2,-4(fp)
  800d10:	e037883a 	mov	sp,fp
  800d14:	dfc00117 	ldw	ra,4(sp)
  800d18:	df000017 	ldw	fp,0(sp)
  800d1c:	dec00204 	addi	sp,sp,8
  800d20:	f800283a 	ret

00800d24 <msg_recv_noblock>:
  800d24:	defffb04 	addi	sp,sp,-20
  800d28:	dfc00415 	stw	ra,16(sp)
  800d2c:	df000315 	stw	fp,12(sp)
  800d30:	df000304 	addi	fp,sp,12
  800d34:	e13ffd15 	stw	r4,-12(fp)
  800d38:	e17ffe15 	stw	r5,-8(fp)
  800d3c:	e0bffd17 	ldw	r2,-12(fp)
  800d40:	1004c03a 	cmpne	r2,r2,zero
  800d44:	1000031e 	bne	r2,zero,800d54 <msg_recv_noblock+0x30>
  800d48:	00bfffc4 	movi	r2,-1
  800d4c:	e0bfff15 	stw	r2,-4(fp)
  800d50:	00000b06 	br	800d80 <msg_recv_noblock+0x5c>
  800d54:	e13ffd17 	ldw	r4,-12(fp)
  800d58:	e17ffe17 	ldw	r5,-8(fp)
  800d5c:	000d883a 	mov	r6,zero
  800d60:	000f883a 	mov	r7,zero
  800d64:	080b8940 	call	80b894 <xQueueGenericReceive>
  800d68:	10800058 	cmpnei	r2,r2,1
  800d6c:	1000021e 	bne	r2,zero,800d78 <msg_recv_noblock+0x54>
  800d70:	e03fff15 	stw	zero,-4(fp)
  800d74:	00000206 	br	800d80 <msg_recv_noblock+0x5c>
  800d78:	00bfff84 	movi	r2,-2
  800d7c:	e0bfff15 	stw	r2,-4(fp)
  800d80:	e0bfff17 	ldw	r2,-4(fp)
  800d84:	e037883a 	mov	sp,fp
  800d88:	dfc00117 	ldw	ra,4(sp)
  800d8c:	df000017 	ldw	fp,0(sp)
  800d90:	dec00204 	addi	sp,sp,8
  800d94:	f800283a 	ret

00800d98 <msg_recv_block>:
  800d98:	defffb04 	addi	sp,sp,-20
  800d9c:	dfc00415 	stw	ra,16(sp)
  800da0:	df000315 	stw	fp,12(sp)
  800da4:	df000304 	addi	fp,sp,12
  800da8:	e13ffd15 	stw	r4,-12(fp)
  800dac:	e17ffe15 	stw	r5,-8(fp)
  800db0:	e0bffd17 	ldw	r2,-12(fp)
  800db4:	1004c03a 	cmpne	r2,r2,zero
  800db8:	1000031e 	bne	r2,zero,800dc8 <msg_recv_block+0x30>
  800dbc:	00bfffc4 	movi	r2,-1
  800dc0:	e0bfff15 	stw	r2,-4(fp)
  800dc4:	00000606 	br	800de0 <msg_recv_block+0x48>
  800dc8:	e13ffd17 	ldw	r4,-12(fp)
  800dcc:	e17ffe17 	ldw	r5,-8(fp)
  800dd0:	01bfffc4 	movi	r6,-1
  800dd4:	000f883a 	mov	r7,zero
  800dd8:	080b8940 	call	80b894 <xQueueGenericReceive>
  800ddc:	e03fff15 	stw	zero,-4(fp)
  800de0:	e0bfff17 	ldw	r2,-4(fp)
  800de4:	e037883a 	mov	sp,fp
  800de8:	dfc00117 	ldw	ra,4(sp)
  800dec:	df000017 	ldw	fp,0(sp)
  800df0:	dec00204 	addi	sp,sp,8
  800df4:	f800283a 	ret

00800df8 <move_Start>:
  800df8:	defff704 	addi	sp,sp,-36
  800dfc:	dfc00815 	stw	ra,32(sp)
  800e00:	df000715 	stw	fp,28(sp)
  800e04:	df000704 	addi	fp,sp,28
  800e08:	e13ffe15 	stw	r4,-8(fp)
  800e0c:	e0bffe17 	ldw	r2,-8(fp)
  800e10:	1004c03a 	cmpne	r2,r2,zero
  800e14:	1000031e 	bne	r2,zero,800e24 <move_Start+0x2c>
  800e18:	00bfffc4 	movi	r2,-1
  800e1c:	e0bfff15 	stw	r2,-4(fp)
  800e20:	00004606 	br	800f3c <move_Start+0x144>
  800e24:	e0bffe17 	ldw	r2,-8(fp)
  800e28:	d0a6e615 	stw	r2,-25704(gp)
  800e2c:	e03ffd15 	stw	zero,-12(fp)
  800e30:	00002b06 	br	800ee0 <move_Start+0xe8>
  800e34:	e0bffd17 	ldw	r2,-12(fp)
  800e38:	1006913a 	slli	r3,r2,4
  800e3c:	00802074 	movhi	r2,129
  800e40:	1099ea04 	addi	r2,r2,26536
  800e44:	1889883a 	add	r4,r3,r2
  800e48:	0800be40 	call	800be4 <msg_newQueue>
  800e4c:	1005003a 	cmpeq	r2,r2,zero
  800e50:	1000031e 	bne	r2,zero,800e60 <move_Start+0x68>
  800e54:	00bfffc4 	movi	r2,-1
  800e58:	e0bfff15 	stw	r2,-4(fp)
  800e5c:	00003706 	br	800f3c <move_Start+0x144>
  800e60:	e0bffd17 	ldw	r2,-12(fp)
  800e64:	00c02074 	movhi	r3,129
  800e68:	18d9ea04 	addi	r3,r3,26536
  800e6c:	1004913a 	slli	r2,r2,4
  800e70:	10c5883a 	add	r2,r2,r3
  800e74:	10c00104 	addi	r3,r2,4
  800e78:	e0bffd17 	ldw	r2,-12(fp)
  800e7c:	18800015 	stw	r2,0(r3)
  800e80:	01402074 	movhi	r5,129
  800e84:	294a6004 	addi	r5,r5,10624
  800e88:	e0bffd17 	ldw	r2,-12(fp)
  800e8c:	1004913a 	slli	r2,r2,4
  800e90:	1007883a 	mov	r3,r2
  800e94:	00802074 	movhi	r2,129
  800e98:	1099ea04 	addi	r2,r2,26536
  800e9c:	188f883a 	add	r7,r3,r2
  800ea0:	d8000015 	stw	zero,0(sp)
  800ea4:	d8000115 	stw	zero,4(sp)
  800ea8:	d8000215 	stw	zero,8(sp)
  800eac:	d8000315 	stw	zero,12(sp)
  800eb0:	01002034 	movhi	r4,128
  800eb4:	2103fa04 	addi	r4,r4,4072
  800eb8:	01810004 	movi	r6,1024
  800ebc:	080c2300 	call	80c230 <xTaskGenericCreate>
  800ec0:	10800060 	cmpeqi	r2,r2,1
  800ec4:	1000031e 	bne	r2,zero,800ed4 <move_Start+0xdc>
  800ec8:	00bfffc4 	movi	r2,-1
  800ecc:	e0bfff15 	stw	r2,-4(fp)
  800ed0:	00001a06 	br	800f3c <move_Start+0x144>
  800ed4:	e0bffd17 	ldw	r2,-12(fp)
  800ed8:	10800044 	addi	r2,r2,1
  800edc:	e0bffd15 	stw	r2,-12(fp)
  800ee0:	e0bffd17 	ldw	r2,-12(fp)
  800ee4:	10800110 	cmplti	r2,r2,4
  800ee8:	103fd21e 	bne	r2,zero,800e34 <move_Start+0x3c>
  800eec:	01000044 	movi	r4,1
  800ef0:	080b39c0 	call	80b39c <xQueueCreateMutex>
  800ef4:	d0a6e515 	stw	r2,-25708(gp)
  800ef8:	01402074 	movhi	r5,129
  800efc:	294a6304 	addi	r5,r5,10636
  800f00:	d8000015 	stw	zero,0(sp)
  800f04:	d8000115 	stw	zero,4(sp)
  800f08:	d8000215 	stw	zero,8(sp)
  800f0c:	d8000315 	stw	zero,12(sp)
  800f10:	01002034 	movhi	r4,128
  800f14:	2103d504 	addi	r4,r4,3924
  800f18:	01810004 	movi	r6,1024
  800f1c:	000f883a 	mov	r7,zero
  800f20:	080c2300 	call	80c230 <xTaskGenericCreate>
  800f24:	10800060 	cmpeqi	r2,r2,1
  800f28:	1000031e 	bne	r2,zero,800f38 <move_Start+0x140>
  800f2c:	00bfffc4 	movi	r2,-1
  800f30:	e0bfff15 	stw	r2,-4(fp)
  800f34:	00000106 	br	800f3c <move_Start+0x144>
  800f38:	e03fff15 	stw	zero,-4(fp)
  800f3c:	e0bfff17 	ldw	r2,-4(fp)
  800f40:	e037883a 	mov	sp,fp
  800f44:	dfc00117 	ldw	ra,4(sp)
  800f48:	df000017 	ldw	fp,0(sp)
  800f4c:	dec00204 	addi	sp,sp,8
  800f50:	f800283a 	ret

00800f54 <move_main_task>:
  800f54:	defff904 	addi	sp,sp,-28
  800f58:	dfc00615 	stw	ra,24(sp)
  800f5c:	df000515 	stw	fp,20(sp)
  800f60:	df000504 	addi	fp,sp,20
  800f64:	e13ffe15 	stw	r4,-8(fp)
  800f68:	01002074 	movhi	r4,129
  800f6c:	210a6904 	addi	r4,r4,10660
  800f70:	08015a40 	call	8015a4 <puts>
  800f74:	00000006 	br	800f78 <move_main_task+0x24>
  800f78:	d126e617 	ldw	r4,-25704(gp)
  800f7c:	e17ffc04 	addi	r5,fp,-16
  800f80:	0800d980 	call	800d98 <msg_recv_block>
  800f84:	e0bffc17 	ldw	r2,-16(fp)
  800f88:	e0bfff15 	stw	r2,-4(fp)
  800f8c:	e0ffff17 	ldw	r3,-4(fp)
  800f90:	188000a0 	cmpeqi	r2,r3,2
  800f94:	1000041e 	bne	r2,zero,800fa8 <move_main_task+0x54>
  800f98:	e0ffff17 	ldw	r3,-4(fp)
  800f9c:	18800120 	cmpeqi	r2,r3,4
  800fa0:	1000011e 	bne	r2,zero,800fa8 <move_main_task+0x54>
  800fa4:	003ff406 	br	800f78 <move_main_task+0x24>
  800fa8:	e0bffd17 	ldw	r2,-12(fp)
  800fac:	10803fcc 	andi	r2,r2,255
  800fb0:	e0bffb15 	stw	r2,-20(fp)
  800fb4:	e0bffb17 	ldw	r2,-20(fp)
  800fb8:	10800108 	cmpgei	r2,r2,4
  800fbc:	103fee1e 	bne	r2,zero,800f78 <move_main_task+0x24>
  800fc0:	e0bffb17 	ldw	r2,-20(fp)
  800fc4:	00c02074 	movhi	r3,129
  800fc8:	18d9ea04 	addi	r3,r3,26536
  800fcc:	1004913a 	slli	r2,r2,4
  800fd0:	10c5883a 	add	r2,r2,r3
  800fd4:	11000017 	ldw	r4,0(r2)
  800fd8:	e17ffc17 	ldw	r5,-16(fp)
  800fdc:	e1bffd17 	ldw	r6,-12(fp)
  800fe0:	0800cb80 	call	800cb8 <msg_send>
  800fe4:	003fe406 	br	800f78 <move_main_task+0x24>

00800fe8 <move_servo_task>:
  800fe8:	defff604 	addi	sp,sp,-40
  800fec:	dfc00915 	stw	ra,36(sp)
  800ff0:	df000815 	stw	fp,32(sp)
  800ff4:	df000804 	addi	fp,sp,32
  800ff8:	e13ffe15 	stw	r4,-8(fp)
  800ffc:	e0fffe17 	ldw	r3,-8(fp)
  801000:	18800017 	ldw	r2,0(r3)
  801004:	e0bff815 	stw	r2,-32(fp)
  801008:	18800117 	ldw	r2,4(r3)
  80100c:	e0bff915 	stw	r2,-28(fp)
  801010:	18800217 	ldw	r2,8(r3)
  801014:	e0bffa15 	stw	r2,-24(fp)
  801018:	18800317 	ldw	r2,12(r3)
  80101c:	e0bffb15 	stw	r2,-20(fp)
  801020:	00000006 	br	801024 <move_servo_task+0x3c>
  801024:	e13ff817 	ldw	r4,-32(fp)
  801028:	e17ffc04 	addi	r5,fp,-16
  80102c:	0800d980 	call	800d98 <msg_recv_block>
  801030:	e0bffc17 	ldw	r2,-16(fp)
  801034:	e0bfff15 	stw	r2,-4(fp)
  801038:	e0ffff17 	ldw	r3,-4(fp)
  80103c:	188000e0 	cmpeqi	r2,r3,3
  801040:	103ff81e 	bne	r2,zero,801024 <move_servo_task+0x3c>
  801044:	e0ffff17 	ldw	r3,-4(fp)
  801048:	18800120 	cmpeqi	r2,r3,4
  80104c:	1000101e 	bne	r2,zero,801090 <move_servo_task+0xa8>
  801050:	e0ffff17 	ldw	r3,-4(fp)
  801054:	188000a0 	cmpeqi	r2,r3,2
  801058:	1000011e 	bne	r2,zero,801060 <move_servo_task+0x78>
  80105c:	003ff106 	br	801024 <move_servo_task+0x3c>
  801060:	e0bffd17 	ldw	r2,-12(fp)
  801064:	1140400c 	andi	r5,r2,256
  801068:	e13ff804 	addi	r4,fp,-32
  80106c:	08010a40 	call	8010a4 <move_servo_cont>
  801070:	e0bff917 	ldw	r2,-28(fp)
  801074:	00c02074 	movhi	r3,129
  801078:	18d9ea04 	addi	r3,r3,26536
  80107c:	1004913a 	slli	r2,r2,4
  801080:	10c5883a 	add	r2,r2,r3
  801084:	10800304 	addi	r2,r2,12
  801088:	10000015 	stw	zero,0(r2)
  80108c:	003fe506 	br	801024 <move_servo_task+0x3c>
  801090:	e17ff917 	ldw	r5,-28(fp)
  801094:	01002074 	movhi	r4,129
  801098:	210a7104 	addi	r4,r4,10692
  80109c:	080148c0 	call	80148c <printf>
  8010a0:	003fe006 	br	801024 <move_servo_task+0x3c>

008010a4 <move_servo_cont>:
  8010a4:	defffa04 	addi	sp,sp,-24
  8010a8:	dfc00515 	stw	ra,20(sp)
  8010ac:	df000415 	stw	fp,16(sp)
  8010b0:	df000404 	addi	fp,sp,16
  8010b4:	e13ffe15 	stw	r4,-8(fp)
  8010b8:	e17fff15 	stw	r5,-4(fp)
  8010bc:	e0bfff17 	ldw	r2,-4(fp)
  8010c0:	1080400c 	andi	r2,r2,256
  8010c4:	1005003a 	cmpeq	r2,r2,zero
  8010c8:	10000a1e 	bne	r2,zero,8010f4 <move_servo_cont+0x50>
  8010cc:	e0bffe17 	ldw	r2,-8(fp)
  8010d0:	10800117 	ldw	r2,4(r2)
  8010d4:	00c02074 	movhi	r3,129
  8010d8:	18d9ea04 	addi	r3,r3,26536
  8010dc:	1004913a 	slli	r2,r2,4
  8010e0:	10c5883a 	add	r2,r2,r3
  8010e4:	10c00304 	addi	r3,r2,12
  8010e8:	00800044 	movi	r2,1
  8010ec:	18800015 	stw	r2,0(r3)
  8010f0:	00000906 	br	801118 <move_servo_cont+0x74>
  8010f4:	e0bffe17 	ldw	r2,-8(fp)
  8010f8:	10800117 	ldw	r2,4(r2)
  8010fc:	00c02074 	movhi	r3,129
  801100:	18d9ea04 	addi	r3,r3,26536
  801104:	1004913a 	slli	r2,r2,4
  801108:	10c5883a 	add	r2,r2,r3
  80110c:	10c00304 	addi	r3,r2,12
  801110:	00800084 	movi	r2,2
  801114:	18800015 	stw	r2,0(r3)
  801118:	e0bffe17 	ldw	r2,-8(fp)
  80111c:	11000017 	ldw	r4,0(r2)
  801120:	e17ffc04 	addi	r5,fp,-16
  801124:	0800d240 	call	800d24 <msg_recv_noblock>
  801128:	10bfffa0 	cmpeqi	r2,r2,-2
  80112c:	1000071e 	bne	r2,zero,80114c <move_servo_cont+0xa8>
  801130:	e0bffc17 	ldw	r2,-16(fp)
  801134:	10800120 	cmpeqi	r2,r2,4
  801138:	1000141e 	bne	r2,zero,80118c <move_servo_cont+0xe8>
  80113c:	01002074 	movhi	r4,129
  801140:	210a7904 	addi	r4,r4,10724
  801144:	08015a40 	call	8015a4 <puts>
  801148:	00001006 	br	80118c <move_servo_cont+0xe8>
  80114c:	e0bfff17 	ldw	r2,-4(fp)
  801150:	1080400c 	andi	r2,r2,256
  801154:	1005003a 	cmpeq	r2,r2,zero
  801158:	1000051e 	bne	r2,zero,801170 <move_servo_cont+0xcc>
  80115c:	e0bffe17 	ldw	r2,-8(fp)
  801160:	11000117 	ldw	r4,4(r2)
  801164:	01400084 	movi	r5,2
  801168:	08012740 	call	801274 <pwm_jump>
  80116c:	00000406 	br	801180 <move_servo_cont+0xdc>
  801170:	e0bffe17 	ldw	r2,-8(fp)
  801174:	11000117 	ldw	r4,4(r2)
  801178:	017fff84 	movi	r5,-2
  80117c:	08012740 	call	801274 <pwm_jump>
  801180:	01001904 	movi	r4,100
  801184:	080c6140 	call	80c614 <vTaskDelay>
  801188:	003fe306 	br	801118 <move_servo_cont+0x74>
  80118c:	e037883a 	mov	sp,fp
  801190:	dfc00117 	ldw	ra,4(sp)
  801194:	df000017 	ldw	fp,0(sp)
  801198:	dec00204 	addi	sp,sp,8
  80119c:	f800283a 	ret

008011a0 <move_get_state>:
  8011a0:	defffd04 	addi	sp,sp,-12
  8011a4:	df000215 	stw	fp,8(sp)
  8011a8:	df000204 	addi	fp,sp,8
  8011ac:	e13ffe15 	stw	r4,-8(fp)
  8011b0:	e17fff15 	stw	r5,-4(fp)
  8011b4:	e0bffe17 	ldw	r2,-8(fp)
  8011b8:	00c02074 	movhi	r3,129
  8011bc:	18d9ea04 	addi	r3,r3,26536
  8011c0:	1004913a 	slli	r2,r2,4
  8011c4:	10c5883a 	add	r2,r2,r3
  8011c8:	10800304 	addi	r2,r2,12
  8011cc:	10c00017 	ldw	r3,0(r2)
  8011d0:	e0bfff17 	ldw	r2,-4(fp)
  8011d4:	10c00015 	stw	r3,0(r2)
  8011d8:	0005883a 	mov	r2,zero
  8011dc:	e037883a 	mov	sp,fp
  8011e0:	df000017 	ldw	fp,0(sp)
  8011e4:	dec00104 	addi	sp,sp,4
  8011e8:	f800283a 	ret

008011ec <pwm_init>:
  8011ec:	defffc04 	addi	sp,sp,-16
  8011f0:	dfc00315 	stw	ra,12(sp)
  8011f4:	df000215 	stw	fp,8(sp)
  8011f8:	dc000115 	stw	r16,4(sp)
  8011fc:	df000104 	addi	fp,sp,4
  801200:	01000044 	movi	r4,1
  801204:	080b39c0 	call	80b39c <xQueueCreateMutex>
  801208:	d0a6e715 	stw	r2,-25700(gp)
  80120c:	e03fff15 	stw	zero,-4(fp)
  801210:	00000e06 	br	80124c <pwm_init+0x60>
  801214:	e13fff17 	ldw	r4,-4(fp)
  801218:	04002074 	movhi	r16,129
  80121c:	840c1f04 	addi	r16,r16,12412
  801220:	01400304 	movi	r5,12
  801224:	08014540 	call	801454 <__mulsi3>
  801228:	1405883a 	add	r2,r2,r16
  80122c:	10800204 	addi	r2,r2,8
  801230:	10800017 	ldw	r2,0(r2)
  801234:	100b883a 	mov	r5,r2
  801238:	e13fff17 	ldw	r4,-4(fp)
  80123c:	08012f40 	call	8012f4 <pwm_set_pos>
  801240:	e0bfff17 	ldw	r2,-4(fp)
  801244:	10800044 	addi	r2,r2,1
  801248:	e0bfff15 	stw	r2,-4(fp)
  80124c:	e0bfff17 	ldw	r2,-4(fp)
  801250:	10800110 	cmplti	r2,r2,4
  801254:	103fef1e 	bne	r2,zero,801214 <pwm_init+0x28>
  801258:	0005883a 	mov	r2,zero
  80125c:	e037883a 	mov	sp,fp
  801260:	dfc00217 	ldw	ra,8(sp)
  801264:	df000117 	ldw	fp,4(sp)
  801268:	dc000017 	ldw	r16,0(sp)
  80126c:	dec00304 	addi	sp,sp,12
  801270:	f800283a 	ret

00801274 <pwm_jump>:
  801274:	defffb04 	addi	sp,sp,-20
  801278:	dfc00415 	stw	ra,16(sp)
  80127c:	df000315 	stw	fp,12(sp)
  801280:	df000304 	addi	fp,sp,12
  801284:	e13ffe15 	stw	r4,-8(fp)
  801288:	e17fff15 	stw	r5,-4(fp)
  80128c:	e13ffe17 	ldw	r4,-8(fp)
  801290:	e17ffd04 	addi	r5,fp,-12
  801294:	08013a40 	call	8013a4 <pwm_get_pos>
  801298:	e0bfff17 	ldw	r2,-4(fp)
  80129c:	1004403a 	cmpge	r2,r2,zero
  8012a0:	1000071e 	bne	r2,zero,8012c0 <pwm_jump+0x4c>
  8012a4:	e0bfff17 	ldw	r2,-4(fp)
  8012a8:	0087c83a 	sub	r3,zero,r2
  8012ac:	e0bffd17 	ldw	r2,-12(fp)
  8012b0:	10c0030e 	bge	r2,r3,8012c0 <pwm_jump+0x4c>
  8012b4:	e0bffd17 	ldw	r2,-12(fp)
  8012b8:	0085c83a 	sub	r2,zero,r2
  8012bc:	e0bfff15 	stw	r2,-4(fp)
  8012c0:	e0fffd17 	ldw	r3,-12(fp)
  8012c4:	e0bfff17 	ldw	r2,-4(fp)
  8012c8:	1885883a 	add	r2,r3,r2
  8012cc:	e0bffd15 	stw	r2,-12(fp)
  8012d0:	e17ffd17 	ldw	r5,-12(fp)
  8012d4:	e13ffe17 	ldw	r4,-8(fp)
  8012d8:	08012f40 	call	8012f4 <pwm_set_pos>
  8012dc:	0005883a 	mov	r2,zero
  8012e0:	e037883a 	mov	sp,fp
  8012e4:	dfc00117 	ldw	ra,4(sp)
  8012e8:	df000017 	ldw	fp,0(sp)
  8012ec:	dec00204 	addi	sp,sp,8
  8012f0:	f800283a 	ret

008012f4 <pwm_set_pos>:
  8012f4:	defffa04 	addi	sp,sp,-24
  8012f8:	dfc00515 	stw	ra,20(sp)
  8012fc:	df000415 	stw	fp,16(sp)
  801300:	dc400315 	stw	r17,12(sp)
  801304:	dc000215 	stw	r16,8(sp)
  801308:	df000204 	addi	fp,sp,8
  80130c:	e13ffe15 	stw	r4,-8(fp)
  801310:	e17fff15 	stw	r5,-4(fp)
  801314:	d0a6e717 	ldw	r2,-25700(gp)
  801318:	1005003a 	cmpeq	r2,r2,zero
  80131c:	1000191e 	bne	r2,zero,801384 <pwm_set_pos+0x90>
  801320:	d126e717 	ldw	r4,-25700(gp)
  801324:	000b883a 	mov	r5,zero
  801328:	01800284 	movi	r6,10
  80132c:	000f883a 	mov	r7,zero
  801330:	080b8940 	call	80b894 <xQueueGenericReceive>
  801334:	10800058 	cmpnei	r2,r2,1
  801338:	10000f1e 	bne	r2,zero,801378 <pwm_set_pos+0x84>
  80133c:	e13ffe17 	ldw	r4,-8(fp)
  801340:	e47fff17 	ldw	r17,-4(fp)
  801344:	04002074 	movhi	r16,129
  801348:	840c1f04 	addi	r16,r16,12412
  80134c:	01400304 	movi	r5,12
  801350:	08014540 	call	801454 <__mulsi3>
  801354:	1405883a 	add	r2,r2,r16
  801358:	10800104 	addi	r2,r2,4
  80135c:	14400015 	stw	r17,0(r2)
  801360:	d126e717 	ldw	r4,-25700(gp)
  801364:	000b883a 	mov	r5,zero
  801368:	000d883a 	mov	r6,zero
  80136c:	000f883a 	mov	r7,zero
  801370:	080b5f40 	call	80b5f4 <xQueueGenericSend>
  801374:	00000306 	br	801384 <pwm_set_pos+0x90>
  801378:	01002074 	movhi	r4,129
  80137c:	210a8604 	addi	r4,r4,10776
  801380:	08015a40 	call	8015a4 <puts>
  801384:	0005883a 	mov	r2,zero
  801388:	e037883a 	mov	sp,fp
  80138c:	dfc00317 	ldw	ra,12(sp)
  801390:	df000217 	ldw	fp,8(sp)
  801394:	dc400117 	ldw	r17,4(sp)
  801398:	dc000017 	ldw	r16,0(sp)
  80139c:	dec00404 	addi	sp,sp,16
  8013a0:	f800283a 	ret

008013a4 <pwm_get_pos>:
  8013a4:	defffb04 	addi	sp,sp,-20
  8013a8:	dfc00415 	stw	ra,16(sp)
  8013ac:	df000315 	stw	fp,12(sp)
  8013b0:	dc000215 	stw	r16,8(sp)
  8013b4:	df000204 	addi	fp,sp,8
  8013b8:	e13ffe15 	stw	r4,-8(fp)
  8013bc:	e17fff15 	stw	r5,-4(fp)
  8013c0:	d0a6e717 	ldw	r2,-25700(gp)
  8013c4:	1005003a 	cmpeq	r2,r2,zero
  8013c8:	10001b1e 	bne	r2,zero,801438 <pwm_get_pos+0x94>
  8013cc:	d126e717 	ldw	r4,-25700(gp)
  8013d0:	000b883a 	mov	r5,zero
  8013d4:	01800284 	movi	r6,10
  8013d8:	000f883a 	mov	r7,zero
  8013dc:	080b8940 	call	80b894 <xQueueGenericReceive>
  8013e0:	10800058 	cmpnei	r2,r2,1
  8013e4:	1000111e 	bne	r2,zero,80142c <pwm_get_pos+0x88>
  8013e8:	e13ffe17 	ldw	r4,-8(fp)
  8013ec:	04002074 	movhi	r16,129
  8013f0:	840c1f04 	addi	r16,r16,12412
  8013f4:	01400304 	movi	r5,12
  8013f8:	08014540 	call	801454 <__mulsi3>
  8013fc:	1405883a 	add	r2,r2,r16
  801400:	10800104 	addi	r2,r2,4
  801404:	10800017 	ldw	r2,0(r2)
  801408:	1007883a 	mov	r3,r2
  80140c:	e0bfff17 	ldw	r2,-4(fp)
  801410:	10c00015 	stw	r3,0(r2)
  801414:	d126e717 	ldw	r4,-25700(gp)
  801418:	000b883a 	mov	r5,zero
  80141c:	000d883a 	mov	r6,zero
  801420:	000f883a 	mov	r7,zero
  801424:	080b5f40 	call	80b5f4 <xQueueGenericSend>
  801428:	00000306 	br	801438 <pwm_get_pos+0x94>
  80142c:	01002074 	movhi	r4,129
  801430:	210a8604 	addi	r4,r4,10776
  801434:	08015a40 	call	8015a4 <puts>
  801438:	0005883a 	mov	r2,zero
  80143c:	e037883a 	mov	sp,fp
  801440:	dfc00217 	ldw	ra,8(sp)
  801444:	df000117 	ldw	fp,4(sp)
  801448:	dc000017 	ldw	r16,0(sp)
  80144c:	dec00304 	addi	sp,sp,12
  801450:	f800283a 	ret

00801454 <__mulsi3>:
  801454:	20000a26 	beq	r4,zero,801480 <__mulsi3+0x2c>
  801458:	0007883a 	mov	r3,zero
  80145c:	2080004c 	andi	r2,r4,1
  801460:	1005003a 	cmpeq	r2,r2,zero
  801464:	2008d07a 	srli	r4,r4,1
  801468:	1000011e 	bne	r2,zero,801470 <__mulsi3+0x1c>
  80146c:	1947883a 	add	r3,r3,r5
  801470:	294b883a 	add	r5,r5,r5
  801474:	203ff91e 	bne	r4,zero,80145c <__mulsi3+0x8>
  801478:	1805883a 	mov	r2,r3
  80147c:	f800283a 	ret
  801480:	0007883a 	mov	r3,zero
  801484:	1805883a 	mov	r2,r3
  801488:	f800283a 	ret

0080148c <printf>:
  80148c:	defffb04 	addi	sp,sp,-20
  801490:	dfc00115 	stw	ra,4(sp)
  801494:	d9400215 	stw	r5,8(sp)
  801498:	d9800315 	stw	r6,12(sp)
  80149c:	d9c00415 	stw	r7,16(sp)
  8014a0:	00802074 	movhi	r2,129
  8014a4:	1092dd04 	addi	r2,r2,19316
  8014a8:	10c00017 	ldw	r3,0(r2)
  8014ac:	200b883a 	mov	r5,r4
  8014b0:	d8800204 	addi	r2,sp,8
  8014b4:	19000217 	ldw	r4,8(r3)
  8014b8:	100d883a 	mov	r6,r2
  8014bc:	d8800015 	stw	r2,0(sp)
  8014c0:	08035480 	call	803548 <__vfprintf_internal>
  8014c4:	dfc00117 	ldw	ra,4(sp)
  8014c8:	dec00504 	addi	sp,sp,20
  8014cc:	f800283a 	ret

008014d0 <_printf_r>:
  8014d0:	defffc04 	addi	sp,sp,-16
  8014d4:	dfc00115 	stw	ra,4(sp)
  8014d8:	d9800215 	stw	r6,8(sp)
  8014dc:	d9c00315 	stw	r7,12(sp)
  8014e0:	280d883a 	mov	r6,r5
  8014e4:	21400217 	ldw	r5,8(r4)
  8014e8:	d8c00204 	addi	r3,sp,8
  8014ec:	180f883a 	mov	r7,r3
  8014f0:	d8c00015 	stw	r3,0(sp)
  8014f4:	08016840 	call	801684 <___vfprintf_internal_r>
  8014f8:	dfc00117 	ldw	ra,4(sp)
  8014fc:	dec00404 	addi	sp,sp,16
  801500:	f800283a 	ret

00801504 <_puts_r>:
  801504:	defff604 	addi	sp,sp,-40
  801508:	dc400715 	stw	r17,28(sp)
  80150c:	2023883a 	mov	r17,r4
  801510:	2809883a 	mov	r4,r5
  801514:	dfc00915 	stw	ra,36(sp)
  801518:	dcc00815 	stw	r19,32(sp)
  80151c:	2827883a 	mov	r19,r5
  801520:	08015b80 	call	8015b8 <strlen>
  801524:	89400217 	ldw	r5,8(r17)
  801528:	00c02074 	movhi	r3,129
  80152c:	18ca8d04 	addi	r3,r3,10804
  801530:	01c00044 	movi	r7,1
  801534:	12000044 	addi	r8,r2,1
  801538:	d8c00515 	stw	r3,20(sp)
  80153c:	d9c00615 	stw	r7,24(sp)
  801540:	d8c00304 	addi	r3,sp,12
  801544:	01c00084 	movi	r7,2
  801548:	8809883a 	mov	r4,r17
  80154c:	d80d883a 	mov	r6,sp
  801550:	d8c00015 	stw	r3,0(sp)
  801554:	dcc00315 	stw	r19,12(sp)
  801558:	da000215 	stw	r8,8(sp)
  80155c:	d9c00115 	stw	r7,4(sp)
  801560:	d8800415 	stw	r2,16(sp)
  801564:	08058040 	call	805804 <__sfvwrite_r>
  801568:	00ffffc4 	movi	r3,-1
  80156c:	10000626 	beq	r2,zero,801588 <_puts_r+0x84>
  801570:	1805883a 	mov	r2,r3
  801574:	dfc00917 	ldw	ra,36(sp)
  801578:	dcc00817 	ldw	r19,32(sp)
  80157c:	dc400717 	ldw	r17,28(sp)
  801580:	dec00a04 	addi	sp,sp,40
  801584:	f800283a 	ret
  801588:	00c00284 	movi	r3,10
  80158c:	1805883a 	mov	r2,r3
  801590:	dfc00917 	ldw	ra,36(sp)
  801594:	dcc00817 	ldw	r19,32(sp)
  801598:	dc400717 	ldw	r17,28(sp)
  80159c:	dec00a04 	addi	sp,sp,40
  8015a0:	f800283a 	ret

008015a4 <puts>:
  8015a4:	00802074 	movhi	r2,129
  8015a8:	1092dd04 	addi	r2,r2,19316
  8015ac:	200b883a 	mov	r5,r4
  8015b0:	11000017 	ldw	r4,0(r2)
  8015b4:	08015041 	jmpi	801504 <_puts_r>

008015b8 <strlen>:
  8015b8:	208000cc 	andi	r2,r4,3
  8015bc:	2011883a 	mov	r8,r4
  8015c0:	1000161e 	bne	r2,zero,80161c <strlen+0x64>
  8015c4:	20c00017 	ldw	r3,0(r4)
  8015c8:	017fbff4 	movhi	r5,65279
  8015cc:	297fbfc4 	addi	r5,r5,-257
  8015d0:	01e02074 	movhi	r7,32897
  8015d4:	39e02004 	addi	r7,r7,-32640
  8015d8:	1945883a 	add	r2,r3,r5
  8015dc:	11c4703a 	and	r2,r2,r7
  8015e0:	00c6303a 	nor	r3,zero,r3
  8015e4:	1886703a 	and	r3,r3,r2
  8015e8:	18000c1e 	bne	r3,zero,80161c <strlen+0x64>
  8015ec:	280d883a 	mov	r6,r5
  8015f0:	380b883a 	mov	r5,r7
  8015f4:	21000104 	addi	r4,r4,4
  8015f8:	20800017 	ldw	r2,0(r4)
  8015fc:	1187883a 	add	r3,r2,r6
  801600:	1946703a 	and	r3,r3,r5
  801604:	0084303a 	nor	r2,zero,r2
  801608:	10c4703a 	and	r2,r2,r3
  80160c:	103ff926 	beq	r2,zero,8015f4 <strlen+0x3c>
  801610:	20800007 	ldb	r2,0(r4)
  801614:	10000326 	beq	r2,zero,801624 <strlen+0x6c>
  801618:	21000044 	addi	r4,r4,1
  80161c:	20800007 	ldb	r2,0(r4)
  801620:	103ffd1e 	bne	r2,zero,801618 <strlen+0x60>
  801624:	2205c83a 	sub	r2,r4,r8
  801628:	f800283a 	ret

0080162c <__sprint_r>:
  80162c:	30800217 	ldw	r2,8(r6)
  801630:	defffe04 	addi	sp,sp,-8
  801634:	dc000015 	stw	r16,0(sp)
  801638:	dfc00115 	stw	ra,4(sp)
  80163c:	3021883a 	mov	r16,r6
  801640:	0007883a 	mov	r3,zero
  801644:	1000061e 	bne	r2,zero,801660 <__sprint_r+0x34>
  801648:	1805883a 	mov	r2,r3
  80164c:	30000115 	stw	zero,4(r6)
  801650:	dfc00117 	ldw	ra,4(sp)
  801654:	dc000017 	ldw	r16,0(sp)
  801658:	dec00204 	addi	sp,sp,8
  80165c:	f800283a 	ret
  801660:	08058040 	call	805804 <__sfvwrite_r>
  801664:	1007883a 	mov	r3,r2
  801668:	1805883a 	mov	r2,r3
  80166c:	80000115 	stw	zero,4(r16)
  801670:	80000215 	stw	zero,8(r16)
  801674:	dfc00117 	ldw	ra,4(sp)
  801678:	dc000017 	ldw	r16,0(sp)
  80167c:	dec00204 	addi	sp,sp,8
  801680:	f800283a 	ret

00801684 <___vfprintf_internal_r>:
  801684:	defea404 	addi	sp,sp,-1392
  801688:	dd815815 	stw	r22,1376(sp)
  80168c:	dc015215 	stw	r16,1352(sp)
  801690:	d9c15115 	stw	r7,1348(sp)
  801694:	dfc15b15 	stw	ra,1388(sp)
  801698:	df015a15 	stw	fp,1384(sp)
  80169c:	ddc15915 	stw	r23,1380(sp)
  8016a0:	dd415715 	stw	r21,1372(sp)
  8016a4:	dd015615 	stw	r20,1368(sp)
  8016a8:	dcc15515 	stw	r19,1364(sp)
  8016ac:	dc815415 	stw	r18,1360(sp)
  8016b0:	dc415315 	stw	r17,1356(sp)
  8016b4:	282d883a 	mov	r22,r5
  8016b8:	3021883a 	mov	r16,r6
  8016bc:	d9014f15 	stw	r4,1340(sp)
  8016c0:	0805e280 	call	805e28 <_localeconv_r>
  8016c4:	10800017 	ldw	r2,0(r2)
  8016c8:	d9c15117 	ldw	r7,1348(sp)
  8016cc:	d8814915 	stw	r2,1316(sp)
  8016d0:	d8814f17 	ldw	r2,1340(sp)
  8016d4:	10000226 	beq	r2,zero,8016e0 <___vfprintf_internal_r+0x5c>
  8016d8:	10800e17 	ldw	r2,56(r2)
  8016dc:	10020d26 	beq	r2,zero,801f14 <___vfprintf_internal_r+0x890>
  8016e0:	b080030b 	ldhu	r2,12(r22)
  8016e4:	1080020c 	andi	r2,r2,8
  8016e8:	10020e26 	beq	r2,zero,801f24 <___vfprintf_internal_r+0x8a0>
  8016ec:	b0800417 	ldw	r2,16(r22)
  8016f0:	10020c26 	beq	r2,zero,801f24 <___vfprintf_internal_r+0x8a0>
  8016f4:	b200030b 	ldhu	r8,12(r22)
  8016f8:	00800284 	movi	r2,10
  8016fc:	40c0068c 	andi	r3,r8,26
  801700:	18802f1e 	bne	r3,r2,8017c0 <___vfprintf_internal_r+0x13c>
  801704:	b080038f 	ldh	r2,14(r22)
  801708:	10002d16 	blt	r2,zero,8017c0 <___vfprintf_internal_r+0x13c>
  80170c:	b240038b 	ldhu	r9,14(r22)
  801710:	b2800717 	ldw	r10,28(r22)
  801714:	b2c00917 	ldw	r11,36(r22)
  801718:	d9014f17 	ldw	r4,1340(sp)
  80171c:	dc402904 	addi	r17,sp,164
  801720:	d8804004 	addi	r2,sp,256
  801724:	00c10004 	movi	r3,1024
  801728:	423fff4c 	andi	r8,r8,65533
  80172c:	800d883a 	mov	r6,r16
  801730:	880b883a 	mov	r5,r17
  801734:	da002c0d 	sth	r8,176(sp)
  801738:	da402c8d 	sth	r9,178(sp)
  80173c:	da803015 	stw	r10,192(sp)
  801740:	dac03215 	stw	r11,200(sp)
  801744:	d8802d15 	stw	r2,180(sp)
  801748:	d8c02e15 	stw	r3,184(sp)
  80174c:	d8802915 	stw	r2,164(sp)
  801750:	d8c02b15 	stw	r3,172(sp)
  801754:	d8002f15 	stw	zero,188(sp)
  801758:	08016840 	call	801684 <___vfprintf_internal_r>
  80175c:	d8814b15 	stw	r2,1324(sp)
  801760:	10000416 	blt	r2,zero,801774 <___vfprintf_internal_r+0xf0>
  801764:	d9014f17 	ldw	r4,1340(sp)
  801768:	880b883a 	mov	r5,r17
  80176c:	0804ea00 	call	804ea0 <_fflush_r>
  801770:	1002321e 	bne	r2,zero,80203c <___vfprintf_internal_r+0x9b8>
  801774:	d8802c0b 	ldhu	r2,176(sp)
  801778:	1080100c 	andi	r2,r2,64
  80177c:	10000326 	beq	r2,zero,80178c <___vfprintf_internal_r+0x108>
  801780:	b080030b 	ldhu	r2,12(r22)
  801784:	10801014 	ori	r2,r2,64
  801788:	b080030d 	sth	r2,12(r22)
  80178c:	d8814b17 	ldw	r2,1324(sp)
  801790:	dfc15b17 	ldw	ra,1388(sp)
  801794:	df015a17 	ldw	fp,1384(sp)
  801798:	ddc15917 	ldw	r23,1380(sp)
  80179c:	dd815817 	ldw	r22,1376(sp)
  8017a0:	dd415717 	ldw	r21,1372(sp)
  8017a4:	dd015617 	ldw	r20,1368(sp)
  8017a8:	dcc15517 	ldw	r19,1364(sp)
  8017ac:	dc815417 	ldw	r18,1360(sp)
  8017b0:	dc415317 	ldw	r17,1356(sp)
  8017b4:	dc015217 	ldw	r16,1352(sp)
  8017b8:	dec15c04 	addi	sp,sp,1392
  8017bc:	f800283a 	ret
  8017c0:	0005883a 	mov	r2,zero
  8017c4:	0007883a 	mov	r3,zero
  8017c8:	dd401904 	addi	r21,sp,100
  8017cc:	d8814215 	stw	r2,1288(sp)
  8017d0:	802f883a 	mov	r23,r16
  8017d4:	d8c14315 	stw	r3,1292(sp)
  8017d8:	d8014b15 	stw	zero,1324(sp)
  8017dc:	d8014815 	stw	zero,1312(sp)
  8017e0:	d8014415 	stw	zero,1296(sp)
  8017e4:	d8014715 	stw	zero,1308(sp)
  8017e8:	dd400c15 	stw	r21,48(sp)
  8017ec:	d8000e15 	stw	zero,56(sp)
  8017f0:	d8000d15 	stw	zero,52(sp)
  8017f4:	b8800007 	ldb	r2,0(r23)
  8017f8:	10001926 	beq	r2,zero,801860 <___vfprintf_internal_r+0x1dc>
  8017fc:	00c00944 	movi	r3,37
  801800:	10c01726 	beq	r2,r3,801860 <___vfprintf_internal_r+0x1dc>
  801804:	b821883a 	mov	r16,r23
  801808:	00000106 	br	801810 <___vfprintf_internal_r+0x18c>
  80180c:	10c00326 	beq	r2,r3,80181c <___vfprintf_internal_r+0x198>
  801810:	84000044 	addi	r16,r16,1
  801814:	80800007 	ldb	r2,0(r16)
  801818:	103ffc1e 	bne	r2,zero,80180c <___vfprintf_internal_r+0x188>
  80181c:	85e7c83a 	sub	r19,r16,r23
  801820:	98000e26 	beq	r19,zero,80185c <___vfprintf_internal_r+0x1d8>
  801824:	dc800e17 	ldw	r18,56(sp)
  801828:	dc400d17 	ldw	r17,52(sp)
  80182c:	008001c4 	movi	r2,7
  801830:	94e5883a 	add	r18,r18,r19
  801834:	8c400044 	addi	r17,r17,1
  801838:	adc00015 	stw	r23,0(r21)
  80183c:	dc800e15 	stw	r18,56(sp)
  801840:	acc00115 	stw	r19,4(r21)
  801844:	dc400d15 	stw	r17,52(sp)
  801848:	14428b16 	blt	r2,r17,802278 <___vfprintf_internal_r+0xbf4>
  80184c:	ad400204 	addi	r21,r21,8
  801850:	d9014b17 	ldw	r4,1324(sp)
  801854:	24c9883a 	add	r4,r4,r19
  801858:	d9014b15 	stw	r4,1324(sp)
  80185c:	802f883a 	mov	r23,r16
  801860:	b8800007 	ldb	r2,0(r23)
  801864:	10013c26 	beq	r2,zero,801d58 <___vfprintf_internal_r+0x6d4>
  801868:	bdc00044 	addi	r23,r23,1
  80186c:	d8000405 	stb	zero,16(sp)
  801870:	b8c00007 	ldb	r3,0(r23)
  801874:	04ffffc4 	movi	r19,-1
  801878:	d8014c15 	stw	zero,1328(sp)
  80187c:	d8014a15 	stw	zero,1320(sp)
  801880:	d8c14d15 	stw	r3,1332(sp)
  801884:	bdc00044 	addi	r23,r23,1
  801888:	d9414d17 	ldw	r5,1332(sp)
  80188c:	00801604 	movi	r2,88
  801890:	28fff804 	addi	r3,r5,-32
  801894:	10c06036 	bltu	r2,r3,801a18 <___vfprintf_internal_r+0x394>
  801898:	18c5883a 	add	r2,r3,r3
  80189c:	1085883a 	add	r2,r2,r2
  8018a0:	00c02034 	movhi	r3,128
  8018a4:	18c62d04 	addi	r3,r3,6324
  8018a8:	10c5883a 	add	r2,r2,r3
  8018ac:	11000017 	ldw	r4,0(r2)
  8018b0:	2000683a 	jmp	r4
  8018b4:	00802828 	cmpgeui	r2,zero,160
  8018b8:	00801a18 	cmpnei	r2,zero,104
  8018bc:	00801a18 	cmpnei	r2,zero,104
  8018c0:	00802814 	movui	r2,160
  8018c4:	00801a18 	cmpnei	r2,zero,104
  8018c8:	00801a18 	cmpnei	r2,zero,104
  8018cc:	00801a18 	cmpnei	r2,zero,104
  8018d0:	00801a18 	cmpnei	r2,zero,104
  8018d4:	00801a18 	cmpnei	r2,zero,104
  8018d8:	00801a18 	cmpnei	r2,zero,104
  8018dc:	008025f4 	movhi	r2,151
  8018e0:	00802804 	movi	r2,160
  8018e4:	00801a18 	cmpnei	r2,zero,104
  8018e8:	0080260c 	andi	r2,zero,152
  8018ec:	008028ac 	andhi	r2,zero,162
  8018f0:	00801a18 	cmpnei	r2,zero,104
  8018f4:	00802898 	cmpnei	r2,zero,162
  8018f8:	00802854 	movui	r2,161
  8018fc:	00802854 	movui	r2,161
  801900:	00802854 	movui	r2,161
  801904:	00802854 	movui	r2,161
  801908:	00802854 	movui	r2,161
  80190c:	00802854 	movui	r2,161
  801910:	00802854 	movui	r2,161
  801914:	00802854 	movui	r2,161
  801918:	00802854 	movui	r2,161
  80191c:	00801a18 	cmpnei	r2,zero,104
  801920:	00801a18 	cmpnei	r2,zero,104
  801924:	00801a18 	cmpnei	r2,zero,104
  801928:	00801a18 	cmpnei	r2,zero,104
  80192c:	00801a18 	cmpnei	r2,zero,104
  801930:	00801a18 	cmpnei	r2,zero,104
  801934:	00801a18 	cmpnei	r2,zero,104
  801938:	00801a18 	cmpnei	r2,zero,104
  80193c:	00801a18 	cmpnei	r2,zero,104
  801940:	00801a18 	cmpnei	r2,zero,104
  801944:	00802070 	cmpltui	r2,zero,129
  801948:	008026dc 	xori	r2,zero,155
  80194c:	00801a18 	cmpnei	r2,zero,104
  801950:	008026dc 	xori	r2,zero,155
  801954:	00801a18 	cmpnei	r2,zero,104
  801958:	00801a18 	cmpnei	r2,zero,104
  80195c:	00801a18 	cmpnei	r2,zero,104
  801960:	00801a18 	cmpnei	r2,zero,104
  801964:	00802840 	call	80284 <__reset-0x77fd7c>
  801968:	00801a18 	cmpnei	r2,zero,104
  80196c:	00801a18 	cmpnei	r2,zero,104
  801970:	00802124 	muli	r2,zero,132
  801974:	00801a18 	cmpnei	r2,zero,104
  801978:	00801a18 	cmpnei	r2,zero,104
  80197c:	00801a18 	cmpnei	r2,zero,104
  801980:	00801a18 	cmpnei	r2,zero,104
  801984:	00801a18 	cmpnei	r2,zero,104
  801988:	00802170 	cmpltui	r2,zero,133
  80198c:	00801a18 	cmpnei	r2,zero,104
  801990:	00801a18 	cmpnei	r2,zero,104
  801994:	00802790 	cmplti	r2,zero,158
  801998:	00801a18 	cmpnei	r2,zero,104
  80199c:	00801a18 	cmpnei	r2,zero,104
  8019a0:	00801a18 	cmpnei	r2,zero,104
  8019a4:	00801a18 	cmpnei	r2,zero,104
  8019a8:	00801a18 	cmpnei	r2,zero,104
  8019ac:	00801a18 	cmpnei	r2,zero,104
  8019b0:	00801a18 	cmpnei	r2,zero,104
  8019b4:	00801a18 	cmpnei	r2,zero,104
  8019b8:	00801a18 	cmpnei	r2,zero,104
  8019bc:	00801a18 	cmpnei	r2,zero,104
  8019c0:	00802764 	muli	r2,zero,157
  8019c4:	0080207c 	xorhi	r2,zero,129
  8019c8:	008026dc 	xori	r2,zero,155
  8019cc:	008026dc 	xori	r2,zero,155
  8019d0:	008026dc 	xori	r2,zero,155
  8019d4:	008026c8 	cmpgei	r2,zero,155
  8019d8:	0080207c 	xorhi	r2,zero,129
  8019dc:	00801a18 	cmpnei	r2,zero,104
  8019e0:	00801a18 	cmpnei	r2,zero,104
  8019e4:	00802650 	cmplti	r2,zero,153
  8019e8:	00801a18 	cmpnei	r2,zero,104
  8019ec:	00802620 	cmpeqi	r2,zero,152
  8019f0:	00802130 	cmpltui	r2,zero,132
  8019f4:	00802680 	call	80268 <__reset-0x77fd98>
  8019f8:	0080266c 	andhi	r2,zero,153
  8019fc:	00801a18 	cmpnei	r2,zero,104
  801a00:	00802914 	movui	r2,164
  801a04:	00801a18 	cmpnei	r2,zero,104
  801a08:	0080217c 	xorhi	r2,zero,133
  801a0c:	00801a18 	cmpnei	r2,zero,104
  801a10:	00801a18 	cmpnei	r2,zero,104
  801a14:	008027f4 	movhi	r2,159
  801a18:	d9014d17 	ldw	r4,1332(sp)
  801a1c:	2000ce26 	beq	r4,zero,801d58 <___vfprintf_internal_r+0x6d4>
  801a20:	01400044 	movi	r5,1
  801a24:	d9800f04 	addi	r6,sp,60
  801a28:	d9c14015 	stw	r7,1280(sp)
  801a2c:	d9414515 	stw	r5,1300(sp)
  801a30:	d9814115 	stw	r6,1284(sp)
  801a34:	280f883a 	mov	r7,r5
  801a38:	d9000f05 	stb	r4,60(sp)
  801a3c:	d8000405 	stb	zero,16(sp)
  801a40:	d8014615 	stw	zero,1304(sp)
  801a44:	d8c14c17 	ldw	r3,1328(sp)
  801a48:	1880008c 	andi	r2,r3,2
  801a4c:	1005003a 	cmpeq	r2,r2,zero
  801a50:	d8815015 	stw	r2,1344(sp)
  801a54:	1000031e 	bne	r2,zero,801a64 <___vfprintf_internal_r+0x3e0>
  801a58:	d9014517 	ldw	r4,1300(sp)
  801a5c:	21000084 	addi	r4,r4,2
  801a60:	d9014515 	stw	r4,1300(sp)
  801a64:	d9414c17 	ldw	r5,1328(sp)
  801a68:	2940210c 	andi	r5,r5,132
  801a6c:	d9414e15 	stw	r5,1336(sp)
  801a70:	28002d1e 	bne	r5,zero,801b28 <___vfprintf_internal_r+0x4a4>
  801a74:	d9814a17 	ldw	r6,1320(sp)
  801a78:	d8814517 	ldw	r2,1300(sp)
  801a7c:	30a1c83a 	sub	r16,r6,r2
  801a80:	0400290e 	bge	zero,r16,801b28 <___vfprintf_internal_r+0x4a4>
  801a84:	00800404 	movi	r2,16
  801a88:	14045e0e 	bge	r2,r16,802c04 <___vfprintf_internal_r+0x1580>
  801a8c:	dc800e17 	ldw	r18,56(sp)
  801a90:	dc400d17 	ldw	r17,52(sp)
  801a94:	1027883a 	mov	r19,r2
  801a98:	07002074 	movhi	fp,129
  801a9c:	e70aa984 	addi	fp,fp,10918
  801aa0:	050001c4 	movi	r20,7
  801aa4:	00000306 	br	801ab4 <___vfprintf_internal_r+0x430>
  801aa8:	843ffc04 	addi	r16,r16,-16
  801aac:	ad400204 	addi	r21,r21,8
  801ab0:	9c00130e 	bge	r19,r16,801b00 <___vfprintf_internal_r+0x47c>
  801ab4:	94800404 	addi	r18,r18,16
  801ab8:	8c400044 	addi	r17,r17,1
  801abc:	af000015 	stw	fp,0(r21)
  801ac0:	acc00115 	stw	r19,4(r21)
  801ac4:	dc800e15 	stw	r18,56(sp)
  801ac8:	dc400d15 	stw	r17,52(sp)
  801acc:	a47ff60e 	bge	r20,r17,801aa8 <___vfprintf_internal_r+0x424>
  801ad0:	d9014f17 	ldw	r4,1340(sp)
  801ad4:	b00b883a 	mov	r5,r22
  801ad8:	d9800c04 	addi	r6,sp,48
  801adc:	d9c15115 	stw	r7,1348(sp)
  801ae0:	080162c0 	call	80162c <__sprint_r>
  801ae4:	d9c15117 	ldw	r7,1348(sp)
  801ae8:	10009e1e 	bne	r2,zero,801d64 <___vfprintf_internal_r+0x6e0>
  801aec:	843ffc04 	addi	r16,r16,-16
  801af0:	dc800e17 	ldw	r18,56(sp)
  801af4:	dc400d17 	ldw	r17,52(sp)
  801af8:	dd401904 	addi	r21,sp,100
  801afc:	9c3fed16 	blt	r19,r16,801ab4 <___vfprintf_internal_r+0x430>
  801b00:	9425883a 	add	r18,r18,r16
  801b04:	8c400044 	addi	r17,r17,1
  801b08:	008001c4 	movi	r2,7
  801b0c:	af000015 	stw	fp,0(r21)
  801b10:	ac000115 	stw	r16,4(r21)
  801b14:	dc800e15 	stw	r18,56(sp)
  801b18:	dc400d15 	stw	r17,52(sp)
  801b1c:	1441f516 	blt	r2,r17,8022f4 <___vfprintf_internal_r+0xc70>
  801b20:	ad400204 	addi	r21,r21,8
  801b24:	00000206 	br	801b30 <___vfprintf_internal_r+0x4ac>
  801b28:	dc800e17 	ldw	r18,56(sp)
  801b2c:	dc400d17 	ldw	r17,52(sp)
  801b30:	d8800407 	ldb	r2,16(sp)
  801b34:	10000b26 	beq	r2,zero,801b64 <___vfprintf_internal_r+0x4e0>
  801b38:	00800044 	movi	r2,1
  801b3c:	94800044 	addi	r18,r18,1
  801b40:	8c400044 	addi	r17,r17,1
  801b44:	a8800115 	stw	r2,4(r21)
  801b48:	d8c00404 	addi	r3,sp,16
  801b4c:	008001c4 	movi	r2,7
  801b50:	a8c00015 	stw	r3,0(r21)
  801b54:	dc800e15 	stw	r18,56(sp)
  801b58:	dc400d15 	stw	r17,52(sp)
  801b5c:	1441da16 	blt	r2,r17,8022c8 <___vfprintf_internal_r+0xc44>
  801b60:	ad400204 	addi	r21,r21,8
  801b64:	d9015017 	ldw	r4,1344(sp)
  801b68:	20000b1e 	bne	r4,zero,801b98 <___vfprintf_internal_r+0x514>
  801b6c:	d8800444 	addi	r2,sp,17
  801b70:	94800084 	addi	r18,r18,2
  801b74:	8c400044 	addi	r17,r17,1
  801b78:	a8800015 	stw	r2,0(r21)
  801b7c:	00c00084 	movi	r3,2
  801b80:	008001c4 	movi	r2,7
  801b84:	a8c00115 	stw	r3,4(r21)
  801b88:	dc800e15 	stw	r18,56(sp)
  801b8c:	dc400d15 	stw	r17,52(sp)
  801b90:	1441c216 	blt	r2,r17,80229c <___vfprintf_internal_r+0xc18>
  801b94:	ad400204 	addi	r21,r21,8
  801b98:	d9414e17 	ldw	r5,1336(sp)
  801b9c:	00802004 	movi	r2,128
  801ba0:	2880b126 	beq	r5,r2,801e68 <___vfprintf_internal_r+0x7e4>
  801ba4:	d8c14617 	ldw	r3,1304(sp)
  801ba8:	19e1c83a 	sub	r16,r3,r7
  801bac:	0400260e 	bge	zero,r16,801c48 <___vfprintf_internal_r+0x5c4>
  801bb0:	00800404 	movi	r2,16
  801bb4:	1403cf0e 	bge	r2,r16,802af4 <___vfprintf_internal_r+0x1470>
  801bb8:	1027883a 	mov	r19,r2
  801bbc:	07002074 	movhi	fp,129
  801bc0:	e70aa584 	addi	fp,fp,10902
  801bc4:	050001c4 	movi	r20,7
  801bc8:	00000306 	br	801bd8 <___vfprintf_internal_r+0x554>
  801bcc:	843ffc04 	addi	r16,r16,-16
  801bd0:	ad400204 	addi	r21,r21,8
  801bd4:	9c00130e 	bge	r19,r16,801c24 <___vfprintf_internal_r+0x5a0>
  801bd8:	94800404 	addi	r18,r18,16
  801bdc:	8c400044 	addi	r17,r17,1
  801be0:	af000015 	stw	fp,0(r21)
  801be4:	acc00115 	stw	r19,4(r21)
  801be8:	dc800e15 	stw	r18,56(sp)
  801bec:	dc400d15 	stw	r17,52(sp)
  801bf0:	a47ff60e 	bge	r20,r17,801bcc <___vfprintf_internal_r+0x548>
  801bf4:	d9014f17 	ldw	r4,1340(sp)
  801bf8:	b00b883a 	mov	r5,r22
  801bfc:	d9800c04 	addi	r6,sp,48
  801c00:	d9c15115 	stw	r7,1348(sp)
  801c04:	080162c0 	call	80162c <__sprint_r>
  801c08:	d9c15117 	ldw	r7,1348(sp)
  801c0c:	1000551e 	bne	r2,zero,801d64 <___vfprintf_internal_r+0x6e0>
  801c10:	843ffc04 	addi	r16,r16,-16
  801c14:	dc800e17 	ldw	r18,56(sp)
  801c18:	dc400d17 	ldw	r17,52(sp)
  801c1c:	dd401904 	addi	r21,sp,100
  801c20:	9c3fed16 	blt	r19,r16,801bd8 <___vfprintf_internal_r+0x554>
  801c24:	9425883a 	add	r18,r18,r16
  801c28:	8c400044 	addi	r17,r17,1
  801c2c:	008001c4 	movi	r2,7
  801c30:	af000015 	stw	fp,0(r21)
  801c34:	ac000115 	stw	r16,4(r21)
  801c38:	dc800e15 	stw	r18,56(sp)
  801c3c:	dc400d15 	stw	r17,52(sp)
  801c40:	14418216 	blt	r2,r17,80224c <___vfprintf_internal_r+0xbc8>
  801c44:	ad400204 	addi	r21,r21,8
  801c48:	d9014c17 	ldw	r4,1328(sp)
  801c4c:	2080400c 	andi	r2,r4,256
  801c50:	10004a1e 	bne	r2,zero,801d7c <___vfprintf_internal_r+0x6f8>
  801c54:	d9414117 	ldw	r5,1284(sp)
  801c58:	91e5883a 	add	r18,r18,r7
  801c5c:	8c400044 	addi	r17,r17,1
  801c60:	008001c4 	movi	r2,7
  801c64:	a9400015 	stw	r5,0(r21)
  801c68:	a9c00115 	stw	r7,4(r21)
  801c6c:	dc800e15 	stw	r18,56(sp)
  801c70:	dc400d15 	stw	r17,52(sp)
  801c74:	14416716 	blt	r2,r17,802214 <___vfprintf_internal_r+0xb90>
  801c78:	a8c00204 	addi	r3,r21,8
  801c7c:	d9814c17 	ldw	r6,1328(sp)
  801c80:	3080010c 	andi	r2,r6,4
  801c84:	10002826 	beq	r2,zero,801d28 <___vfprintf_internal_r+0x6a4>
  801c88:	d8814a17 	ldw	r2,1320(sp)
  801c8c:	d9014517 	ldw	r4,1300(sp)
  801c90:	1121c83a 	sub	r16,r2,r4
  801c94:	0400240e 	bge	zero,r16,801d28 <___vfprintf_internal_r+0x6a4>
  801c98:	00800404 	movi	r2,16
  801c9c:	1404550e 	bge	r2,r16,802df4 <___vfprintf_internal_r+0x1770>
  801ca0:	dc400d17 	ldw	r17,52(sp)
  801ca4:	1027883a 	mov	r19,r2
  801ca8:	07002074 	movhi	fp,129
  801cac:	e70aa984 	addi	fp,fp,10918
  801cb0:	050001c4 	movi	r20,7
  801cb4:	00000306 	br	801cc4 <___vfprintf_internal_r+0x640>
  801cb8:	843ffc04 	addi	r16,r16,-16
  801cbc:	18c00204 	addi	r3,r3,8
  801cc0:	9c00110e 	bge	r19,r16,801d08 <___vfprintf_internal_r+0x684>
  801cc4:	94800404 	addi	r18,r18,16
  801cc8:	8c400044 	addi	r17,r17,1
  801ccc:	1f000015 	stw	fp,0(r3)
  801cd0:	1cc00115 	stw	r19,4(r3)
  801cd4:	dc800e15 	stw	r18,56(sp)
  801cd8:	dc400d15 	stw	r17,52(sp)
  801cdc:	a47ff60e 	bge	r20,r17,801cb8 <___vfprintf_internal_r+0x634>
  801ce0:	d9014f17 	ldw	r4,1340(sp)
  801ce4:	b00b883a 	mov	r5,r22
  801ce8:	d9800c04 	addi	r6,sp,48
  801cec:	080162c0 	call	80162c <__sprint_r>
  801cf0:	10001c1e 	bne	r2,zero,801d64 <___vfprintf_internal_r+0x6e0>
  801cf4:	843ffc04 	addi	r16,r16,-16
  801cf8:	dc800e17 	ldw	r18,56(sp)
  801cfc:	dc400d17 	ldw	r17,52(sp)
  801d00:	d8c01904 	addi	r3,sp,100
  801d04:	9c3fef16 	blt	r19,r16,801cc4 <___vfprintf_internal_r+0x640>
  801d08:	9425883a 	add	r18,r18,r16
  801d0c:	8c400044 	addi	r17,r17,1
  801d10:	008001c4 	movi	r2,7
  801d14:	1f000015 	stw	fp,0(r3)
  801d18:	1c000115 	stw	r16,4(r3)
  801d1c:	dc800e15 	stw	r18,56(sp)
  801d20:	dc400d15 	stw	r17,52(sp)
  801d24:	1440cb16 	blt	r2,r17,802054 <___vfprintf_internal_r+0x9d0>
  801d28:	d8814a17 	ldw	r2,1320(sp)
  801d2c:	d9414517 	ldw	r5,1300(sp)
  801d30:	1140010e 	bge	r2,r5,801d38 <___vfprintf_internal_r+0x6b4>
  801d34:	2805883a 	mov	r2,r5
  801d38:	d9814b17 	ldw	r6,1324(sp)
  801d3c:	308d883a 	add	r6,r6,r2
  801d40:	d9814b15 	stw	r6,1324(sp)
  801d44:	90013b1e 	bne	r18,zero,802234 <___vfprintf_internal_r+0xbb0>
  801d48:	d9c14017 	ldw	r7,1280(sp)
  801d4c:	dd401904 	addi	r21,sp,100
  801d50:	d8000d15 	stw	zero,52(sp)
  801d54:	003ea706 	br	8017f4 <___vfprintf_internal_r+0x170>
  801d58:	d8800e17 	ldw	r2,56(sp)
  801d5c:	1005451e 	bne	r2,zero,803274 <___vfprintf_internal_r+0x1bf0>
  801d60:	d8000d15 	stw	zero,52(sp)
  801d64:	b080030b 	ldhu	r2,12(r22)
  801d68:	1080100c 	andi	r2,r2,64
  801d6c:	103e8726 	beq	r2,zero,80178c <___vfprintf_internal_r+0x108>
  801d70:	00bfffc4 	movi	r2,-1
  801d74:	d8814b15 	stw	r2,1324(sp)
  801d78:	003e8406 	br	80178c <___vfprintf_internal_r+0x108>
  801d7c:	d9814d17 	ldw	r6,1332(sp)
  801d80:	00801944 	movi	r2,101
  801d84:	11806e16 	blt	r2,r6,801f40 <___vfprintf_internal_r+0x8bc>
  801d88:	d9414717 	ldw	r5,1308(sp)
  801d8c:	00c00044 	movi	r3,1
  801d90:	1943490e 	bge	r3,r5,802ab8 <___vfprintf_internal_r+0x1434>
  801d94:	d8814117 	ldw	r2,1284(sp)
  801d98:	94800044 	addi	r18,r18,1
  801d9c:	8c400044 	addi	r17,r17,1
  801da0:	a8800015 	stw	r2,0(r21)
  801da4:	008001c4 	movi	r2,7
  801da8:	a8c00115 	stw	r3,4(r21)
  801dac:	dc800e15 	stw	r18,56(sp)
  801db0:	dc400d15 	stw	r17,52(sp)
  801db4:	1441ca16 	blt	r2,r17,8024e0 <___vfprintf_internal_r+0xe5c>
  801db8:	a8c00204 	addi	r3,r21,8
  801dbc:	d9014917 	ldw	r4,1316(sp)
  801dc0:	00800044 	movi	r2,1
  801dc4:	94800044 	addi	r18,r18,1
  801dc8:	8c400044 	addi	r17,r17,1
  801dcc:	18800115 	stw	r2,4(r3)
  801dd0:	008001c4 	movi	r2,7
  801dd4:	19000015 	stw	r4,0(r3)
  801dd8:	dc800e15 	stw	r18,56(sp)
  801ddc:	dc400d15 	stw	r17,52(sp)
  801de0:	1441b616 	blt	r2,r17,8024bc <___vfprintf_internal_r+0xe38>
  801de4:	1cc00204 	addi	r19,r3,8
  801de8:	d9014217 	ldw	r4,1288(sp)
  801dec:	d9414317 	ldw	r5,1292(sp)
  801df0:	000d883a 	mov	r6,zero
  801df4:	000f883a 	mov	r7,zero
  801df8:	080a1380 	call	80a138 <__nedf2>
  801dfc:	10017426 	beq	r2,zero,8023d0 <___vfprintf_internal_r+0xd4c>
  801e00:	d9414717 	ldw	r5,1308(sp)
  801e04:	d9814117 	ldw	r6,1284(sp)
  801e08:	8c400044 	addi	r17,r17,1
  801e0c:	2c85883a 	add	r2,r5,r18
  801e10:	14bfffc4 	addi	r18,r2,-1
  801e14:	28bfffc4 	addi	r2,r5,-1
  801e18:	30c00044 	addi	r3,r6,1
  801e1c:	98800115 	stw	r2,4(r19)
  801e20:	008001c4 	movi	r2,7
  801e24:	98c00015 	stw	r3,0(r19)
  801e28:	dc800e15 	stw	r18,56(sp)
  801e2c:	dc400d15 	stw	r17,52(sp)
  801e30:	14418e16 	blt	r2,r17,80246c <___vfprintf_internal_r+0xde8>
  801e34:	9cc00204 	addi	r19,r19,8
  801e38:	d9414817 	ldw	r5,1312(sp)
  801e3c:	d8800804 	addi	r2,sp,32
  801e40:	8c400044 	addi	r17,r17,1
  801e44:	9165883a 	add	r18,r18,r5
  801e48:	98800015 	stw	r2,0(r19)
  801e4c:	008001c4 	movi	r2,7
  801e50:	99400115 	stw	r5,4(r19)
  801e54:	dc800e15 	stw	r18,56(sp)
  801e58:	dc400d15 	stw	r17,52(sp)
  801e5c:	1440ed16 	blt	r2,r17,802214 <___vfprintf_internal_r+0xb90>
  801e60:	98c00204 	addi	r3,r19,8
  801e64:	003f8506 	br	801c7c <___vfprintf_internal_r+0x5f8>
  801e68:	d9814a17 	ldw	r6,1320(sp)
  801e6c:	d8814517 	ldw	r2,1300(sp)
  801e70:	30a1c83a 	sub	r16,r6,r2
  801e74:	043f4b0e 	bge	zero,r16,801ba4 <___vfprintf_internal_r+0x520>
  801e78:	00800404 	movi	r2,16
  801e7c:	14043a0e 	bge	r2,r16,802f68 <___vfprintf_internal_r+0x18e4>
  801e80:	1027883a 	mov	r19,r2
  801e84:	07002074 	movhi	fp,129
  801e88:	e70aa584 	addi	fp,fp,10902
  801e8c:	050001c4 	movi	r20,7
  801e90:	00000306 	br	801ea0 <___vfprintf_internal_r+0x81c>
  801e94:	843ffc04 	addi	r16,r16,-16
  801e98:	ad400204 	addi	r21,r21,8
  801e9c:	9c00130e 	bge	r19,r16,801eec <___vfprintf_internal_r+0x868>
  801ea0:	94800404 	addi	r18,r18,16
  801ea4:	8c400044 	addi	r17,r17,1
  801ea8:	af000015 	stw	fp,0(r21)
  801eac:	acc00115 	stw	r19,4(r21)
  801eb0:	dc800e15 	stw	r18,56(sp)
  801eb4:	dc400d15 	stw	r17,52(sp)
  801eb8:	a47ff60e 	bge	r20,r17,801e94 <___vfprintf_internal_r+0x810>
  801ebc:	d9014f17 	ldw	r4,1340(sp)
  801ec0:	b00b883a 	mov	r5,r22
  801ec4:	d9800c04 	addi	r6,sp,48
  801ec8:	d9c15115 	stw	r7,1348(sp)
  801ecc:	080162c0 	call	80162c <__sprint_r>
  801ed0:	d9c15117 	ldw	r7,1348(sp)
  801ed4:	103fa31e 	bne	r2,zero,801d64 <___vfprintf_internal_r+0x6e0>
  801ed8:	843ffc04 	addi	r16,r16,-16
  801edc:	dc800e17 	ldw	r18,56(sp)
  801ee0:	dc400d17 	ldw	r17,52(sp)
  801ee4:	dd401904 	addi	r21,sp,100
  801ee8:	9c3fed16 	blt	r19,r16,801ea0 <___vfprintf_internal_r+0x81c>
  801eec:	9425883a 	add	r18,r18,r16
  801ef0:	8c400044 	addi	r17,r17,1
  801ef4:	008001c4 	movi	r2,7
  801ef8:	af000015 	stw	fp,0(r21)
  801efc:	ac000115 	stw	r16,4(r21)
  801f00:	dc800e15 	stw	r18,56(sp)
  801f04:	dc400d15 	stw	r17,52(sp)
  801f08:	14416116 	blt	r2,r17,802490 <___vfprintf_internal_r+0xe0c>
  801f0c:	ad400204 	addi	r21,r21,8
  801f10:	003f2406 	br	801ba4 <___vfprintf_internal_r+0x520>
  801f14:	d9014f17 	ldw	r4,1340(sp)
  801f18:	08051380 	call	805138 <__sinit>
  801f1c:	d9c15117 	ldw	r7,1348(sp)
  801f20:	003def06 	br	8016e0 <___vfprintf_internal_r+0x5c>
  801f24:	d9014f17 	ldw	r4,1340(sp)
  801f28:	b00b883a 	mov	r5,r22
  801f2c:	d9c15115 	stw	r7,1348(sp)
  801f30:	080356c0 	call	80356c <__swsetup_r>
  801f34:	d9c15117 	ldw	r7,1348(sp)
  801f38:	103dee26 	beq	r2,zero,8016f4 <___vfprintf_internal_r+0x70>
  801f3c:	003f8c06 	br	801d70 <___vfprintf_internal_r+0x6ec>
  801f40:	d9014217 	ldw	r4,1288(sp)
  801f44:	d9414317 	ldw	r5,1292(sp)
  801f48:	000d883a 	mov	r6,zero
  801f4c:	000f883a 	mov	r7,zero
  801f50:	080a0b00 	call	80a0b0 <__eqdf2>
  801f54:	1000f21e 	bne	r2,zero,802320 <___vfprintf_internal_r+0xc9c>
  801f58:	00802074 	movhi	r2,129
  801f5c:	108aa504 	addi	r2,r2,10900
  801f60:	94800044 	addi	r18,r18,1
  801f64:	8c400044 	addi	r17,r17,1
  801f68:	a8800015 	stw	r2,0(r21)
  801f6c:	00c00044 	movi	r3,1
  801f70:	008001c4 	movi	r2,7
  801f74:	a8c00115 	stw	r3,4(r21)
  801f78:	dc800e15 	stw	r18,56(sp)
  801f7c:	dc400d15 	stw	r17,52(sp)
  801f80:	14430016 	blt	r2,r17,802b84 <___vfprintf_internal_r+0x1500>
  801f84:	a8c00204 	addi	r3,r21,8
  801f88:	d8800517 	ldw	r2,20(sp)
  801f8c:	d9014717 	ldw	r4,1308(sp)
  801f90:	11015c0e 	bge	r2,r4,802504 <___vfprintf_internal_r+0xe80>
  801f94:	dc400d17 	ldw	r17,52(sp)
  801f98:	d9814917 	ldw	r6,1316(sp)
  801f9c:	00800044 	movi	r2,1
  801fa0:	94800044 	addi	r18,r18,1
  801fa4:	8c400044 	addi	r17,r17,1
  801fa8:	18800115 	stw	r2,4(r3)
  801fac:	008001c4 	movi	r2,7
  801fb0:	19800015 	stw	r6,0(r3)
  801fb4:	dc800e15 	stw	r18,56(sp)
  801fb8:	dc400d15 	stw	r17,52(sp)
  801fbc:	14431616 	blt	r2,r17,802c18 <___vfprintf_internal_r+0x1594>
  801fc0:	18c00204 	addi	r3,r3,8
  801fc4:	d8814717 	ldw	r2,1308(sp)
  801fc8:	143fffc4 	addi	r16,r2,-1
  801fcc:	043f2b0e 	bge	zero,r16,801c7c <___vfprintf_internal_r+0x5f8>
  801fd0:	00800404 	movi	r2,16
  801fd4:	1402a80e 	bge	r2,r16,802a78 <___vfprintf_internal_r+0x13f4>
  801fd8:	dc400d17 	ldw	r17,52(sp)
  801fdc:	1027883a 	mov	r19,r2
  801fe0:	07002074 	movhi	fp,129
  801fe4:	e70aa584 	addi	fp,fp,10902
  801fe8:	050001c4 	movi	r20,7
  801fec:	00000306 	br	801ffc <___vfprintf_internal_r+0x978>
  801ff0:	18c00204 	addi	r3,r3,8
  801ff4:	843ffc04 	addi	r16,r16,-16
  801ff8:	9c02a20e 	bge	r19,r16,802a84 <___vfprintf_internal_r+0x1400>
  801ffc:	94800404 	addi	r18,r18,16
  802000:	8c400044 	addi	r17,r17,1
  802004:	1f000015 	stw	fp,0(r3)
  802008:	1cc00115 	stw	r19,4(r3)
  80200c:	dc800e15 	stw	r18,56(sp)
  802010:	dc400d15 	stw	r17,52(sp)
  802014:	a47ff60e 	bge	r20,r17,801ff0 <___vfprintf_internal_r+0x96c>
  802018:	d9014f17 	ldw	r4,1340(sp)
  80201c:	b00b883a 	mov	r5,r22
  802020:	d9800c04 	addi	r6,sp,48
  802024:	080162c0 	call	80162c <__sprint_r>
  802028:	103f4e1e 	bne	r2,zero,801d64 <___vfprintf_internal_r+0x6e0>
  80202c:	dc800e17 	ldw	r18,56(sp)
  802030:	dc400d17 	ldw	r17,52(sp)
  802034:	d8c01904 	addi	r3,sp,100
  802038:	003fee06 	br	801ff4 <___vfprintf_internal_r+0x970>
  80203c:	d8802c0b 	ldhu	r2,176(sp)
  802040:	00ffffc4 	movi	r3,-1
  802044:	d8c14b15 	stw	r3,1324(sp)
  802048:	1080100c 	andi	r2,r2,64
  80204c:	103dcc1e 	bne	r2,zero,801780 <___vfprintf_internal_r+0xfc>
  802050:	003dce06 	br	80178c <___vfprintf_internal_r+0x108>
  802054:	d9014f17 	ldw	r4,1340(sp)
  802058:	b00b883a 	mov	r5,r22
  80205c:	d9800c04 	addi	r6,sp,48
  802060:	080162c0 	call	80162c <__sprint_r>
  802064:	103f3f1e 	bne	r2,zero,801d64 <___vfprintf_internal_r+0x6e0>
  802068:	dc800e17 	ldw	r18,56(sp)
  80206c:	003f2e06 	br	801d28 <___vfprintf_internal_r+0x6a4>
  802070:	d9414c17 	ldw	r5,1328(sp)
  802074:	29400414 	ori	r5,r5,16
  802078:	d9414c15 	stw	r5,1328(sp)
  80207c:	d9814c17 	ldw	r6,1328(sp)
  802080:	3080080c 	andi	r2,r6,32
  802084:	10014f1e 	bne	r2,zero,8025c4 <___vfprintf_internal_r+0xf40>
  802088:	d8c14c17 	ldw	r3,1328(sp)
  80208c:	1880040c 	andi	r2,r3,16
  802090:	1002f01e 	bne	r2,zero,802c54 <___vfprintf_internal_r+0x15d0>
  802094:	d9014c17 	ldw	r4,1328(sp)
  802098:	2080100c 	andi	r2,r4,64
  80209c:	1002ed26 	beq	r2,zero,802c54 <___vfprintf_internal_r+0x15d0>
  8020a0:	3880000f 	ldh	r2,0(r7)
  8020a4:	39c00104 	addi	r7,r7,4
  8020a8:	d9c14015 	stw	r7,1280(sp)
  8020ac:	1023d7fa 	srai	r17,r2,31
  8020b0:	1021883a 	mov	r16,r2
  8020b4:	88037816 	blt	r17,zero,802e98 <___vfprintf_internal_r+0x1814>
  8020b8:	01000044 	movi	r4,1
  8020bc:	98000416 	blt	r19,zero,8020d0 <___vfprintf_internal_r+0xa4c>
  8020c0:	d8c14c17 	ldw	r3,1328(sp)
  8020c4:	00bfdfc4 	movi	r2,-129
  8020c8:	1886703a 	and	r3,r3,r2
  8020cc:	d8c14c15 	stw	r3,1328(sp)
  8020d0:	8444b03a 	or	r2,r16,r17
  8020d4:	10022c1e 	bne	r2,zero,802988 <___vfprintf_internal_r+0x1304>
  8020d8:	98022b1e 	bne	r19,zero,802988 <___vfprintf_internal_r+0x1304>
  8020dc:	20803fcc 	andi	r2,r4,255
  8020e0:	1002a126 	beq	r2,zero,802b68 <___vfprintf_internal_r+0x14e4>
  8020e4:	d8c01904 	addi	r3,sp,100
  8020e8:	dd000f04 	addi	r20,sp,60
  8020ec:	d8c14115 	stw	r3,1284(sp)
  8020f0:	d8c14117 	ldw	r3,1284(sp)
  8020f4:	dcc14515 	stw	r19,1300(sp)
  8020f8:	a0c5c83a 	sub	r2,r20,r3
  8020fc:	11c00a04 	addi	r7,r2,40
  802100:	99c0010e 	bge	r19,r7,802108 <___vfprintf_internal_r+0xa84>
  802104:	d9c14515 	stw	r7,1300(sp)
  802108:	dcc14615 	stw	r19,1304(sp)
  80210c:	d8800407 	ldb	r2,16(sp)
  802110:	103e4c26 	beq	r2,zero,801a44 <___vfprintf_internal_r+0x3c0>
  802114:	d8814517 	ldw	r2,1300(sp)
  802118:	10800044 	addi	r2,r2,1
  80211c:	d8814515 	stw	r2,1300(sp)
  802120:	003e4806 	br	801a44 <___vfprintf_internal_r+0x3c0>
  802124:	d9814c17 	ldw	r6,1328(sp)
  802128:	31800414 	ori	r6,r6,16
  80212c:	d9814c15 	stw	r6,1328(sp)
  802130:	d8c14c17 	ldw	r3,1328(sp)
  802134:	1880080c 	andi	r2,r3,32
  802138:	1001271e 	bne	r2,zero,8025d8 <___vfprintf_internal_r+0xf54>
  80213c:	d9414c17 	ldw	r5,1328(sp)
  802140:	2880040c 	andi	r2,r5,16
  802144:	1002bc1e 	bne	r2,zero,802c38 <___vfprintf_internal_r+0x15b4>
  802148:	d9814c17 	ldw	r6,1328(sp)
  80214c:	3080100c 	andi	r2,r6,64
  802150:	1002b926 	beq	r2,zero,802c38 <___vfprintf_internal_r+0x15b4>
  802154:	3c00000b 	ldhu	r16,0(r7)
  802158:	0009883a 	mov	r4,zero
  80215c:	39c00104 	addi	r7,r7,4
  802160:	0023883a 	mov	r17,zero
  802164:	d9c14015 	stw	r7,1280(sp)
  802168:	d8000405 	stb	zero,16(sp)
  80216c:	003fd306 	br	8020bc <___vfprintf_internal_r+0xa38>
  802170:	d9014c17 	ldw	r4,1328(sp)
  802174:	21000414 	ori	r4,r4,16
  802178:	d9014c15 	stw	r4,1328(sp)
  80217c:	d9414c17 	ldw	r5,1328(sp)
  802180:	2880080c 	andi	r2,r5,32
  802184:	1001081e 	bne	r2,zero,8025a8 <___vfprintf_internal_r+0xf24>
  802188:	d8c14c17 	ldw	r3,1328(sp)
  80218c:	1880040c 	andi	r2,r3,16
  802190:	1002b61e 	bne	r2,zero,802c6c <___vfprintf_internal_r+0x15e8>
  802194:	d9014c17 	ldw	r4,1328(sp)
  802198:	2080100c 	andi	r2,r4,64
  80219c:	1002b326 	beq	r2,zero,802c6c <___vfprintf_internal_r+0x15e8>
  8021a0:	3c00000b 	ldhu	r16,0(r7)
  8021a4:	01000044 	movi	r4,1
  8021a8:	39c00104 	addi	r7,r7,4
  8021ac:	0023883a 	mov	r17,zero
  8021b0:	d9c14015 	stw	r7,1280(sp)
  8021b4:	d8000405 	stb	zero,16(sp)
  8021b8:	003fc006 	br	8020bc <___vfprintf_internal_r+0xa38>
  8021bc:	d9014f17 	ldw	r4,1340(sp)
  8021c0:	b00b883a 	mov	r5,r22
  8021c4:	d9800c04 	addi	r6,sp,48
  8021c8:	080162c0 	call	80162c <__sprint_r>
  8021cc:	103ee51e 	bne	r2,zero,801d64 <___vfprintf_internal_r+0x6e0>
  8021d0:	dc800e17 	ldw	r18,56(sp)
  8021d4:	d8c01904 	addi	r3,sp,100
  8021d8:	d9814c17 	ldw	r6,1328(sp)
  8021dc:	3080004c 	andi	r2,r6,1
  8021e0:	1005003a 	cmpeq	r2,r2,zero
  8021e4:	103ea51e 	bne	r2,zero,801c7c <___vfprintf_internal_r+0x5f8>
  8021e8:	00800044 	movi	r2,1
  8021ec:	dc400d17 	ldw	r17,52(sp)
  8021f0:	18800115 	stw	r2,4(r3)
  8021f4:	d8814917 	ldw	r2,1316(sp)
  8021f8:	94800044 	addi	r18,r18,1
  8021fc:	8c400044 	addi	r17,r17,1
  802200:	18800015 	stw	r2,0(r3)
  802204:	008001c4 	movi	r2,7
  802208:	dc800e15 	stw	r18,56(sp)
  80220c:	dc400d15 	stw	r17,52(sp)
  802210:	1442240e 	bge	r2,r17,802aa4 <___vfprintf_internal_r+0x1420>
  802214:	d9014f17 	ldw	r4,1340(sp)
  802218:	b00b883a 	mov	r5,r22
  80221c:	d9800c04 	addi	r6,sp,48
  802220:	080162c0 	call	80162c <__sprint_r>
  802224:	103ecf1e 	bne	r2,zero,801d64 <___vfprintf_internal_r+0x6e0>
  802228:	dc800e17 	ldw	r18,56(sp)
  80222c:	d8c01904 	addi	r3,sp,100
  802230:	003e9206 	br	801c7c <___vfprintf_internal_r+0x5f8>
  802234:	d9014f17 	ldw	r4,1340(sp)
  802238:	b00b883a 	mov	r5,r22
  80223c:	d9800c04 	addi	r6,sp,48
  802240:	080162c0 	call	80162c <__sprint_r>
  802244:	103ec026 	beq	r2,zero,801d48 <___vfprintf_internal_r+0x6c4>
  802248:	003ec606 	br	801d64 <___vfprintf_internal_r+0x6e0>
  80224c:	d9014f17 	ldw	r4,1340(sp)
  802250:	b00b883a 	mov	r5,r22
  802254:	d9800c04 	addi	r6,sp,48
  802258:	d9c15115 	stw	r7,1348(sp)
  80225c:	080162c0 	call	80162c <__sprint_r>
  802260:	d9c15117 	ldw	r7,1348(sp)
  802264:	103ebf1e 	bne	r2,zero,801d64 <___vfprintf_internal_r+0x6e0>
  802268:	dc800e17 	ldw	r18,56(sp)
  80226c:	dc400d17 	ldw	r17,52(sp)
  802270:	dd401904 	addi	r21,sp,100
  802274:	003e7406 	br	801c48 <___vfprintf_internal_r+0x5c4>
  802278:	d9014f17 	ldw	r4,1340(sp)
  80227c:	b00b883a 	mov	r5,r22
  802280:	d9800c04 	addi	r6,sp,48
  802284:	d9c15115 	stw	r7,1348(sp)
  802288:	080162c0 	call	80162c <__sprint_r>
  80228c:	d9c15117 	ldw	r7,1348(sp)
  802290:	103eb41e 	bne	r2,zero,801d64 <___vfprintf_internal_r+0x6e0>
  802294:	dd401904 	addi	r21,sp,100
  802298:	003d6d06 	br	801850 <___vfprintf_internal_r+0x1cc>
  80229c:	d9014f17 	ldw	r4,1340(sp)
  8022a0:	b00b883a 	mov	r5,r22
  8022a4:	d9800c04 	addi	r6,sp,48
  8022a8:	d9c15115 	stw	r7,1348(sp)
  8022ac:	080162c0 	call	80162c <__sprint_r>
  8022b0:	d9c15117 	ldw	r7,1348(sp)
  8022b4:	103eab1e 	bne	r2,zero,801d64 <___vfprintf_internal_r+0x6e0>
  8022b8:	dc800e17 	ldw	r18,56(sp)
  8022bc:	dc400d17 	ldw	r17,52(sp)
  8022c0:	dd401904 	addi	r21,sp,100
  8022c4:	003e3406 	br	801b98 <___vfprintf_internal_r+0x514>
  8022c8:	d9014f17 	ldw	r4,1340(sp)
  8022cc:	b00b883a 	mov	r5,r22
  8022d0:	d9800c04 	addi	r6,sp,48
  8022d4:	d9c15115 	stw	r7,1348(sp)
  8022d8:	080162c0 	call	80162c <__sprint_r>
  8022dc:	d9c15117 	ldw	r7,1348(sp)
  8022e0:	103ea01e 	bne	r2,zero,801d64 <___vfprintf_internal_r+0x6e0>
  8022e4:	dc800e17 	ldw	r18,56(sp)
  8022e8:	dc400d17 	ldw	r17,52(sp)
  8022ec:	dd401904 	addi	r21,sp,100
  8022f0:	003e1c06 	br	801b64 <___vfprintf_internal_r+0x4e0>
  8022f4:	d9014f17 	ldw	r4,1340(sp)
  8022f8:	b00b883a 	mov	r5,r22
  8022fc:	d9800c04 	addi	r6,sp,48
  802300:	d9c15115 	stw	r7,1348(sp)
  802304:	080162c0 	call	80162c <__sprint_r>
  802308:	d9c15117 	ldw	r7,1348(sp)
  80230c:	103e951e 	bne	r2,zero,801d64 <___vfprintf_internal_r+0x6e0>
  802310:	dc800e17 	ldw	r18,56(sp)
  802314:	dc400d17 	ldw	r17,52(sp)
  802318:	dd401904 	addi	r21,sp,100
  80231c:	003e0406 	br	801b30 <___vfprintf_internal_r+0x4ac>
  802320:	d9000517 	ldw	r4,20(sp)
  802324:	0102580e 	bge	zero,r4,802c88 <___vfprintf_internal_r+0x1604>
  802328:	d9814717 	ldw	r6,1308(sp)
  80232c:	21807a16 	blt	r4,r6,802518 <___vfprintf_internal_r+0xe94>
  802330:	d8814117 	ldw	r2,1284(sp)
  802334:	91a5883a 	add	r18,r18,r6
  802338:	8c400044 	addi	r17,r17,1
  80233c:	a8800015 	stw	r2,0(r21)
  802340:	008001c4 	movi	r2,7
  802344:	a9800115 	stw	r6,4(r21)
  802348:	dc800e15 	stw	r18,56(sp)
  80234c:	dc400d15 	stw	r17,52(sp)
  802350:	1442fc16 	blt	r2,r17,802f44 <___vfprintf_internal_r+0x18c0>
  802354:	a8c00204 	addi	r3,r21,8
  802358:	d9414717 	ldw	r5,1308(sp)
  80235c:	2161c83a 	sub	r16,r4,r5
  802360:	043f9d0e 	bge	zero,r16,8021d8 <___vfprintf_internal_r+0xb54>
  802364:	00800404 	movi	r2,16
  802368:	1402190e 	bge	r2,r16,802bd0 <___vfprintf_internal_r+0x154c>
  80236c:	dc400d17 	ldw	r17,52(sp)
  802370:	1027883a 	mov	r19,r2
  802374:	07002074 	movhi	fp,129
  802378:	e70aa584 	addi	fp,fp,10902
  80237c:	050001c4 	movi	r20,7
  802380:	00000306 	br	802390 <___vfprintf_internal_r+0xd0c>
  802384:	18c00204 	addi	r3,r3,8
  802388:	843ffc04 	addi	r16,r16,-16
  80238c:	9c02130e 	bge	r19,r16,802bdc <___vfprintf_internal_r+0x1558>
  802390:	94800404 	addi	r18,r18,16
  802394:	8c400044 	addi	r17,r17,1
  802398:	1f000015 	stw	fp,0(r3)
  80239c:	1cc00115 	stw	r19,4(r3)
  8023a0:	dc800e15 	stw	r18,56(sp)
  8023a4:	dc400d15 	stw	r17,52(sp)
  8023a8:	a47ff60e 	bge	r20,r17,802384 <___vfprintf_internal_r+0xd00>
  8023ac:	d9014f17 	ldw	r4,1340(sp)
  8023b0:	b00b883a 	mov	r5,r22
  8023b4:	d9800c04 	addi	r6,sp,48
  8023b8:	080162c0 	call	80162c <__sprint_r>
  8023bc:	103e691e 	bne	r2,zero,801d64 <___vfprintf_internal_r+0x6e0>
  8023c0:	dc800e17 	ldw	r18,56(sp)
  8023c4:	dc400d17 	ldw	r17,52(sp)
  8023c8:	d8c01904 	addi	r3,sp,100
  8023cc:	003fee06 	br	802388 <___vfprintf_internal_r+0xd04>
  8023d0:	d8814717 	ldw	r2,1308(sp)
  8023d4:	143fffc4 	addi	r16,r2,-1
  8023d8:	043e970e 	bge	zero,r16,801e38 <___vfprintf_internal_r+0x7b4>
  8023dc:	00800404 	movi	r2,16
  8023e0:	1400180e 	bge	r2,r16,802444 <___vfprintf_internal_r+0xdc0>
  8023e4:	1029883a 	mov	r20,r2
  8023e8:	07002074 	movhi	fp,129
  8023ec:	e70aa584 	addi	fp,fp,10902
  8023f0:	054001c4 	movi	r21,7
  8023f4:	00000306 	br	802404 <___vfprintf_internal_r+0xd80>
  8023f8:	9cc00204 	addi	r19,r19,8
  8023fc:	843ffc04 	addi	r16,r16,-16
  802400:	a400120e 	bge	r20,r16,80244c <___vfprintf_internal_r+0xdc8>
  802404:	94800404 	addi	r18,r18,16
  802408:	8c400044 	addi	r17,r17,1
  80240c:	9f000015 	stw	fp,0(r19)
  802410:	9d000115 	stw	r20,4(r19)
  802414:	dc800e15 	stw	r18,56(sp)
  802418:	dc400d15 	stw	r17,52(sp)
  80241c:	ac7ff60e 	bge	r21,r17,8023f8 <___vfprintf_internal_r+0xd74>
  802420:	d9014f17 	ldw	r4,1340(sp)
  802424:	b00b883a 	mov	r5,r22
  802428:	d9800c04 	addi	r6,sp,48
  80242c:	080162c0 	call	80162c <__sprint_r>
  802430:	103e4c1e 	bne	r2,zero,801d64 <___vfprintf_internal_r+0x6e0>
  802434:	dc800e17 	ldw	r18,56(sp)
  802438:	dc400d17 	ldw	r17,52(sp)
  80243c:	dcc01904 	addi	r19,sp,100
  802440:	003fee06 	br	8023fc <___vfprintf_internal_r+0xd78>
  802444:	07002074 	movhi	fp,129
  802448:	e70aa584 	addi	fp,fp,10902
  80244c:	9425883a 	add	r18,r18,r16
  802450:	8c400044 	addi	r17,r17,1
  802454:	008001c4 	movi	r2,7
  802458:	9f000015 	stw	fp,0(r19)
  80245c:	9c000115 	stw	r16,4(r19)
  802460:	dc800e15 	stw	r18,56(sp)
  802464:	dc400d15 	stw	r17,52(sp)
  802468:	147e720e 	bge	r2,r17,801e34 <___vfprintf_internal_r+0x7b0>
  80246c:	d9014f17 	ldw	r4,1340(sp)
  802470:	b00b883a 	mov	r5,r22
  802474:	d9800c04 	addi	r6,sp,48
  802478:	080162c0 	call	80162c <__sprint_r>
  80247c:	103e391e 	bne	r2,zero,801d64 <___vfprintf_internal_r+0x6e0>
  802480:	dc800e17 	ldw	r18,56(sp)
  802484:	dc400d17 	ldw	r17,52(sp)
  802488:	dcc01904 	addi	r19,sp,100
  80248c:	003e6a06 	br	801e38 <___vfprintf_internal_r+0x7b4>
  802490:	d9014f17 	ldw	r4,1340(sp)
  802494:	b00b883a 	mov	r5,r22
  802498:	d9800c04 	addi	r6,sp,48
  80249c:	d9c15115 	stw	r7,1348(sp)
  8024a0:	080162c0 	call	80162c <__sprint_r>
  8024a4:	d9c15117 	ldw	r7,1348(sp)
  8024a8:	103e2e1e 	bne	r2,zero,801d64 <___vfprintf_internal_r+0x6e0>
  8024ac:	dc800e17 	ldw	r18,56(sp)
  8024b0:	dc400d17 	ldw	r17,52(sp)
  8024b4:	dd401904 	addi	r21,sp,100
  8024b8:	003dba06 	br	801ba4 <___vfprintf_internal_r+0x520>
  8024bc:	d9014f17 	ldw	r4,1340(sp)
  8024c0:	b00b883a 	mov	r5,r22
  8024c4:	d9800c04 	addi	r6,sp,48
  8024c8:	080162c0 	call	80162c <__sprint_r>
  8024cc:	103e251e 	bne	r2,zero,801d64 <___vfprintf_internal_r+0x6e0>
  8024d0:	dc800e17 	ldw	r18,56(sp)
  8024d4:	dc400d17 	ldw	r17,52(sp)
  8024d8:	dcc01904 	addi	r19,sp,100
  8024dc:	003e4206 	br	801de8 <___vfprintf_internal_r+0x764>
  8024e0:	d9014f17 	ldw	r4,1340(sp)
  8024e4:	b00b883a 	mov	r5,r22
  8024e8:	d9800c04 	addi	r6,sp,48
  8024ec:	080162c0 	call	80162c <__sprint_r>
  8024f0:	103e1c1e 	bne	r2,zero,801d64 <___vfprintf_internal_r+0x6e0>
  8024f4:	dc800e17 	ldw	r18,56(sp)
  8024f8:	dc400d17 	ldw	r17,52(sp)
  8024fc:	d8c01904 	addi	r3,sp,100
  802500:	003e2e06 	br	801dbc <___vfprintf_internal_r+0x738>
  802504:	d9414c17 	ldw	r5,1328(sp)
  802508:	2880004c 	andi	r2,r5,1
  80250c:	1005003a 	cmpeq	r2,r2,zero
  802510:	103dda1e 	bne	r2,zero,801c7c <___vfprintf_internal_r+0x5f8>
  802514:	003e9f06 	br	801f94 <___vfprintf_internal_r+0x910>
  802518:	d8c14117 	ldw	r3,1284(sp)
  80251c:	9125883a 	add	r18,r18,r4
  802520:	8c400044 	addi	r17,r17,1
  802524:	008001c4 	movi	r2,7
  802528:	a8c00015 	stw	r3,0(r21)
  80252c:	a9000115 	stw	r4,4(r21)
  802530:	dc800e15 	stw	r18,56(sp)
  802534:	dc400d15 	stw	r17,52(sp)
  802538:	14426c16 	blt	r2,r17,802eec <___vfprintf_internal_r+0x1868>
  80253c:	a8c00204 	addi	r3,r21,8
  802540:	d9414917 	ldw	r5,1316(sp)
  802544:	00800044 	movi	r2,1
  802548:	94800044 	addi	r18,r18,1
  80254c:	8c400044 	addi	r17,r17,1
  802550:	18800115 	stw	r2,4(r3)
  802554:	008001c4 	movi	r2,7
  802558:	19400015 	stw	r5,0(r3)
  80255c:	dc800e15 	stw	r18,56(sp)
  802560:	dc400d15 	stw	r17,52(sp)
  802564:	2021883a 	mov	r16,r4
  802568:	14425616 	blt	r2,r17,802ec4 <___vfprintf_internal_r+0x1840>
  80256c:	19400204 	addi	r5,r3,8
  802570:	d9814717 	ldw	r6,1308(sp)
  802574:	8c400044 	addi	r17,r17,1
  802578:	dc400d15 	stw	r17,52(sp)
  80257c:	3107c83a 	sub	r3,r6,r4
  802580:	d9014117 	ldw	r4,1284(sp)
  802584:	90e5883a 	add	r18,r18,r3
  802588:	28c00115 	stw	r3,4(r5)
  80258c:	8105883a 	add	r2,r16,r4
  802590:	28800015 	stw	r2,0(r5)
  802594:	008001c4 	movi	r2,7
  802598:	dc800e15 	stw	r18,56(sp)
  80259c:	147f1d16 	blt	r2,r17,802214 <___vfprintf_internal_r+0xb90>
  8025a0:	28c00204 	addi	r3,r5,8
  8025a4:	003db506 	br	801c7c <___vfprintf_internal_r+0x5f8>
  8025a8:	3c000017 	ldw	r16,0(r7)
  8025ac:	3c400117 	ldw	r17,4(r7)
  8025b0:	39800204 	addi	r6,r7,8
  8025b4:	01000044 	movi	r4,1
  8025b8:	d9814015 	stw	r6,1280(sp)
  8025bc:	d8000405 	stb	zero,16(sp)
  8025c0:	003ebe06 	br	8020bc <___vfprintf_internal_r+0xa38>
  8025c4:	3c000017 	ldw	r16,0(r7)
  8025c8:	3c400117 	ldw	r17,4(r7)
  8025cc:	38800204 	addi	r2,r7,8
  8025d0:	d8814015 	stw	r2,1280(sp)
  8025d4:	003eb706 	br	8020b4 <___vfprintf_internal_r+0xa30>
  8025d8:	3c000017 	ldw	r16,0(r7)
  8025dc:	3c400117 	ldw	r17,4(r7)
  8025e0:	39000204 	addi	r4,r7,8
  8025e4:	d9014015 	stw	r4,1280(sp)
  8025e8:	0009883a 	mov	r4,zero
  8025ec:	d8000405 	stb	zero,16(sp)
  8025f0:	003eb206 	br	8020bc <___vfprintf_internal_r+0xa38>
  8025f4:	38c00017 	ldw	r3,0(r7)
  8025f8:	39c00104 	addi	r7,r7,4
  8025fc:	d8c14a15 	stw	r3,1320(sp)
  802600:	1800d70e 	bge	r3,zero,802960 <___vfprintf_internal_r+0x12dc>
  802604:	00c7c83a 	sub	r3,zero,r3
  802608:	d8c14a15 	stw	r3,1320(sp)
  80260c:	d9014c17 	ldw	r4,1328(sp)
  802610:	b8c00007 	ldb	r3,0(r23)
  802614:	21000114 	ori	r4,r4,4
  802618:	d9014c15 	stw	r4,1328(sp)
  80261c:	003c9806 	br	801880 <___vfprintf_internal_r+0x1fc>
  802620:	d9814c17 	ldw	r6,1328(sp)
  802624:	3080080c 	andi	r2,r6,32
  802628:	1001f626 	beq	r2,zero,802e04 <___vfprintf_internal_r+0x1780>
  80262c:	d9014b17 	ldw	r4,1324(sp)
  802630:	38800017 	ldw	r2,0(r7)
  802634:	39c00104 	addi	r7,r7,4
  802638:	d9c14015 	stw	r7,1280(sp)
  80263c:	2007d7fa 	srai	r3,r4,31
  802640:	d9c14017 	ldw	r7,1280(sp)
  802644:	11000015 	stw	r4,0(r2)
  802648:	10c00115 	stw	r3,4(r2)
  80264c:	003c6906 	br	8017f4 <___vfprintf_internal_r+0x170>
  802650:	b8c00007 	ldb	r3,0(r23)
  802654:	00801b04 	movi	r2,108
  802658:	18825526 	beq	r3,r2,802fb0 <___vfprintf_internal_r+0x192c>
  80265c:	d9414c17 	ldw	r5,1328(sp)
  802660:	29400414 	ori	r5,r5,16
  802664:	d9414c15 	stw	r5,1328(sp)
  802668:	003c8506 	br	801880 <___vfprintf_internal_r+0x1fc>
  80266c:	d9814c17 	ldw	r6,1328(sp)
  802670:	b8c00007 	ldb	r3,0(r23)
  802674:	31800814 	ori	r6,r6,32
  802678:	d9814c15 	stw	r6,1328(sp)
  80267c:	003c8006 	br	801880 <___vfprintf_internal_r+0x1fc>
  802680:	d8814c17 	ldw	r2,1328(sp)
  802684:	3c000017 	ldw	r16,0(r7)
  802688:	00c01e04 	movi	r3,120
  80268c:	10800094 	ori	r2,r2,2
  802690:	d8814c15 	stw	r2,1328(sp)
  802694:	39c00104 	addi	r7,r7,4
  802698:	01402074 	movhi	r5,129
  80269c:	294a8e04 	addi	r5,r5,10808
  8026a0:	00800c04 	movi	r2,48
  8026a4:	0023883a 	mov	r17,zero
  8026a8:	01000084 	movi	r4,2
  8026ac:	d9c14015 	stw	r7,1280(sp)
  8026b0:	d8c14d15 	stw	r3,1332(sp)
  8026b4:	d9414415 	stw	r5,1296(sp)
  8026b8:	d8800445 	stb	r2,17(sp)
  8026bc:	d8c00485 	stb	r3,18(sp)
  8026c0:	d8000405 	stb	zero,16(sp)
  8026c4:	003e7d06 	br	8020bc <___vfprintf_internal_r+0xa38>
  8026c8:	d8814c17 	ldw	r2,1328(sp)
  8026cc:	b8c00007 	ldb	r3,0(r23)
  8026d0:	10801014 	ori	r2,r2,64
  8026d4:	d8814c15 	stw	r2,1328(sp)
  8026d8:	003c6906 	br	801880 <___vfprintf_internal_r+0x1fc>
  8026dc:	d9414c17 	ldw	r5,1328(sp)
  8026e0:	2880020c 	andi	r2,r5,8
  8026e4:	1001e526 	beq	r2,zero,802e7c <___vfprintf_internal_r+0x17f8>
  8026e8:	39800017 	ldw	r6,0(r7)
  8026ec:	38800204 	addi	r2,r7,8
  8026f0:	d8814015 	stw	r2,1280(sp)
  8026f4:	d9814215 	stw	r6,1288(sp)
  8026f8:	39c00117 	ldw	r7,4(r7)
  8026fc:	d9c14315 	stw	r7,1292(sp)
  802700:	d9014217 	ldw	r4,1288(sp)
  802704:	d9414317 	ldw	r5,1292(sp)
  802708:	08081340 	call	808134 <__isinfd>
  80270c:	10021d26 	beq	r2,zero,802f84 <___vfprintf_internal_r+0x1900>
  802710:	d9014217 	ldw	r4,1288(sp)
  802714:	d9414317 	ldw	r5,1292(sp)
  802718:	000d883a 	mov	r6,zero
  80271c:	000f883a 	mov	r7,zero
  802720:	080a2d00 	call	80a2d0 <__ltdf2>
  802724:	1002d016 	blt	r2,zero,803268 <___vfprintf_internal_r+0x1be4>
  802728:	d9414d17 	ldw	r5,1332(sp)
  80272c:	008011c4 	movi	r2,71
  802730:	11421016 	blt	r2,r5,802f74 <___vfprintf_internal_r+0x18f0>
  802734:	01802074 	movhi	r6,129
  802738:	318a9304 	addi	r6,r6,10828
  80273c:	d9814115 	stw	r6,1284(sp)
  802740:	d9014c17 	ldw	r4,1328(sp)
  802744:	00c000c4 	movi	r3,3
  802748:	00bfdfc4 	movi	r2,-129
  80274c:	2088703a 	and	r4,r4,r2
  802750:	180f883a 	mov	r7,r3
  802754:	d8c14515 	stw	r3,1300(sp)
  802758:	d9014c15 	stw	r4,1328(sp)
  80275c:	d8014615 	stw	zero,1304(sp)
  802760:	003e6a06 	br	80210c <___vfprintf_internal_r+0xa88>
  802764:	38800017 	ldw	r2,0(r7)
  802768:	00c00044 	movi	r3,1
  80276c:	39c00104 	addi	r7,r7,4
  802770:	d9c14015 	stw	r7,1280(sp)
  802774:	d9000f04 	addi	r4,sp,60
  802778:	180f883a 	mov	r7,r3
  80277c:	d8c14515 	stw	r3,1300(sp)
  802780:	d9014115 	stw	r4,1284(sp)
  802784:	d8800f05 	stb	r2,60(sp)
  802788:	d8000405 	stb	zero,16(sp)
  80278c:	003cac06 	br	801a40 <___vfprintf_internal_r+0x3bc>
  802790:	01402074 	movhi	r5,129
  802794:	294a9904 	addi	r5,r5,10852
  802798:	d9414415 	stw	r5,1296(sp)
  80279c:	d9814c17 	ldw	r6,1328(sp)
  8027a0:	3080080c 	andi	r2,r6,32
  8027a4:	1000ff26 	beq	r2,zero,802ba4 <___vfprintf_internal_r+0x1520>
  8027a8:	3c000017 	ldw	r16,0(r7)
  8027ac:	3c400117 	ldw	r17,4(r7)
  8027b0:	38800204 	addi	r2,r7,8
  8027b4:	d8814015 	stw	r2,1280(sp)
  8027b8:	d9414c17 	ldw	r5,1328(sp)
  8027bc:	2880004c 	andi	r2,r5,1
  8027c0:	1005003a 	cmpeq	r2,r2,zero
  8027c4:	1000b91e 	bne	r2,zero,802aac <___vfprintf_internal_r+0x1428>
  8027c8:	8444b03a 	or	r2,r16,r17
  8027cc:	1000b726 	beq	r2,zero,802aac <___vfprintf_internal_r+0x1428>
  8027d0:	d9814d17 	ldw	r6,1332(sp)
  8027d4:	29400094 	ori	r5,r5,2
  8027d8:	00800c04 	movi	r2,48
  8027dc:	01000084 	movi	r4,2
  8027e0:	d9414c15 	stw	r5,1328(sp)
  8027e4:	d8800445 	stb	r2,17(sp)
  8027e8:	d9800485 	stb	r6,18(sp)
  8027ec:	d8000405 	stb	zero,16(sp)
  8027f0:	003e3206 	br	8020bc <___vfprintf_internal_r+0xa38>
  8027f4:	01802074 	movhi	r6,129
  8027f8:	318a8e04 	addi	r6,r6,10808
  8027fc:	d9814415 	stw	r6,1296(sp)
  802800:	003fe606 	br	80279c <___vfprintf_internal_r+0x1118>
  802804:	00800ac4 	movi	r2,43
  802808:	d8800405 	stb	r2,16(sp)
  80280c:	b8c00007 	ldb	r3,0(r23)
  802810:	003c1b06 	br	801880 <___vfprintf_internal_r+0x1fc>
  802814:	d8814c17 	ldw	r2,1328(sp)
  802818:	b8c00007 	ldb	r3,0(r23)
  80281c:	10800054 	ori	r2,r2,1
  802820:	d8814c15 	stw	r2,1328(sp)
  802824:	003c1606 	br	801880 <___vfprintf_internal_r+0x1fc>
  802828:	d8800407 	ldb	r2,16(sp)
  80282c:	10004c1e 	bne	r2,zero,802960 <___vfprintf_internal_r+0x12dc>
  802830:	00800804 	movi	r2,32
  802834:	d8800405 	stb	r2,16(sp)
  802838:	b8c00007 	ldb	r3,0(r23)
  80283c:	003c1006 	br	801880 <___vfprintf_internal_r+0x1fc>
  802840:	d9814c17 	ldw	r6,1328(sp)
  802844:	b8c00007 	ldb	r3,0(r23)
  802848:	31800214 	ori	r6,r6,8
  80284c:	d9814c15 	stw	r6,1328(sp)
  802850:	003c0b06 	br	801880 <___vfprintf_internal_r+0x1fc>
  802854:	0009883a 	mov	r4,zero
  802858:	04000244 	movi	r16,9
  80285c:	01400284 	movi	r5,10
  802860:	d9c15115 	stw	r7,1348(sp)
  802864:	08014540 	call	801454 <__mulsi3>
  802868:	b9000007 	ldb	r4,0(r23)
  80286c:	d8c14d17 	ldw	r3,1332(sp)
  802870:	bdc00044 	addi	r23,r23,1
  802874:	d9014d15 	stw	r4,1332(sp)
  802878:	d9414d17 	ldw	r5,1332(sp)
  80287c:	1885883a 	add	r2,r3,r2
  802880:	113ff404 	addi	r4,r2,-48
  802884:	28bff404 	addi	r2,r5,-48
  802888:	d9c15117 	ldw	r7,1348(sp)
  80288c:	80bff32e 	bgeu	r16,r2,80285c <___vfprintf_internal_r+0x11d8>
  802890:	d9014a15 	stw	r4,1320(sp)
  802894:	003bfc06 	br	801888 <___vfprintf_internal_r+0x204>
  802898:	d8814c17 	ldw	r2,1328(sp)
  80289c:	b8c00007 	ldb	r3,0(r23)
  8028a0:	10802014 	ori	r2,r2,128
  8028a4:	d8814c15 	stw	r2,1328(sp)
  8028a8:	003bf506 	br	801880 <___vfprintf_internal_r+0x1fc>
  8028ac:	b8c00007 	ldb	r3,0(r23)
  8028b0:	00800a84 	movi	r2,42
  8028b4:	bdc00044 	addi	r23,r23,1
  8028b8:	18831826 	beq	r3,r2,80351c <___vfprintf_internal_r+0x1e98>
  8028bc:	d8c14d15 	stw	r3,1332(sp)
  8028c0:	18bff404 	addi	r2,r3,-48
  8028c4:	00c00244 	movi	r3,9
  8028c8:	18827b36 	bltu	r3,r2,8032b8 <___vfprintf_internal_r+0x1c34>
  8028cc:	1821883a 	mov	r16,r3
  8028d0:	0009883a 	mov	r4,zero
  8028d4:	01400284 	movi	r5,10
  8028d8:	d9c15115 	stw	r7,1348(sp)
  8028dc:	08014540 	call	801454 <__mulsi3>
  8028e0:	d9414d17 	ldw	r5,1332(sp)
  8028e4:	b9800007 	ldb	r6,0(r23)
  8028e8:	d9c15117 	ldw	r7,1348(sp)
  8028ec:	1145883a 	add	r2,r2,r5
  8028f0:	113ff404 	addi	r4,r2,-48
  8028f4:	30bff404 	addi	r2,r6,-48
  8028f8:	d9814d15 	stw	r6,1332(sp)
  8028fc:	bdc00044 	addi	r23,r23,1
  802900:	80bff42e 	bgeu	r16,r2,8028d4 <___vfprintf_internal_r+0x1250>
  802904:	2027883a 	mov	r19,r4
  802908:	203bdf0e 	bge	r4,zero,801888 <___vfprintf_internal_r+0x204>
  80290c:	04ffffc4 	movi	r19,-1
  802910:	003bdd06 	br	801888 <___vfprintf_internal_r+0x204>
  802914:	d8000405 	stb	zero,16(sp)
  802918:	39800017 	ldw	r6,0(r7)
  80291c:	39c00104 	addi	r7,r7,4
  802920:	d9c14015 	stw	r7,1280(sp)
  802924:	d9814115 	stw	r6,1284(sp)
  802928:	3001c926 	beq	r6,zero,803050 <___vfprintf_internal_r+0x19cc>
  80292c:	98000e16 	blt	r19,zero,802968 <___vfprintf_internal_r+0x12e4>
  802930:	d9014117 	ldw	r4,1284(sp)
  802934:	000b883a 	mov	r5,zero
  802938:	980d883a 	mov	r6,r19
  80293c:	08067b80 	call	8067b8 <memchr>
  802940:	10025926 	beq	r2,zero,8032a8 <___vfprintf_internal_r+0x1c24>
  802944:	d8c14117 	ldw	r3,1284(sp)
  802948:	10cfc83a 	sub	r7,r2,r3
  80294c:	99c19e16 	blt	r19,r7,802fc8 <___vfprintf_internal_r+0x1944>
  802950:	d9c14515 	stw	r7,1300(sp)
  802954:	38000916 	blt	r7,zero,80297c <___vfprintf_internal_r+0x12f8>
  802958:	d8014615 	stw	zero,1304(sp)
  80295c:	003deb06 	br	80210c <___vfprintf_internal_r+0xa88>
  802960:	b8c00007 	ldb	r3,0(r23)
  802964:	003bc606 	br	801880 <___vfprintf_internal_r+0x1fc>
  802968:	d9014117 	ldw	r4,1284(sp)
  80296c:	08015b80 	call	8015b8 <strlen>
  802970:	d8814515 	stw	r2,1300(sp)
  802974:	100f883a 	mov	r7,r2
  802978:	103ff70e 	bge	r2,zero,802958 <___vfprintf_internal_r+0x12d4>
  80297c:	d8014515 	stw	zero,1300(sp)
  802980:	d8014615 	stw	zero,1304(sp)
  802984:	003de106 	br	80210c <___vfprintf_internal_r+0xa88>
  802988:	20c03fcc 	andi	r3,r4,255
  80298c:	00800044 	movi	r2,1
  802990:	18802d26 	beq	r3,r2,802a48 <___vfprintf_internal_r+0x13c4>
  802994:	18800e36 	bltu	r3,r2,8029d0 <___vfprintf_internal_r+0x134c>
  802998:	00800084 	movi	r2,2
  80299c:	1880fa26 	beq	r3,r2,802d88 <___vfprintf_internal_r+0x1704>
  8029a0:	01002074 	movhi	r4,129
  8029a4:	210a9e04 	addi	r4,r4,10872
  8029a8:	08015b80 	call	8015b8 <strlen>
  8029ac:	100f883a 	mov	r7,r2
  8029b0:	dcc14515 	stw	r19,1300(sp)
  8029b4:	9880010e 	bge	r19,r2,8029bc <___vfprintf_internal_r+0x1338>
  8029b8:	d8814515 	stw	r2,1300(sp)
  8029bc:	00802074 	movhi	r2,129
  8029c0:	108a9e04 	addi	r2,r2,10872
  8029c4:	dcc14615 	stw	r19,1304(sp)
  8029c8:	d8814115 	stw	r2,1284(sp)
  8029cc:	003dcf06 	br	80210c <___vfprintf_internal_r+0xa88>
  8029d0:	d9401904 	addi	r5,sp,100
  8029d4:	dd000f04 	addi	r20,sp,60
  8029d8:	d9414115 	stw	r5,1284(sp)
  8029dc:	880a977a 	slli	r5,r17,29
  8029e0:	d9814117 	ldw	r6,1284(sp)
  8029e4:	8004d0fa 	srli	r2,r16,3
  8029e8:	8806d0fa 	srli	r3,r17,3
  8029ec:	810001cc 	andi	r4,r16,7
  8029f0:	2884b03a 	or	r2,r5,r2
  8029f4:	31bfffc4 	addi	r6,r6,-1
  8029f8:	21000c04 	addi	r4,r4,48
  8029fc:	d9814115 	stw	r6,1284(sp)
  802a00:	10cab03a 	or	r5,r2,r3
  802a04:	31000005 	stb	r4,0(r6)
  802a08:	1021883a 	mov	r16,r2
  802a0c:	1823883a 	mov	r17,r3
  802a10:	283ff21e 	bne	r5,zero,8029dc <___vfprintf_internal_r+0x1358>
  802a14:	d8c14c17 	ldw	r3,1328(sp)
  802a18:	1880004c 	andi	r2,r3,1
  802a1c:	1005003a 	cmpeq	r2,r2,zero
  802a20:	103db31e 	bne	r2,zero,8020f0 <___vfprintf_internal_r+0xa6c>
  802a24:	20803fcc 	andi	r2,r4,255
  802a28:	1080201c 	xori	r2,r2,128
  802a2c:	10bfe004 	addi	r2,r2,-128
  802a30:	00c00c04 	movi	r3,48
  802a34:	10fdae26 	beq	r2,r3,8020f0 <___vfprintf_internal_r+0xa6c>
  802a38:	31bfffc4 	addi	r6,r6,-1
  802a3c:	d9814115 	stw	r6,1284(sp)
  802a40:	30c00005 	stb	r3,0(r6)
  802a44:	003daa06 	br	8020f0 <___vfprintf_internal_r+0xa6c>
  802a48:	88800068 	cmpgeui	r2,r17,1
  802a4c:	10002c1e 	bne	r2,zero,802b00 <___vfprintf_internal_r+0x147c>
  802a50:	8800021e 	bne	r17,zero,802a5c <___vfprintf_internal_r+0x13d8>
  802a54:	00800244 	movi	r2,9
  802a58:	14002936 	bltu	r2,r16,802b00 <___vfprintf_internal_r+0x147c>
  802a5c:	d90018c4 	addi	r4,sp,99
  802a60:	dd000f04 	addi	r20,sp,60
  802a64:	d9014115 	stw	r4,1284(sp)
  802a68:	d9014117 	ldw	r4,1284(sp)
  802a6c:	80800c04 	addi	r2,r16,48
  802a70:	20800005 	stb	r2,0(r4)
  802a74:	003d9e06 	br	8020f0 <___vfprintf_internal_r+0xa6c>
  802a78:	dc400d17 	ldw	r17,52(sp)
  802a7c:	07002074 	movhi	fp,129
  802a80:	e70aa584 	addi	fp,fp,10902
  802a84:	9425883a 	add	r18,r18,r16
  802a88:	8c400044 	addi	r17,r17,1
  802a8c:	008001c4 	movi	r2,7
  802a90:	1f000015 	stw	fp,0(r3)
  802a94:	1c000115 	stw	r16,4(r3)
  802a98:	dc800e15 	stw	r18,56(sp)
  802a9c:	dc400d15 	stw	r17,52(sp)
  802aa0:	147ddc16 	blt	r2,r17,802214 <___vfprintf_internal_r+0xb90>
  802aa4:	18c00204 	addi	r3,r3,8
  802aa8:	003c7406 	br	801c7c <___vfprintf_internal_r+0x5f8>
  802aac:	01000084 	movi	r4,2
  802ab0:	d8000405 	stb	zero,16(sp)
  802ab4:	003d8106 	br	8020bc <___vfprintf_internal_r+0xa38>
  802ab8:	d9814c17 	ldw	r6,1328(sp)
  802abc:	30c4703a 	and	r2,r6,r3
  802ac0:	1005003a 	cmpeq	r2,r2,zero
  802ac4:	103cb326 	beq	r2,zero,801d94 <___vfprintf_internal_r+0x710>
  802ac8:	d9014117 	ldw	r4,1284(sp)
  802acc:	94800044 	addi	r18,r18,1
  802ad0:	8c400044 	addi	r17,r17,1
  802ad4:	008001c4 	movi	r2,7
  802ad8:	a9000015 	stw	r4,0(r21)
  802adc:	a8c00115 	stw	r3,4(r21)
  802ae0:	dc800e15 	stw	r18,56(sp)
  802ae4:	dc400d15 	stw	r17,52(sp)
  802ae8:	147e6016 	blt	r2,r17,80246c <___vfprintf_internal_r+0xde8>
  802aec:	acc00204 	addi	r19,r21,8
  802af0:	003cd106 	br	801e38 <___vfprintf_internal_r+0x7b4>
  802af4:	07002074 	movhi	fp,129
  802af8:	e70aa584 	addi	fp,fp,10902
  802afc:	003c4906 	br	801c24 <___vfprintf_internal_r+0x5a0>
  802b00:	dd000f04 	addi	r20,sp,60
  802b04:	dc801904 	addi	r18,sp,100
  802b08:	8009883a 	mov	r4,r16
  802b0c:	880b883a 	mov	r5,r17
  802b10:	01800284 	movi	r6,10
  802b14:	000f883a 	mov	r7,zero
  802b18:	0808f300 	call	808f30 <__umoddi3>
  802b1c:	12000c04 	addi	r8,r2,48
  802b20:	94bfffc4 	addi	r18,r18,-1
  802b24:	8009883a 	mov	r4,r16
  802b28:	880b883a 	mov	r5,r17
  802b2c:	01800284 	movi	r6,10
  802b30:	000f883a 	mov	r7,zero
  802b34:	92000005 	stb	r8,0(r18)
  802b38:	08088c40 	call	8088c4 <__udivdi3>
  802b3c:	1009883a 	mov	r4,r2
  802b40:	1021883a 	mov	r16,r2
  802b44:	18800068 	cmpgeui	r2,r3,1
  802b48:	1823883a 	mov	r17,r3
  802b4c:	103fee1e 	bne	r2,zero,802b08 <___vfprintf_internal_r+0x1484>
  802b50:	1800021e 	bne	r3,zero,802b5c <___vfprintf_internal_r+0x14d8>
  802b54:	00800244 	movi	r2,9
  802b58:	113feb36 	bltu	r2,r4,802b08 <___vfprintf_internal_r+0x1484>
  802b5c:	94bfffc4 	addi	r18,r18,-1
  802b60:	dc814115 	stw	r18,1284(sp)
  802b64:	003fc006 	br	802a68 <___vfprintf_internal_r+0x13e4>
  802b68:	d9014c17 	ldw	r4,1328(sp)
  802b6c:	2080004c 	andi	r2,r4,1
  802b70:	10009a1e 	bne	r2,zero,802ddc <___vfprintf_internal_r+0x1758>
  802b74:	d9401904 	addi	r5,sp,100
  802b78:	dd000f04 	addi	r20,sp,60
  802b7c:	d9414115 	stw	r5,1284(sp)
  802b80:	003d5b06 	br	8020f0 <___vfprintf_internal_r+0xa6c>
  802b84:	d9014f17 	ldw	r4,1340(sp)
  802b88:	b00b883a 	mov	r5,r22
  802b8c:	d9800c04 	addi	r6,sp,48
  802b90:	080162c0 	call	80162c <__sprint_r>
  802b94:	103c731e 	bne	r2,zero,801d64 <___vfprintf_internal_r+0x6e0>
  802b98:	dc800e17 	ldw	r18,56(sp)
  802b9c:	d8c01904 	addi	r3,sp,100
  802ba0:	003cf906 	br	801f88 <___vfprintf_internal_r+0x904>
  802ba4:	d8c14c17 	ldw	r3,1328(sp)
  802ba8:	1880040c 	andi	r2,r3,16
  802bac:	1000711e 	bne	r2,zero,802d74 <___vfprintf_internal_r+0x16f0>
  802bb0:	d9014c17 	ldw	r4,1328(sp)
  802bb4:	2080100c 	andi	r2,r4,64
  802bb8:	10006e26 	beq	r2,zero,802d74 <___vfprintf_internal_r+0x16f0>
  802bbc:	3c00000b 	ldhu	r16,0(r7)
  802bc0:	0023883a 	mov	r17,zero
  802bc4:	39c00104 	addi	r7,r7,4
  802bc8:	d9c14015 	stw	r7,1280(sp)
  802bcc:	003efa06 	br	8027b8 <___vfprintf_internal_r+0x1134>
  802bd0:	dc400d17 	ldw	r17,52(sp)
  802bd4:	07002074 	movhi	fp,129
  802bd8:	e70aa584 	addi	fp,fp,10902
  802bdc:	9425883a 	add	r18,r18,r16
  802be0:	8c400044 	addi	r17,r17,1
  802be4:	008001c4 	movi	r2,7
  802be8:	1f000015 	stw	fp,0(r3)
  802bec:	1c000115 	stw	r16,4(r3)
  802bf0:	dc800e15 	stw	r18,56(sp)
  802bf4:	dc400d15 	stw	r17,52(sp)
  802bf8:	147d7016 	blt	r2,r17,8021bc <___vfprintf_internal_r+0xb38>
  802bfc:	18c00204 	addi	r3,r3,8
  802c00:	003d7506 	br	8021d8 <___vfprintf_internal_r+0xb54>
  802c04:	dc800e17 	ldw	r18,56(sp)
  802c08:	dc400d17 	ldw	r17,52(sp)
  802c0c:	07002074 	movhi	fp,129
  802c10:	e70aa984 	addi	fp,fp,10918
  802c14:	003bba06 	br	801b00 <___vfprintf_internal_r+0x47c>
  802c18:	d9014f17 	ldw	r4,1340(sp)
  802c1c:	b00b883a 	mov	r5,r22
  802c20:	d9800c04 	addi	r6,sp,48
  802c24:	080162c0 	call	80162c <__sprint_r>
  802c28:	103c4e1e 	bne	r2,zero,801d64 <___vfprintf_internal_r+0x6e0>
  802c2c:	dc800e17 	ldw	r18,56(sp)
  802c30:	d8c01904 	addi	r3,sp,100
  802c34:	003ce306 	br	801fc4 <___vfprintf_internal_r+0x940>
  802c38:	3c000017 	ldw	r16,0(r7)
  802c3c:	0009883a 	mov	r4,zero
  802c40:	39c00104 	addi	r7,r7,4
  802c44:	0023883a 	mov	r17,zero
  802c48:	d9c14015 	stw	r7,1280(sp)
  802c4c:	d8000405 	stb	zero,16(sp)
  802c50:	003d1a06 	br	8020bc <___vfprintf_internal_r+0xa38>
  802c54:	38800017 	ldw	r2,0(r7)
  802c58:	39c00104 	addi	r7,r7,4
  802c5c:	d9c14015 	stw	r7,1280(sp)
  802c60:	1023d7fa 	srai	r17,r2,31
  802c64:	1021883a 	mov	r16,r2
  802c68:	003d1206 	br	8020b4 <___vfprintf_internal_r+0xa30>
  802c6c:	3c000017 	ldw	r16,0(r7)
  802c70:	01000044 	movi	r4,1
  802c74:	39c00104 	addi	r7,r7,4
  802c78:	0023883a 	mov	r17,zero
  802c7c:	d9c14015 	stw	r7,1280(sp)
  802c80:	d8000405 	stb	zero,16(sp)
  802c84:	003d0d06 	br	8020bc <___vfprintf_internal_r+0xa38>
  802c88:	00802074 	movhi	r2,129
  802c8c:	108aa504 	addi	r2,r2,10900
  802c90:	94800044 	addi	r18,r18,1
  802c94:	8c400044 	addi	r17,r17,1
  802c98:	a8800015 	stw	r2,0(r21)
  802c9c:	00c00044 	movi	r3,1
  802ca0:	008001c4 	movi	r2,7
  802ca4:	a8c00115 	stw	r3,4(r21)
  802ca8:	dc800e15 	stw	r18,56(sp)
  802cac:	dc400d15 	stw	r17,52(sp)
  802cb0:	1440ca16 	blt	r2,r17,802fdc <___vfprintf_internal_r+0x1958>
  802cb4:	a8c00204 	addi	r3,r21,8
  802cb8:	2000061e 	bne	r4,zero,802cd4 <___vfprintf_internal_r+0x1650>
  802cbc:	d9414717 	ldw	r5,1308(sp)
  802cc0:	2800041e 	bne	r5,zero,802cd4 <___vfprintf_internal_r+0x1650>
  802cc4:	d9814c17 	ldw	r6,1328(sp)
  802cc8:	3080004c 	andi	r2,r6,1
  802ccc:	1005003a 	cmpeq	r2,r2,zero
  802cd0:	103bea1e 	bne	r2,zero,801c7c <___vfprintf_internal_r+0x5f8>
  802cd4:	00800044 	movi	r2,1
  802cd8:	dc400d17 	ldw	r17,52(sp)
  802cdc:	18800115 	stw	r2,4(r3)
  802ce0:	d8814917 	ldw	r2,1316(sp)
  802ce4:	94800044 	addi	r18,r18,1
  802ce8:	8c400044 	addi	r17,r17,1
  802cec:	18800015 	stw	r2,0(r3)
  802cf0:	008001c4 	movi	r2,7
  802cf4:	dc800e15 	stw	r18,56(sp)
  802cf8:	dc400d15 	stw	r17,52(sp)
  802cfc:	1440ca16 	blt	r2,r17,803028 <___vfprintf_internal_r+0x19a4>
  802d00:	18c00204 	addi	r3,r3,8
  802d04:	0121c83a 	sub	r16,zero,r4
  802d08:	0400500e 	bge	zero,r16,802e4c <___vfprintf_internal_r+0x17c8>
  802d0c:	00800404 	movi	r2,16
  802d10:	1400800e 	bge	r2,r16,802f14 <___vfprintf_internal_r+0x1890>
  802d14:	1027883a 	mov	r19,r2
  802d18:	07002074 	movhi	fp,129
  802d1c:	e70aa584 	addi	fp,fp,10902
  802d20:	050001c4 	movi	r20,7
  802d24:	00000306 	br	802d34 <___vfprintf_internal_r+0x16b0>
  802d28:	18c00204 	addi	r3,r3,8
  802d2c:	843ffc04 	addi	r16,r16,-16
  802d30:	9c007a0e 	bge	r19,r16,802f1c <___vfprintf_internal_r+0x1898>
  802d34:	94800404 	addi	r18,r18,16
  802d38:	8c400044 	addi	r17,r17,1
  802d3c:	1f000015 	stw	fp,0(r3)
  802d40:	1cc00115 	stw	r19,4(r3)
  802d44:	dc800e15 	stw	r18,56(sp)
  802d48:	dc400d15 	stw	r17,52(sp)
  802d4c:	a47ff60e 	bge	r20,r17,802d28 <___vfprintf_internal_r+0x16a4>
  802d50:	d9014f17 	ldw	r4,1340(sp)
  802d54:	b00b883a 	mov	r5,r22
  802d58:	d9800c04 	addi	r6,sp,48
  802d5c:	080162c0 	call	80162c <__sprint_r>
  802d60:	103c001e 	bne	r2,zero,801d64 <___vfprintf_internal_r+0x6e0>
  802d64:	dc800e17 	ldw	r18,56(sp)
  802d68:	dc400d17 	ldw	r17,52(sp)
  802d6c:	d8c01904 	addi	r3,sp,100
  802d70:	003fee06 	br	802d2c <___vfprintf_internal_r+0x16a8>
  802d74:	3c000017 	ldw	r16,0(r7)
  802d78:	0023883a 	mov	r17,zero
  802d7c:	39c00104 	addi	r7,r7,4
  802d80:	d9c14015 	stw	r7,1280(sp)
  802d84:	003e8c06 	br	8027b8 <___vfprintf_internal_r+0x1134>
  802d88:	d9401904 	addi	r5,sp,100
  802d8c:	dd000f04 	addi	r20,sp,60
  802d90:	d9414115 	stw	r5,1284(sp)
  802d94:	d9814417 	ldw	r6,1296(sp)
  802d98:	880a973a 	slli	r5,r17,28
  802d9c:	8004d13a 	srli	r2,r16,4
  802da0:	810003cc 	andi	r4,r16,15
  802da4:	3109883a 	add	r4,r6,r4
  802da8:	2884b03a 	or	r2,r5,r2
  802dac:	21400003 	ldbu	r5,0(r4)
  802db0:	d9014117 	ldw	r4,1284(sp)
  802db4:	8806d13a 	srli	r3,r17,4
  802db8:	1021883a 	mov	r16,r2
  802dbc:	213fffc4 	addi	r4,r4,-1
  802dc0:	d9014115 	stw	r4,1284(sp)
  802dc4:	d9814117 	ldw	r6,1284(sp)
  802dc8:	10c8b03a 	or	r4,r2,r3
  802dcc:	1823883a 	mov	r17,r3
  802dd0:	31400005 	stb	r5,0(r6)
  802dd4:	203fef1e 	bne	r4,zero,802d94 <___vfprintf_internal_r+0x1710>
  802dd8:	003cc506 	br	8020f0 <___vfprintf_internal_r+0xa6c>
  802ddc:	00800c04 	movi	r2,48
  802de0:	d98018c4 	addi	r6,sp,99
  802de4:	dd000f04 	addi	r20,sp,60
  802de8:	d88018c5 	stb	r2,99(sp)
  802dec:	d9814115 	stw	r6,1284(sp)
  802df0:	003cbf06 	br	8020f0 <___vfprintf_internal_r+0xa6c>
  802df4:	dc400d17 	ldw	r17,52(sp)
  802df8:	07002074 	movhi	fp,129
  802dfc:	e70aa984 	addi	fp,fp,10918
  802e00:	003bc106 	br	801d08 <___vfprintf_internal_r+0x684>
  802e04:	d9414c17 	ldw	r5,1328(sp)
  802e08:	2880040c 	andi	r2,r5,16
  802e0c:	10007c26 	beq	r2,zero,803000 <___vfprintf_internal_r+0x197c>
  802e10:	38800017 	ldw	r2,0(r7)
  802e14:	39c00104 	addi	r7,r7,4
  802e18:	d9c14015 	stw	r7,1280(sp)
  802e1c:	d9814b17 	ldw	r6,1324(sp)
  802e20:	d9c14017 	ldw	r7,1280(sp)
  802e24:	11800015 	stw	r6,0(r2)
  802e28:	003a7206 	br	8017f4 <___vfprintf_internal_r+0x170>
  802e2c:	d9014f17 	ldw	r4,1340(sp)
  802e30:	b00b883a 	mov	r5,r22
  802e34:	d9800c04 	addi	r6,sp,48
  802e38:	080162c0 	call	80162c <__sprint_r>
  802e3c:	103bc91e 	bne	r2,zero,801d64 <___vfprintf_internal_r+0x6e0>
  802e40:	dc800e17 	ldw	r18,56(sp)
  802e44:	dc400d17 	ldw	r17,52(sp)
  802e48:	d8c01904 	addi	r3,sp,100
  802e4c:	d9014717 	ldw	r4,1308(sp)
  802e50:	d9414117 	ldw	r5,1284(sp)
  802e54:	8c400044 	addi	r17,r17,1
  802e58:	9125883a 	add	r18,r18,r4
  802e5c:	008001c4 	movi	r2,7
  802e60:	19400015 	stw	r5,0(r3)
  802e64:	19000115 	stw	r4,4(r3)
  802e68:	dc800e15 	stw	r18,56(sp)
  802e6c:	dc400d15 	stw	r17,52(sp)
  802e70:	147ce816 	blt	r2,r17,802214 <___vfprintf_internal_r+0xb90>
  802e74:	18c00204 	addi	r3,r3,8
  802e78:	003b8006 	br	801c7c <___vfprintf_internal_r+0x5f8>
  802e7c:	38c00017 	ldw	r3,0(r7)
  802e80:	39000204 	addi	r4,r7,8
  802e84:	d9014015 	stw	r4,1280(sp)
  802e88:	d8c14215 	stw	r3,1288(sp)
  802e8c:	39c00117 	ldw	r7,4(r7)
  802e90:	d9c14315 	stw	r7,1292(sp)
  802e94:	003e1a06 	br	802700 <___vfprintf_internal_r+0x107c>
  802e98:	0005883a 	mov	r2,zero
  802e9c:	1409c83a 	sub	r4,r2,r16
  802ea0:	1105803a 	cmpltu	r2,r2,r4
  802ea4:	044bc83a 	sub	r5,zero,r17
  802ea8:	2885c83a 	sub	r2,r5,r2
  802eac:	2021883a 	mov	r16,r4
  802eb0:	1023883a 	mov	r17,r2
  802eb4:	01000044 	movi	r4,1
  802eb8:	00800b44 	movi	r2,45
  802ebc:	d8800405 	stb	r2,16(sp)
  802ec0:	003c7e06 	br	8020bc <___vfprintf_internal_r+0xa38>
  802ec4:	d9014f17 	ldw	r4,1340(sp)
  802ec8:	b00b883a 	mov	r5,r22
  802ecc:	d9800c04 	addi	r6,sp,48
  802ed0:	080162c0 	call	80162c <__sprint_r>
  802ed4:	103ba31e 	bne	r2,zero,801d64 <___vfprintf_internal_r+0x6e0>
  802ed8:	dc800e17 	ldw	r18,56(sp)
  802edc:	dc400d17 	ldw	r17,52(sp)
  802ee0:	d9000517 	ldw	r4,20(sp)
  802ee4:	d9401904 	addi	r5,sp,100
  802ee8:	003da106 	br	802570 <___vfprintf_internal_r+0xeec>
  802eec:	d9014f17 	ldw	r4,1340(sp)
  802ef0:	b00b883a 	mov	r5,r22
  802ef4:	d9800c04 	addi	r6,sp,48
  802ef8:	080162c0 	call	80162c <__sprint_r>
  802efc:	103b991e 	bne	r2,zero,801d64 <___vfprintf_internal_r+0x6e0>
  802f00:	dc800e17 	ldw	r18,56(sp)
  802f04:	dc400d17 	ldw	r17,52(sp)
  802f08:	d9000517 	ldw	r4,20(sp)
  802f0c:	d8c01904 	addi	r3,sp,100
  802f10:	003d8b06 	br	802540 <___vfprintf_internal_r+0xebc>
  802f14:	07002074 	movhi	fp,129
  802f18:	e70aa584 	addi	fp,fp,10902
  802f1c:	9425883a 	add	r18,r18,r16
  802f20:	8c400044 	addi	r17,r17,1
  802f24:	008001c4 	movi	r2,7
  802f28:	1f000015 	stw	fp,0(r3)
  802f2c:	1c000115 	stw	r16,4(r3)
  802f30:	dc800e15 	stw	r18,56(sp)
  802f34:	dc400d15 	stw	r17,52(sp)
  802f38:	147fbc16 	blt	r2,r17,802e2c <___vfprintf_internal_r+0x17a8>
  802f3c:	18c00204 	addi	r3,r3,8
  802f40:	003fc206 	br	802e4c <___vfprintf_internal_r+0x17c8>
  802f44:	d9014f17 	ldw	r4,1340(sp)
  802f48:	b00b883a 	mov	r5,r22
  802f4c:	d9800c04 	addi	r6,sp,48
  802f50:	080162c0 	call	80162c <__sprint_r>
  802f54:	103b831e 	bne	r2,zero,801d64 <___vfprintf_internal_r+0x6e0>
  802f58:	dc800e17 	ldw	r18,56(sp)
  802f5c:	d9000517 	ldw	r4,20(sp)
  802f60:	d8c01904 	addi	r3,sp,100
  802f64:	003cfc06 	br	802358 <___vfprintf_internal_r+0xcd4>
  802f68:	07002074 	movhi	fp,129
  802f6c:	e70aa584 	addi	fp,fp,10902
  802f70:	003bde06 	br	801eec <___vfprintf_internal_r+0x868>
  802f74:	00802074 	movhi	r2,129
  802f78:	108a9404 	addi	r2,r2,10832
  802f7c:	d8814115 	stw	r2,1284(sp)
  802f80:	003def06 	br	802740 <___vfprintf_internal_r+0x10bc>
  802f84:	d9014217 	ldw	r4,1288(sp)
  802f88:	d9414317 	ldw	r5,1292(sp)
  802f8c:	08081740 	call	808174 <__isnand>
  802f90:	10003926 	beq	r2,zero,803078 <___vfprintf_internal_r+0x19f4>
  802f94:	d9414d17 	ldw	r5,1332(sp)
  802f98:	008011c4 	movi	r2,71
  802f9c:	1140ce16 	blt	r2,r5,8032d8 <___vfprintf_internal_r+0x1c54>
  802fa0:	01802074 	movhi	r6,129
  802fa4:	318a9504 	addi	r6,r6,10836
  802fa8:	d9814115 	stw	r6,1284(sp)
  802fac:	003de406 	br	802740 <___vfprintf_internal_r+0x10bc>
  802fb0:	d9014c17 	ldw	r4,1328(sp)
  802fb4:	bdc00044 	addi	r23,r23,1
  802fb8:	b8c00007 	ldb	r3,0(r23)
  802fbc:	21000814 	ori	r4,r4,32
  802fc0:	d9014c15 	stw	r4,1328(sp)
  802fc4:	003a2e06 	br	801880 <___vfprintf_internal_r+0x1fc>
  802fc8:	dcc14515 	stw	r19,1300(sp)
  802fcc:	98011016 	blt	r19,zero,803410 <___vfprintf_internal_r+0x1d8c>
  802fd0:	980f883a 	mov	r7,r19
  802fd4:	d8014615 	stw	zero,1304(sp)
  802fd8:	003c4c06 	br	80210c <___vfprintf_internal_r+0xa88>
  802fdc:	d9014f17 	ldw	r4,1340(sp)
  802fe0:	b00b883a 	mov	r5,r22
  802fe4:	d9800c04 	addi	r6,sp,48
  802fe8:	080162c0 	call	80162c <__sprint_r>
  802fec:	103b5d1e 	bne	r2,zero,801d64 <___vfprintf_internal_r+0x6e0>
  802ff0:	dc800e17 	ldw	r18,56(sp)
  802ff4:	d9000517 	ldw	r4,20(sp)
  802ff8:	d8c01904 	addi	r3,sp,100
  802ffc:	003f2e06 	br	802cb8 <___vfprintf_internal_r+0x1634>
  803000:	d8c14c17 	ldw	r3,1328(sp)
  803004:	1880100c 	andi	r2,r3,64
  803008:	1000a026 	beq	r2,zero,80328c <___vfprintf_internal_r+0x1c08>
  80300c:	38800017 	ldw	r2,0(r7)
  803010:	39c00104 	addi	r7,r7,4
  803014:	d9c14015 	stw	r7,1280(sp)
  803018:	d9014b17 	ldw	r4,1324(sp)
  80301c:	d9c14017 	ldw	r7,1280(sp)
  803020:	1100000d 	sth	r4,0(r2)
  803024:	0039f306 	br	8017f4 <___vfprintf_internal_r+0x170>
  803028:	d9014f17 	ldw	r4,1340(sp)
  80302c:	b00b883a 	mov	r5,r22
  803030:	d9800c04 	addi	r6,sp,48
  803034:	080162c0 	call	80162c <__sprint_r>
  803038:	103b4a1e 	bne	r2,zero,801d64 <___vfprintf_internal_r+0x6e0>
  80303c:	dc800e17 	ldw	r18,56(sp)
  803040:	dc400d17 	ldw	r17,52(sp)
  803044:	d9000517 	ldw	r4,20(sp)
  803048:	d8c01904 	addi	r3,sp,100
  80304c:	003f2d06 	br	802d04 <___vfprintf_internal_r+0x1680>
  803050:	00800184 	movi	r2,6
  803054:	14c09a36 	bltu	r2,r19,8032c0 <___vfprintf_internal_r+0x1c3c>
  803058:	dcc14515 	stw	r19,1300(sp)
  80305c:	9800010e 	bge	r19,zero,803064 <___vfprintf_internal_r+0x19e0>
  803060:	d8014515 	stw	zero,1300(sp)
  803064:	00802074 	movhi	r2,129
  803068:	108a9704 	addi	r2,r2,10844
  80306c:	980f883a 	mov	r7,r19
  803070:	d8814115 	stw	r2,1284(sp)
  803074:	003a7206 	br	801a40 <___vfprintf_internal_r+0x3bc>
  803078:	00bfffc4 	movi	r2,-1
  80307c:	9880e226 	beq	r19,r2,803408 <___vfprintf_internal_r+0x1d84>
  803080:	d9414d17 	ldw	r5,1332(sp)
  803084:	008019c4 	movi	r2,103
  803088:	2880dc26 	beq	r5,r2,8033fc <___vfprintf_internal_r+0x1d78>
  80308c:	008011c4 	movi	r2,71
  803090:	2880da26 	beq	r5,r2,8033fc <___vfprintf_internal_r+0x1d78>
  803094:	d9414c17 	ldw	r5,1328(sp)
  803098:	d9014317 	ldw	r4,1292(sp)
  80309c:	d9814217 	ldw	r6,1288(sp)
  8030a0:	29404014 	ori	r5,r5,256
  8030a4:	d9414c15 	stw	r5,1328(sp)
  8030a8:	2000cc16 	blt	r4,zero,8033dc <___vfprintf_internal_r+0x1d58>
  8030ac:	3021883a 	mov	r16,r6
  8030b0:	2023883a 	mov	r17,r4
  8030b4:	0039883a 	mov	fp,zero
  8030b8:	d9414d17 	ldw	r5,1332(sp)
  8030bc:	00801984 	movi	r2,102
  8030c0:	2880b726 	beq	r5,r2,8033a0 <___vfprintf_internal_r+0x1d1c>
  8030c4:	00801184 	movi	r2,70
  8030c8:	2880b526 	beq	r5,r2,8033a0 <___vfprintf_internal_r+0x1d1c>
  8030cc:	00801944 	movi	r2,101
  8030d0:	2880c826 	beq	r5,r2,8033f4 <___vfprintf_internal_r+0x1d70>
  8030d4:	00801144 	movi	r2,69
  8030d8:	2880c626 	beq	r5,r2,8033f4 <___vfprintf_internal_r+0x1d70>
  8030dc:	9829883a 	mov	r20,r19
  8030e0:	d9014f17 	ldw	r4,1340(sp)
  8030e4:	d8800504 	addi	r2,sp,20
  8030e8:	880d883a 	mov	r6,r17
  8030ec:	d8800115 	stw	r2,4(sp)
  8030f0:	d8c00604 	addi	r3,sp,24
  8030f4:	d8800704 	addi	r2,sp,28
  8030f8:	800b883a 	mov	r5,r16
  8030fc:	01c00084 	movi	r7,2
  803100:	d8c00215 	stw	r3,8(sp)
  803104:	d8800315 	stw	r2,12(sp)
  803108:	dd000015 	stw	r20,0(sp)
  80310c:	08038ec0 	call	8038ec <_dtoa_r>
  803110:	d9814d17 	ldw	r6,1332(sp)
  803114:	d8814115 	stw	r2,1284(sp)
  803118:	008019c4 	movi	r2,103
  80311c:	30809526 	beq	r6,r2,803374 <___vfprintf_internal_r+0x1cf0>
  803120:	d8c14d17 	ldw	r3,1332(sp)
  803124:	008011c4 	movi	r2,71
  803128:	18809226 	beq	r3,r2,803374 <___vfprintf_internal_r+0x1cf0>
  80312c:	d9414117 	ldw	r5,1284(sp)
  803130:	d9814d17 	ldw	r6,1332(sp)
  803134:	00801984 	movi	r2,102
  803138:	2d25883a 	add	r18,r5,r20
  80313c:	30808626 	beq	r6,r2,803358 <___vfprintf_internal_r+0x1cd4>
  803140:	00801184 	movi	r2,70
  803144:	30808426 	beq	r6,r2,803358 <___vfprintf_internal_r+0x1cd4>
  803148:	000d883a 	mov	r6,zero
  80314c:	000f883a 	mov	r7,zero
  803150:	880b883a 	mov	r5,r17
  803154:	8009883a 	mov	r4,r16
  803158:	080a0b00 	call	80a0b0 <__eqdf2>
  80315c:	1000751e 	bne	r2,zero,803334 <___vfprintf_internal_r+0x1cb0>
  803160:	9005883a 	mov	r2,r18
  803164:	dc800715 	stw	r18,28(sp)
  803168:	d9014117 	ldw	r4,1284(sp)
  80316c:	d9414d17 	ldw	r5,1332(sp)
  803170:	00c019c4 	movi	r3,103
  803174:	1125c83a 	sub	r18,r2,r4
  803178:	28c06826 	beq	r5,r3,80331c <___vfprintf_internal_r+0x1c98>
  80317c:	008011c4 	movi	r2,71
  803180:	28806626 	beq	r5,r2,80331c <___vfprintf_internal_r+0x1c98>
  803184:	d9000517 	ldw	r4,20(sp)
  803188:	d8c14d17 	ldw	r3,1332(sp)
  80318c:	00801944 	movi	r2,101
  803190:	10c05516 	blt	r2,r3,8032e8 <___vfprintf_internal_r+0x1c64>
  803194:	213fffc4 	addi	r4,r4,-1
  803198:	d9000515 	stw	r4,20(sp)
  80319c:	d8c00805 	stb	r3,32(sp)
  8031a0:	2021883a 	mov	r16,r4
  8031a4:	2000c116 	blt	r4,zero,8034ac <___vfprintf_internal_r+0x1e28>
  8031a8:	00800ac4 	movi	r2,43
  8031ac:	d8800845 	stb	r2,33(sp)
  8031b0:	00800244 	movi	r2,9
  8031b4:	1400af0e 	bge	r2,r16,803474 <___vfprintf_internal_r+0x1df0>
  8031b8:	1027883a 	mov	r19,r2
  8031bc:	dc400b84 	addi	r17,sp,46
  8031c0:	8009883a 	mov	r4,r16
  8031c4:	01400284 	movi	r5,10
  8031c8:	080a7980 	call	80a798 <__modsi3>
  8031cc:	10800c04 	addi	r2,r2,48
  8031d0:	8c7fffc4 	addi	r17,r17,-1
  8031d4:	8009883a 	mov	r4,r16
  8031d8:	01400284 	movi	r5,10
  8031dc:	88800005 	stb	r2,0(r17)
  8031e0:	080a7380 	call	80a738 <__divsi3>
  8031e4:	1021883a 	mov	r16,r2
  8031e8:	98bff516 	blt	r19,r2,8031c0 <___vfprintf_internal_r+0x1b3c>
  8031ec:	10c00c04 	addi	r3,r2,48
  8031f0:	d88009c4 	addi	r2,sp,39
  8031f4:	108001c4 	addi	r2,r2,7
  8031f8:	897fffc4 	addi	r5,r17,-1
  8031fc:	88ffffc5 	stb	r3,-1(r17)
  803200:	2880a72e 	bgeu	r5,r2,8034a0 <___vfprintf_internal_r+0x1e1c>
  803204:	1009883a 	mov	r4,r2
  803208:	d9800804 	addi	r6,sp,32
  80320c:	d8c00884 	addi	r3,sp,34
  803210:	28800003 	ldbu	r2,0(r5)
  803214:	29400044 	addi	r5,r5,1
  803218:	18800005 	stb	r2,0(r3)
  80321c:	18c00044 	addi	r3,r3,1
  803220:	293ffb36 	bltu	r5,r4,803210 <___vfprintf_internal_r+0x1b8c>
  803224:	1987c83a 	sub	r3,r3,r6
  803228:	00800044 	movi	r2,1
  80322c:	d8c14815 	stw	r3,1312(sp)
  803230:	90cf883a 	add	r7,r18,r3
  803234:	1480960e 	bge	r2,r18,803490 <___vfprintf_internal_r+0x1e0c>
  803238:	39c00044 	addi	r7,r7,1
  80323c:	d9c14515 	stw	r7,1300(sp)
  803240:	38003416 	blt	r7,zero,803314 <___vfprintf_internal_r+0x1c90>
  803244:	e0803fcc 	andi	r2,fp,255
  803248:	1080201c 	xori	r2,r2,128
  80324c:	10bfe004 	addi	r2,r2,-128
  803250:	10004e26 	beq	r2,zero,80338c <___vfprintf_internal_r+0x1d08>
  803254:	00800b44 	movi	r2,45
  803258:	dc814715 	stw	r18,1308(sp)
  80325c:	d8014615 	stw	zero,1304(sp)
  803260:	d8800405 	stb	r2,16(sp)
  803264:	003bab06 	br	802114 <___vfprintf_internal_r+0xa90>
  803268:	00800b44 	movi	r2,45
  80326c:	d8800405 	stb	r2,16(sp)
  803270:	003d2d06 	br	802728 <___vfprintf_internal_r+0x10a4>
  803274:	d9014f17 	ldw	r4,1340(sp)
  803278:	b00b883a 	mov	r5,r22
  80327c:	d9800c04 	addi	r6,sp,48
  803280:	080162c0 	call	80162c <__sprint_r>
  803284:	103ab71e 	bne	r2,zero,801d64 <___vfprintf_internal_r+0x6e0>
  803288:	003ab506 	br	801d60 <___vfprintf_internal_r+0x6dc>
  80328c:	38800017 	ldw	r2,0(r7)
  803290:	39c00104 	addi	r7,r7,4
  803294:	d9c14015 	stw	r7,1280(sp)
  803298:	d9414b17 	ldw	r5,1324(sp)
  80329c:	d9c14017 	ldw	r7,1280(sp)
  8032a0:	11400015 	stw	r5,0(r2)
  8032a4:	00395306 	br	8017f4 <___vfprintf_internal_r+0x170>
  8032a8:	980f883a 	mov	r7,r19
  8032ac:	dcc14515 	stw	r19,1300(sp)
  8032b0:	d8014615 	stw	zero,1304(sp)
  8032b4:	003b9506 	br	80210c <___vfprintf_internal_r+0xa88>
  8032b8:	0027883a 	mov	r19,zero
  8032bc:	00397206 	br	801888 <___vfprintf_internal_r+0x204>
  8032c0:	00c02074 	movhi	r3,129
  8032c4:	18ca9704 	addi	r3,r3,10844
  8032c8:	100f883a 	mov	r7,r2
  8032cc:	d8814515 	stw	r2,1300(sp)
  8032d0:	d8c14115 	stw	r3,1284(sp)
  8032d4:	0039da06 	br	801a40 <___vfprintf_internal_r+0x3bc>
  8032d8:	00802074 	movhi	r2,129
  8032dc:	108a9604 	addi	r2,r2,10840
  8032e0:	d8814115 	stw	r2,1284(sp)
  8032e4:	003d1606 	br	802740 <___vfprintf_internal_r+0x10bc>
  8032e8:	d9414d17 	ldw	r5,1332(sp)
  8032ec:	00801984 	movi	r2,102
  8032f0:	28804926 	beq	r5,r2,803418 <___vfprintf_internal_r+0x1d94>
  8032f4:	200f883a 	mov	r7,r4
  8032f8:	24805716 	blt	r4,r18,803458 <___vfprintf_internal_r+0x1dd4>
  8032fc:	d9414c17 	ldw	r5,1328(sp)
  803300:	2880004c 	andi	r2,r5,1
  803304:	10000126 	beq	r2,zero,80330c <___vfprintf_internal_r+0x1c88>
  803308:	21c00044 	addi	r7,r4,1
  80330c:	d9c14515 	stw	r7,1300(sp)
  803310:	383fcc0e 	bge	r7,zero,803244 <___vfprintf_internal_r+0x1bc0>
  803314:	d8014515 	stw	zero,1300(sp)
  803318:	003fca06 	br	803244 <___vfprintf_internal_r+0x1bc0>
  80331c:	d9000517 	ldw	r4,20(sp)
  803320:	00bfff04 	movi	r2,-4
  803324:	1100480e 	bge	r2,r4,803448 <___vfprintf_internal_r+0x1dc4>
  803328:	99004716 	blt	r19,r4,803448 <___vfprintf_internal_r+0x1dc4>
  80332c:	d8c14d15 	stw	r3,1332(sp)
  803330:	003ff006 	br	8032f4 <___vfprintf_internal_r+0x1c70>
  803334:	d8800717 	ldw	r2,28(sp)
  803338:	14bf8b2e 	bgeu	r2,r18,803168 <___vfprintf_internal_r+0x1ae4>
  80333c:	9007883a 	mov	r3,r18
  803340:	01000c04 	movi	r4,48
  803344:	11000005 	stb	r4,0(r2)
  803348:	10800044 	addi	r2,r2,1
  80334c:	d8800715 	stw	r2,28(sp)
  803350:	18bffc1e 	bne	r3,r2,803344 <___vfprintf_internal_r+0x1cc0>
  803354:	003f8406 	br	803168 <___vfprintf_internal_r+0x1ae4>
  803358:	d8814117 	ldw	r2,1284(sp)
  80335c:	10c00007 	ldb	r3,0(r2)
  803360:	00800c04 	movi	r2,48
  803364:	18805b26 	beq	r3,r2,8034d4 <___vfprintf_internal_r+0x1e50>
  803368:	d9000517 	ldw	r4,20(sp)
  80336c:	9125883a 	add	r18,r18,r4
  803370:	003f7506 	br	803148 <___vfprintf_internal_r+0x1ac4>
  803374:	d9014c17 	ldw	r4,1328(sp)
  803378:	2080004c 	andi	r2,r4,1
  80337c:	1005003a 	cmpeq	r2,r2,zero
  803380:	103f6a26 	beq	r2,zero,80312c <___vfprintf_internal_r+0x1aa8>
  803384:	d8800717 	ldw	r2,28(sp)
  803388:	003f7706 	br	803168 <___vfprintf_internal_r+0x1ae4>
  80338c:	d9c14515 	stw	r7,1300(sp)
  803390:	38004d16 	blt	r7,zero,8034c8 <___vfprintf_internal_r+0x1e44>
  803394:	dc814715 	stw	r18,1308(sp)
  803398:	d8014615 	stw	zero,1304(sp)
  80339c:	003b5b06 	br	80210c <___vfprintf_internal_r+0xa88>
  8033a0:	d9014f17 	ldw	r4,1340(sp)
  8033a4:	d8800504 	addi	r2,sp,20
  8033a8:	d8800115 	stw	r2,4(sp)
  8033ac:	d8c00604 	addi	r3,sp,24
  8033b0:	d8800704 	addi	r2,sp,28
  8033b4:	800b883a 	mov	r5,r16
  8033b8:	880d883a 	mov	r6,r17
  8033bc:	01c000c4 	movi	r7,3
  8033c0:	d8c00215 	stw	r3,8(sp)
  8033c4:	d8800315 	stw	r2,12(sp)
  8033c8:	dcc00015 	stw	r19,0(sp)
  8033cc:	9829883a 	mov	r20,r19
  8033d0:	08038ec0 	call	8038ec <_dtoa_r>
  8033d4:	d8814115 	stw	r2,1284(sp)
  8033d8:	003f5106 	br	803120 <___vfprintf_internal_r+0x1a9c>
  8033dc:	d8c14217 	ldw	r3,1288(sp)
  8033e0:	d9014317 	ldw	r4,1292(sp)
  8033e4:	07000b44 	movi	fp,45
  8033e8:	1821883a 	mov	r16,r3
  8033ec:	2460003c 	xorhi	r17,r4,32768
  8033f0:	003f3106 	br	8030b8 <___vfprintf_internal_r+0x1a34>
  8033f4:	9d000044 	addi	r20,r19,1
  8033f8:	003f3906 	br	8030e0 <___vfprintf_internal_r+0x1a5c>
  8033fc:	983f251e 	bne	r19,zero,803094 <___vfprintf_internal_r+0x1a10>
  803400:	04c00044 	movi	r19,1
  803404:	003f2306 	br	803094 <___vfprintf_internal_r+0x1a10>
  803408:	04c00184 	movi	r19,6
  80340c:	003f2106 	br	803094 <___vfprintf_internal_r+0x1a10>
  803410:	d8014515 	stw	zero,1300(sp)
  803414:	003eee06 	br	802fd0 <___vfprintf_internal_r+0x194c>
  803418:	200f883a 	mov	r7,r4
  80341c:	0100370e 	bge	zero,r4,8034fc <___vfprintf_internal_r+0x1e78>
  803420:	9800031e 	bne	r19,zero,803430 <___vfprintf_internal_r+0x1dac>
  803424:	d9814c17 	ldw	r6,1328(sp)
  803428:	3080004c 	andi	r2,r6,1
  80342c:	103fb726 	beq	r2,zero,80330c <___vfprintf_internal_r+0x1c88>
  803430:	20800044 	addi	r2,r4,1
  803434:	98a7883a 	add	r19,r19,r2
  803438:	dcc14515 	stw	r19,1300(sp)
  80343c:	980f883a 	mov	r7,r19
  803440:	983f800e 	bge	r19,zero,803244 <___vfprintf_internal_r+0x1bc0>
  803444:	003fb306 	br	803314 <___vfprintf_internal_r+0x1c90>
  803448:	d9814d17 	ldw	r6,1332(sp)
  80344c:	31bfff84 	addi	r6,r6,-2
  803450:	d9814d15 	stw	r6,1332(sp)
  803454:	003f4c06 	br	803188 <___vfprintf_internal_r+0x1b04>
  803458:	0100180e 	bge	zero,r4,8034bc <___vfprintf_internal_r+0x1e38>
  80345c:	00800044 	movi	r2,1
  803460:	1485883a 	add	r2,r2,r18
  803464:	d8814515 	stw	r2,1300(sp)
  803468:	100f883a 	mov	r7,r2
  80346c:	103f750e 	bge	r2,zero,803244 <___vfprintf_internal_r+0x1bc0>
  803470:	003fa806 	br	803314 <___vfprintf_internal_r+0x1c90>
  803474:	80c00c04 	addi	r3,r16,48
  803478:	00800c04 	movi	r2,48
  80347c:	d8c008c5 	stb	r3,35(sp)
  803480:	d9800804 	addi	r6,sp,32
  803484:	d8c00904 	addi	r3,sp,36
  803488:	d8800885 	stb	r2,34(sp)
  80348c:	003f6506 	br	803224 <___vfprintf_internal_r+0x1ba0>
  803490:	d9014c17 	ldw	r4,1328(sp)
  803494:	2084703a 	and	r2,r4,r2
  803498:	103f9c26 	beq	r2,zero,80330c <___vfprintf_internal_r+0x1c88>
  80349c:	003f6606 	br	803238 <___vfprintf_internal_r+0x1bb4>
  8034a0:	d9800804 	addi	r6,sp,32
  8034a4:	d8c00884 	addi	r3,sp,34
  8034a8:	003f5e06 	br	803224 <___vfprintf_internal_r+0x1ba0>
  8034ac:	00800b44 	movi	r2,45
  8034b0:	0121c83a 	sub	r16,zero,r4
  8034b4:	d8800845 	stb	r2,33(sp)
  8034b8:	003f3d06 	br	8031b0 <___vfprintf_internal_r+0x1b2c>
  8034bc:	00800084 	movi	r2,2
  8034c0:	1105c83a 	sub	r2,r2,r4
  8034c4:	003fe606 	br	803460 <___vfprintf_internal_r+0x1ddc>
  8034c8:	d8014515 	stw	zero,1300(sp)
  8034cc:	dc814715 	stw	r18,1308(sp)
  8034d0:	003fb106 	br	803398 <___vfprintf_internal_r+0x1d14>
  8034d4:	000d883a 	mov	r6,zero
  8034d8:	000f883a 	mov	r7,zero
  8034dc:	8009883a 	mov	r4,r16
  8034e0:	880b883a 	mov	r5,r17
  8034e4:	080a1380 	call	80a138 <__nedf2>
  8034e8:	103f9f26 	beq	r2,zero,803368 <___vfprintf_internal_r+0x1ce4>
  8034ec:	00800044 	movi	r2,1
  8034f0:	1509c83a 	sub	r4,r2,r20
  8034f4:	d9000515 	stw	r4,20(sp)
  8034f8:	003f9b06 	br	803368 <___vfprintf_internal_r+0x1ce4>
  8034fc:	98000d1e 	bne	r19,zero,803534 <___vfprintf_internal_r+0x1eb0>
  803500:	d8c14c17 	ldw	r3,1328(sp)
  803504:	1880004c 	andi	r2,r3,1
  803508:	10000a1e 	bne	r2,zero,803534 <___vfprintf_internal_r+0x1eb0>
  80350c:	01000044 	movi	r4,1
  803510:	200f883a 	mov	r7,r4
  803514:	d9014515 	stw	r4,1300(sp)
  803518:	003f4a06 	br	803244 <___vfprintf_internal_r+0x1bc0>
  80351c:	3cc00017 	ldw	r19,0(r7)
  803520:	39c00104 	addi	r7,r7,4
  803524:	983d0e0e 	bge	r19,zero,802960 <___vfprintf_internal_r+0x12dc>
  803528:	b8c00007 	ldb	r3,0(r23)
  80352c:	04ffffc4 	movi	r19,-1
  803530:	0038d306 	br	801880 <___vfprintf_internal_r+0x1fc>
  803534:	9cc00084 	addi	r19,r19,2
  803538:	dcc14515 	stw	r19,1300(sp)
  80353c:	980f883a 	mov	r7,r19
  803540:	983f400e 	bge	r19,zero,803244 <___vfprintf_internal_r+0x1bc0>
  803544:	003f7306 	br	803314 <___vfprintf_internal_r+0x1c90>

00803548 <__vfprintf_internal>:
  803548:	00802074 	movhi	r2,129
  80354c:	1092dd04 	addi	r2,r2,19316
  803550:	2013883a 	mov	r9,r4
  803554:	11000017 	ldw	r4,0(r2)
  803558:	2805883a 	mov	r2,r5
  80355c:	300f883a 	mov	r7,r6
  803560:	480b883a 	mov	r5,r9
  803564:	100d883a 	mov	r6,r2
  803568:	08016841 	jmpi	801684 <___vfprintf_internal_r>

0080356c <__swsetup_r>:
  80356c:	00802074 	movhi	r2,129
  803570:	1092dd04 	addi	r2,r2,19316
  803574:	10c00017 	ldw	r3,0(r2)
  803578:	defffd04 	addi	sp,sp,-12
  80357c:	dc400115 	stw	r17,4(sp)
  803580:	dc000015 	stw	r16,0(sp)
  803584:	dfc00215 	stw	ra,8(sp)
  803588:	2023883a 	mov	r17,r4
  80358c:	2821883a 	mov	r16,r5
  803590:	18000226 	beq	r3,zero,80359c <__swsetup_r+0x30>
  803594:	18800e17 	ldw	r2,56(r3)
  803598:	10001f26 	beq	r2,zero,803618 <__swsetup_r+0xac>
  80359c:	8100030b 	ldhu	r4,12(r16)
  8035a0:	2080020c 	andi	r2,r4,8
  8035a4:	10002826 	beq	r2,zero,803648 <__swsetup_r+0xdc>
  8035a8:	81400417 	ldw	r5,16(r16)
  8035ac:	28001d26 	beq	r5,zero,803624 <__swsetup_r+0xb8>
  8035b0:	2080004c 	andi	r2,r4,1
  8035b4:	1005003a 	cmpeq	r2,r2,zero
  8035b8:	10000b26 	beq	r2,zero,8035e8 <__swsetup_r+0x7c>
  8035bc:	2080008c 	andi	r2,r4,2
  8035c0:	10001226 	beq	r2,zero,80360c <__swsetup_r+0xa0>
  8035c4:	0005883a 	mov	r2,zero
  8035c8:	80800215 	stw	r2,8(r16)
  8035cc:	28000b26 	beq	r5,zero,8035fc <__swsetup_r+0x90>
  8035d0:	0005883a 	mov	r2,zero
  8035d4:	dfc00217 	ldw	ra,8(sp)
  8035d8:	dc400117 	ldw	r17,4(sp)
  8035dc:	dc000017 	ldw	r16,0(sp)
  8035e0:	dec00304 	addi	sp,sp,12
  8035e4:	f800283a 	ret
  8035e8:	80800517 	ldw	r2,20(r16)
  8035ec:	80000215 	stw	zero,8(r16)
  8035f0:	0085c83a 	sub	r2,zero,r2
  8035f4:	80800615 	stw	r2,24(r16)
  8035f8:	283ff51e 	bne	r5,zero,8035d0 <__swsetup_r+0x64>
  8035fc:	2080200c 	andi	r2,r4,128
  803600:	103ff326 	beq	r2,zero,8035d0 <__swsetup_r+0x64>
  803604:	00bfffc4 	movi	r2,-1
  803608:	003ff206 	br	8035d4 <__swsetup_r+0x68>
  80360c:	80800517 	ldw	r2,20(r16)
  803610:	80800215 	stw	r2,8(r16)
  803614:	003fed06 	br	8035cc <__swsetup_r+0x60>
  803618:	1809883a 	mov	r4,r3
  80361c:	08051380 	call	805138 <__sinit>
  803620:	003fde06 	br	80359c <__swsetup_r+0x30>
  803624:	20c0a00c 	andi	r3,r4,640
  803628:	00808004 	movi	r2,512
  80362c:	18bfe026 	beq	r3,r2,8035b0 <__swsetup_r+0x44>
  803630:	8809883a 	mov	r4,r17
  803634:	800b883a 	mov	r5,r16
  803638:	0805ee40 	call	805ee4 <__smakebuf_r>
  80363c:	8100030b 	ldhu	r4,12(r16)
  803640:	81400417 	ldw	r5,16(r16)
  803644:	003fda06 	br	8035b0 <__swsetup_r+0x44>
  803648:	2080040c 	andi	r2,r4,16
  80364c:	103fed26 	beq	r2,zero,803604 <__swsetup_r+0x98>
  803650:	2080010c 	andi	r2,r4,4
  803654:	10001226 	beq	r2,zero,8036a0 <__swsetup_r+0x134>
  803658:	81400c17 	ldw	r5,48(r16)
  80365c:	28000526 	beq	r5,zero,803674 <__swsetup_r+0x108>
  803660:	80801004 	addi	r2,r16,64
  803664:	28800226 	beq	r5,r2,803670 <__swsetup_r+0x104>
  803668:	8809883a 	mov	r4,r17
  80366c:	08054f00 	call	8054f0 <_free_r>
  803670:	80000c15 	stw	zero,48(r16)
  803674:	8080030b 	ldhu	r2,12(r16)
  803678:	81400417 	ldw	r5,16(r16)
  80367c:	80000115 	stw	zero,4(r16)
  803680:	10bff6cc 	andi	r2,r2,65499
  803684:	8080030d 	sth	r2,12(r16)
  803688:	81400015 	stw	r5,0(r16)
  80368c:	8080030b 	ldhu	r2,12(r16)
  803690:	10800214 	ori	r2,r2,8
  803694:	113fffcc 	andi	r4,r2,65535
  803698:	8080030d 	sth	r2,12(r16)
  80369c:	003fc306 	br	8035ac <__swsetup_r+0x40>
  8036a0:	81400417 	ldw	r5,16(r16)
  8036a4:	003ff906 	br	80368c <__swsetup_r+0x120>

008036a8 <quorem>:
  8036a8:	28c00417 	ldw	r3,16(r5)
  8036ac:	20800417 	ldw	r2,16(r4)
  8036b0:	defff104 	addi	sp,sp,-60
  8036b4:	dfc00e15 	stw	ra,56(sp)
  8036b8:	df000d15 	stw	fp,52(sp)
  8036bc:	ddc00c15 	stw	r23,48(sp)
  8036c0:	dd800b15 	stw	r22,44(sp)
  8036c4:	dd400a15 	stw	r21,40(sp)
  8036c8:	dd000915 	stw	r20,36(sp)
  8036cc:	dcc00815 	stw	r19,32(sp)
  8036d0:	dc800715 	stw	r18,28(sp)
  8036d4:	dc400615 	stw	r17,24(sp)
  8036d8:	dc000515 	stw	r16,20(sp)
  8036dc:	d9000315 	stw	r4,12(sp)
  8036e0:	d9400415 	stw	r5,16(sp)
  8036e4:	10c07f16 	blt	r2,r3,8038e4 <quorem+0x23c>
  8036e8:	1d3fffc4 	addi	r20,r3,-1
  8036ec:	d8c00417 	ldw	r3,16(sp)
  8036f0:	d9000317 	ldw	r4,12(sp)
  8036f4:	a505883a 	add	r2,r20,r20
  8036f8:	1085883a 	add	r2,r2,r2
  8036fc:	1cc00504 	addi	r19,r3,20
  803700:	25c00504 	addi	r23,r4,20
  803704:	98ad883a 	add	r22,r19,r2
  803708:	15c7883a 	add	r3,r2,r23
  80370c:	b1400017 	ldw	r5,0(r22)
  803710:	19000017 	ldw	r4,0(r3)
  803714:	d8c00015 	stw	r3,0(sp)
  803718:	29400044 	addi	r5,r5,1
  80371c:	d9000215 	stw	r4,8(sp)
  803720:	080a7f80 	call	80a7f8 <__udivsi3>
  803724:	1039883a 	mov	fp,r2
  803728:	10003d1e 	bne	r2,zero,803820 <quorem+0x178>
  80372c:	d9400417 	ldw	r5,16(sp)
  803730:	d9000317 	ldw	r4,12(sp)
  803734:	0806c100 	call	806c10 <__mcmp>
  803738:	10002c16 	blt	r2,zero,8037ec <quorem+0x144>
  80373c:	e7000044 	addi	fp,fp,1
  803740:	b80f883a 	mov	r7,r23
  803744:	0011883a 	mov	r8,zero
  803748:	0009883a 	mov	r4,zero
  80374c:	99400017 	ldw	r5,0(r19)
  803750:	38c00017 	ldw	r3,0(r7)
  803754:	9cc00104 	addi	r19,r19,4
  803758:	28bfffcc 	andi	r2,r5,65535
  80375c:	2085883a 	add	r2,r4,r2
  803760:	11bfffcc 	andi	r6,r2,65535
  803764:	193fffcc 	andi	r4,r3,65535
  803768:	1004d43a 	srli	r2,r2,16
  80376c:	280ad43a 	srli	r5,r5,16
  803770:	2189c83a 	sub	r4,r4,r6
  803774:	2209883a 	add	r4,r4,r8
  803778:	1806d43a 	srli	r3,r3,16
  80377c:	288b883a 	add	r5,r5,r2
  803780:	200dd43a 	srai	r6,r4,16
  803784:	28bfffcc 	andi	r2,r5,65535
  803788:	1887c83a 	sub	r3,r3,r2
  80378c:	1987883a 	add	r3,r3,r6
  803790:	3900000d 	sth	r4,0(r7)
  803794:	38c0008d 	sth	r3,2(r7)
  803798:	2808d43a 	srli	r4,r5,16
  80379c:	39c00104 	addi	r7,r7,4
  8037a0:	1811d43a 	srai	r8,r3,16
  8037a4:	b4ffe92e 	bgeu	r22,r19,80374c <quorem+0xa4>
  8037a8:	a505883a 	add	r2,r20,r20
  8037ac:	1085883a 	add	r2,r2,r2
  8037b0:	b885883a 	add	r2,r23,r2
  8037b4:	10c00017 	ldw	r3,0(r2)
  8037b8:	18000c1e 	bne	r3,zero,8037ec <quorem+0x144>
  8037bc:	113fff04 	addi	r4,r2,-4
  8037c0:	b900082e 	bgeu	r23,r4,8037e4 <quorem+0x13c>
  8037c4:	10bfff17 	ldw	r2,-4(r2)
  8037c8:	10000326 	beq	r2,zero,8037d8 <quorem+0x130>
  8037cc:	00000506 	br	8037e4 <quorem+0x13c>
  8037d0:	20800017 	ldw	r2,0(r4)
  8037d4:	1000031e 	bne	r2,zero,8037e4 <quorem+0x13c>
  8037d8:	213fff04 	addi	r4,r4,-4
  8037dc:	a53fffc4 	addi	r20,r20,-1
  8037e0:	b93ffb36 	bltu	r23,r4,8037d0 <quorem+0x128>
  8037e4:	d9000317 	ldw	r4,12(sp)
  8037e8:	25000415 	stw	r20,16(r4)
  8037ec:	e005883a 	mov	r2,fp
  8037f0:	dfc00e17 	ldw	ra,56(sp)
  8037f4:	df000d17 	ldw	fp,52(sp)
  8037f8:	ddc00c17 	ldw	r23,48(sp)
  8037fc:	dd800b17 	ldw	r22,44(sp)
  803800:	dd400a17 	ldw	r21,40(sp)
  803804:	dd000917 	ldw	r20,36(sp)
  803808:	dcc00817 	ldw	r19,32(sp)
  80380c:	dc800717 	ldw	r18,28(sp)
  803810:	dc400617 	ldw	r17,24(sp)
  803814:	dc000517 	ldw	r16,20(sp)
  803818:	dec00f04 	addi	sp,sp,60
  80381c:	f800283a 	ret
  803820:	b823883a 	mov	r17,r23
  803824:	9825883a 	mov	r18,r19
  803828:	d8000115 	stw	zero,4(sp)
  80382c:	002b883a 	mov	r21,zero
  803830:	94000017 	ldw	r16,0(r18)
  803834:	e009883a 	mov	r4,fp
  803838:	94800104 	addi	r18,r18,4
  80383c:	817fffcc 	andi	r5,r16,65535
  803840:	08014540 	call	801454 <__mulsi3>
  803844:	800ad43a 	srli	r5,r16,16
  803848:	e009883a 	mov	r4,fp
  80384c:	a8a1883a 	add	r16,r21,r2
  803850:	08014540 	call	801454 <__mulsi3>
  803854:	89000017 	ldw	r4,0(r17)
  803858:	80ffffcc 	andi	r3,r16,65535
  80385c:	8020d43a 	srli	r16,r16,16
  803860:	217fffcc 	andi	r5,r4,65535
  803864:	28cbc83a 	sub	r5,r5,r3
  803868:	d8c00117 	ldw	r3,4(sp)
  80386c:	2008d43a 	srli	r4,r4,16
  803870:	1405883a 	add	r2,r2,r16
  803874:	28cb883a 	add	r5,r5,r3
  803878:	280dd43a 	srai	r6,r5,16
  80387c:	10ffffcc 	andi	r3,r2,65535
  803880:	20c9c83a 	sub	r4,r4,r3
  803884:	2189883a 	add	r4,r4,r6
  803888:	8900008d 	sth	r4,2(r17)
  80388c:	2009d43a 	srai	r4,r4,16
  803890:	8940000d 	sth	r5,0(r17)
  803894:	102ad43a 	srli	r21,r2,16
  803898:	8c400104 	addi	r17,r17,4
  80389c:	d9000115 	stw	r4,4(sp)
  8038a0:	b4bfe32e 	bgeu	r22,r18,803830 <quorem+0x188>
  8038a4:	d9000217 	ldw	r4,8(sp)
  8038a8:	203fa01e 	bne	r4,zero,80372c <quorem+0x84>
  8038ac:	d8800017 	ldw	r2,0(sp)
  8038b0:	10ffff04 	addi	r3,r2,-4
  8038b4:	b8c0082e 	bgeu	r23,r3,8038d8 <quorem+0x230>
  8038b8:	10bfff17 	ldw	r2,-4(r2)
  8038bc:	10000326 	beq	r2,zero,8038cc <quorem+0x224>
  8038c0:	00000506 	br	8038d8 <quorem+0x230>
  8038c4:	18800017 	ldw	r2,0(r3)
  8038c8:	1000031e 	bne	r2,zero,8038d8 <quorem+0x230>
  8038cc:	18ffff04 	addi	r3,r3,-4
  8038d0:	a53fffc4 	addi	r20,r20,-1
  8038d4:	b8fffb36 	bltu	r23,r3,8038c4 <quorem+0x21c>
  8038d8:	d8c00317 	ldw	r3,12(sp)
  8038dc:	1d000415 	stw	r20,16(r3)
  8038e0:	003f9206 	br	80372c <quorem+0x84>
  8038e4:	0005883a 	mov	r2,zero
  8038e8:	003fc106 	br	8037f0 <quorem+0x148>

008038ec <_dtoa_r>:
  8038ec:	22001017 	ldw	r8,64(r4)
  8038f0:	deffda04 	addi	sp,sp,-152
  8038f4:	dd402115 	stw	r21,132(sp)
  8038f8:	dd002015 	stw	r20,128(sp)
  8038fc:	dc801e15 	stw	r18,120(sp)
  803900:	dc401d15 	stw	r17,116(sp)
  803904:	dfc02515 	stw	ra,148(sp)
  803908:	df002415 	stw	fp,144(sp)
  80390c:	ddc02315 	stw	r23,140(sp)
  803910:	dd802215 	stw	r22,136(sp)
  803914:	dcc01f15 	stw	r19,124(sp)
  803918:	dc001c15 	stw	r16,112(sp)
  80391c:	d9001615 	stw	r4,88(sp)
  803920:	3023883a 	mov	r17,r6
  803924:	2829883a 	mov	r20,r5
  803928:	d9c01715 	stw	r7,92(sp)
  80392c:	dc802817 	ldw	r18,160(sp)
  803930:	302b883a 	mov	r21,r6
  803934:	40000a26 	beq	r8,zero,803960 <_dtoa_r+0x74>
  803938:	20801117 	ldw	r2,68(r4)
  80393c:	400b883a 	mov	r5,r8
  803940:	40800115 	stw	r2,4(r8)
  803944:	20c01117 	ldw	r3,68(r4)
  803948:	00800044 	movi	r2,1
  80394c:	10c4983a 	sll	r2,r2,r3
  803950:	40800215 	stw	r2,8(r8)
  803954:	0806ab40 	call	806ab4 <_Bfree>
  803958:	d8c01617 	ldw	r3,88(sp)
  80395c:	18001015 	stw	zero,64(r3)
  803960:	8800a316 	blt	r17,zero,803bf0 <_dtoa_r+0x304>
  803964:	90000015 	stw	zero,0(r18)
  803968:	a8dffc2c 	andhi	r3,r21,32752
  80396c:	009ffc34 	movhi	r2,32752
  803970:	18809126 	beq	r3,r2,803bb8 <_dtoa_r+0x2cc>
  803974:	000d883a 	mov	r6,zero
  803978:	000f883a 	mov	r7,zero
  80397c:	a009883a 	mov	r4,r20
  803980:	a80b883a 	mov	r5,r21
  803984:	dd001215 	stw	r20,72(sp)
  803988:	dd401315 	stw	r21,76(sp)
  80398c:	080a1380 	call	80a138 <__nedf2>
  803990:	1000171e 	bne	r2,zero,8039f0 <_dtoa_r+0x104>
  803994:	d9802717 	ldw	r6,156(sp)
  803998:	00800044 	movi	r2,1
  80399c:	30800015 	stw	r2,0(r6)
  8039a0:	d8802917 	ldw	r2,164(sp)
  8039a4:	10029b26 	beq	r2,zero,804414 <_dtoa_r+0xb28>
  8039a8:	d9002917 	ldw	r4,164(sp)
  8039ac:	00802074 	movhi	r2,129
  8039b0:	108aa544 	addi	r2,r2,10901
  8039b4:	10ffffc4 	addi	r3,r2,-1
  8039b8:	20800015 	stw	r2,0(r4)
  8039bc:	1805883a 	mov	r2,r3
  8039c0:	dfc02517 	ldw	ra,148(sp)
  8039c4:	df002417 	ldw	fp,144(sp)
  8039c8:	ddc02317 	ldw	r23,140(sp)
  8039cc:	dd802217 	ldw	r22,136(sp)
  8039d0:	dd402117 	ldw	r21,132(sp)
  8039d4:	dd002017 	ldw	r20,128(sp)
  8039d8:	dcc01f17 	ldw	r19,124(sp)
  8039dc:	dc801e17 	ldw	r18,120(sp)
  8039e0:	dc401d17 	ldw	r17,116(sp)
  8039e4:	dc001c17 	ldw	r16,112(sp)
  8039e8:	dec02604 	addi	sp,sp,152
  8039ec:	f800283a 	ret
  8039f0:	d9001617 	ldw	r4,88(sp)
  8039f4:	d9401217 	ldw	r5,72(sp)
  8039f8:	d8800104 	addi	r2,sp,4
  8039fc:	a80d883a 	mov	r6,r21
  803a00:	d9c00204 	addi	r7,sp,8
  803a04:	d8800015 	stw	r2,0(sp)
  803a08:	08070f00 	call	8070f0 <__d2b>
  803a0c:	d8800715 	stw	r2,28(sp)
  803a10:	a804d53a 	srli	r2,r21,20
  803a14:	1101ffcc 	andi	r4,r2,2047
  803a18:	20008626 	beq	r4,zero,803c34 <_dtoa_r+0x348>
  803a1c:	d8c01217 	ldw	r3,72(sp)
  803a20:	00800434 	movhi	r2,16
  803a24:	10bfffc4 	addi	r2,r2,-1
  803a28:	ddc00117 	ldw	r23,4(sp)
  803a2c:	a884703a 	and	r2,r21,r2
  803a30:	1811883a 	mov	r8,r3
  803a34:	124ffc34 	orhi	r9,r2,16368
  803a38:	25bf0044 	addi	r22,r4,-1023
  803a3c:	d8000815 	stw	zero,32(sp)
  803a40:	0005883a 	mov	r2,zero
  803a44:	00cffe34 	movhi	r3,16376
  803a48:	480b883a 	mov	r5,r9
  803a4c:	4009883a 	mov	r4,r8
  803a50:	180f883a 	mov	r7,r3
  803a54:	100d883a 	mov	r6,r2
  803a58:	08099a00 	call	8099a0 <__subdf3>
  803a5c:	0218dbf4 	movhi	r8,25455
  803a60:	4210d844 	addi	r8,r8,17249
  803a64:	024ff4f4 	movhi	r9,16339
  803a68:	4a61e9c4 	addi	r9,r9,-30809
  803a6c:	480f883a 	mov	r7,r9
  803a70:	400d883a 	mov	r6,r8
  803a74:	180b883a 	mov	r5,r3
  803a78:	1009883a 	mov	r4,r2
  803a7c:	0809a940 	call	809a94 <__muldf3>
  803a80:	0222d874 	movhi	r8,35681
  803a84:	42322cc4 	addi	r8,r8,-14157
  803a88:	024ff1f4 	movhi	r9,16327
  803a8c:	4a628a04 	addi	r9,r9,-30168
  803a90:	480f883a 	mov	r7,r9
  803a94:	400d883a 	mov	r6,r8
  803a98:	180b883a 	mov	r5,r3
  803a9c:	1009883a 	mov	r4,r2
  803aa0:	0809a200 	call	809a20 <__adddf3>
  803aa4:	b009883a 	mov	r4,r22
  803aa8:	1021883a 	mov	r16,r2
  803aac:	1823883a 	mov	r17,r3
  803ab0:	080a3580 	call	80a358 <__floatsidf>
  803ab4:	021427f4 	movhi	r8,20639
  803ab8:	421e7ec4 	addi	r8,r8,31227
  803abc:	024ff4f4 	movhi	r9,16339
  803ac0:	4a5104c4 	addi	r9,r9,17427
  803ac4:	480f883a 	mov	r7,r9
  803ac8:	400d883a 	mov	r6,r8
  803acc:	180b883a 	mov	r5,r3
  803ad0:	1009883a 	mov	r4,r2
  803ad4:	0809a940 	call	809a94 <__muldf3>
  803ad8:	180f883a 	mov	r7,r3
  803adc:	880b883a 	mov	r5,r17
  803ae0:	100d883a 	mov	r6,r2
  803ae4:	8009883a 	mov	r4,r16
  803ae8:	0809a200 	call	809a20 <__adddf3>
  803aec:	1009883a 	mov	r4,r2
  803af0:	180b883a 	mov	r5,r3
  803af4:	1021883a 	mov	r16,r2
  803af8:	1823883a 	mov	r17,r3
  803afc:	080a4500 	call	80a450 <__fixdfsi>
  803b00:	000d883a 	mov	r6,zero
  803b04:	000f883a 	mov	r7,zero
  803b08:	8009883a 	mov	r4,r16
  803b0c:	880b883a 	mov	r5,r17
  803b10:	d8800d15 	stw	r2,52(sp)
  803b14:	080a2d00 	call	80a2d0 <__ltdf2>
  803b18:	10031716 	blt	r2,zero,804778 <_dtoa_r+0xe8c>
  803b1c:	d8c00d17 	ldw	r3,52(sp)
  803b20:	00800584 	movi	r2,22
  803b24:	10c1482e 	bgeu	r2,r3,804048 <_dtoa_r+0x75c>
  803b28:	01000044 	movi	r4,1
  803b2c:	d9000c15 	stw	r4,48(sp)
  803b30:	bd85c83a 	sub	r2,r23,r22
  803b34:	11bfffc4 	addi	r6,r2,-1
  803b38:	30030b16 	blt	r6,zero,804768 <_dtoa_r+0xe7c>
  803b3c:	d9800a15 	stw	r6,40(sp)
  803b40:	d8001115 	stw	zero,68(sp)
  803b44:	d8c00d17 	ldw	r3,52(sp)
  803b48:	1802ff16 	blt	r3,zero,804748 <_dtoa_r+0xe5c>
  803b4c:	d9000a17 	ldw	r4,40(sp)
  803b50:	d8c00915 	stw	r3,36(sp)
  803b54:	d8001015 	stw	zero,64(sp)
  803b58:	20c9883a 	add	r4,r4,r3
  803b5c:	d9000a15 	stw	r4,40(sp)
  803b60:	d9001717 	ldw	r4,92(sp)
  803b64:	00800244 	movi	r2,9
  803b68:	11004636 	bltu	r2,r4,803c84 <_dtoa_r+0x398>
  803b6c:	00800144 	movi	r2,5
  803b70:	11020416 	blt	r2,r4,804384 <_dtoa_r+0xa98>
  803b74:	04400044 	movi	r17,1
  803b78:	d8c01717 	ldw	r3,92(sp)
  803b7c:	00800144 	movi	r2,5
  803b80:	10c1ed36 	bltu	r2,r3,804338 <_dtoa_r+0xa4c>
  803b84:	18c5883a 	add	r2,r3,r3
  803b88:	1085883a 	add	r2,r2,r2
  803b8c:	00c02034 	movhi	r3,128
  803b90:	18cee804 	addi	r3,r3,15264
  803b94:	10c5883a 	add	r2,r2,r3
  803b98:	11000017 	ldw	r4,0(r2)
  803b9c:	2000683a 	jmp	r4
  803ba0:	00803c8c 	andi	r2,zero,242
  803ba4:	00803c8c 	andi	r2,zero,242
  803ba8:	0080468c 	andi	r2,zero,282
  803bac:	00804664 	muli	r2,zero,281
  803bb0:	008046a8 	cmpgeui	r2,zero,282
  803bb4:	008046b4 	movhi	r2,282
  803bb8:	d9002717 	ldw	r4,156(sp)
  803bbc:	0089c3c4 	movi	r2,9999
  803bc0:	20800015 	stw	r2,0(r4)
  803bc4:	a0001026 	beq	r20,zero,803c08 <_dtoa_r+0x31c>
  803bc8:	00c02074 	movhi	r3,129
  803bcc:	18cab104 	addi	r3,r3,10948
  803bd0:	d9802917 	ldw	r6,164(sp)
  803bd4:	303f7926 	beq	r6,zero,8039bc <_dtoa_r+0xd0>
  803bd8:	188000c7 	ldb	r2,3(r3)
  803bdc:	190000c4 	addi	r4,r3,3
  803be0:	1000101e 	bne	r2,zero,803c24 <_dtoa_r+0x338>
  803be4:	d8802917 	ldw	r2,164(sp)
  803be8:	11000015 	stw	r4,0(r2)
  803bec:	003f7306 	br	8039bc <_dtoa_r+0xd0>
  803bf0:	00a00034 	movhi	r2,32768
  803bf4:	10bfffc4 	addi	r2,r2,-1
  803bf8:	00c00044 	movi	r3,1
  803bfc:	88aa703a 	and	r21,r17,r2
  803c00:	90c00015 	stw	r3,0(r18)
  803c04:	003f5806 	br	803968 <_dtoa_r+0x7c>
  803c08:	00800434 	movhi	r2,16
  803c0c:	10bfffc4 	addi	r2,r2,-1
  803c10:	a884703a 	and	r2,r21,r2
  803c14:	103fec1e 	bne	r2,zero,803bc8 <_dtoa_r+0x2dc>
  803c18:	00c02074 	movhi	r3,129
  803c1c:	18caae04 	addi	r3,r3,10936
  803c20:	003feb06 	br	803bd0 <_dtoa_r+0x2e4>
  803c24:	d8802917 	ldw	r2,164(sp)
  803c28:	19000204 	addi	r4,r3,8
  803c2c:	11000015 	stw	r4,0(r2)
  803c30:	003f6206 	br	8039bc <_dtoa_r+0xd0>
  803c34:	ddc00117 	ldw	r23,4(sp)
  803c38:	d8800217 	ldw	r2,8(sp)
  803c3c:	01000804 	movi	r4,32
  803c40:	b8c10c84 	addi	r3,r23,1074
  803c44:	18a3883a 	add	r17,r3,r2
  803c48:	2441b80e 	bge	r4,r17,80432c <_dtoa_r+0xa40>
  803c4c:	00c01004 	movi	r3,64
  803c50:	1c47c83a 	sub	r3,r3,r17
  803c54:	88bff804 	addi	r2,r17,-32
  803c58:	a8c6983a 	sll	r3,r21,r3
  803c5c:	a084d83a 	srl	r2,r20,r2
  803c60:	1888b03a 	or	r4,r3,r2
  803c64:	080a5280 	call	80a528 <__floatunsidf>
  803c68:	1011883a 	mov	r8,r2
  803c6c:	00bf8434 	movhi	r2,65040
  803c70:	01000044 	movi	r4,1
  803c74:	10d3883a 	add	r9,r2,r3
  803c78:	8dbef344 	addi	r22,r17,-1075
  803c7c:	d9000815 	stw	r4,32(sp)
  803c80:	003f6f06 	br	803a40 <_dtoa_r+0x154>
  803c84:	d8001715 	stw	zero,92(sp)
  803c88:	04400044 	movi	r17,1
  803c8c:	00bfffc4 	movi	r2,-1
  803c90:	00c00044 	movi	r3,1
  803c94:	d8800e15 	stw	r2,56(sp)
  803c98:	d8002615 	stw	zero,152(sp)
  803c9c:	d8800f15 	stw	r2,60(sp)
  803ca0:	d8c00b15 	stw	r3,44(sp)
  803ca4:	1021883a 	mov	r16,r2
  803ca8:	d8801617 	ldw	r2,88(sp)
  803cac:	10001115 	stw	zero,68(r2)
  803cb0:	d8801617 	ldw	r2,88(sp)
  803cb4:	11401117 	ldw	r5,68(r2)
  803cb8:	1009883a 	mov	r4,r2
  803cbc:	08070340 	call	807034 <_Balloc>
  803cc0:	d8c01617 	ldw	r3,88(sp)
  803cc4:	d8800515 	stw	r2,20(sp)
  803cc8:	18801015 	stw	r2,64(r3)
  803ccc:	00800384 	movi	r2,14
  803cd0:	14006836 	bltu	r2,r16,803e74 <_dtoa_r+0x588>
  803cd4:	8805003a 	cmpeq	r2,r17,zero
  803cd8:	1000661e 	bne	r2,zero,803e74 <_dtoa_r+0x588>
  803cdc:	d9000d17 	ldw	r4,52(sp)
  803ce0:	0102300e 	bge	zero,r4,8045a4 <_dtoa_r+0xcb8>
  803ce4:	208003cc 	andi	r2,r4,15
  803ce8:	100490fa 	slli	r2,r2,3
  803cec:	2025d13a 	srai	r18,r4,4
  803cf0:	00c02074 	movhi	r3,129
  803cf4:	18cac304 	addi	r3,r3,11020
  803cf8:	10c5883a 	add	r2,r2,r3
  803cfc:	90c0040c 	andi	r3,r18,16
  803d00:	14000017 	ldw	r16,0(r2)
  803d04:	14400117 	ldw	r17,4(r2)
  803d08:	18036a1e 	bne	r3,zero,804ab4 <_dtoa_r+0x11c8>
  803d0c:	05800084 	movi	r22,2
  803d10:	90001026 	beq	r18,zero,803d54 <_dtoa_r+0x468>
  803d14:	04c02074 	movhi	r19,129
  803d18:	9ccaf504 	addi	r19,r19,11220
  803d1c:	9080004c 	andi	r2,r18,1
  803d20:	1005003a 	cmpeq	r2,r2,zero
  803d24:	1000081e 	bne	r2,zero,803d48 <_dtoa_r+0x45c>
  803d28:	99800017 	ldw	r6,0(r19)
  803d2c:	99c00117 	ldw	r7,4(r19)
  803d30:	880b883a 	mov	r5,r17
  803d34:	8009883a 	mov	r4,r16
  803d38:	0809a940 	call	809a94 <__muldf3>
  803d3c:	1021883a 	mov	r16,r2
  803d40:	b5800044 	addi	r22,r22,1
  803d44:	1823883a 	mov	r17,r3
  803d48:	9025d07a 	srai	r18,r18,1
  803d4c:	9cc00204 	addi	r19,r19,8
  803d50:	903ff21e 	bne	r18,zero,803d1c <_dtoa_r+0x430>
  803d54:	a80b883a 	mov	r5,r21
  803d58:	a009883a 	mov	r4,r20
  803d5c:	880f883a 	mov	r7,r17
  803d60:	800d883a 	mov	r6,r16
  803d64:	0809e580 	call	809e58 <__divdf3>
  803d68:	1029883a 	mov	r20,r2
  803d6c:	182b883a 	mov	r21,r3
  803d70:	d8c00c17 	ldw	r3,48(sp)
  803d74:	1805003a 	cmpeq	r2,r3,zero
  803d78:	1000081e 	bne	r2,zero,803d9c <_dtoa_r+0x4b0>
  803d7c:	0005883a 	mov	r2,zero
  803d80:	00cffc34 	movhi	r3,16368
  803d84:	180f883a 	mov	r7,r3
  803d88:	a009883a 	mov	r4,r20
  803d8c:	a80b883a 	mov	r5,r21
  803d90:	100d883a 	mov	r6,r2
  803d94:	080a2d00 	call	80a2d0 <__ltdf2>
  803d98:	1003fe16 	blt	r2,zero,804d94 <_dtoa_r+0x14a8>
  803d9c:	b009883a 	mov	r4,r22
  803da0:	080a3580 	call	80a358 <__floatsidf>
  803da4:	180b883a 	mov	r5,r3
  803da8:	1009883a 	mov	r4,r2
  803dac:	a00d883a 	mov	r6,r20
  803db0:	a80f883a 	mov	r7,r21
  803db4:	0809a940 	call	809a94 <__muldf3>
  803db8:	0011883a 	mov	r8,zero
  803dbc:	02500734 	movhi	r9,16412
  803dc0:	1009883a 	mov	r4,r2
  803dc4:	180b883a 	mov	r5,r3
  803dc8:	480f883a 	mov	r7,r9
  803dcc:	400d883a 	mov	r6,r8
  803dd0:	0809a200 	call	809a20 <__adddf3>
  803dd4:	d9000f17 	ldw	r4,60(sp)
  803dd8:	102d883a 	mov	r22,r2
  803ddc:	00bf3034 	movhi	r2,64704
  803de0:	18b9883a 	add	fp,r3,r2
  803de4:	e02f883a 	mov	r23,fp
  803de8:	20028f1e 	bne	r4,zero,804828 <_dtoa_r+0xf3c>
  803dec:	0005883a 	mov	r2,zero
  803df0:	00d00534 	movhi	r3,16404
  803df4:	a009883a 	mov	r4,r20
  803df8:	a80b883a 	mov	r5,r21
  803dfc:	180f883a 	mov	r7,r3
  803e00:	100d883a 	mov	r6,r2
  803e04:	08099a00 	call	8099a0 <__subdf3>
  803e08:	1009883a 	mov	r4,r2
  803e0c:	e00f883a 	mov	r7,fp
  803e10:	180b883a 	mov	r5,r3
  803e14:	b00d883a 	mov	r6,r22
  803e18:	1025883a 	mov	r18,r2
  803e1c:	1827883a 	mov	r19,r3
  803e20:	080a1c00 	call	80a1c0 <__gtdf2>
  803e24:	00834f16 	blt	zero,r2,804b64 <_dtoa_r+0x1278>
  803e28:	e0e0003c 	xorhi	r3,fp,32768
  803e2c:	9009883a 	mov	r4,r18
  803e30:	980b883a 	mov	r5,r19
  803e34:	180f883a 	mov	r7,r3
  803e38:	b00d883a 	mov	r6,r22
  803e3c:	080a2d00 	call	80a2d0 <__ltdf2>
  803e40:	1000080e 	bge	r2,zero,803e64 <_dtoa_r+0x578>
  803e44:	0027883a 	mov	r19,zero
  803e48:	0025883a 	mov	r18,zero
  803e4c:	d8802617 	ldw	r2,152(sp)
  803e50:	df000517 	ldw	fp,20(sp)
  803e54:	d8000615 	stw	zero,24(sp)
  803e58:	0084303a 	nor	r2,zero,r2
  803e5c:	d8800d15 	stw	r2,52(sp)
  803e60:	00019b06 	br	8044d0 <_dtoa_r+0xbe4>
  803e64:	d9801217 	ldw	r6,72(sp)
  803e68:	d8801317 	ldw	r2,76(sp)
  803e6c:	3029883a 	mov	r20,r6
  803e70:	102b883a 	mov	r21,r2
  803e74:	d8c00217 	ldw	r3,8(sp)
  803e78:	18008516 	blt	r3,zero,804090 <_dtoa_r+0x7a4>
  803e7c:	d9000d17 	ldw	r4,52(sp)
  803e80:	00800384 	movi	r2,14
  803e84:	11008216 	blt	r2,r4,804090 <_dtoa_r+0x7a4>
  803e88:	200490fa 	slli	r2,r4,3
  803e8c:	d9802617 	ldw	r6,152(sp)
  803e90:	00c02074 	movhi	r3,129
  803e94:	18cac304 	addi	r3,r3,11020
  803e98:	10c5883a 	add	r2,r2,r3
  803e9c:	14800017 	ldw	r18,0(r2)
  803ea0:	14c00117 	ldw	r19,4(r2)
  803ea4:	30031e16 	blt	r6,zero,804b20 <_dtoa_r+0x1234>
  803ea8:	d9000517 	ldw	r4,20(sp)
  803eac:	d8c00f17 	ldw	r3,60(sp)
  803eb0:	a823883a 	mov	r17,r21
  803eb4:	a021883a 	mov	r16,r20
  803eb8:	192b883a 	add	r21,r3,r4
  803ebc:	2039883a 	mov	fp,r4
  803ec0:	00000f06 	br	803f00 <_dtoa_r+0x614>
  803ec4:	0005883a 	mov	r2,zero
  803ec8:	00d00934 	movhi	r3,16420
  803ecc:	5009883a 	mov	r4,r10
  803ed0:	580b883a 	mov	r5,r11
  803ed4:	180f883a 	mov	r7,r3
  803ed8:	100d883a 	mov	r6,r2
  803edc:	0809a940 	call	809a94 <__muldf3>
  803ee0:	180b883a 	mov	r5,r3
  803ee4:	000d883a 	mov	r6,zero
  803ee8:	000f883a 	mov	r7,zero
  803eec:	1009883a 	mov	r4,r2
  803ef0:	1021883a 	mov	r16,r2
  803ef4:	1823883a 	mov	r17,r3
  803ef8:	080a1380 	call	80a138 <__nedf2>
  803efc:	10004526 	beq	r2,zero,804014 <_dtoa_r+0x728>
  803f00:	900d883a 	mov	r6,r18
  803f04:	980f883a 	mov	r7,r19
  803f08:	8009883a 	mov	r4,r16
  803f0c:	880b883a 	mov	r5,r17
  803f10:	0809e580 	call	809e58 <__divdf3>
  803f14:	180b883a 	mov	r5,r3
  803f18:	1009883a 	mov	r4,r2
  803f1c:	080a4500 	call	80a450 <__fixdfsi>
  803f20:	1009883a 	mov	r4,r2
  803f24:	1029883a 	mov	r20,r2
  803f28:	080a3580 	call	80a358 <__floatsidf>
  803f2c:	180f883a 	mov	r7,r3
  803f30:	9009883a 	mov	r4,r18
  803f34:	980b883a 	mov	r5,r19
  803f38:	100d883a 	mov	r6,r2
  803f3c:	0809a940 	call	809a94 <__muldf3>
  803f40:	180f883a 	mov	r7,r3
  803f44:	880b883a 	mov	r5,r17
  803f48:	8009883a 	mov	r4,r16
  803f4c:	100d883a 	mov	r6,r2
  803f50:	08099a00 	call	8099a0 <__subdf3>
  803f54:	1015883a 	mov	r10,r2
  803f58:	a0800c04 	addi	r2,r20,48
  803f5c:	e0800005 	stb	r2,0(fp)
  803f60:	e7000044 	addi	fp,fp,1
  803f64:	1817883a 	mov	r11,r3
  803f68:	e57fd61e 	bne	fp,r21,803ec4 <_dtoa_r+0x5d8>
  803f6c:	500d883a 	mov	r6,r10
  803f70:	180f883a 	mov	r7,r3
  803f74:	5009883a 	mov	r4,r10
  803f78:	180b883a 	mov	r5,r3
  803f7c:	0809a200 	call	809a20 <__adddf3>
  803f80:	100d883a 	mov	r6,r2
  803f84:	9009883a 	mov	r4,r18
  803f88:	980b883a 	mov	r5,r19
  803f8c:	180f883a 	mov	r7,r3
  803f90:	1021883a 	mov	r16,r2
  803f94:	1823883a 	mov	r17,r3
  803f98:	080a2d00 	call	80a2d0 <__ltdf2>
  803f9c:	10000816 	blt	r2,zero,803fc0 <_dtoa_r+0x6d4>
  803fa0:	980b883a 	mov	r5,r19
  803fa4:	800d883a 	mov	r6,r16
  803fa8:	880f883a 	mov	r7,r17
  803fac:	9009883a 	mov	r4,r18
  803fb0:	080a0b00 	call	80a0b0 <__eqdf2>
  803fb4:	1000171e 	bne	r2,zero,804014 <_dtoa_r+0x728>
  803fb8:	a080004c 	andi	r2,r20,1
  803fbc:	10001526 	beq	r2,zero,804014 <_dtoa_r+0x728>
  803fc0:	d8800d17 	ldw	r2,52(sp)
  803fc4:	d8800415 	stw	r2,16(sp)
  803fc8:	e009883a 	mov	r4,fp
  803fcc:	213fffc4 	addi	r4,r4,-1
  803fd0:	20c00007 	ldb	r3,0(r4)
  803fd4:	00800e44 	movi	r2,57
  803fd8:	1880081e 	bne	r3,r2,803ffc <_dtoa_r+0x710>
  803fdc:	d8800517 	ldw	r2,20(sp)
  803fe0:	113ffa1e 	bne	r2,r4,803fcc <_dtoa_r+0x6e0>
  803fe4:	d8c00417 	ldw	r3,16(sp)
  803fe8:	d9800517 	ldw	r6,20(sp)
  803fec:	00800c04 	movi	r2,48
  803ff0:	18c00044 	addi	r3,r3,1
  803ff4:	d8c00415 	stw	r3,16(sp)
  803ff8:	30800005 	stb	r2,0(r6)
  803ffc:	20800003 	ldbu	r2,0(r4)
  804000:	d8c00417 	ldw	r3,16(sp)
  804004:	27000044 	addi	fp,r4,1
  804008:	10800044 	addi	r2,r2,1
  80400c:	d8c00d15 	stw	r3,52(sp)
  804010:	20800005 	stb	r2,0(r4)
  804014:	d9001617 	ldw	r4,88(sp)
  804018:	d9400717 	ldw	r5,28(sp)
  80401c:	0806ab40 	call	806ab4 <_Bfree>
  804020:	e0000005 	stb	zero,0(fp)
  804024:	d9800d17 	ldw	r6,52(sp)
  804028:	d8c02717 	ldw	r3,156(sp)
  80402c:	d9002917 	ldw	r4,164(sp)
  804030:	30800044 	addi	r2,r6,1
  804034:	18800015 	stw	r2,0(r3)
  804038:	20029c26 	beq	r4,zero,804aac <_dtoa_r+0x11c0>
  80403c:	d8c00517 	ldw	r3,20(sp)
  804040:	27000015 	stw	fp,0(r4)
  804044:	003e5d06 	br	8039bc <_dtoa_r+0xd0>
  804048:	d9800d17 	ldw	r6,52(sp)
  80404c:	00c02074 	movhi	r3,129
  804050:	18cac304 	addi	r3,r3,11020
  804054:	d9001217 	ldw	r4,72(sp)
  804058:	300490fa 	slli	r2,r6,3
  80405c:	d9401317 	ldw	r5,76(sp)
  804060:	10c5883a 	add	r2,r2,r3
  804064:	12000017 	ldw	r8,0(r2)
  804068:	12400117 	ldw	r9,4(r2)
  80406c:	400d883a 	mov	r6,r8
  804070:	480f883a 	mov	r7,r9
  804074:	080a2d00 	call	80a2d0 <__ltdf2>
  804078:	1000030e 	bge	r2,zero,804088 <_dtoa_r+0x79c>
  80407c:	d8800d17 	ldw	r2,52(sp)
  804080:	10bfffc4 	addi	r2,r2,-1
  804084:	d8800d15 	stw	r2,52(sp)
  804088:	d8000c15 	stw	zero,48(sp)
  80408c:	003ea806 	br	803b30 <_dtoa_r+0x244>
  804090:	d9000b17 	ldw	r4,44(sp)
  804094:	202cc03a 	cmpne	r22,r4,zero
  804098:	b000c71e 	bne	r22,zero,8043b8 <_dtoa_r+0xacc>
  80409c:	dc001117 	ldw	r16,68(sp)
  8040a0:	dc801017 	ldw	r18,64(sp)
  8040a4:	0027883a 	mov	r19,zero
  8040a8:	04000b0e 	bge	zero,r16,8040d8 <_dtoa_r+0x7ec>
  8040ac:	d8c00a17 	ldw	r3,40(sp)
  8040b0:	00c0090e 	bge	zero,r3,8040d8 <_dtoa_r+0x7ec>
  8040b4:	8005883a 	mov	r2,r16
  8040b8:	1c011316 	blt	r3,r16,804508 <_dtoa_r+0xc1c>
  8040bc:	d9000a17 	ldw	r4,40(sp)
  8040c0:	d9801117 	ldw	r6,68(sp)
  8040c4:	80a1c83a 	sub	r16,r16,r2
  8040c8:	2089c83a 	sub	r4,r4,r2
  8040cc:	308dc83a 	sub	r6,r6,r2
  8040d0:	d9000a15 	stw	r4,40(sp)
  8040d4:	d9801115 	stw	r6,68(sp)
  8040d8:	d8801017 	ldw	r2,64(sp)
  8040dc:	0080150e 	bge	zero,r2,804134 <_dtoa_r+0x848>
  8040e0:	d8c00b17 	ldw	r3,44(sp)
  8040e4:	1805003a 	cmpeq	r2,r3,zero
  8040e8:	1001c91e 	bne	r2,zero,804810 <_dtoa_r+0xf24>
  8040ec:	04800e0e 	bge	zero,r18,804128 <_dtoa_r+0x83c>
  8040f0:	d9001617 	ldw	r4,88(sp)
  8040f4:	980b883a 	mov	r5,r19
  8040f8:	900d883a 	mov	r6,r18
  8040fc:	08079000 	call	807900 <__pow5mult>
  804100:	d9001617 	ldw	r4,88(sp)
  804104:	d9800717 	ldw	r6,28(sp)
  804108:	100b883a 	mov	r5,r2
  80410c:	1027883a 	mov	r19,r2
  804110:	08075440 	call	807544 <__multiply>
  804114:	d9001617 	ldw	r4,88(sp)
  804118:	d9400717 	ldw	r5,28(sp)
  80411c:	1023883a 	mov	r17,r2
  804120:	0806ab40 	call	806ab4 <_Bfree>
  804124:	dc400715 	stw	r17,28(sp)
  804128:	d9001017 	ldw	r4,64(sp)
  80412c:	248dc83a 	sub	r6,r4,r18
  804130:	30010e1e 	bne	r6,zero,80456c <_dtoa_r+0xc80>
  804134:	d9001617 	ldw	r4,88(sp)
  804138:	04400044 	movi	r17,1
  80413c:	880b883a 	mov	r5,r17
  804140:	08077980 	call	807798 <__i2b>
  804144:	d9800917 	ldw	r6,36(sp)
  804148:	1025883a 	mov	r18,r2
  80414c:	0180040e 	bge	zero,r6,804160 <_dtoa_r+0x874>
  804150:	d9001617 	ldw	r4,88(sp)
  804154:	100b883a 	mov	r5,r2
  804158:	08079000 	call	807900 <__pow5mult>
  80415c:	1025883a 	mov	r18,r2
  804160:	d8801717 	ldw	r2,92(sp)
  804164:	8880f30e 	bge	r17,r2,804534 <_dtoa_r+0xc48>
  804168:	0023883a 	mov	r17,zero
  80416c:	d9800917 	ldw	r6,36(sp)
  804170:	30019e1e 	bne	r6,zero,8047ec <_dtoa_r+0xf00>
  804174:	00c00044 	movi	r3,1
  804178:	d9000a17 	ldw	r4,40(sp)
  80417c:	20c5883a 	add	r2,r4,r3
  804180:	10c007cc 	andi	r3,r2,31
  804184:	1800841e 	bne	r3,zero,804398 <_dtoa_r+0xaac>
  804188:	00800704 	movi	r2,28
  80418c:	d9000a17 	ldw	r4,40(sp)
  804190:	d9801117 	ldw	r6,68(sp)
  804194:	80a1883a 	add	r16,r16,r2
  804198:	2089883a 	add	r4,r4,r2
  80419c:	308d883a 	add	r6,r6,r2
  8041a0:	d9000a15 	stw	r4,40(sp)
  8041a4:	d9801115 	stw	r6,68(sp)
  8041a8:	d8801117 	ldw	r2,68(sp)
  8041ac:	0080050e 	bge	zero,r2,8041c4 <_dtoa_r+0x8d8>
  8041b0:	d9400717 	ldw	r5,28(sp)
  8041b4:	d9001617 	ldw	r4,88(sp)
  8041b8:	100d883a 	mov	r6,r2
  8041bc:	08073f80 	call	8073f8 <__lshift>
  8041c0:	d8800715 	stw	r2,28(sp)
  8041c4:	d8c00a17 	ldw	r3,40(sp)
  8041c8:	00c0050e 	bge	zero,r3,8041e0 <_dtoa_r+0x8f4>
  8041cc:	d9001617 	ldw	r4,88(sp)
  8041d0:	900b883a 	mov	r5,r18
  8041d4:	180d883a 	mov	r6,r3
  8041d8:	08073f80 	call	8073f8 <__lshift>
  8041dc:	1025883a 	mov	r18,r2
  8041e0:	d9000c17 	ldw	r4,48(sp)
  8041e4:	2005003a 	cmpeq	r2,r4,zero
  8041e8:	10016f26 	beq	r2,zero,8047a8 <_dtoa_r+0xebc>
  8041ec:	d9000f17 	ldw	r4,60(sp)
  8041f0:	0102170e 	bge	zero,r4,804a50 <_dtoa_r+0x1164>
  8041f4:	d9800b17 	ldw	r6,44(sp)
  8041f8:	3005003a 	cmpeq	r2,r6,zero
  8041fc:	1000881e 	bne	r2,zero,804420 <_dtoa_r+0xb34>
  804200:	0400050e 	bge	zero,r16,804218 <_dtoa_r+0x92c>
  804204:	d9001617 	ldw	r4,88(sp)
  804208:	980b883a 	mov	r5,r19
  80420c:	800d883a 	mov	r6,r16
  804210:	08073f80 	call	8073f8 <__lshift>
  804214:	1027883a 	mov	r19,r2
  804218:	8804c03a 	cmpne	r2,r17,zero
  80421c:	1002541e 	bne	r2,zero,804b70 <_dtoa_r+0x1284>
  804220:	980b883a 	mov	r5,r19
  804224:	dd800517 	ldw	r22,20(sp)
  804228:	dcc00615 	stw	r19,24(sp)
  80422c:	a700004c 	andi	fp,r20,1
  804230:	2827883a 	mov	r19,r5
  804234:	d9000717 	ldw	r4,28(sp)
  804238:	900b883a 	mov	r5,r18
  80423c:	08036a80 	call	8036a8 <quorem>
  804240:	d9000717 	ldw	r4,28(sp)
  804244:	d9400617 	ldw	r5,24(sp)
  804248:	1023883a 	mov	r17,r2
  80424c:	8dc00c04 	addi	r23,r17,48
  804250:	0806c100 	call	806c10 <__mcmp>
  804254:	d9001617 	ldw	r4,88(sp)
  804258:	900b883a 	mov	r5,r18
  80425c:	980d883a 	mov	r6,r19
  804260:	1029883a 	mov	r20,r2
  804264:	080726c0 	call	80726c <__mdiff>
  804268:	102b883a 	mov	r21,r2
  80426c:	10800317 	ldw	r2,12(r2)
  804270:	1001281e 	bne	r2,zero,804714 <_dtoa_r+0xe28>
  804274:	d9000717 	ldw	r4,28(sp)
  804278:	a80b883a 	mov	r5,r21
  80427c:	0806c100 	call	806c10 <__mcmp>
  804280:	d9001617 	ldw	r4,88(sp)
  804284:	1021883a 	mov	r16,r2
  804288:	a80b883a 	mov	r5,r21
  80428c:	0806ab40 	call	806ab4 <_Bfree>
  804290:	8000041e 	bne	r16,zero,8042a4 <_dtoa_r+0x9b8>
  804294:	d8801717 	ldw	r2,92(sp)
  804298:	1000021e 	bne	r2,zero,8042a4 <_dtoa_r+0x9b8>
  80429c:	e004c03a 	cmpne	r2,fp,zero
  8042a0:	10011726 	beq	r2,zero,804700 <_dtoa_r+0xe14>
  8042a4:	a0010616 	blt	r20,zero,8046c0 <_dtoa_r+0xdd4>
  8042a8:	a000041e 	bne	r20,zero,8042bc <_dtoa_r+0x9d0>
  8042ac:	d8c01717 	ldw	r3,92(sp)
  8042b0:	1800021e 	bne	r3,zero,8042bc <_dtoa_r+0x9d0>
  8042b4:	e004c03a 	cmpne	r2,fp,zero
  8042b8:	10010126 	beq	r2,zero,8046c0 <_dtoa_r+0xdd4>
  8042bc:	04023d16 	blt	zero,r16,804bb4 <_dtoa_r+0x12c8>
  8042c0:	b5c00005 	stb	r23,0(r22)
  8042c4:	d9800517 	ldw	r6,20(sp)
  8042c8:	d9000f17 	ldw	r4,60(sp)
  8042cc:	b5800044 	addi	r22,r22,1
  8042d0:	3105883a 	add	r2,r6,r4
  8042d4:	b0806526 	beq	r22,r2,80446c <_dtoa_r+0xb80>
  8042d8:	d9400717 	ldw	r5,28(sp)
  8042dc:	d9001617 	ldw	r4,88(sp)
  8042e0:	01800284 	movi	r6,10
  8042e4:	000f883a 	mov	r7,zero
  8042e8:	08077d40 	call	8077d4 <__multadd>
  8042ec:	d8800715 	stw	r2,28(sp)
  8042f0:	d8800617 	ldw	r2,24(sp)
  8042f4:	14c10c26 	beq	r2,r19,804728 <_dtoa_r+0xe3c>
  8042f8:	d9400617 	ldw	r5,24(sp)
  8042fc:	d9001617 	ldw	r4,88(sp)
  804300:	01800284 	movi	r6,10
  804304:	000f883a 	mov	r7,zero
  804308:	08077d40 	call	8077d4 <__multadd>
  80430c:	d9001617 	ldw	r4,88(sp)
  804310:	980b883a 	mov	r5,r19
  804314:	01800284 	movi	r6,10
  804318:	000f883a 	mov	r7,zero
  80431c:	d8800615 	stw	r2,24(sp)
  804320:	08077d40 	call	8077d4 <__multadd>
  804324:	1027883a 	mov	r19,r2
  804328:	003fc206 	br	804234 <_dtoa_r+0x948>
  80432c:	2445c83a 	sub	r2,r4,r17
  804330:	a088983a 	sll	r4,r20,r2
  804334:	003e4b06 	br	803c64 <_dtoa_r+0x378>
  804338:	01bfffc4 	movi	r6,-1
  80433c:	00800044 	movi	r2,1
  804340:	d9800e15 	stw	r6,56(sp)
  804344:	d9800f15 	stw	r6,60(sp)
  804348:	d8800b15 	stw	r2,44(sp)
  80434c:	d8c01617 	ldw	r3,88(sp)
  804350:	008005c4 	movi	r2,23
  804354:	18001115 	stw	zero,68(r3)
  804358:	1580082e 	bgeu	r2,r22,80437c <_dtoa_r+0xa90>
  80435c:	00c00104 	movi	r3,4
  804360:	0009883a 	mov	r4,zero
  804364:	18c7883a 	add	r3,r3,r3
  804368:	18800504 	addi	r2,r3,20
  80436c:	21000044 	addi	r4,r4,1
  804370:	b0bffc2e 	bgeu	r22,r2,804364 <_dtoa_r+0xa78>
  804374:	d9801617 	ldw	r6,88(sp)
  804378:	31001115 	stw	r4,68(r6)
  80437c:	dc000f17 	ldw	r16,60(sp)
  804380:	003e4b06 	br	803cb0 <_dtoa_r+0x3c4>
  804384:	d9801717 	ldw	r6,92(sp)
  804388:	0023883a 	mov	r17,zero
  80438c:	31bfff04 	addi	r6,r6,-4
  804390:	d9801715 	stw	r6,92(sp)
  804394:	003df806 	br	803b78 <_dtoa_r+0x28c>
  804398:	00800804 	movi	r2,32
  80439c:	10c9c83a 	sub	r4,r2,r3
  8043a0:	00c00104 	movi	r3,4
  8043a4:	19005a16 	blt	r3,r4,804510 <_dtoa_r+0xc24>
  8043a8:	008000c4 	movi	r2,3
  8043ac:	113f7e16 	blt	r2,r4,8041a8 <_dtoa_r+0x8bc>
  8043b0:	20800704 	addi	r2,r4,28
  8043b4:	003f7506 	br	80418c <_dtoa_r+0x8a0>
  8043b8:	d9801717 	ldw	r6,92(sp)
  8043bc:	00800044 	movi	r2,1
  8043c0:	1180a10e 	bge	r2,r6,804648 <_dtoa_r+0xd5c>
  8043c4:	d9800f17 	ldw	r6,60(sp)
  8043c8:	d8c01017 	ldw	r3,64(sp)
  8043cc:	30bfffc4 	addi	r2,r6,-1
  8043d0:	1881c616 	blt	r3,r2,804aec <_dtoa_r+0x1200>
  8043d4:	18a5c83a 	sub	r18,r3,r2
  8043d8:	d8800f17 	ldw	r2,60(sp)
  8043dc:	10026216 	blt	r2,zero,804d68 <_dtoa_r+0x147c>
  8043e0:	dc001117 	ldw	r16,68(sp)
  8043e4:	1007883a 	mov	r3,r2
  8043e8:	d9800a17 	ldw	r6,40(sp)
  8043ec:	d8801117 	ldw	r2,68(sp)
  8043f0:	d9001617 	ldw	r4,88(sp)
  8043f4:	30cd883a 	add	r6,r6,r3
  8043f8:	10c5883a 	add	r2,r2,r3
  8043fc:	01400044 	movi	r5,1
  804400:	d9800a15 	stw	r6,40(sp)
  804404:	d8801115 	stw	r2,68(sp)
  804408:	08077980 	call	807798 <__i2b>
  80440c:	1027883a 	mov	r19,r2
  804410:	003f2506 	br	8040a8 <_dtoa_r+0x7bc>
  804414:	00c02074 	movhi	r3,129
  804418:	18caa504 	addi	r3,r3,10900
  80441c:	003d6706 	br	8039bc <_dtoa_r+0xd0>
  804420:	dd800517 	ldw	r22,20(sp)
  804424:	04000044 	movi	r16,1
  804428:	00000706 	br	804448 <_dtoa_r+0xb5c>
  80442c:	d9400717 	ldw	r5,28(sp)
  804430:	d9001617 	ldw	r4,88(sp)
  804434:	01800284 	movi	r6,10
  804438:	000f883a 	mov	r7,zero
  80443c:	08077d40 	call	8077d4 <__multadd>
  804440:	d8800715 	stw	r2,28(sp)
  804444:	84000044 	addi	r16,r16,1
  804448:	d9000717 	ldw	r4,28(sp)
  80444c:	900b883a 	mov	r5,r18
  804450:	08036a80 	call	8036a8 <quorem>
  804454:	15c00c04 	addi	r23,r2,48
  804458:	b5c00005 	stb	r23,0(r22)
  80445c:	d8c00f17 	ldw	r3,60(sp)
  804460:	b5800044 	addi	r22,r22,1
  804464:	80fff116 	blt	r16,r3,80442c <_dtoa_r+0xb40>
  804468:	d8000615 	stw	zero,24(sp)
  80446c:	d9400717 	ldw	r5,28(sp)
  804470:	d9001617 	ldw	r4,88(sp)
  804474:	01800044 	movi	r6,1
  804478:	08073f80 	call	8073f8 <__lshift>
  80447c:	1009883a 	mov	r4,r2
  804480:	900b883a 	mov	r5,r18
  804484:	d8800715 	stw	r2,28(sp)
  804488:	0806c100 	call	806c10 <__mcmp>
  80448c:	00803c0e 	bge	zero,r2,804580 <_dtoa_r+0xc94>
  804490:	b009883a 	mov	r4,r22
  804494:	213fffc4 	addi	r4,r4,-1
  804498:	21400003 	ldbu	r5,0(r4)
  80449c:	00800e44 	movi	r2,57
  8044a0:	28c03fcc 	andi	r3,r5,255
  8044a4:	18c0201c 	xori	r3,r3,128
  8044a8:	18ffe004 	addi	r3,r3,-128
  8044ac:	1881981e 	bne	r3,r2,804b10 <_dtoa_r+0x1224>
  8044b0:	d9800517 	ldw	r6,20(sp)
  8044b4:	21bff71e 	bne	r4,r6,804494 <_dtoa_r+0xba8>
  8044b8:	d8800d17 	ldw	r2,52(sp)
  8044bc:	37000044 	addi	fp,r6,1
  8044c0:	10800044 	addi	r2,r2,1
  8044c4:	d8800d15 	stw	r2,52(sp)
  8044c8:	00800c44 	movi	r2,49
  8044cc:	30800005 	stb	r2,0(r6)
  8044d0:	d9001617 	ldw	r4,88(sp)
  8044d4:	900b883a 	mov	r5,r18
  8044d8:	0806ab40 	call	806ab4 <_Bfree>
  8044dc:	983ecd26 	beq	r19,zero,804014 <_dtoa_r+0x728>
  8044e0:	d8c00617 	ldw	r3,24(sp)
  8044e4:	18000426 	beq	r3,zero,8044f8 <_dtoa_r+0xc0c>
  8044e8:	1cc00326 	beq	r3,r19,8044f8 <_dtoa_r+0xc0c>
  8044ec:	d9001617 	ldw	r4,88(sp)
  8044f0:	180b883a 	mov	r5,r3
  8044f4:	0806ab40 	call	806ab4 <_Bfree>
  8044f8:	d9001617 	ldw	r4,88(sp)
  8044fc:	980b883a 	mov	r5,r19
  804500:	0806ab40 	call	806ab4 <_Bfree>
  804504:	003ec306 	br	804014 <_dtoa_r+0x728>
  804508:	1805883a 	mov	r2,r3
  80450c:	003eeb06 	br	8040bc <_dtoa_r+0x7d0>
  804510:	d9800a17 	ldw	r6,40(sp)
  804514:	d8c01117 	ldw	r3,68(sp)
  804518:	20bfff04 	addi	r2,r4,-4
  80451c:	308d883a 	add	r6,r6,r2
  804520:	1887883a 	add	r3,r3,r2
  804524:	80a1883a 	add	r16,r16,r2
  804528:	d9800a15 	stw	r6,40(sp)
  80452c:	d8c01115 	stw	r3,68(sp)
  804530:	003f1d06 	br	8041a8 <_dtoa_r+0x8bc>
  804534:	a03f0c1e 	bne	r20,zero,804168 <_dtoa_r+0x87c>
  804538:	00800434 	movhi	r2,16
  80453c:	10bfffc4 	addi	r2,r2,-1
  804540:	a884703a 	and	r2,r21,r2
  804544:	103f081e 	bne	r2,zero,804168 <_dtoa_r+0x87c>
  804548:	a89ffc2c 	andhi	r2,r21,32752
  80454c:	103f0626 	beq	r2,zero,804168 <_dtoa_r+0x87c>
  804550:	d8c01117 	ldw	r3,68(sp)
  804554:	d9000a17 	ldw	r4,40(sp)
  804558:	18c00044 	addi	r3,r3,1
  80455c:	21000044 	addi	r4,r4,1
  804560:	d8c01115 	stw	r3,68(sp)
  804564:	d9000a15 	stw	r4,40(sp)
  804568:	003f0006 	br	80416c <_dtoa_r+0x880>
  80456c:	d9400717 	ldw	r5,28(sp)
  804570:	d9001617 	ldw	r4,88(sp)
  804574:	08079000 	call	807900 <__pow5mult>
  804578:	d8800715 	stw	r2,28(sp)
  80457c:	003eed06 	br	804134 <_dtoa_r+0x848>
  804580:	1000021e 	bne	r2,zero,80458c <_dtoa_r+0xca0>
  804584:	b880004c 	andi	r2,r23,1
  804588:	103fc11e 	bne	r2,zero,804490 <_dtoa_r+0xba4>
  80458c:	b5bfffc4 	addi	r22,r22,-1
  804590:	b0c00007 	ldb	r3,0(r22)
  804594:	00800c04 	movi	r2,48
  804598:	18bffc26 	beq	r3,r2,80458c <_dtoa_r+0xca0>
  80459c:	b7000044 	addi	fp,r22,1
  8045a0:	003fcb06 	br	8044d0 <_dtoa_r+0xbe4>
  8045a4:	d9800d17 	ldw	r6,52(sp)
  8045a8:	018fc83a 	sub	r7,zero,r6
  8045ac:	3801f726 	beq	r7,zero,804d8c <_dtoa_r+0x14a0>
  8045b0:	398003cc 	andi	r6,r7,15
  8045b4:	300c90fa 	slli	r6,r6,3
  8045b8:	01402074 	movhi	r5,129
  8045bc:	294ac304 	addi	r5,r5,11020
  8045c0:	d9001217 	ldw	r4,72(sp)
  8045c4:	314d883a 	add	r6,r6,r5
  8045c8:	30c00117 	ldw	r3,4(r6)
  8045cc:	30800017 	ldw	r2,0(r6)
  8045d0:	d9401317 	ldw	r5,76(sp)
  8045d4:	3821d13a 	srai	r16,r7,4
  8045d8:	100d883a 	mov	r6,r2
  8045dc:	180f883a 	mov	r7,r3
  8045e0:	0809a940 	call	809a94 <__muldf3>
  8045e4:	1011883a 	mov	r8,r2
  8045e8:	1813883a 	mov	r9,r3
  8045ec:	1029883a 	mov	r20,r2
  8045f0:	182b883a 	mov	r21,r3
  8045f4:	8001e526 	beq	r16,zero,804d8c <_dtoa_r+0x14a0>
  8045f8:	05800084 	movi	r22,2
  8045fc:	04402074 	movhi	r17,129
  804600:	8c4af504 	addi	r17,r17,11220
  804604:	8080004c 	andi	r2,r16,1
  804608:	1005003a 	cmpeq	r2,r2,zero
  80460c:	1000081e 	bne	r2,zero,804630 <_dtoa_r+0xd44>
  804610:	89800017 	ldw	r6,0(r17)
  804614:	89c00117 	ldw	r7,4(r17)
  804618:	480b883a 	mov	r5,r9
  80461c:	4009883a 	mov	r4,r8
  804620:	0809a940 	call	809a94 <__muldf3>
  804624:	1011883a 	mov	r8,r2
  804628:	b5800044 	addi	r22,r22,1
  80462c:	1813883a 	mov	r9,r3
  804630:	8021d07a 	srai	r16,r16,1
  804634:	8c400204 	addi	r17,r17,8
  804638:	803ff21e 	bne	r16,zero,804604 <_dtoa_r+0xd18>
  80463c:	4029883a 	mov	r20,r8
  804640:	482b883a 	mov	r21,r9
  804644:	003dca06 	br	803d70 <_dtoa_r+0x484>
  804648:	d9000817 	ldw	r4,32(sp)
  80464c:	2005003a 	cmpeq	r2,r4,zero
  804650:	1001f61e 	bne	r2,zero,804e2c <_dtoa_r+0x1540>
  804654:	dc001117 	ldw	r16,68(sp)
  804658:	dc801017 	ldw	r18,64(sp)
  80465c:	18c10cc4 	addi	r3,r3,1075
  804660:	003f6106 	br	8043e8 <_dtoa_r+0xafc>
  804664:	d8000b15 	stw	zero,44(sp)
  804668:	d9802617 	ldw	r6,152(sp)
  80466c:	d8c00d17 	ldw	r3,52(sp)
  804670:	30800044 	addi	r2,r6,1
  804674:	18ad883a 	add	r22,r3,r2
  804678:	b13fffc4 	addi	r4,r22,-1
  80467c:	d9000e15 	stw	r4,56(sp)
  804680:	0581f60e 	bge	zero,r22,804e5c <_dtoa_r+0x1570>
  804684:	dd800f15 	stw	r22,60(sp)
  804688:	003f3006 	br	80434c <_dtoa_r+0xa60>
  80468c:	d8000b15 	stw	zero,44(sp)
  804690:	d9002617 	ldw	r4,152(sp)
  804694:	0101eb0e 	bge	zero,r4,804e44 <_dtoa_r+0x1558>
  804698:	202d883a 	mov	r22,r4
  80469c:	d9000e15 	stw	r4,56(sp)
  8046a0:	d9000f15 	stw	r4,60(sp)
  8046a4:	003f2906 	br	80434c <_dtoa_r+0xa60>
  8046a8:	01800044 	movi	r6,1
  8046ac:	d9800b15 	stw	r6,44(sp)
  8046b0:	003ff706 	br	804690 <_dtoa_r+0xda4>
  8046b4:	01000044 	movi	r4,1
  8046b8:	d9000b15 	stw	r4,44(sp)
  8046bc:	003fea06 	br	804668 <_dtoa_r+0xd7c>
  8046c0:	04000c0e 	bge	zero,r16,8046f4 <_dtoa_r+0xe08>
  8046c4:	d9400717 	ldw	r5,28(sp)
  8046c8:	d9001617 	ldw	r4,88(sp)
  8046cc:	01800044 	movi	r6,1
  8046d0:	08073f80 	call	8073f8 <__lshift>
  8046d4:	1009883a 	mov	r4,r2
  8046d8:	900b883a 	mov	r5,r18
  8046dc:	d8800715 	stw	r2,28(sp)
  8046e0:	0806c100 	call	806c10 <__mcmp>
  8046e4:	0081e00e 	bge	zero,r2,804e68 <_dtoa_r+0x157c>
  8046e8:	bdc00044 	addi	r23,r23,1
  8046ec:	00800e84 	movi	r2,58
  8046f0:	b881a226 	beq	r23,r2,804d7c <_dtoa_r+0x1490>
  8046f4:	b7000044 	addi	fp,r22,1
  8046f8:	b5c00005 	stb	r23,0(r22)
  8046fc:	003f7406 	br	8044d0 <_dtoa_r+0xbe4>
  804700:	00800e44 	movi	r2,57
  804704:	b8819d26 	beq	r23,r2,804d7c <_dtoa_r+0x1490>
  804708:	053ffa0e 	bge	zero,r20,8046f4 <_dtoa_r+0xe08>
  80470c:	8dc00c44 	addi	r23,r17,49
  804710:	003ff806 	br	8046f4 <_dtoa_r+0xe08>
  804714:	d9001617 	ldw	r4,88(sp)
  804718:	a80b883a 	mov	r5,r21
  80471c:	04000044 	movi	r16,1
  804720:	0806ab40 	call	806ab4 <_Bfree>
  804724:	003edf06 	br	8042a4 <_dtoa_r+0x9b8>
  804728:	d9001617 	ldw	r4,88(sp)
  80472c:	980b883a 	mov	r5,r19
  804730:	01800284 	movi	r6,10
  804734:	000f883a 	mov	r7,zero
  804738:	08077d40 	call	8077d4 <__multadd>
  80473c:	1027883a 	mov	r19,r2
  804740:	d8800615 	stw	r2,24(sp)
  804744:	003ebb06 	br	804234 <_dtoa_r+0x948>
  804748:	d9801117 	ldw	r6,68(sp)
  80474c:	d8800d17 	ldw	r2,52(sp)
  804750:	d8000915 	stw	zero,36(sp)
  804754:	308dc83a 	sub	r6,r6,r2
  804758:	0087c83a 	sub	r3,zero,r2
  80475c:	d9801115 	stw	r6,68(sp)
  804760:	d8c01015 	stw	r3,64(sp)
  804764:	003cfe06 	br	803b60 <_dtoa_r+0x274>
  804768:	018dc83a 	sub	r6,zero,r6
  80476c:	d9801115 	stw	r6,68(sp)
  804770:	d8000a15 	stw	zero,40(sp)
  804774:	003cf306 	br	803b44 <_dtoa_r+0x258>
  804778:	d9000d17 	ldw	r4,52(sp)
  80477c:	080a3580 	call	80a358 <__floatsidf>
  804780:	880b883a 	mov	r5,r17
  804784:	8009883a 	mov	r4,r16
  804788:	180f883a 	mov	r7,r3
  80478c:	100d883a 	mov	r6,r2
  804790:	080a1380 	call	80a138 <__nedf2>
  804794:	103ce126 	beq	r2,zero,803b1c <_dtoa_r+0x230>
  804798:	d9800d17 	ldw	r6,52(sp)
  80479c:	31bfffc4 	addi	r6,r6,-1
  8047a0:	d9800d15 	stw	r6,52(sp)
  8047a4:	003cdd06 	br	803b1c <_dtoa_r+0x230>
  8047a8:	d9000717 	ldw	r4,28(sp)
  8047ac:	900b883a 	mov	r5,r18
  8047b0:	0806c100 	call	806c10 <__mcmp>
  8047b4:	103e8d0e 	bge	r2,zero,8041ec <_dtoa_r+0x900>
  8047b8:	d9400717 	ldw	r5,28(sp)
  8047bc:	d9001617 	ldw	r4,88(sp)
  8047c0:	01800284 	movi	r6,10
  8047c4:	000f883a 	mov	r7,zero
  8047c8:	08077d40 	call	8077d4 <__multadd>
  8047cc:	d9800d17 	ldw	r6,52(sp)
  8047d0:	d8800715 	stw	r2,28(sp)
  8047d4:	31bfffc4 	addi	r6,r6,-1
  8047d8:	d9800d15 	stw	r6,52(sp)
  8047dc:	b001a71e 	bne	r22,zero,804e7c <_dtoa_r+0x1590>
  8047e0:	d8800e17 	ldw	r2,56(sp)
  8047e4:	d8800f15 	stw	r2,60(sp)
  8047e8:	003e8006 	br	8041ec <_dtoa_r+0x900>
  8047ec:	90800417 	ldw	r2,16(r18)
  8047f0:	1085883a 	add	r2,r2,r2
  8047f4:	1085883a 	add	r2,r2,r2
  8047f8:	1485883a 	add	r2,r2,r18
  8047fc:	11000417 	ldw	r4,16(r2)
  804800:	0806adc0 	call	806adc <__hi0bits>
  804804:	00c00804 	movi	r3,32
  804808:	1887c83a 	sub	r3,r3,r2
  80480c:	003e5a06 	br	804178 <_dtoa_r+0x88c>
  804810:	d9400717 	ldw	r5,28(sp)
  804814:	d9801017 	ldw	r6,64(sp)
  804818:	d9001617 	ldw	r4,88(sp)
  80481c:	08079000 	call	807900 <__pow5mult>
  804820:	d8800715 	stw	r2,28(sp)
  804824:	003e4306 	br	804134 <_dtoa_r+0x848>
  804828:	d9800f17 	ldw	r6,60(sp)
  80482c:	d8800d17 	ldw	r2,52(sp)
  804830:	d9800315 	stw	r6,12(sp)
  804834:	d8800415 	stw	r2,16(sp)
  804838:	d8c00b17 	ldw	r3,44(sp)
  80483c:	1805003a 	cmpeq	r2,r3,zero
  804840:	1000e21e 	bne	r2,zero,804bcc <_dtoa_r+0x12e0>
  804844:	d9000317 	ldw	r4,12(sp)
  804848:	0005883a 	mov	r2,zero
  80484c:	00cff834 	movhi	r3,16352
  804850:	200c90fa 	slli	r6,r4,3
  804854:	01002074 	movhi	r4,129
  804858:	210ac304 	addi	r4,r4,11020
  80485c:	180b883a 	mov	r5,r3
  804860:	310d883a 	add	r6,r6,r4
  804864:	327fff17 	ldw	r9,-4(r6)
  804868:	323ffe17 	ldw	r8,-8(r6)
  80486c:	1009883a 	mov	r4,r2
  804870:	480f883a 	mov	r7,r9
  804874:	400d883a 	mov	r6,r8
  804878:	0809e580 	call	809e58 <__divdf3>
  80487c:	180b883a 	mov	r5,r3
  804880:	b00d883a 	mov	r6,r22
  804884:	b80f883a 	mov	r7,r23
  804888:	1009883a 	mov	r4,r2
  80488c:	08099a00 	call	8099a0 <__subdf3>
  804890:	a80b883a 	mov	r5,r21
  804894:	a009883a 	mov	r4,r20
  804898:	d8c01915 	stw	r3,100(sp)
  80489c:	d8801815 	stw	r2,96(sp)
  8048a0:	080a4500 	call	80a450 <__fixdfsi>
  8048a4:	1009883a 	mov	r4,r2
  8048a8:	1027883a 	mov	r19,r2
  8048ac:	080a3580 	call	80a358 <__floatsidf>
  8048b0:	a80b883a 	mov	r5,r21
  8048b4:	a009883a 	mov	r4,r20
  8048b8:	180f883a 	mov	r7,r3
  8048bc:	100d883a 	mov	r6,r2
  8048c0:	08099a00 	call	8099a0 <__subdf3>
  8048c4:	d9801817 	ldw	r6,96(sp)
  8048c8:	1823883a 	mov	r17,r3
  8048cc:	d8801415 	stw	r2,80(sp)
  8048d0:	302d883a 	mov	r22,r6
  8048d4:	d9800517 	ldw	r6,20(sp)
  8048d8:	9cc00c04 	addi	r19,r19,48
  8048dc:	dc401515 	stw	r17,84(sp)
  8048e0:	d8c01917 	ldw	r3,100(sp)
  8048e4:	34c00005 	stb	r19,0(r6)
  8048e8:	d8800517 	ldw	r2,20(sp)
  8048ec:	d9401917 	ldw	r5,100(sp)
  8048f0:	d9801417 	ldw	r6,80(sp)
  8048f4:	b009883a 	mov	r4,r22
  8048f8:	880f883a 	mov	r7,r17
  8048fc:	182f883a 	mov	r23,r3
  804900:	17000044 	addi	fp,r2,1
  804904:	080a1c00 	call	80a1c0 <__gtdf2>
  804908:	00804e16 	blt	zero,r2,804a44 <_dtoa_r+0x1158>
  80490c:	d9801417 	ldw	r6,80(sp)
  804910:	0005883a 	mov	r2,zero
  804914:	00cffc34 	movhi	r3,16368
  804918:	180b883a 	mov	r5,r3
  80491c:	880f883a 	mov	r7,r17
  804920:	1009883a 	mov	r4,r2
  804924:	08099a00 	call	8099a0 <__subdf3>
  804928:	d9401917 	ldw	r5,100(sp)
  80492c:	180f883a 	mov	r7,r3
  804930:	b009883a 	mov	r4,r22
  804934:	100d883a 	mov	r6,r2
  804938:	080a1c00 	call	80a1c0 <__gtdf2>
  80493c:	00bda216 	blt	zero,r2,803fc8 <_dtoa_r+0x6dc>
  804940:	d8c00317 	ldw	r3,12(sp)
  804944:	00800044 	movi	r2,1
  804948:	10c01216 	blt	r2,r3,804994 <_dtoa_r+0x10a8>
  80494c:	003d4506 	br	803e64 <_dtoa_r+0x578>
  804950:	d9801417 	ldw	r6,80(sp)
  804954:	0005883a 	mov	r2,zero
  804958:	00cffc34 	movhi	r3,16368
  80495c:	180b883a 	mov	r5,r3
  804960:	880f883a 	mov	r7,r17
  804964:	1009883a 	mov	r4,r2
  804968:	08099a00 	call	8099a0 <__subdf3>
  80496c:	d9c01b17 	ldw	r7,108(sp)
  804970:	180b883a 	mov	r5,r3
  804974:	1009883a 	mov	r4,r2
  804978:	b00d883a 	mov	r6,r22
  80497c:	080a2d00 	call	80a2d0 <__ltdf2>
  804980:	103d9116 	blt	r2,zero,803fc8 <_dtoa_r+0x6dc>
  804984:	d9800517 	ldw	r6,20(sp)
  804988:	d9000317 	ldw	r4,12(sp)
  80498c:	3105883a 	add	r2,r6,r4
  804990:	e0bd3426 	beq	fp,r2,803e64 <_dtoa_r+0x578>
  804994:	04500934 	movhi	r17,16420
  804998:	0021883a 	mov	r16,zero
  80499c:	b80b883a 	mov	r5,r23
  8049a0:	b009883a 	mov	r4,r22
  8049a4:	800d883a 	mov	r6,r16
  8049a8:	880f883a 	mov	r7,r17
  8049ac:	0809a940 	call	809a94 <__muldf3>
  8049b0:	d9401517 	ldw	r5,84(sp)
  8049b4:	d9001417 	ldw	r4,80(sp)
  8049b8:	880f883a 	mov	r7,r17
  8049bc:	000d883a 	mov	r6,zero
  8049c0:	d8801a15 	stw	r2,104(sp)
  8049c4:	d8c01b15 	stw	r3,108(sp)
  8049c8:	0809a940 	call	809a94 <__muldf3>
  8049cc:	180b883a 	mov	r5,r3
  8049d0:	1009883a 	mov	r4,r2
  8049d4:	1823883a 	mov	r17,r3
  8049d8:	1021883a 	mov	r16,r2
  8049dc:	080a4500 	call	80a450 <__fixdfsi>
  8049e0:	1009883a 	mov	r4,r2
  8049e4:	102b883a 	mov	r21,r2
  8049e8:	080a3580 	call	80a358 <__floatsidf>
  8049ec:	880b883a 	mov	r5,r17
  8049f0:	8009883a 	mov	r4,r16
  8049f4:	180f883a 	mov	r7,r3
  8049f8:	100d883a 	mov	r6,r2
  8049fc:	08099a00 	call	8099a0 <__subdf3>
  804a00:	1021883a 	mov	r16,r2
  804a04:	d9001b17 	ldw	r4,108(sp)
  804a08:	1823883a 	mov	r17,r3
  804a0c:	dc001415 	stw	r16,80(sp)
  804a10:	ad400c04 	addi	r21,r21,48
  804a14:	dc401515 	stw	r17,84(sp)
  804a18:	d8801a17 	ldw	r2,104(sp)
  804a1c:	e5400005 	stb	r21,0(fp)
  804a20:	202f883a 	mov	r23,r4
  804a24:	d9c01b17 	ldw	r7,108(sp)
  804a28:	d9001417 	ldw	r4,80(sp)
  804a2c:	880b883a 	mov	r5,r17
  804a30:	100d883a 	mov	r6,r2
  804a34:	102d883a 	mov	r22,r2
  804a38:	e7000044 	addi	fp,fp,1
  804a3c:	080a2d00 	call	80a2d0 <__ltdf2>
  804a40:	103fc30e 	bge	r2,zero,804950 <_dtoa_r+0x1064>
  804a44:	d9000417 	ldw	r4,16(sp)
  804a48:	d9000d15 	stw	r4,52(sp)
  804a4c:	003d7106 	br	804014 <_dtoa_r+0x728>
  804a50:	d9801717 	ldw	r6,92(sp)
  804a54:	00800084 	movi	r2,2
  804a58:	11bde60e 	bge	r2,r6,8041f4 <_dtoa_r+0x908>
  804a5c:	203cfb1e 	bne	r4,zero,803e4c <_dtoa_r+0x560>
  804a60:	d9001617 	ldw	r4,88(sp)
  804a64:	900b883a 	mov	r5,r18
  804a68:	01800144 	movi	r6,5
  804a6c:	000f883a 	mov	r7,zero
  804a70:	08077d40 	call	8077d4 <__multadd>
  804a74:	d9000717 	ldw	r4,28(sp)
  804a78:	100b883a 	mov	r5,r2
  804a7c:	1025883a 	mov	r18,r2
  804a80:	0806c100 	call	806c10 <__mcmp>
  804a84:	00bcf10e 	bge	zero,r2,803e4c <_dtoa_r+0x560>
  804a88:	d8c00d17 	ldw	r3,52(sp)
  804a8c:	d9000517 	ldw	r4,20(sp)
  804a90:	d8000615 	stw	zero,24(sp)
  804a94:	18c00044 	addi	r3,r3,1
  804a98:	d8c00d15 	stw	r3,52(sp)
  804a9c:	00800c44 	movi	r2,49
  804aa0:	27000044 	addi	fp,r4,1
  804aa4:	20800005 	stb	r2,0(r4)
  804aa8:	003e8906 	br	8044d0 <_dtoa_r+0xbe4>
  804aac:	d8c00517 	ldw	r3,20(sp)
  804ab0:	003bc206 	br	8039bc <_dtoa_r+0xd0>
  804ab4:	01802074 	movhi	r6,129
  804ab8:	318af504 	addi	r6,r6,11220
  804abc:	30c00917 	ldw	r3,36(r6)
  804ac0:	30800817 	ldw	r2,32(r6)
  804ac4:	d9001217 	ldw	r4,72(sp)
  804ac8:	d9401317 	ldw	r5,76(sp)
  804acc:	180f883a 	mov	r7,r3
  804ad0:	100d883a 	mov	r6,r2
  804ad4:	0809e580 	call	809e58 <__divdf3>
  804ad8:	948003cc 	andi	r18,r18,15
  804adc:	058000c4 	movi	r22,3
  804ae0:	1029883a 	mov	r20,r2
  804ae4:	182b883a 	mov	r21,r3
  804ae8:	003c8906 	br	803d10 <_dtoa_r+0x424>
  804aec:	d9001017 	ldw	r4,64(sp)
  804af0:	d9800917 	ldw	r6,36(sp)
  804af4:	0025883a 	mov	r18,zero
  804af8:	1105c83a 	sub	r2,r2,r4
  804afc:	2089883a 	add	r4,r4,r2
  804b00:	308d883a 	add	r6,r6,r2
  804b04:	d9001015 	stw	r4,64(sp)
  804b08:	d9800915 	stw	r6,36(sp)
  804b0c:	003e3206 	br	8043d8 <_dtoa_r+0xaec>
  804b10:	28800044 	addi	r2,r5,1
  804b14:	27000044 	addi	fp,r4,1
  804b18:	20800005 	stb	r2,0(r4)
  804b1c:	003e6c06 	br	8044d0 <_dtoa_r+0xbe4>
  804b20:	d8800f17 	ldw	r2,60(sp)
  804b24:	00bce016 	blt	zero,r2,803ea8 <_dtoa_r+0x5bc>
  804b28:	d9800f17 	ldw	r6,60(sp)
  804b2c:	303cc51e 	bne	r6,zero,803e44 <_dtoa_r+0x558>
  804b30:	0005883a 	mov	r2,zero
  804b34:	00d00534 	movhi	r3,16404
  804b38:	980b883a 	mov	r5,r19
  804b3c:	180f883a 	mov	r7,r3
  804b40:	9009883a 	mov	r4,r18
  804b44:	100d883a 	mov	r6,r2
  804b48:	0809a940 	call	809a94 <__muldf3>
  804b4c:	180b883a 	mov	r5,r3
  804b50:	a80f883a 	mov	r7,r21
  804b54:	1009883a 	mov	r4,r2
  804b58:	a00d883a 	mov	r6,r20
  804b5c:	080a2480 	call	80a248 <__gedf2>
  804b60:	103cb80e 	bge	r2,zero,803e44 <_dtoa_r+0x558>
  804b64:	0027883a 	mov	r19,zero
  804b68:	0025883a 	mov	r18,zero
  804b6c:	003fc606 	br	804a88 <_dtoa_r+0x119c>
  804b70:	99400117 	ldw	r5,4(r19)
  804b74:	d9001617 	ldw	r4,88(sp)
  804b78:	08070340 	call	807034 <_Balloc>
  804b7c:	99800417 	ldw	r6,16(r19)
  804b80:	11000304 	addi	r4,r2,12
  804b84:	99400304 	addi	r5,r19,12
  804b88:	318d883a 	add	r6,r6,r6
  804b8c:	318d883a 	add	r6,r6,r6
  804b90:	31800204 	addi	r6,r6,8
  804b94:	1023883a 	mov	r17,r2
  804b98:	080689c0 	call	80689c <memcpy>
  804b9c:	d9001617 	ldw	r4,88(sp)
  804ba0:	880b883a 	mov	r5,r17
  804ba4:	01800044 	movi	r6,1
  804ba8:	08073f80 	call	8073f8 <__lshift>
  804bac:	100b883a 	mov	r5,r2
  804bb0:	003d9c06 	br	804224 <_dtoa_r+0x938>
  804bb4:	00800e44 	movi	r2,57
  804bb8:	b8807026 	beq	r23,r2,804d7c <_dtoa_r+0x1490>
  804bbc:	b8800044 	addi	r2,r23,1
  804bc0:	b7000044 	addi	fp,r22,1
  804bc4:	b0800005 	stb	r2,0(r22)
  804bc8:	003e4106 	br	8044d0 <_dtoa_r+0xbe4>
  804bcc:	d8800317 	ldw	r2,12(sp)
  804bd0:	01802074 	movhi	r6,129
  804bd4:	318ac304 	addi	r6,r6,11020
  804bd8:	b009883a 	mov	r4,r22
  804bdc:	100e90fa 	slli	r7,r2,3
  804be0:	b80b883a 	mov	r5,r23
  804be4:	398f883a 	add	r7,r7,r6
  804be8:	38bffe17 	ldw	r2,-8(r7)
  804bec:	d9800517 	ldw	r6,20(sp)
  804bf0:	38ffff17 	ldw	r3,-4(r7)
  804bf4:	37000044 	addi	fp,r6,1
  804bf8:	180f883a 	mov	r7,r3
  804bfc:	100d883a 	mov	r6,r2
  804c00:	0809a940 	call	809a94 <__muldf3>
  804c04:	a80b883a 	mov	r5,r21
  804c08:	a009883a 	mov	r4,r20
  804c0c:	182f883a 	mov	r23,r3
  804c10:	102d883a 	mov	r22,r2
  804c14:	080a4500 	call	80a450 <__fixdfsi>
  804c18:	1009883a 	mov	r4,r2
  804c1c:	1027883a 	mov	r19,r2
  804c20:	080a3580 	call	80a358 <__floatsidf>
  804c24:	a80b883a 	mov	r5,r21
  804c28:	a009883a 	mov	r4,r20
  804c2c:	180f883a 	mov	r7,r3
  804c30:	100d883a 	mov	r6,r2
  804c34:	08099a00 	call	8099a0 <__subdf3>
  804c38:	180b883a 	mov	r5,r3
  804c3c:	d8c00517 	ldw	r3,20(sp)
  804c40:	9cc00c04 	addi	r19,r19,48
  804c44:	1009883a 	mov	r4,r2
  804c48:	1cc00005 	stb	r19,0(r3)
  804c4c:	2021883a 	mov	r16,r4
  804c50:	d9000317 	ldw	r4,12(sp)
  804c54:	00800044 	movi	r2,1
  804c58:	2823883a 	mov	r17,r5
  804c5c:	20802226 	beq	r4,r2,804ce8 <_dtoa_r+0x13fc>
  804c60:	1029883a 	mov	r20,r2
  804c64:	0005883a 	mov	r2,zero
  804c68:	00d00934 	movhi	r3,16420
  804c6c:	180f883a 	mov	r7,r3
  804c70:	100d883a 	mov	r6,r2
  804c74:	880b883a 	mov	r5,r17
  804c78:	8009883a 	mov	r4,r16
  804c7c:	0809a940 	call	809a94 <__muldf3>
  804c80:	180b883a 	mov	r5,r3
  804c84:	1009883a 	mov	r4,r2
  804c88:	1823883a 	mov	r17,r3
  804c8c:	1021883a 	mov	r16,r2
  804c90:	080a4500 	call	80a450 <__fixdfsi>
  804c94:	1009883a 	mov	r4,r2
  804c98:	102b883a 	mov	r21,r2
  804c9c:	080a3580 	call	80a358 <__floatsidf>
  804ca0:	880b883a 	mov	r5,r17
  804ca4:	8009883a 	mov	r4,r16
  804ca8:	180f883a 	mov	r7,r3
  804cac:	100d883a 	mov	r6,r2
  804cb0:	08099a00 	call	8099a0 <__subdf3>
  804cb4:	180b883a 	mov	r5,r3
  804cb8:	d8c00517 	ldw	r3,20(sp)
  804cbc:	1009883a 	mov	r4,r2
  804cc0:	ad400c04 	addi	r21,r21,48
  804cc4:	1d05883a 	add	r2,r3,r20
  804cc8:	15400005 	stb	r21,0(r2)
  804ccc:	2021883a 	mov	r16,r4
  804cd0:	d9000317 	ldw	r4,12(sp)
  804cd4:	a5000044 	addi	r20,r20,1
  804cd8:	2823883a 	mov	r17,r5
  804cdc:	a13fe11e 	bne	r20,r4,804c64 <_dtoa_r+0x1378>
  804ce0:	e505883a 	add	r2,fp,r20
  804ce4:	173fffc4 	addi	fp,r2,-1
  804ce8:	0025883a 	mov	r18,zero
  804cec:	04cff834 	movhi	r19,16352
  804cf0:	b009883a 	mov	r4,r22
  804cf4:	b80b883a 	mov	r5,r23
  804cf8:	900d883a 	mov	r6,r18
  804cfc:	980f883a 	mov	r7,r19
  804d00:	0809a200 	call	809a20 <__adddf3>
  804d04:	180b883a 	mov	r5,r3
  804d08:	1009883a 	mov	r4,r2
  804d0c:	800d883a 	mov	r6,r16
  804d10:	880f883a 	mov	r7,r17
  804d14:	080a2d00 	call	80a2d0 <__ltdf2>
  804d18:	103cab16 	blt	r2,zero,803fc8 <_dtoa_r+0x6dc>
  804d1c:	0009883a 	mov	r4,zero
  804d20:	980b883a 	mov	r5,r19
  804d24:	b80f883a 	mov	r7,r23
  804d28:	b00d883a 	mov	r6,r22
  804d2c:	08099a00 	call	8099a0 <__subdf3>
  804d30:	180b883a 	mov	r5,r3
  804d34:	880f883a 	mov	r7,r17
  804d38:	1009883a 	mov	r4,r2
  804d3c:	800d883a 	mov	r6,r16
  804d40:	080a1c00 	call	80a1c0 <__gtdf2>
  804d44:	00bc470e 	bge	zero,r2,803e64 <_dtoa_r+0x578>
  804d48:	00c00c04 	movi	r3,48
  804d4c:	e73fffc4 	addi	fp,fp,-1
  804d50:	e0800007 	ldb	r2,0(fp)
  804d54:	10fffd26 	beq	r2,r3,804d4c <_dtoa_r+0x1460>
  804d58:	d9800417 	ldw	r6,16(sp)
  804d5c:	e7000044 	addi	fp,fp,1
  804d60:	d9800d15 	stw	r6,52(sp)
  804d64:	003cab06 	br	804014 <_dtoa_r+0x728>
  804d68:	d8c00f17 	ldw	r3,60(sp)
  804d6c:	d9001117 	ldw	r4,68(sp)
  804d70:	20e1c83a 	sub	r16,r4,r3
  804d74:	0007883a 	mov	r3,zero
  804d78:	003d9b06 	br	8043e8 <_dtoa_r+0xafc>
  804d7c:	00800e44 	movi	r2,57
  804d80:	b0800005 	stb	r2,0(r22)
  804d84:	b5800044 	addi	r22,r22,1
  804d88:	003dc106 	br	804490 <_dtoa_r+0xba4>
  804d8c:	05800084 	movi	r22,2
  804d90:	003bf706 	br	803d70 <_dtoa_r+0x484>
  804d94:	d9000f17 	ldw	r4,60(sp)
  804d98:	013c000e 	bge	zero,r4,803d9c <_dtoa_r+0x4b0>
  804d9c:	d9800e17 	ldw	r6,56(sp)
  804da0:	01bc300e 	bge	zero,r6,803e64 <_dtoa_r+0x578>
  804da4:	0005883a 	mov	r2,zero
  804da8:	00d00934 	movhi	r3,16420
  804dac:	a80b883a 	mov	r5,r21
  804db0:	180f883a 	mov	r7,r3
  804db4:	a009883a 	mov	r4,r20
  804db8:	100d883a 	mov	r6,r2
  804dbc:	0809a940 	call	809a94 <__muldf3>
  804dc0:	b1000044 	addi	r4,r22,1
  804dc4:	1021883a 	mov	r16,r2
  804dc8:	1823883a 	mov	r17,r3
  804dcc:	080a3580 	call	80a358 <__floatsidf>
  804dd0:	880b883a 	mov	r5,r17
  804dd4:	8009883a 	mov	r4,r16
  804dd8:	180f883a 	mov	r7,r3
  804ddc:	100d883a 	mov	r6,r2
  804de0:	0809a940 	call	809a94 <__muldf3>
  804de4:	0011883a 	mov	r8,zero
  804de8:	02500734 	movhi	r9,16412
  804dec:	180b883a 	mov	r5,r3
  804df0:	480f883a 	mov	r7,r9
  804df4:	1009883a 	mov	r4,r2
  804df8:	400d883a 	mov	r6,r8
  804dfc:	0809a200 	call	809a20 <__adddf3>
  804e00:	102d883a 	mov	r22,r2
  804e04:	00bf3034 	movhi	r2,64704
  804e08:	10ef883a 	add	r23,r2,r3
  804e0c:	d8800d17 	ldw	r2,52(sp)
  804e10:	d8c00e17 	ldw	r3,56(sp)
  804e14:	8029883a 	mov	r20,r16
  804e18:	10bfffc4 	addi	r2,r2,-1
  804e1c:	882b883a 	mov	r21,r17
  804e20:	d8800415 	stw	r2,16(sp)
  804e24:	d8c00315 	stw	r3,12(sp)
  804e28:	003e8306 	br	804838 <_dtoa_r+0xf4c>
  804e2c:	d8800117 	ldw	r2,4(sp)
  804e30:	dc001117 	ldw	r16,68(sp)
  804e34:	dc801017 	ldw	r18,64(sp)
  804e38:	00c00d84 	movi	r3,54
  804e3c:	1887c83a 	sub	r3,r3,r2
  804e40:	003d6906 	br	8043e8 <_dtoa_r+0xafc>
  804e44:	01800044 	movi	r6,1
  804e48:	3021883a 	mov	r16,r6
  804e4c:	d9800f15 	stw	r6,60(sp)
  804e50:	d9802615 	stw	r6,152(sp)
  804e54:	d9800e15 	stw	r6,56(sp)
  804e58:	003b9306 	br	803ca8 <_dtoa_r+0x3bc>
  804e5c:	b021883a 	mov	r16,r22
  804e60:	dd800f15 	stw	r22,60(sp)
  804e64:	003b9006 	br	803ca8 <_dtoa_r+0x3bc>
  804e68:	103e221e 	bne	r2,zero,8046f4 <_dtoa_r+0xe08>
  804e6c:	b880004c 	andi	r2,r23,1
  804e70:	1005003a 	cmpeq	r2,r2,zero
  804e74:	103e1f1e 	bne	r2,zero,8046f4 <_dtoa_r+0xe08>
  804e78:	003e1b06 	br	8046e8 <_dtoa_r+0xdfc>
  804e7c:	d9001617 	ldw	r4,88(sp)
  804e80:	980b883a 	mov	r5,r19
  804e84:	01800284 	movi	r6,10
  804e88:	000f883a 	mov	r7,zero
  804e8c:	08077d40 	call	8077d4 <__multadd>
  804e90:	d8c00e17 	ldw	r3,56(sp)
  804e94:	1027883a 	mov	r19,r2
  804e98:	d8c00f15 	stw	r3,60(sp)
  804e9c:	003cd306 	br	8041ec <_dtoa_r+0x900>

00804ea0 <_fflush_r>:
  804ea0:	defffb04 	addi	sp,sp,-20
  804ea4:	dcc00315 	stw	r19,12(sp)
  804ea8:	dc800215 	stw	r18,8(sp)
  804eac:	dfc00415 	stw	ra,16(sp)
  804eb0:	dc400115 	stw	r17,4(sp)
  804eb4:	dc000015 	stw	r16,0(sp)
  804eb8:	2027883a 	mov	r19,r4
  804ebc:	2825883a 	mov	r18,r5
  804ec0:	20000226 	beq	r4,zero,804ecc <_fflush_r+0x2c>
  804ec4:	20800e17 	ldw	r2,56(r4)
  804ec8:	10005626 	beq	r2,zero,805024 <_fflush_r+0x184>
  804ecc:	9100030b 	ldhu	r4,12(r18)
  804ed0:	20ffffcc 	andi	r3,r4,65535
  804ed4:	18e0001c 	xori	r3,r3,32768
  804ed8:	18e00004 	addi	r3,r3,-32768
  804edc:	1880020c 	andi	r2,r3,8
  804ee0:	1000261e 	bne	r2,zero,804f7c <_fflush_r+0xdc>
  804ee4:	90c00117 	ldw	r3,4(r18)
  804ee8:	20820014 	ori	r2,r4,2048
  804eec:	9080030d 	sth	r2,12(r18)
  804ef0:	1009883a 	mov	r4,r2
  804ef4:	00c0400e 	bge	zero,r3,804ff8 <_fflush_r+0x158>
  804ef8:	92000a17 	ldw	r8,40(r18)
  804efc:	40004026 	beq	r8,zero,805000 <_fflush_r+0x160>
  804f00:	2084000c 	andi	r2,r4,4096
  804f04:	10005326 	beq	r2,zero,805054 <_fflush_r+0x1b4>
  804f08:	94001417 	ldw	r16,80(r18)
  804f0c:	9080030b 	ldhu	r2,12(r18)
  804f10:	1080010c 	andi	r2,r2,4
  804f14:	1000481e 	bne	r2,zero,805038 <_fflush_r+0x198>
  804f18:	91400717 	ldw	r5,28(r18)
  804f1c:	9809883a 	mov	r4,r19
  804f20:	800d883a 	mov	r6,r16
  804f24:	000f883a 	mov	r7,zero
  804f28:	403ee83a 	callr	r8
  804f2c:	8080261e 	bne	r16,r2,804fc8 <_fflush_r+0x128>
  804f30:	9080030b 	ldhu	r2,12(r18)
  804f34:	91000417 	ldw	r4,16(r18)
  804f38:	90000115 	stw	zero,4(r18)
  804f3c:	10bdffcc 	andi	r2,r2,63487
  804f40:	10ffffcc 	andi	r3,r2,65535
  804f44:	18c4000c 	andi	r3,r3,4096
  804f48:	9080030d 	sth	r2,12(r18)
  804f4c:	91000015 	stw	r4,0(r18)
  804f50:	18002b26 	beq	r3,zero,805000 <_fflush_r+0x160>
  804f54:	0007883a 	mov	r3,zero
  804f58:	1805883a 	mov	r2,r3
  804f5c:	94001415 	stw	r16,80(r18)
  804f60:	dfc00417 	ldw	ra,16(sp)
  804f64:	dcc00317 	ldw	r19,12(sp)
  804f68:	dc800217 	ldw	r18,8(sp)
  804f6c:	dc400117 	ldw	r17,4(sp)
  804f70:	dc000017 	ldw	r16,0(sp)
  804f74:	dec00504 	addi	sp,sp,20
  804f78:	f800283a 	ret
  804f7c:	94400417 	ldw	r17,16(r18)
  804f80:	88001f26 	beq	r17,zero,805000 <_fflush_r+0x160>
  804f84:	90800017 	ldw	r2,0(r18)
  804f88:	18c000cc 	andi	r3,r3,3
  804f8c:	94400015 	stw	r17,0(r18)
  804f90:	1461c83a 	sub	r16,r2,r17
  804f94:	18002526 	beq	r3,zero,80502c <_fflush_r+0x18c>
  804f98:	0005883a 	mov	r2,zero
  804f9c:	90800215 	stw	r2,8(r18)
  804fa0:	0400170e 	bge	zero,r16,805000 <_fflush_r+0x160>
  804fa4:	90c00917 	ldw	r3,36(r18)
  804fa8:	91400717 	ldw	r5,28(r18)
  804fac:	880d883a 	mov	r6,r17
  804fb0:	800f883a 	mov	r7,r16
  804fb4:	9809883a 	mov	r4,r19
  804fb8:	183ee83a 	callr	r3
  804fbc:	88a3883a 	add	r17,r17,r2
  804fc0:	80a1c83a 	sub	r16,r16,r2
  804fc4:	00bff616 	blt	zero,r2,804fa0 <_fflush_r+0x100>
  804fc8:	9080030b 	ldhu	r2,12(r18)
  804fcc:	00ffffc4 	movi	r3,-1
  804fd0:	10801014 	ori	r2,r2,64
  804fd4:	9080030d 	sth	r2,12(r18)
  804fd8:	1805883a 	mov	r2,r3
  804fdc:	dfc00417 	ldw	ra,16(sp)
  804fe0:	dcc00317 	ldw	r19,12(sp)
  804fe4:	dc800217 	ldw	r18,8(sp)
  804fe8:	dc400117 	ldw	r17,4(sp)
  804fec:	dc000017 	ldw	r16,0(sp)
  804ff0:	dec00504 	addi	sp,sp,20
  804ff4:	f800283a 	ret
  804ff8:	90800f17 	ldw	r2,60(r18)
  804ffc:	00bfbe16 	blt	zero,r2,804ef8 <_fflush_r+0x58>
  805000:	0007883a 	mov	r3,zero
  805004:	1805883a 	mov	r2,r3
  805008:	dfc00417 	ldw	ra,16(sp)
  80500c:	dcc00317 	ldw	r19,12(sp)
  805010:	dc800217 	ldw	r18,8(sp)
  805014:	dc400117 	ldw	r17,4(sp)
  805018:	dc000017 	ldw	r16,0(sp)
  80501c:	dec00504 	addi	sp,sp,20
  805020:	f800283a 	ret
  805024:	08051380 	call	805138 <__sinit>
  805028:	003fa806 	br	804ecc <_fflush_r+0x2c>
  80502c:	90800517 	ldw	r2,20(r18)
  805030:	90800215 	stw	r2,8(r18)
  805034:	003fda06 	br	804fa0 <_fflush_r+0x100>
  805038:	90800117 	ldw	r2,4(r18)
  80503c:	90c00c17 	ldw	r3,48(r18)
  805040:	80a1c83a 	sub	r16,r16,r2
  805044:	183fb426 	beq	r3,zero,804f18 <_fflush_r+0x78>
  805048:	90800f17 	ldw	r2,60(r18)
  80504c:	80a1c83a 	sub	r16,r16,r2
  805050:	003fb106 	br	804f18 <_fflush_r+0x78>
  805054:	91400717 	ldw	r5,28(r18)
  805058:	9809883a 	mov	r4,r19
  80505c:	000d883a 	mov	r6,zero
  805060:	01c00044 	movi	r7,1
  805064:	403ee83a 	callr	r8
  805068:	1021883a 	mov	r16,r2
  80506c:	00bfffc4 	movi	r2,-1
  805070:	80800226 	beq	r16,r2,80507c <_fflush_r+0x1dc>
  805074:	92000a17 	ldw	r8,40(r18)
  805078:	003fa406 	br	804f0c <_fflush_r+0x6c>
  80507c:	98c00017 	ldw	r3,0(r19)
  805080:	00800744 	movi	r2,29
  805084:	18bfde26 	beq	r3,r2,805000 <_fflush_r+0x160>
  805088:	9080030b 	ldhu	r2,12(r18)
  80508c:	8007883a 	mov	r3,r16
  805090:	10801014 	ori	r2,r2,64
  805094:	9080030d 	sth	r2,12(r18)
  805098:	003fcf06 	br	804fd8 <_fflush_r+0x138>

0080509c <fflush>:
  80509c:	01402034 	movhi	r5,128
  8050a0:	2953a804 	addi	r5,r5,20128
  8050a4:	2007883a 	mov	r3,r4
  8050a8:	20000526 	beq	r4,zero,8050c0 <fflush+0x24>
  8050ac:	00802074 	movhi	r2,129
  8050b0:	1092dd04 	addi	r2,r2,19316
  8050b4:	11000017 	ldw	r4,0(r2)
  8050b8:	180b883a 	mov	r5,r3
  8050bc:	0804ea01 	jmpi	804ea0 <_fflush_r>
  8050c0:	00802074 	movhi	r2,129
  8050c4:	1092de04 	addi	r2,r2,19320
  8050c8:	11000017 	ldw	r4,0(r2)
  8050cc:	0805ca01 	jmpi	805ca0 <_fwalk_reent>

008050d0 <std>:
  8050d0:	00802074 	movhi	r2,129
  8050d4:	10a08504 	addi	r2,r2,-32236
  8050d8:	20800b15 	stw	r2,44(r4)
  8050dc:	00802074 	movhi	r2,129
  8050e0:	10a0c004 	addi	r2,r2,-32000
  8050e4:	20800815 	stw	r2,32(r4)
  8050e8:	00c02074 	movhi	r3,129
  8050ec:	18e0a104 	addi	r3,r3,-32124
  8050f0:	00802074 	movhi	r2,129
  8050f4:	10a08704 	addi	r2,r2,-32228
  8050f8:	2140030d 	sth	r5,12(r4)
  8050fc:	2180038d 	sth	r6,14(r4)
  805100:	20c00915 	stw	r3,36(r4)
  805104:	20800a15 	stw	r2,40(r4)
  805108:	20000015 	stw	zero,0(r4)
  80510c:	20000115 	stw	zero,4(r4)
  805110:	20000215 	stw	zero,8(r4)
  805114:	20000415 	stw	zero,16(r4)
  805118:	20000515 	stw	zero,20(r4)
  80511c:	20000615 	stw	zero,24(r4)
  805120:	21000715 	stw	r4,28(r4)
  805124:	f800283a 	ret

00805128 <__sfp_lock_acquire>:
  805128:	f800283a 	ret

0080512c <__sfp_lock_release>:
  80512c:	f800283a 	ret

00805130 <__sinit_lock_acquire>:
  805130:	f800283a 	ret

00805134 <__sinit_lock_release>:
  805134:	f800283a 	ret

00805138 <__sinit>:
  805138:	20800e17 	ldw	r2,56(r4)
  80513c:	defffd04 	addi	sp,sp,-12
  805140:	dc400115 	stw	r17,4(sp)
  805144:	dc000015 	stw	r16,0(sp)
  805148:	dfc00215 	stw	ra,8(sp)
  80514c:	04400044 	movi	r17,1
  805150:	01400104 	movi	r5,4
  805154:	000d883a 	mov	r6,zero
  805158:	2021883a 	mov	r16,r4
  80515c:	2200bb04 	addi	r8,r4,748
  805160:	200f883a 	mov	r7,r4
  805164:	10000526 	beq	r2,zero,80517c <__sinit+0x44>
  805168:	dfc00217 	ldw	ra,8(sp)
  80516c:	dc400117 	ldw	r17,4(sp)
  805170:	dc000017 	ldw	r16,0(sp)
  805174:	dec00304 	addi	sp,sp,12
  805178:	f800283a 	ret
  80517c:	21000117 	ldw	r4,4(r4)
  805180:	00802034 	movhi	r2,128
  805184:	10948704 	addi	r2,r2,21020
  805188:	00c000c4 	movi	r3,3
  80518c:	80800f15 	stw	r2,60(r16)
  805190:	80c0b915 	stw	r3,740(r16)
  805194:	8200ba15 	stw	r8,744(r16)
  805198:	84400e15 	stw	r17,56(r16)
  80519c:	8000b815 	stw	zero,736(r16)
  8051a0:	08050d00 	call	8050d0 <std>
  8051a4:	81000217 	ldw	r4,8(r16)
  8051a8:	880d883a 	mov	r6,r17
  8051ac:	800f883a 	mov	r7,r16
  8051b0:	01400284 	movi	r5,10
  8051b4:	08050d00 	call	8050d0 <std>
  8051b8:	81000317 	ldw	r4,12(r16)
  8051bc:	800f883a 	mov	r7,r16
  8051c0:	01400484 	movi	r5,18
  8051c4:	01800084 	movi	r6,2
  8051c8:	dfc00217 	ldw	ra,8(sp)
  8051cc:	dc400117 	ldw	r17,4(sp)
  8051d0:	dc000017 	ldw	r16,0(sp)
  8051d4:	dec00304 	addi	sp,sp,12
  8051d8:	08050d01 	jmpi	8050d0 <std>

008051dc <__fp_lock>:
  8051dc:	0005883a 	mov	r2,zero
  8051e0:	f800283a 	ret

008051e4 <__fp_unlock>:
  8051e4:	0005883a 	mov	r2,zero
  8051e8:	f800283a 	ret

008051ec <__fp_unlock_all>:
  8051ec:	00802074 	movhi	r2,129
  8051f0:	1092dd04 	addi	r2,r2,19316
  8051f4:	11000017 	ldw	r4,0(r2)
  8051f8:	01402034 	movhi	r5,128
  8051fc:	29547904 	addi	r5,r5,20964
  805200:	0805d681 	jmpi	805d68 <_fwalk>

00805204 <__fp_lock_all>:
  805204:	00802074 	movhi	r2,129
  805208:	1092dd04 	addi	r2,r2,19316
  80520c:	11000017 	ldw	r4,0(r2)
  805210:	01402034 	movhi	r5,128
  805214:	29547704 	addi	r5,r5,20956
  805218:	0805d681 	jmpi	805d68 <_fwalk>

0080521c <_cleanup_r>:
  80521c:	01402074 	movhi	r5,129
  805220:	2961b704 	addi	r5,r5,-31012
  805224:	0805d681 	jmpi	805d68 <_fwalk>

00805228 <_cleanup>:
  805228:	00802074 	movhi	r2,129
  80522c:	1092de04 	addi	r2,r2,19320
  805230:	11000017 	ldw	r4,0(r2)
  805234:	080521c1 	jmpi	80521c <_cleanup_r>

00805238 <__sfmoreglue>:
  805238:	defffc04 	addi	sp,sp,-16
  80523c:	dc000015 	stw	r16,0(sp)
  805240:	2821883a 	mov	r16,r5
  805244:	dc400115 	stw	r17,4(sp)
  805248:	01401704 	movi	r5,92
  80524c:	2023883a 	mov	r17,r4
  805250:	8009883a 	mov	r4,r16
  805254:	dfc00315 	stw	ra,12(sp)
  805258:	dcc00215 	stw	r19,8(sp)
  80525c:	08014540 	call	801454 <__mulsi3>
  805260:	11400304 	addi	r5,r2,12
  805264:	8809883a 	mov	r4,r17
  805268:	1027883a 	mov	r19,r2
  80526c:	08060780 	call	806078 <_malloc_r>
  805270:	10c00304 	addi	r3,r2,12
  805274:	1023883a 	mov	r17,r2
  805278:	1809883a 	mov	r4,r3
  80527c:	980d883a 	mov	r6,r19
  805280:	000b883a 	mov	r5,zero
  805284:	10000b26 	beq	r2,zero,8052b4 <__sfmoreglue+0x7c>
  805288:	14000115 	stw	r16,4(r2)
  80528c:	10c00215 	stw	r3,8(r2)
  805290:	10000015 	stw	zero,0(r2)
  805294:	0806a1c0 	call	806a1c <memset>
  805298:	8805883a 	mov	r2,r17
  80529c:	dfc00317 	ldw	ra,12(sp)
  8052a0:	dcc00217 	ldw	r19,8(sp)
  8052a4:	dc400117 	ldw	r17,4(sp)
  8052a8:	dc000017 	ldw	r16,0(sp)
  8052ac:	dec00404 	addi	sp,sp,16
  8052b0:	f800283a 	ret
  8052b4:	0023883a 	mov	r17,zero
  8052b8:	8805883a 	mov	r2,r17
  8052bc:	dfc00317 	ldw	ra,12(sp)
  8052c0:	dcc00217 	ldw	r19,8(sp)
  8052c4:	dc400117 	ldw	r17,4(sp)
  8052c8:	dc000017 	ldw	r16,0(sp)
  8052cc:	dec00404 	addi	sp,sp,16
  8052d0:	f800283a 	ret

008052d4 <__sfp>:
  8052d4:	defffd04 	addi	sp,sp,-12
  8052d8:	00802074 	movhi	r2,129
  8052dc:	1092de04 	addi	r2,r2,19320
  8052e0:	dc000015 	stw	r16,0(sp)
  8052e4:	14000017 	ldw	r16,0(r2)
  8052e8:	dc400115 	stw	r17,4(sp)
  8052ec:	dfc00215 	stw	ra,8(sp)
  8052f0:	80800e17 	ldw	r2,56(r16)
  8052f4:	2023883a 	mov	r17,r4
  8052f8:	10002626 	beq	r2,zero,805394 <__sfp+0xc0>
  8052fc:	8400b804 	addi	r16,r16,736
  805300:	80800117 	ldw	r2,4(r16)
  805304:	81000217 	ldw	r4,8(r16)
  805308:	10ffffc4 	addi	r3,r2,-1
  80530c:	18000916 	blt	r3,zero,805334 <__sfp+0x60>
  805310:	2080030f 	ldh	r2,12(r4)
  805314:	10000b26 	beq	r2,zero,805344 <__sfp+0x70>
  805318:	017fffc4 	movi	r5,-1
  80531c:	00000206 	br	805328 <__sfp+0x54>
  805320:	2080030f 	ldh	r2,12(r4)
  805324:	10000726 	beq	r2,zero,805344 <__sfp+0x70>
  805328:	18ffffc4 	addi	r3,r3,-1
  80532c:	21001704 	addi	r4,r4,92
  805330:	197ffb1e 	bne	r3,r5,805320 <__sfp+0x4c>
  805334:	80800017 	ldw	r2,0(r16)
  805338:	10001926 	beq	r2,zero,8053a0 <__sfp+0xcc>
  80533c:	1021883a 	mov	r16,r2
  805340:	003fef06 	br	805300 <__sfp+0x2c>
  805344:	00bfffc4 	movi	r2,-1
  805348:	00c00044 	movi	r3,1
  80534c:	2080038d 	sth	r2,14(r4)
  805350:	20c0030d 	sth	r3,12(r4)
  805354:	20000015 	stw	zero,0(r4)
  805358:	20000215 	stw	zero,8(r4)
  80535c:	20000115 	stw	zero,4(r4)
  805360:	20000415 	stw	zero,16(r4)
  805364:	20000515 	stw	zero,20(r4)
  805368:	20000615 	stw	zero,24(r4)
  80536c:	20000c15 	stw	zero,48(r4)
  805370:	20000d15 	stw	zero,52(r4)
  805374:	20001115 	stw	zero,68(r4)
  805378:	20001215 	stw	zero,72(r4)
  80537c:	2005883a 	mov	r2,r4
  805380:	dfc00217 	ldw	ra,8(sp)
  805384:	dc400117 	ldw	r17,4(sp)
  805388:	dc000017 	ldw	r16,0(sp)
  80538c:	dec00304 	addi	sp,sp,12
  805390:	f800283a 	ret
  805394:	8009883a 	mov	r4,r16
  805398:	08051380 	call	805138 <__sinit>
  80539c:	003fd706 	br	8052fc <__sfp+0x28>
  8053a0:	8809883a 	mov	r4,r17
  8053a4:	01400104 	movi	r5,4
  8053a8:	08052380 	call	805238 <__sfmoreglue>
  8053ac:	80800015 	stw	r2,0(r16)
  8053b0:	103fe21e 	bne	r2,zero,80533c <__sfp+0x68>
  8053b4:	00800304 	movi	r2,12
  8053b8:	0009883a 	mov	r4,zero
  8053bc:	88800015 	stw	r2,0(r17)
  8053c0:	003fee06 	br	80537c <__sfp+0xa8>

008053c4 <_malloc_trim_r>:
  8053c4:	defffb04 	addi	sp,sp,-20
  8053c8:	dcc00315 	stw	r19,12(sp)
  8053cc:	04c02074 	movhi	r19,129
  8053d0:	9ccd2e04 	addi	r19,r19,13496
  8053d4:	dc800215 	stw	r18,8(sp)
  8053d8:	dc400115 	stw	r17,4(sp)
  8053dc:	dc000015 	stw	r16,0(sp)
  8053e0:	2823883a 	mov	r17,r5
  8053e4:	2025883a 	mov	r18,r4
  8053e8:	dfc00415 	stw	ra,16(sp)
  8053ec:	080b1080 	call	80b108 <__malloc_lock>
  8053f0:	98800217 	ldw	r2,8(r19)
  8053f4:	9009883a 	mov	r4,r18
  8053f8:	000b883a 	mov	r5,zero
  8053fc:	10c00117 	ldw	r3,4(r2)
  805400:	00bfff04 	movi	r2,-4
  805404:	18a0703a 	and	r16,r3,r2
  805408:	8463c83a 	sub	r17,r16,r17
  80540c:	8c43fbc4 	addi	r17,r17,4079
  805410:	8822d33a 	srli	r17,r17,12
  805414:	0083ffc4 	movi	r2,4095
  805418:	8c7fffc4 	addi	r17,r17,-1
  80541c:	8822933a 	slli	r17,r17,12
  805420:	1440060e 	bge	r2,r17,80543c <_malloc_trim_r+0x78>
  805424:	08081a40 	call	8081a4 <_sbrk_r>
  805428:	98c00217 	ldw	r3,8(r19)
  80542c:	9009883a 	mov	r4,r18
  805430:	044bc83a 	sub	r5,zero,r17
  805434:	80c7883a 	add	r3,r16,r3
  805438:	10c00926 	beq	r2,r3,805460 <_malloc_trim_r+0x9c>
  80543c:	080b15c0 	call	80b15c <__malloc_unlock>
  805440:	0005883a 	mov	r2,zero
  805444:	dfc00417 	ldw	ra,16(sp)
  805448:	dcc00317 	ldw	r19,12(sp)
  80544c:	dc800217 	ldw	r18,8(sp)
  805450:	dc400117 	ldw	r17,4(sp)
  805454:	dc000017 	ldw	r16,0(sp)
  805458:	dec00504 	addi	sp,sp,20
  80545c:	f800283a 	ret
  805460:	9009883a 	mov	r4,r18
  805464:	08081a40 	call	8081a4 <_sbrk_r>
  805468:	844dc83a 	sub	r6,r16,r17
  80546c:	00ffffc4 	movi	r3,-1
  805470:	9009883a 	mov	r4,r18
  805474:	000b883a 	mov	r5,zero
  805478:	01c02074 	movhi	r7,129
  80547c:	39d9fa04 	addi	r7,r7,26600
  805480:	31800054 	ori	r6,r6,1
  805484:	10c00926 	beq	r2,r3,8054ac <_malloc_trim_r+0xe8>
  805488:	38800017 	ldw	r2,0(r7)
  80548c:	98c00217 	ldw	r3,8(r19)
  805490:	9009883a 	mov	r4,r18
  805494:	1445c83a 	sub	r2,r2,r17
  805498:	38800015 	stw	r2,0(r7)
  80549c:	19800115 	stw	r6,4(r3)
  8054a0:	080b15c0 	call	80b15c <__malloc_unlock>
  8054a4:	00800044 	movi	r2,1
  8054a8:	003fe606 	br	805444 <_malloc_trim_r+0x80>
  8054ac:	08081a40 	call	8081a4 <_sbrk_r>
  8054b0:	99800217 	ldw	r6,8(r19)
  8054b4:	100f883a 	mov	r7,r2
  8054b8:	9009883a 	mov	r4,r18
  8054bc:	1187c83a 	sub	r3,r2,r6
  8054c0:	008003c4 	movi	r2,15
  8054c4:	19400054 	ori	r5,r3,1
  8054c8:	10ffdc0e 	bge	r2,r3,80543c <_malloc_trim_r+0x78>
  8054cc:	00802074 	movhi	r2,129
  8054d0:	1092e204 	addi	r2,r2,19336
  8054d4:	10c00017 	ldw	r3,0(r2)
  8054d8:	00802074 	movhi	r2,129
  8054dc:	1099fa04 	addi	r2,r2,26600
  8054e0:	31400115 	stw	r5,4(r6)
  8054e4:	38c7c83a 	sub	r3,r7,r3
  8054e8:	10c00015 	stw	r3,0(r2)
  8054ec:	003fd306 	br	80543c <_malloc_trim_r+0x78>

008054f0 <_free_r>:
  8054f0:	defffd04 	addi	sp,sp,-12
  8054f4:	dc400115 	stw	r17,4(sp)
  8054f8:	dc000015 	stw	r16,0(sp)
  8054fc:	dfc00215 	stw	ra,8(sp)
  805500:	2821883a 	mov	r16,r5
  805504:	2023883a 	mov	r17,r4
  805508:	28005a26 	beq	r5,zero,805674 <_free_r+0x184>
  80550c:	080b1080 	call	80b108 <__malloc_lock>
  805510:	823ffe04 	addi	r8,r16,-8
  805514:	41400117 	ldw	r5,4(r8)
  805518:	00bfff84 	movi	r2,-2
  80551c:	02802074 	movhi	r10,129
  805520:	528d2e04 	addi	r10,r10,13496
  805524:	288e703a 	and	r7,r5,r2
  805528:	41cd883a 	add	r6,r8,r7
  80552c:	30c00117 	ldw	r3,4(r6)
  805530:	51000217 	ldw	r4,8(r10)
  805534:	00bfff04 	movi	r2,-4
  805538:	1892703a 	and	r9,r3,r2
  80553c:	5017883a 	mov	r11,r10
  805540:	31006726 	beq	r6,r4,8056e0 <_free_r+0x1f0>
  805544:	2880004c 	andi	r2,r5,1
  805548:	1005003a 	cmpeq	r2,r2,zero
  80554c:	32400115 	stw	r9,4(r6)
  805550:	10001a1e 	bne	r2,zero,8055bc <_free_r+0xcc>
  805554:	000b883a 	mov	r5,zero
  805558:	3247883a 	add	r3,r6,r9
  80555c:	18800117 	ldw	r2,4(r3)
  805560:	1080004c 	andi	r2,r2,1
  805564:	1000231e 	bne	r2,zero,8055f4 <_free_r+0x104>
  805568:	280ac03a 	cmpne	r5,r5,zero
  80556c:	3a4f883a 	add	r7,r7,r9
  805570:	2800451e 	bne	r5,zero,805688 <_free_r+0x198>
  805574:	31000217 	ldw	r4,8(r6)
  805578:	00802074 	movhi	r2,129
  80557c:	108d3004 	addi	r2,r2,13504
  805580:	20807b26 	beq	r4,r2,805770 <_free_r+0x280>
  805584:	30800317 	ldw	r2,12(r6)
  805588:	3a07883a 	add	r3,r7,r8
  80558c:	19c00015 	stw	r7,0(r3)
  805590:	11000215 	stw	r4,8(r2)
  805594:	20800315 	stw	r2,12(r4)
  805598:	38800054 	ori	r2,r7,1
  80559c:	40800115 	stw	r2,4(r8)
  8055a0:	28001a26 	beq	r5,zero,80560c <_free_r+0x11c>
  8055a4:	8809883a 	mov	r4,r17
  8055a8:	dfc00217 	ldw	ra,8(sp)
  8055ac:	dc400117 	ldw	r17,4(sp)
  8055b0:	dc000017 	ldw	r16,0(sp)
  8055b4:	dec00304 	addi	sp,sp,12
  8055b8:	080b15c1 	jmpi	80b15c <__malloc_unlock>
  8055bc:	80bffe17 	ldw	r2,-8(r16)
  8055c0:	50c00204 	addi	r3,r10,8
  8055c4:	4091c83a 	sub	r8,r8,r2
  8055c8:	41000217 	ldw	r4,8(r8)
  8055cc:	388f883a 	add	r7,r7,r2
  8055d0:	20c06126 	beq	r4,r3,805758 <_free_r+0x268>
  8055d4:	40800317 	ldw	r2,12(r8)
  8055d8:	3247883a 	add	r3,r6,r9
  8055dc:	000b883a 	mov	r5,zero
  8055e0:	11000215 	stw	r4,8(r2)
  8055e4:	20800315 	stw	r2,12(r4)
  8055e8:	18800117 	ldw	r2,4(r3)
  8055ec:	1080004c 	andi	r2,r2,1
  8055f0:	103fdd26 	beq	r2,zero,805568 <_free_r+0x78>
  8055f4:	38800054 	ori	r2,r7,1
  8055f8:	3a07883a 	add	r3,r7,r8
  8055fc:	280ac03a 	cmpne	r5,r5,zero
  805600:	40800115 	stw	r2,4(r8)
  805604:	19c00015 	stw	r7,0(r3)
  805608:	283fe61e 	bne	r5,zero,8055a4 <_free_r+0xb4>
  80560c:	00807fc4 	movi	r2,511
  805610:	11c01f2e 	bgeu	r2,r7,805690 <_free_r+0x1a0>
  805614:	3806d27a 	srli	r3,r7,9
  805618:	1800481e 	bne	r3,zero,80573c <_free_r+0x24c>
  80561c:	3804d0fa 	srli	r2,r7,3
  805620:	100690fa 	slli	r3,r2,3
  805624:	1acd883a 	add	r6,r3,r11
  805628:	31400217 	ldw	r5,8(r6)
  80562c:	31405926 	beq	r6,r5,805794 <_free_r+0x2a4>
  805630:	28800117 	ldw	r2,4(r5)
  805634:	00ffff04 	movi	r3,-4
  805638:	10c4703a 	and	r2,r2,r3
  80563c:	3880022e 	bgeu	r7,r2,805648 <_free_r+0x158>
  805640:	29400217 	ldw	r5,8(r5)
  805644:	317ffa1e 	bne	r6,r5,805630 <_free_r+0x140>
  805648:	29800317 	ldw	r6,12(r5)
  80564c:	41800315 	stw	r6,12(r8)
  805650:	41400215 	stw	r5,8(r8)
  805654:	8809883a 	mov	r4,r17
  805658:	2a000315 	stw	r8,12(r5)
  80565c:	32000215 	stw	r8,8(r6)
  805660:	dfc00217 	ldw	ra,8(sp)
  805664:	dc400117 	ldw	r17,4(sp)
  805668:	dc000017 	ldw	r16,0(sp)
  80566c:	dec00304 	addi	sp,sp,12
  805670:	080b15c1 	jmpi	80b15c <__malloc_unlock>
  805674:	dfc00217 	ldw	ra,8(sp)
  805678:	dc400117 	ldw	r17,4(sp)
  80567c:	dc000017 	ldw	r16,0(sp)
  805680:	dec00304 	addi	sp,sp,12
  805684:	f800283a 	ret
  805688:	31000217 	ldw	r4,8(r6)
  80568c:	003fbd06 	br	805584 <_free_r+0x94>
  805690:	3806d0fa 	srli	r3,r7,3
  805694:	00800044 	movi	r2,1
  805698:	51400117 	ldw	r5,4(r10)
  80569c:	180890fa 	slli	r4,r3,3
  8056a0:	1807d0ba 	srai	r3,r3,2
  8056a4:	22c9883a 	add	r4,r4,r11
  8056a8:	21800217 	ldw	r6,8(r4)
  8056ac:	10c4983a 	sll	r2,r2,r3
  8056b0:	41000315 	stw	r4,12(r8)
  8056b4:	41800215 	stw	r6,8(r8)
  8056b8:	288ab03a 	or	r5,r5,r2
  8056bc:	22000215 	stw	r8,8(r4)
  8056c0:	8809883a 	mov	r4,r17
  8056c4:	51400115 	stw	r5,4(r10)
  8056c8:	32000315 	stw	r8,12(r6)
  8056cc:	dfc00217 	ldw	ra,8(sp)
  8056d0:	dc400117 	ldw	r17,4(sp)
  8056d4:	dc000017 	ldw	r16,0(sp)
  8056d8:	dec00304 	addi	sp,sp,12
  8056dc:	080b15c1 	jmpi	80b15c <__malloc_unlock>
  8056e0:	2880004c 	andi	r2,r5,1
  8056e4:	3a4d883a 	add	r6,r7,r9
  8056e8:	1000071e 	bne	r2,zero,805708 <_free_r+0x218>
  8056ec:	80bffe17 	ldw	r2,-8(r16)
  8056f0:	4091c83a 	sub	r8,r8,r2
  8056f4:	41000317 	ldw	r4,12(r8)
  8056f8:	40c00217 	ldw	r3,8(r8)
  8056fc:	308d883a 	add	r6,r6,r2
  805700:	20c00215 	stw	r3,8(r4)
  805704:	19000315 	stw	r4,12(r3)
  805708:	00802074 	movhi	r2,129
  80570c:	1092e104 	addi	r2,r2,19332
  805710:	11000017 	ldw	r4,0(r2)
  805714:	30c00054 	ori	r3,r6,1
  805718:	52000215 	stw	r8,8(r10)
  80571c:	40c00115 	stw	r3,4(r8)
  805720:	313fa036 	bltu	r6,r4,8055a4 <_free_r+0xb4>
  805724:	00802074 	movhi	r2,129
  805728:	1099c704 	addi	r2,r2,26396
  80572c:	11400017 	ldw	r5,0(r2)
  805730:	8809883a 	mov	r4,r17
  805734:	08053c40 	call	8053c4 <_malloc_trim_r>
  805738:	003f9a06 	br	8055a4 <_free_r+0xb4>
  80573c:	00800104 	movi	r2,4
  805740:	10c0072e 	bgeu	r2,r3,805760 <_free_r+0x270>
  805744:	00800504 	movi	r2,20
  805748:	10c01936 	bltu	r2,r3,8057b0 <_free_r+0x2c0>
  80574c:	188016c4 	addi	r2,r3,91
  805750:	100690fa 	slli	r3,r2,3
  805754:	003fb306 	br	805624 <_free_r+0x134>
  805758:	01400044 	movi	r5,1
  80575c:	003f7e06 	br	805558 <_free_r+0x68>
  805760:	3804d1ba 	srli	r2,r7,6
  805764:	10800e04 	addi	r2,r2,56
  805768:	100690fa 	slli	r3,r2,3
  80576c:	003fad06 	br	805624 <_free_r+0x134>
  805770:	22000315 	stw	r8,12(r4)
  805774:	22000215 	stw	r8,8(r4)
  805778:	3a05883a 	add	r2,r7,r8
  80577c:	38c00054 	ori	r3,r7,1
  805780:	11c00015 	stw	r7,0(r2)
  805784:	41000215 	stw	r4,8(r8)
  805788:	40c00115 	stw	r3,4(r8)
  80578c:	41000315 	stw	r4,12(r8)
  805790:	003f8406 	br	8055a4 <_free_r+0xb4>
  805794:	1005d0ba 	srai	r2,r2,2
  805798:	00c00044 	movi	r3,1
  80579c:	51000117 	ldw	r4,4(r10)
  8057a0:	1886983a 	sll	r3,r3,r2
  8057a4:	20c8b03a 	or	r4,r4,r3
  8057a8:	51000115 	stw	r4,4(r10)
  8057ac:	003fa706 	br	80564c <_free_r+0x15c>
  8057b0:	00801504 	movi	r2,84
  8057b4:	10c00436 	bltu	r2,r3,8057c8 <_free_r+0x2d8>
  8057b8:	3804d33a 	srli	r2,r7,12
  8057bc:	10801b84 	addi	r2,r2,110
  8057c0:	100690fa 	slli	r3,r2,3
  8057c4:	003f9706 	br	805624 <_free_r+0x134>
  8057c8:	00805504 	movi	r2,340
  8057cc:	10c00436 	bltu	r2,r3,8057e0 <_free_r+0x2f0>
  8057d0:	3804d3fa 	srli	r2,r7,15
  8057d4:	10801dc4 	addi	r2,r2,119
  8057d8:	100690fa 	slli	r3,r2,3
  8057dc:	003f9106 	br	805624 <_free_r+0x134>
  8057e0:	00815504 	movi	r2,1364
  8057e4:	10c0032e 	bgeu	r2,r3,8057f4 <_free_r+0x304>
  8057e8:	00801f84 	movi	r2,126
  8057ec:	00c0fc04 	movi	r3,1008
  8057f0:	003f8c06 	br	805624 <_free_r+0x134>
  8057f4:	3804d4ba 	srli	r2,r7,18
  8057f8:	10801f04 	addi	r2,r2,124
  8057fc:	100690fa 	slli	r3,r2,3
  805800:	003f8806 	br	805624 <_free_r+0x134>

00805804 <__sfvwrite_r>:
  805804:	30800217 	ldw	r2,8(r6)
  805808:	defff504 	addi	sp,sp,-44
  80580c:	df000915 	stw	fp,36(sp)
  805810:	dd800715 	stw	r22,28(sp)
  805814:	dc800315 	stw	r18,12(sp)
  805818:	dfc00a15 	stw	ra,40(sp)
  80581c:	ddc00815 	stw	r23,32(sp)
  805820:	dd400615 	stw	r21,24(sp)
  805824:	dd000515 	stw	r20,20(sp)
  805828:	dcc00415 	stw	r19,16(sp)
  80582c:	dc400215 	stw	r17,8(sp)
  805830:	dc000115 	stw	r16,4(sp)
  805834:	302d883a 	mov	r22,r6
  805838:	2039883a 	mov	fp,r4
  80583c:	2825883a 	mov	r18,r5
  805840:	10001c26 	beq	r2,zero,8058b4 <__sfvwrite_r+0xb0>
  805844:	29c0030b 	ldhu	r7,12(r5)
  805848:	3880020c 	andi	r2,r7,8
  80584c:	10002726 	beq	r2,zero,8058ec <__sfvwrite_r+0xe8>
  805850:	28800417 	ldw	r2,16(r5)
  805854:	10002526 	beq	r2,zero,8058ec <__sfvwrite_r+0xe8>
  805858:	3880008c 	andi	r2,r7,2
  80585c:	b5400017 	ldw	r21,0(r22)
  805860:	10002826 	beq	r2,zero,805904 <__sfvwrite_r+0x100>
  805864:	0021883a 	mov	r16,zero
  805868:	0023883a 	mov	r17,zero
  80586c:	880d883a 	mov	r6,r17
  805870:	e009883a 	mov	r4,fp
  805874:	00810004 	movi	r2,1024
  805878:	80006e26 	beq	r16,zero,805a34 <__sfvwrite_r+0x230>
  80587c:	800f883a 	mov	r7,r16
  805880:	91400717 	ldw	r5,28(r18)
  805884:	1400012e 	bgeu	r2,r16,80588c <__sfvwrite_r+0x88>
  805888:	100f883a 	mov	r7,r2
  80588c:	90c00917 	ldw	r3,36(r18)
  805890:	183ee83a 	callr	r3
  805894:	1007883a 	mov	r3,r2
  805898:	80a1c83a 	sub	r16,r16,r2
  80589c:	88a3883a 	add	r17,r17,r2
  8058a0:	00806d0e 	bge	zero,r2,805a58 <__sfvwrite_r+0x254>
  8058a4:	b0800217 	ldw	r2,8(r22)
  8058a8:	10c5c83a 	sub	r2,r2,r3
  8058ac:	b0800215 	stw	r2,8(r22)
  8058b0:	103fee1e 	bne	r2,zero,80586c <__sfvwrite_r+0x68>
  8058b4:	0009883a 	mov	r4,zero
  8058b8:	2005883a 	mov	r2,r4
  8058bc:	dfc00a17 	ldw	ra,40(sp)
  8058c0:	df000917 	ldw	fp,36(sp)
  8058c4:	ddc00817 	ldw	r23,32(sp)
  8058c8:	dd800717 	ldw	r22,28(sp)
  8058cc:	dd400617 	ldw	r21,24(sp)
  8058d0:	dd000517 	ldw	r20,20(sp)
  8058d4:	dcc00417 	ldw	r19,16(sp)
  8058d8:	dc800317 	ldw	r18,12(sp)
  8058dc:	dc400217 	ldw	r17,8(sp)
  8058e0:	dc000117 	ldw	r16,4(sp)
  8058e4:	dec00b04 	addi	sp,sp,44
  8058e8:	f800283a 	ret
  8058ec:	080356c0 	call	80356c <__swsetup_r>
  8058f0:	1000e41e 	bne	r2,zero,805c84 <__sfvwrite_r+0x480>
  8058f4:	91c0030b 	ldhu	r7,12(r18)
  8058f8:	b5400017 	ldw	r21,0(r22)
  8058fc:	3880008c 	andi	r2,r7,2
  805900:	103fd81e 	bne	r2,zero,805864 <__sfvwrite_r+0x60>
  805904:	3880004c 	andi	r2,r7,1
  805908:	1005003a 	cmpeq	r2,r2,zero
  80590c:	10005726 	beq	r2,zero,805a6c <__sfvwrite_r+0x268>
  805910:	0029883a 	mov	r20,zero
  805914:	002f883a 	mov	r23,zero
  805918:	a0004226 	beq	r20,zero,805a24 <__sfvwrite_r+0x220>
  80591c:	3880800c 	andi	r2,r7,512
  805920:	94000217 	ldw	r16,8(r18)
  805924:	10008b26 	beq	r2,zero,805b54 <__sfvwrite_r+0x350>
  805928:	800d883a 	mov	r6,r16
  80592c:	a400a536 	bltu	r20,r16,805bc4 <__sfvwrite_r+0x3c0>
  805930:	3881200c 	andi	r2,r7,1152
  805934:	10002726 	beq	r2,zero,8059d4 <__sfvwrite_r+0x1d0>
  805938:	90800517 	ldw	r2,20(r18)
  80593c:	92000417 	ldw	r8,16(r18)
  805940:	91400017 	ldw	r5,0(r18)
  805944:	1087883a 	add	r3,r2,r2
  805948:	1887883a 	add	r3,r3,r2
  80594c:	1808d7fa 	srli	r4,r3,31
  805950:	2a21c83a 	sub	r16,r5,r8
  805954:	80800044 	addi	r2,r16,1
  805958:	20c9883a 	add	r4,r4,r3
  80595c:	2027d07a 	srai	r19,r4,1
  805960:	a085883a 	add	r2,r20,r2
  805964:	980d883a 	mov	r6,r19
  805968:	9880022e 	bgeu	r19,r2,805974 <__sfvwrite_r+0x170>
  80596c:	1027883a 	mov	r19,r2
  805970:	100d883a 	mov	r6,r2
  805974:	3881000c 	andi	r2,r7,1024
  805978:	1000b826 	beq	r2,zero,805c5c <__sfvwrite_r+0x458>
  80597c:	300b883a 	mov	r5,r6
  805980:	e009883a 	mov	r4,fp
  805984:	08060780 	call	806078 <_malloc_r>
  805988:	10003126 	beq	r2,zero,805a50 <__sfvwrite_r+0x24c>
  80598c:	91400417 	ldw	r5,16(r18)
  805990:	1009883a 	mov	r4,r2
  805994:	800d883a 	mov	r6,r16
  805998:	1023883a 	mov	r17,r2
  80599c:	080689c0 	call	80689c <memcpy>
  8059a0:	90c0030b 	ldhu	r3,12(r18)
  8059a4:	00beffc4 	movi	r2,-1025
  8059a8:	1886703a 	and	r3,r3,r2
  8059ac:	18c02014 	ori	r3,r3,128
  8059b0:	90c0030d 	sth	r3,12(r18)
  8059b4:	9c07c83a 	sub	r3,r19,r16
  8059b8:	8c05883a 	add	r2,r17,r16
  8059bc:	a00d883a 	mov	r6,r20
  8059c0:	a021883a 	mov	r16,r20
  8059c4:	90800015 	stw	r2,0(r18)
  8059c8:	90c00215 	stw	r3,8(r18)
  8059cc:	94400415 	stw	r17,16(r18)
  8059d0:	94c00515 	stw	r19,20(r18)
  8059d4:	91000017 	ldw	r4,0(r18)
  8059d8:	b80b883a 	mov	r5,r23
  8059dc:	a023883a 	mov	r17,r20
  8059e0:	080693c0 	call	80693c <memmove>
  8059e4:	90c00217 	ldw	r3,8(r18)
  8059e8:	90800017 	ldw	r2,0(r18)
  8059ec:	a027883a 	mov	r19,r20
  8059f0:	1c07c83a 	sub	r3,r3,r16
  8059f4:	1405883a 	add	r2,r2,r16
  8059f8:	90c00215 	stw	r3,8(r18)
  8059fc:	a021883a 	mov	r16,r20
  805a00:	90800015 	stw	r2,0(r18)
  805a04:	b0800217 	ldw	r2,8(r22)
  805a08:	1405c83a 	sub	r2,r2,r16
  805a0c:	b0800215 	stw	r2,8(r22)
  805a10:	103fa826 	beq	r2,zero,8058b4 <__sfvwrite_r+0xb0>
  805a14:	a469c83a 	sub	r20,r20,r17
  805a18:	91c0030b 	ldhu	r7,12(r18)
  805a1c:	bcef883a 	add	r23,r23,r19
  805a20:	a03fbe1e 	bne	r20,zero,80591c <__sfvwrite_r+0x118>
  805a24:	adc00017 	ldw	r23,0(r21)
  805a28:	ad000117 	ldw	r20,4(r21)
  805a2c:	ad400204 	addi	r21,r21,8
  805a30:	003fb906 	br	805918 <__sfvwrite_r+0x114>
  805a34:	ac400017 	ldw	r17,0(r21)
  805a38:	ac000117 	ldw	r16,4(r21)
  805a3c:	ad400204 	addi	r21,r21,8
  805a40:	003f8a06 	br	80586c <__sfvwrite_r+0x68>
  805a44:	91400417 	ldw	r5,16(r18)
  805a48:	e009883a 	mov	r4,fp
  805a4c:	08054f00 	call	8054f0 <_free_r>
  805a50:	00800304 	movi	r2,12
  805a54:	e0800015 	stw	r2,0(fp)
  805a58:	9080030b 	ldhu	r2,12(r18)
  805a5c:	013fffc4 	movi	r4,-1
  805a60:	10801014 	ori	r2,r2,64
  805a64:	9080030d 	sth	r2,12(r18)
  805a68:	003f9306 	br	8058b8 <__sfvwrite_r+0xb4>
  805a6c:	0027883a 	mov	r19,zero
  805a70:	002f883a 	mov	r23,zero
  805a74:	d8000015 	stw	zero,0(sp)
  805a78:	0029883a 	mov	r20,zero
  805a7c:	98001e26 	beq	r19,zero,805af8 <__sfvwrite_r+0x2f4>
  805a80:	d8c00017 	ldw	r3,0(sp)
  805a84:	1804c03a 	cmpne	r2,r3,zero
  805a88:	10005e26 	beq	r2,zero,805c04 <__sfvwrite_r+0x400>
  805a8c:	9821883a 	mov	r16,r19
  805a90:	a4c0012e 	bgeu	r20,r19,805a98 <__sfvwrite_r+0x294>
  805a94:	a021883a 	mov	r16,r20
  805a98:	91000017 	ldw	r4,0(r18)
  805a9c:	90800417 	ldw	r2,16(r18)
  805aa0:	91800217 	ldw	r6,8(r18)
  805aa4:	91c00517 	ldw	r7,20(r18)
  805aa8:	1100022e 	bgeu	r2,r4,805ab4 <__sfvwrite_r+0x2b0>
  805aac:	31e3883a 	add	r17,r6,r7
  805ab0:	8c001616 	blt	r17,r16,805b0c <__sfvwrite_r+0x308>
  805ab4:	81c03816 	blt	r16,r7,805b98 <__sfvwrite_r+0x394>
  805ab8:	90c00917 	ldw	r3,36(r18)
  805abc:	91400717 	ldw	r5,28(r18)
  805ac0:	e009883a 	mov	r4,fp
  805ac4:	b80d883a 	mov	r6,r23
  805ac8:	183ee83a 	callr	r3
  805acc:	1023883a 	mov	r17,r2
  805ad0:	00bfe10e 	bge	zero,r2,805a58 <__sfvwrite_r+0x254>
  805ad4:	a469c83a 	sub	r20,r20,r17
  805ad8:	a0001826 	beq	r20,zero,805b3c <__sfvwrite_r+0x338>
  805adc:	b0800217 	ldw	r2,8(r22)
  805ae0:	1445c83a 	sub	r2,r2,r17
  805ae4:	b0800215 	stw	r2,8(r22)
  805ae8:	103f7226 	beq	r2,zero,8058b4 <__sfvwrite_r+0xb0>
  805aec:	9c67c83a 	sub	r19,r19,r17
  805af0:	bc6f883a 	add	r23,r23,r17
  805af4:	983fe21e 	bne	r19,zero,805a80 <__sfvwrite_r+0x27c>
  805af8:	adc00017 	ldw	r23,0(r21)
  805afc:	acc00117 	ldw	r19,4(r21)
  805b00:	ad400204 	addi	r21,r21,8
  805b04:	d8000015 	stw	zero,0(sp)
  805b08:	003fdc06 	br	805a7c <__sfvwrite_r+0x278>
  805b0c:	b80b883a 	mov	r5,r23
  805b10:	880d883a 	mov	r6,r17
  805b14:	080693c0 	call	80693c <memmove>
  805b18:	90c00017 	ldw	r3,0(r18)
  805b1c:	e009883a 	mov	r4,fp
  805b20:	900b883a 	mov	r5,r18
  805b24:	1c47883a 	add	r3,r3,r17
  805b28:	90c00015 	stw	r3,0(r18)
  805b2c:	0804ea00 	call	804ea0 <_fflush_r>
  805b30:	103fc91e 	bne	r2,zero,805a58 <__sfvwrite_r+0x254>
  805b34:	a469c83a 	sub	r20,r20,r17
  805b38:	a03fe81e 	bne	r20,zero,805adc <__sfvwrite_r+0x2d8>
  805b3c:	e009883a 	mov	r4,fp
  805b40:	900b883a 	mov	r5,r18
  805b44:	0804ea00 	call	804ea0 <_fflush_r>
  805b48:	103fc31e 	bne	r2,zero,805a58 <__sfvwrite_r+0x254>
  805b4c:	d8000015 	stw	zero,0(sp)
  805b50:	003fe206 	br	805adc <__sfvwrite_r+0x2d8>
  805b54:	91000017 	ldw	r4,0(r18)
  805b58:	90800417 	ldw	r2,16(r18)
  805b5c:	1100022e 	bgeu	r2,r4,805b68 <__sfvwrite_r+0x364>
  805b60:	8023883a 	mov	r17,r16
  805b64:	85003136 	bltu	r16,r20,805c2c <__sfvwrite_r+0x428>
  805b68:	91c00517 	ldw	r7,20(r18)
  805b6c:	a1c01836 	bltu	r20,r7,805bd0 <__sfvwrite_r+0x3cc>
  805b70:	90c00917 	ldw	r3,36(r18)
  805b74:	91400717 	ldw	r5,28(r18)
  805b78:	e009883a 	mov	r4,fp
  805b7c:	b80d883a 	mov	r6,r23
  805b80:	183ee83a 	callr	r3
  805b84:	1021883a 	mov	r16,r2
  805b88:	00bfb30e 	bge	zero,r2,805a58 <__sfvwrite_r+0x254>
  805b8c:	1023883a 	mov	r17,r2
  805b90:	1027883a 	mov	r19,r2
  805b94:	003f9b06 	br	805a04 <__sfvwrite_r+0x200>
  805b98:	b80b883a 	mov	r5,r23
  805b9c:	800d883a 	mov	r6,r16
  805ba0:	080693c0 	call	80693c <memmove>
  805ba4:	90c00217 	ldw	r3,8(r18)
  805ba8:	90800017 	ldw	r2,0(r18)
  805bac:	8023883a 	mov	r17,r16
  805bb0:	1c07c83a 	sub	r3,r3,r16
  805bb4:	1405883a 	add	r2,r2,r16
  805bb8:	90c00215 	stw	r3,8(r18)
  805bbc:	90800015 	stw	r2,0(r18)
  805bc0:	003fc406 	br	805ad4 <__sfvwrite_r+0x2d0>
  805bc4:	a00d883a 	mov	r6,r20
  805bc8:	a021883a 	mov	r16,r20
  805bcc:	003f8106 	br	8059d4 <__sfvwrite_r+0x1d0>
  805bd0:	b80b883a 	mov	r5,r23
  805bd4:	a00d883a 	mov	r6,r20
  805bd8:	080693c0 	call	80693c <memmove>
  805bdc:	90c00217 	ldw	r3,8(r18)
  805be0:	90800017 	ldw	r2,0(r18)
  805be4:	a021883a 	mov	r16,r20
  805be8:	1d07c83a 	sub	r3,r3,r20
  805bec:	1505883a 	add	r2,r2,r20
  805bf0:	a023883a 	mov	r17,r20
  805bf4:	a027883a 	mov	r19,r20
  805bf8:	90c00215 	stw	r3,8(r18)
  805bfc:	90800015 	stw	r2,0(r18)
  805c00:	003f8006 	br	805a04 <__sfvwrite_r+0x200>
  805c04:	b809883a 	mov	r4,r23
  805c08:	01400284 	movi	r5,10
  805c0c:	980d883a 	mov	r6,r19
  805c10:	08067b80 	call	8067b8 <memchr>
  805c14:	10001726 	beq	r2,zero,805c74 <__sfvwrite_r+0x470>
  805c18:	15c5c83a 	sub	r2,r2,r23
  805c1c:	15000044 	addi	r20,r2,1
  805c20:	00800044 	movi	r2,1
  805c24:	d8800015 	stw	r2,0(sp)
  805c28:	003f9806 	br	805a8c <__sfvwrite_r+0x288>
  805c2c:	b80b883a 	mov	r5,r23
  805c30:	800d883a 	mov	r6,r16
  805c34:	080693c0 	call	80693c <memmove>
  805c38:	90c00017 	ldw	r3,0(r18)
  805c3c:	e009883a 	mov	r4,fp
  805c40:	900b883a 	mov	r5,r18
  805c44:	1c07883a 	add	r3,r3,r16
  805c48:	90c00015 	stw	r3,0(r18)
  805c4c:	8027883a 	mov	r19,r16
  805c50:	0804ea00 	call	804ea0 <_fflush_r>
  805c54:	103f6b26 	beq	r2,zero,805a04 <__sfvwrite_r+0x200>
  805c58:	003f7f06 	br	805a58 <__sfvwrite_r+0x254>
  805c5c:	400b883a 	mov	r5,r8
  805c60:	e009883a 	mov	r4,fp
  805c64:	0807b400 	call	807b40 <_realloc_r>
  805c68:	103f7626 	beq	r2,zero,805a44 <__sfvwrite_r+0x240>
  805c6c:	1023883a 	mov	r17,r2
  805c70:	003f5006 	br	8059b4 <__sfvwrite_r+0x1b0>
  805c74:	00c00044 	movi	r3,1
  805c78:	9d000044 	addi	r20,r19,1
  805c7c:	d8c00015 	stw	r3,0(sp)
  805c80:	003f8206 	br	805a8c <__sfvwrite_r+0x288>
  805c84:	9080030b 	ldhu	r2,12(r18)
  805c88:	00c00244 	movi	r3,9
  805c8c:	013fffc4 	movi	r4,-1
  805c90:	10801014 	ori	r2,r2,64
  805c94:	9080030d 	sth	r2,12(r18)
  805c98:	e0c00015 	stw	r3,0(fp)
  805c9c:	003f0606 	br	8058b8 <__sfvwrite_r+0xb4>

00805ca0 <_fwalk_reent>:
  805ca0:	defff704 	addi	sp,sp,-36
  805ca4:	dcc00315 	stw	r19,12(sp)
  805ca8:	24c0b804 	addi	r19,r4,736
  805cac:	dd800615 	stw	r22,24(sp)
  805cb0:	dd400515 	stw	r21,20(sp)
  805cb4:	dfc00815 	stw	ra,32(sp)
  805cb8:	ddc00715 	stw	r23,28(sp)
  805cbc:	dd000415 	stw	r20,16(sp)
  805cc0:	dc800215 	stw	r18,8(sp)
  805cc4:	dc400115 	stw	r17,4(sp)
  805cc8:	dc000015 	stw	r16,0(sp)
  805ccc:	202b883a 	mov	r21,r4
  805cd0:	282d883a 	mov	r22,r5
  805cd4:	08051280 	call	805128 <__sfp_lock_acquire>
  805cd8:	98002126 	beq	r19,zero,805d60 <_fwalk_reent+0xc0>
  805cdc:	002f883a 	mov	r23,zero
  805ce0:	9c800117 	ldw	r18,4(r19)
  805ce4:	9c000217 	ldw	r16,8(r19)
  805ce8:	90bfffc4 	addi	r2,r18,-1
  805cec:	10000d16 	blt	r2,zero,805d24 <_fwalk_reent+0x84>
  805cf0:	0023883a 	mov	r17,zero
  805cf4:	053fffc4 	movi	r20,-1
  805cf8:	8080030f 	ldh	r2,12(r16)
  805cfc:	8c400044 	addi	r17,r17,1
  805d00:	10000626 	beq	r2,zero,805d1c <_fwalk_reent+0x7c>
  805d04:	8080038f 	ldh	r2,14(r16)
  805d08:	800b883a 	mov	r5,r16
  805d0c:	a809883a 	mov	r4,r21
  805d10:	15000226 	beq	r2,r20,805d1c <_fwalk_reent+0x7c>
  805d14:	b03ee83a 	callr	r22
  805d18:	b8aeb03a 	or	r23,r23,r2
  805d1c:	84001704 	addi	r16,r16,92
  805d20:	947ff51e 	bne	r18,r17,805cf8 <_fwalk_reent+0x58>
  805d24:	9cc00017 	ldw	r19,0(r19)
  805d28:	983fed1e 	bne	r19,zero,805ce0 <_fwalk_reent+0x40>
  805d2c:	080512c0 	call	80512c <__sfp_lock_release>
  805d30:	b805883a 	mov	r2,r23
  805d34:	dfc00817 	ldw	ra,32(sp)
  805d38:	ddc00717 	ldw	r23,28(sp)
  805d3c:	dd800617 	ldw	r22,24(sp)
  805d40:	dd400517 	ldw	r21,20(sp)
  805d44:	dd000417 	ldw	r20,16(sp)
  805d48:	dcc00317 	ldw	r19,12(sp)
  805d4c:	dc800217 	ldw	r18,8(sp)
  805d50:	dc400117 	ldw	r17,4(sp)
  805d54:	dc000017 	ldw	r16,0(sp)
  805d58:	dec00904 	addi	sp,sp,36
  805d5c:	f800283a 	ret
  805d60:	002f883a 	mov	r23,zero
  805d64:	003ff106 	br	805d2c <_fwalk_reent+0x8c>

00805d68 <_fwalk>:
  805d68:	defff804 	addi	sp,sp,-32
  805d6c:	dcc00315 	stw	r19,12(sp)
  805d70:	24c0b804 	addi	r19,r4,736
  805d74:	dd400515 	stw	r21,20(sp)
  805d78:	dfc00715 	stw	ra,28(sp)
  805d7c:	dd800615 	stw	r22,24(sp)
  805d80:	dd000415 	stw	r20,16(sp)
  805d84:	dc800215 	stw	r18,8(sp)
  805d88:	dc400115 	stw	r17,4(sp)
  805d8c:	dc000015 	stw	r16,0(sp)
  805d90:	282b883a 	mov	r21,r5
  805d94:	08051280 	call	805128 <__sfp_lock_acquire>
  805d98:	98001f26 	beq	r19,zero,805e18 <_fwalk+0xb0>
  805d9c:	002d883a 	mov	r22,zero
  805da0:	9c800117 	ldw	r18,4(r19)
  805da4:	9c000217 	ldw	r16,8(r19)
  805da8:	90bfffc4 	addi	r2,r18,-1
  805dac:	10000c16 	blt	r2,zero,805de0 <_fwalk+0x78>
  805db0:	0023883a 	mov	r17,zero
  805db4:	053fffc4 	movi	r20,-1
  805db8:	8080030f 	ldh	r2,12(r16)
  805dbc:	8c400044 	addi	r17,r17,1
  805dc0:	10000526 	beq	r2,zero,805dd8 <_fwalk+0x70>
  805dc4:	8080038f 	ldh	r2,14(r16)
  805dc8:	8009883a 	mov	r4,r16
  805dcc:	15000226 	beq	r2,r20,805dd8 <_fwalk+0x70>
  805dd0:	a83ee83a 	callr	r21
  805dd4:	b0acb03a 	or	r22,r22,r2
  805dd8:	84001704 	addi	r16,r16,92
  805ddc:	947ff61e 	bne	r18,r17,805db8 <_fwalk+0x50>
  805de0:	9cc00017 	ldw	r19,0(r19)
  805de4:	983fee1e 	bne	r19,zero,805da0 <_fwalk+0x38>
  805de8:	080512c0 	call	80512c <__sfp_lock_release>
  805dec:	b005883a 	mov	r2,r22
  805df0:	dfc00717 	ldw	ra,28(sp)
  805df4:	dd800617 	ldw	r22,24(sp)
  805df8:	dd400517 	ldw	r21,20(sp)
  805dfc:	dd000417 	ldw	r20,16(sp)
  805e00:	dcc00317 	ldw	r19,12(sp)
  805e04:	dc800217 	ldw	r18,8(sp)
  805e08:	dc400117 	ldw	r17,4(sp)
  805e0c:	dc000017 	ldw	r16,0(sp)
  805e10:	dec00804 	addi	sp,sp,32
  805e14:	f800283a 	ret
  805e18:	002d883a 	mov	r22,zero
  805e1c:	003ff206 	br	805de8 <_fwalk+0x80>

00805e20 <__locale_charset>:
  805e20:	d0a00417 	ldw	r2,-32752(gp)
  805e24:	f800283a 	ret

00805e28 <_localeconv_r>:
  805e28:	00802074 	movhi	r2,129
  805e2c:	108ab704 	addi	r2,r2,10972
  805e30:	f800283a 	ret

00805e34 <localeconv>:
  805e34:	00802074 	movhi	r2,129
  805e38:	1092dd04 	addi	r2,r2,19316
  805e3c:	11000017 	ldw	r4,0(r2)
  805e40:	0805e281 	jmpi	805e28 <_localeconv_r>

00805e44 <_setlocale_r>:
  805e44:	defffc04 	addi	sp,sp,-16
  805e48:	00c02074 	movhi	r3,129
  805e4c:	18cab204 	addi	r3,r3,10952
  805e50:	dc800215 	stw	r18,8(sp)
  805e54:	dc400115 	stw	r17,4(sp)
  805e58:	dc000015 	stw	r16,0(sp)
  805e5c:	2023883a 	mov	r17,r4
  805e60:	2825883a 	mov	r18,r5
  805e64:	dfc00315 	stw	ra,12(sp)
  805e68:	3021883a 	mov	r16,r6
  805e6c:	3009883a 	mov	r4,r6
  805e70:	180b883a 	mov	r5,r3
  805e74:	30000926 	beq	r6,zero,805e9c <_setlocale_r+0x58>
  805e78:	08083600 	call	808360 <strcmp>
  805e7c:	8009883a 	mov	r4,r16
  805e80:	01402074 	movhi	r5,129
  805e84:	294a9d04 	addi	r5,r5,10868
  805e88:	10000b1e 	bne	r2,zero,805eb8 <_setlocale_r+0x74>
  805e8c:	8c000d15 	stw	r16,52(r17)
  805e90:	8c800c15 	stw	r18,48(r17)
  805e94:	00c02074 	movhi	r3,129
  805e98:	18cab204 	addi	r3,r3,10952
  805e9c:	1805883a 	mov	r2,r3
  805ea0:	dfc00317 	ldw	ra,12(sp)
  805ea4:	dc800217 	ldw	r18,8(sp)
  805ea8:	dc400117 	ldw	r17,4(sp)
  805eac:	dc000017 	ldw	r16,0(sp)
  805eb0:	dec00404 	addi	sp,sp,16
  805eb4:	f800283a 	ret
  805eb8:	08083600 	call	808360 <strcmp>
  805ebc:	0007883a 	mov	r3,zero
  805ec0:	103ff226 	beq	r2,zero,805e8c <_setlocale_r+0x48>
  805ec4:	003ff506 	br	805e9c <_setlocale_r+0x58>

00805ec8 <setlocale>:
  805ec8:	01802074 	movhi	r6,129
  805ecc:	3192dd04 	addi	r6,r6,19316
  805ed0:	2007883a 	mov	r3,r4
  805ed4:	31000017 	ldw	r4,0(r6)
  805ed8:	280d883a 	mov	r6,r5
  805edc:	180b883a 	mov	r5,r3
  805ee0:	0805e441 	jmpi	805e44 <_setlocale_r>

00805ee4 <__smakebuf_r>:
  805ee4:	2880030b 	ldhu	r2,12(r5)
  805ee8:	deffed04 	addi	sp,sp,-76
  805eec:	dc401015 	stw	r17,64(sp)
  805ef0:	1080008c 	andi	r2,r2,2
  805ef4:	dc000f15 	stw	r16,60(sp)
  805ef8:	dfc01215 	stw	ra,72(sp)
  805efc:	dc801115 	stw	r18,68(sp)
  805f00:	2821883a 	mov	r16,r5
  805f04:	2023883a 	mov	r17,r4
  805f08:	10000b26 	beq	r2,zero,805f38 <__smakebuf_r+0x54>
  805f0c:	28c010c4 	addi	r3,r5,67
  805f10:	00800044 	movi	r2,1
  805f14:	28800515 	stw	r2,20(r5)
  805f18:	28c00415 	stw	r3,16(r5)
  805f1c:	28c00015 	stw	r3,0(r5)
  805f20:	dfc01217 	ldw	ra,72(sp)
  805f24:	dc801117 	ldw	r18,68(sp)
  805f28:	dc401017 	ldw	r17,64(sp)
  805f2c:	dc000f17 	ldw	r16,60(sp)
  805f30:	dec01304 	addi	sp,sp,76
  805f34:	f800283a 	ret
  805f38:	2940038f 	ldh	r5,14(r5)
  805f3c:	28002116 	blt	r5,zero,805fc4 <__smakebuf_r+0xe0>
  805f40:	d80d883a 	mov	r6,sp
  805f44:	08086f00 	call	8086f0 <_fstat_r>
  805f48:	10001e16 	blt	r2,zero,805fc4 <__smakebuf_r+0xe0>
  805f4c:	d8800117 	ldw	r2,4(sp)
  805f50:	00e00014 	movui	r3,32768
  805f54:	113c000c 	andi	r4,r2,61440
  805f58:	20c03126 	beq	r4,r3,806020 <__smakebuf_r+0x13c>
  805f5c:	8080030b 	ldhu	r2,12(r16)
  805f60:	00c80004 	movi	r3,8192
  805f64:	10820014 	ori	r2,r2,2048
  805f68:	8080030d 	sth	r2,12(r16)
  805f6c:	20c01e26 	beq	r4,r3,805fe8 <__smakebuf_r+0x104>
  805f70:	04810004 	movi	r18,1024
  805f74:	8809883a 	mov	r4,r17
  805f78:	900b883a 	mov	r5,r18
  805f7c:	08060780 	call	806078 <_malloc_r>
  805f80:	1009883a 	mov	r4,r2
  805f84:	10003126 	beq	r2,zero,80604c <__smakebuf_r+0x168>
  805f88:	80c0030b 	ldhu	r3,12(r16)
  805f8c:	00802034 	movhi	r2,128
  805f90:	10948704 	addi	r2,r2,21020
  805f94:	88800f15 	stw	r2,60(r17)
  805f98:	18c02014 	ori	r3,r3,128
  805f9c:	84800515 	stw	r18,20(r16)
  805fa0:	80c0030d 	sth	r3,12(r16)
  805fa4:	81000415 	stw	r4,16(r16)
  805fa8:	81000015 	stw	r4,0(r16)
  805fac:	dfc01217 	ldw	ra,72(sp)
  805fb0:	dc801117 	ldw	r18,68(sp)
  805fb4:	dc401017 	ldw	r17,64(sp)
  805fb8:	dc000f17 	ldw	r16,60(sp)
  805fbc:	dec01304 	addi	sp,sp,76
  805fc0:	f800283a 	ret
  805fc4:	80c0030b 	ldhu	r3,12(r16)
  805fc8:	1880200c 	andi	r2,r3,128
  805fcc:	10000426 	beq	r2,zero,805fe0 <__smakebuf_r+0xfc>
  805fd0:	04801004 	movi	r18,64
  805fd4:	18820014 	ori	r2,r3,2048
  805fd8:	8080030d 	sth	r2,12(r16)
  805fdc:	003fe506 	br	805f74 <__smakebuf_r+0x90>
  805fe0:	04810004 	movi	r18,1024
  805fe4:	003ffb06 	br	805fd4 <__smakebuf_r+0xf0>
  805fe8:	8140038f 	ldh	r5,14(r16)
  805fec:	8809883a 	mov	r4,r17
  805ff0:	08087640 	call	808764 <_isatty_r>
  805ff4:	103fde26 	beq	r2,zero,805f70 <__smakebuf_r+0x8c>
  805ff8:	8080030b 	ldhu	r2,12(r16)
  805ffc:	80c010c4 	addi	r3,r16,67
  806000:	04810004 	movi	r18,1024
  806004:	10800054 	ori	r2,r2,1
  806008:	8080030d 	sth	r2,12(r16)
  80600c:	00800044 	movi	r2,1
  806010:	80c00415 	stw	r3,16(r16)
  806014:	80800515 	stw	r2,20(r16)
  806018:	80c00015 	stw	r3,0(r16)
  80601c:	003fd506 	br	805f74 <__smakebuf_r+0x90>
  806020:	80c00a17 	ldw	r3,40(r16)
  806024:	00802074 	movhi	r2,129
  806028:	10a08704 	addi	r2,r2,-32228
  80602c:	18bfcb1e 	bne	r3,r2,805f5c <__smakebuf_r+0x78>
  806030:	8080030b 	ldhu	r2,12(r16)
  806034:	00c10004 	movi	r3,1024
  806038:	1825883a 	mov	r18,r3
  80603c:	10c4b03a 	or	r2,r2,r3
  806040:	8080030d 	sth	r2,12(r16)
  806044:	80c01315 	stw	r3,76(r16)
  806048:	003fca06 	br	805f74 <__smakebuf_r+0x90>
  80604c:	8100030b 	ldhu	r4,12(r16)
  806050:	2080800c 	andi	r2,r4,512
  806054:	103fb21e 	bne	r2,zero,805f20 <__smakebuf_r+0x3c>
  806058:	80c010c4 	addi	r3,r16,67
  80605c:	21000094 	ori	r4,r4,2
  806060:	00800044 	movi	r2,1
  806064:	80800515 	stw	r2,20(r16)
  806068:	8100030d 	sth	r4,12(r16)
  80606c:	80c00415 	stw	r3,16(r16)
  806070:	80c00015 	stw	r3,0(r16)
  806074:	003faa06 	br	805f20 <__smakebuf_r+0x3c>

00806078 <_malloc_r>:
  806078:	defff604 	addi	sp,sp,-40
  80607c:	28c002c4 	addi	r3,r5,11
  806080:	00800584 	movi	r2,22
  806084:	dc800215 	stw	r18,8(sp)
  806088:	dfc00915 	stw	ra,36(sp)
  80608c:	df000815 	stw	fp,32(sp)
  806090:	ddc00715 	stw	r23,28(sp)
  806094:	dd800615 	stw	r22,24(sp)
  806098:	dd400515 	stw	r21,20(sp)
  80609c:	dd000415 	stw	r20,16(sp)
  8060a0:	dcc00315 	stw	r19,12(sp)
  8060a4:	dc400115 	stw	r17,4(sp)
  8060a8:	dc000015 	stw	r16,0(sp)
  8060ac:	2025883a 	mov	r18,r4
  8060b0:	10c01236 	bltu	r2,r3,8060fc <_malloc_r+0x84>
  8060b4:	04400404 	movi	r17,16
  8060b8:	8940142e 	bgeu	r17,r5,80610c <_malloc_r+0x94>
  8060bc:	00800304 	movi	r2,12
  8060c0:	0007883a 	mov	r3,zero
  8060c4:	90800015 	stw	r2,0(r18)
  8060c8:	1805883a 	mov	r2,r3
  8060cc:	dfc00917 	ldw	ra,36(sp)
  8060d0:	df000817 	ldw	fp,32(sp)
  8060d4:	ddc00717 	ldw	r23,28(sp)
  8060d8:	dd800617 	ldw	r22,24(sp)
  8060dc:	dd400517 	ldw	r21,20(sp)
  8060e0:	dd000417 	ldw	r20,16(sp)
  8060e4:	dcc00317 	ldw	r19,12(sp)
  8060e8:	dc800217 	ldw	r18,8(sp)
  8060ec:	dc400117 	ldw	r17,4(sp)
  8060f0:	dc000017 	ldw	r16,0(sp)
  8060f4:	dec00a04 	addi	sp,sp,40
  8060f8:	f800283a 	ret
  8060fc:	00bffe04 	movi	r2,-8
  806100:	18a2703a 	and	r17,r3,r2
  806104:	883fed16 	blt	r17,zero,8060bc <_malloc_r+0x44>
  806108:	897fec36 	bltu	r17,r5,8060bc <_malloc_r+0x44>
  80610c:	9009883a 	mov	r4,r18
  806110:	080b1080 	call	80b108 <__malloc_lock>
  806114:	00807dc4 	movi	r2,503
  806118:	14402b2e 	bgeu	r2,r17,8061c8 <_malloc_r+0x150>
  80611c:	8806d27a 	srli	r3,r17,9
  806120:	18003f1e 	bne	r3,zero,806220 <_malloc_r+0x1a8>
  806124:	880cd0fa 	srli	r6,r17,3
  806128:	300490fa 	slli	r2,r6,3
  80612c:	02c02074 	movhi	r11,129
  806130:	5acd2e04 	addi	r11,r11,13496
  806134:	12cb883a 	add	r5,r2,r11
  806138:	2c000317 	ldw	r16,12(r5)
  80613c:	580f883a 	mov	r7,r11
  806140:	2c00041e 	bne	r5,r16,806154 <_malloc_r+0xdc>
  806144:	00000a06 	br	806170 <_malloc_r+0xf8>
  806148:	1800860e 	bge	r3,zero,806364 <_malloc_r+0x2ec>
  80614c:	84000317 	ldw	r16,12(r16)
  806150:	2c000726 	beq	r5,r16,806170 <_malloc_r+0xf8>
  806154:	80800117 	ldw	r2,4(r16)
  806158:	00ffff04 	movi	r3,-4
  80615c:	10c8703a 	and	r4,r2,r3
  806160:	2447c83a 	sub	r3,r4,r17
  806164:	008003c4 	movi	r2,15
  806168:	10fff70e 	bge	r2,r3,806148 <_malloc_r+0xd0>
  80616c:	31bfffc4 	addi	r6,r6,-1
  806170:	32400044 	addi	r9,r6,1
  806174:	02802074 	movhi	r10,129
  806178:	528d3004 	addi	r10,r10,13504
  80617c:	54000217 	ldw	r16,8(r10)
  806180:	8280a026 	beq	r16,r10,806404 <_malloc_r+0x38c>
  806184:	80800117 	ldw	r2,4(r16)
  806188:	00ffff04 	movi	r3,-4
  80618c:	10ca703a 	and	r5,r2,r3
  806190:	2c4dc83a 	sub	r6,r5,r17
  806194:	008003c4 	movi	r2,15
  806198:	11808316 	blt	r2,r6,8063a8 <_malloc_r+0x330>
  80619c:	52800315 	stw	r10,12(r10)
  8061a0:	52800215 	stw	r10,8(r10)
  8061a4:	30002916 	blt	r6,zero,80624c <_malloc_r+0x1d4>
  8061a8:	8147883a 	add	r3,r16,r5
  8061ac:	18800117 	ldw	r2,4(r3)
  8061b0:	9009883a 	mov	r4,r18
  8061b4:	10800054 	ori	r2,r2,1
  8061b8:	18800115 	stw	r2,4(r3)
  8061bc:	080b15c0 	call	80b15c <__malloc_unlock>
  8061c0:	80c00204 	addi	r3,r16,8
  8061c4:	003fc006 	br	8060c8 <_malloc_r+0x50>
  8061c8:	02c02074 	movhi	r11,129
  8061cc:	5acd2e04 	addi	r11,r11,13496
  8061d0:	8ac5883a 	add	r2,r17,r11
  8061d4:	14000317 	ldw	r16,12(r2)
  8061d8:	580f883a 	mov	r7,r11
  8061dc:	8806d0fa 	srli	r3,r17,3
  8061e0:	14006c26 	beq	r2,r16,806394 <_malloc_r+0x31c>
  8061e4:	80c00117 	ldw	r3,4(r16)
  8061e8:	00bfff04 	movi	r2,-4
  8061ec:	81800317 	ldw	r6,12(r16)
  8061f0:	1886703a 	and	r3,r3,r2
  8061f4:	80c7883a 	add	r3,r16,r3
  8061f8:	18800117 	ldw	r2,4(r3)
  8061fc:	81400217 	ldw	r5,8(r16)
  806200:	9009883a 	mov	r4,r18
  806204:	10800054 	ori	r2,r2,1
  806208:	18800115 	stw	r2,4(r3)
  80620c:	31400215 	stw	r5,8(r6)
  806210:	29800315 	stw	r6,12(r5)
  806214:	080b15c0 	call	80b15c <__malloc_unlock>
  806218:	80c00204 	addi	r3,r16,8
  80621c:	003faa06 	br	8060c8 <_malloc_r+0x50>
  806220:	00800104 	movi	r2,4
  806224:	10c0052e 	bgeu	r2,r3,80623c <_malloc_r+0x1c4>
  806228:	00800504 	movi	r2,20
  80622c:	10c07836 	bltu	r2,r3,806410 <_malloc_r+0x398>
  806230:	198016c4 	addi	r6,r3,91
  806234:	300490fa 	slli	r2,r6,3
  806238:	003fbc06 	br	80612c <_malloc_r+0xb4>
  80623c:	8804d1ba 	srli	r2,r17,6
  806240:	11800e04 	addi	r6,r2,56
  806244:	300490fa 	slli	r2,r6,3
  806248:	003fb806 	br	80612c <_malloc_r+0xb4>
  80624c:	00807fc4 	movi	r2,511
  806250:	1140bb36 	bltu	r2,r5,806540 <_malloc_r+0x4c8>
  806254:	2806d0fa 	srli	r3,r5,3
  806258:	573ffe04 	addi	fp,r10,-8
  80625c:	00800044 	movi	r2,1
  806260:	180890fa 	slli	r4,r3,3
  806264:	1807d0ba 	srai	r3,r3,2
  806268:	e1c00117 	ldw	r7,4(fp)
  80626c:	5909883a 	add	r4,r11,r4
  806270:	21400217 	ldw	r5,8(r4)
  806274:	10c4983a 	sll	r2,r2,r3
  806278:	81000315 	stw	r4,12(r16)
  80627c:	81400215 	stw	r5,8(r16)
  806280:	388eb03a 	or	r7,r7,r2
  806284:	2c000315 	stw	r16,12(r5)
  806288:	24000215 	stw	r16,8(r4)
  80628c:	e1c00115 	stw	r7,4(fp)
  806290:	4807883a 	mov	r3,r9
  806294:	4800cd16 	blt	r9,zero,8065cc <_malloc_r+0x554>
  806298:	1807d0ba 	srai	r3,r3,2
  80629c:	00800044 	movi	r2,1
  8062a0:	10c8983a 	sll	r4,r2,r3
  8062a4:	39004436 	bltu	r7,r4,8063b8 <_malloc_r+0x340>
  8062a8:	21c4703a 	and	r2,r4,r7
  8062ac:	10000a1e 	bne	r2,zero,8062d8 <_malloc_r+0x260>
  8062b0:	2109883a 	add	r4,r4,r4
  8062b4:	00bfff04 	movi	r2,-4
  8062b8:	4884703a 	and	r2,r9,r2
  8062bc:	3906703a 	and	r3,r7,r4
  8062c0:	12400104 	addi	r9,r2,4
  8062c4:	1800041e 	bne	r3,zero,8062d8 <_malloc_r+0x260>
  8062c8:	2109883a 	add	r4,r4,r4
  8062cc:	3904703a 	and	r2,r7,r4
  8062d0:	4a400104 	addi	r9,r9,4
  8062d4:	103ffc26 	beq	r2,zero,8062c8 <_malloc_r+0x250>
  8062d8:	480490fa 	slli	r2,r9,3
  8062dc:	4819883a 	mov	r12,r9
  8062e0:	023fff04 	movi	r8,-4
  8062e4:	589b883a 	add	r13,r11,r2
  8062e8:	6807883a 	mov	r3,r13
  8062ec:	014003c4 	movi	r5,15
  8062f0:	1c000317 	ldw	r16,12(r3)
  8062f4:	1c00041e 	bne	r3,r16,806308 <_malloc_r+0x290>
  8062f8:	0000a706 	br	806598 <_malloc_r+0x520>
  8062fc:	3000ab0e 	bge	r6,zero,8065ac <_malloc_r+0x534>
  806300:	84000317 	ldw	r16,12(r16)
  806304:	1c00a426 	beq	r3,r16,806598 <_malloc_r+0x520>
  806308:	80800117 	ldw	r2,4(r16)
  80630c:	1204703a 	and	r2,r2,r8
  806310:	144dc83a 	sub	r6,r2,r17
  806314:	29bff90e 	bge	r5,r6,8062fc <_malloc_r+0x284>
  806318:	81000317 	ldw	r4,12(r16)
  80631c:	80c00217 	ldw	r3,8(r16)
  806320:	89400054 	ori	r5,r17,1
  806324:	8445883a 	add	r2,r16,r17
  806328:	20c00215 	stw	r3,8(r4)
  80632c:	19000315 	stw	r4,12(r3)
  806330:	81400115 	stw	r5,4(r16)
  806334:	1187883a 	add	r3,r2,r6
  806338:	31000054 	ori	r4,r6,1
  80633c:	50800315 	stw	r2,12(r10)
  806340:	50800215 	stw	r2,8(r10)
  806344:	19800015 	stw	r6,0(r3)
  806348:	11000115 	stw	r4,4(r2)
  80634c:	12800215 	stw	r10,8(r2)
  806350:	12800315 	stw	r10,12(r2)
  806354:	9009883a 	mov	r4,r18
  806358:	080b15c0 	call	80b15c <__malloc_unlock>
  80635c:	80c00204 	addi	r3,r16,8
  806360:	003f5906 	br	8060c8 <_malloc_r+0x50>
  806364:	8109883a 	add	r4,r16,r4
  806368:	20800117 	ldw	r2,4(r4)
  80636c:	80c00217 	ldw	r3,8(r16)
  806370:	81400317 	ldw	r5,12(r16)
  806374:	10800054 	ori	r2,r2,1
  806378:	20800115 	stw	r2,4(r4)
  80637c:	28c00215 	stw	r3,8(r5)
  806380:	19400315 	stw	r5,12(r3)
  806384:	9009883a 	mov	r4,r18
  806388:	080b15c0 	call	80b15c <__malloc_unlock>
  80638c:	80c00204 	addi	r3,r16,8
  806390:	003f4d06 	br	8060c8 <_malloc_r+0x50>
  806394:	80800204 	addi	r2,r16,8
  806398:	14000317 	ldw	r16,12(r2)
  80639c:	143f911e 	bne	r2,r16,8061e4 <_malloc_r+0x16c>
  8063a0:	1a400084 	addi	r9,r3,2
  8063a4:	003f7306 	br	806174 <_malloc_r+0xfc>
  8063a8:	88c00054 	ori	r3,r17,1
  8063ac:	8445883a 	add	r2,r16,r17
  8063b0:	80c00115 	stw	r3,4(r16)
  8063b4:	003fdf06 	br	806334 <_malloc_r+0x2bc>
  8063b8:	e4000217 	ldw	r16,8(fp)
  8063bc:	00bfff04 	movi	r2,-4
  8063c0:	80c00117 	ldw	r3,4(r16)
  8063c4:	802d883a 	mov	r22,r16
  8063c8:	18aa703a 	and	r21,r3,r2
  8063cc:	ac401636 	bltu	r21,r17,806428 <_malloc_r+0x3b0>
  8063d0:	ac49c83a 	sub	r4,r21,r17
  8063d4:	008003c4 	movi	r2,15
  8063d8:	1100130e 	bge	r2,r4,806428 <_malloc_r+0x3b0>
  8063dc:	88800054 	ori	r2,r17,1
  8063e0:	8447883a 	add	r3,r16,r17
  8063e4:	80800115 	stw	r2,4(r16)
  8063e8:	20800054 	ori	r2,r4,1
  8063ec:	18800115 	stw	r2,4(r3)
  8063f0:	e0c00215 	stw	r3,8(fp)
  8063f4:	9009883a 	mov	r4,r18
  8063f8:	080b15c0 	call	80b15c <__malloc_unlock>
  8063fc:	80c00204 	addi	r3,r16,8
  806400:	003f3106 	br	8060c8 <_malloc_r+0x50>
  806404:	39c00117 	ldw	r7,4(r7)
  806408:	573ffe04 	addi	fp,r10,-8
  80640c:	003fa006 	br	806290 <_malloc_r+0x218>
  806410:	00801504 	movi	r2,84
  806414:	10c06736 	bltu	r2,r3,8065b4 <_malloc_r+0x53c>
  806418:	8804d33a 	srli	r2,r17,12
  80641c:	11801b84 	addi	r6,r2,110
  806420:	300490fa 	slli	r2,r6,3
  806424:	003f4106 	br	80612c <_malloc_r+0xb4>
  806428:	d0a6eb17 	ldw	r2,-25684(gp)
  80642c:	d0e00617 	ldw	r3,-32744(gp)
  806430:	053fffc4 	movi	r20,-1
  806434:	10800404 	addi	r2,r2,16
  806438:	88a7883a 	add	r19,r17,r2
  80643c:	1d000326 	beq	r3,r20,80644c <_malloc_r+0x3d4>
  806440:	98c3ffc4 	addi	r3,r19,4095
  806444:	00bc0004 	movi	r2,-4096
  806448:	18a6703a 	and	r19,r3,r2
  80644c:	9009883a 	mov	r4,r18
  806450:	980b883a 	mov	r5,r19
  806454:	08081a40 	call	8081a4 <_sbrk_r>
  806458:	1009883a 	mov	r4,r2
  80645c:	15000426 	beq	r2,r20,806470 <_malloc_r+0x3f8>
  806460:	854b883a 	add	r5,r16,r21
  806464:	1029883a 	mov	r20,r2
  806468:	11405a2e 	bgeu	r2,r5,8065d4 <_malloc_r+0x55c>
  80646c:	87000c26 	beq	r16,fp,8064a0 <_malloc_r+0x428>
  806470:	e4000217 	ldw	r16,8(fp)
  806474:	80c00117 	ldw	r3,4(r16)
  806478:	00bfff04 	movi	r2,-4
  80647c:	1884703a 	and	r2,r3,r2
  806480:	14400336 	bltu	r2,r17,806490 <_malloc_r+0x418>
  806484:	1449c83a 	sub	r4,r2,r17
  806488:	008003c4 	movi	r2,15
  80648c:	113fd316 	blt	r2,r4,8063dc <_malloc_r+0x364>
  806490:	9009883a 	mov	r4,r18
  806494:	080b15c0 	call	80b15c <__malloc_unlock>
  806498:	0007883a 	mov	r3,zero
  80649c:	003f0a06 	br	8060c8 <_malloc_r+0x50>
  8064a0:	05c02074 	movhi	r23,129
  8064a4:	bdd9fa04 	addi	r23,r23,26600
  8064a8:	b8800017 	ldw	r2,0(r23)
  8064ac:	988d883a 	add	r6,r19,r2
  8064b0:	b9800015 	stw	r6,0(r23)
  8064b4:	d0e00617 	ldw	r3,-32744(gp)
  8064b8:	00bfffc4 	movi	r2,-1
  8064bc:	18808e26 	beq	r3,r2,8066f8 <_malloc_r+0x680>
  8064c0:	2145c83a 	sub	r2,r4,r5
  8064c4:	3085883a 	add	r2,r6,r2
  8064c8:	b8800015 	stw	r2,0(r23)
  8064cc:	20c001cc 	andi	r3,r4,7
  8064d0:	18005f1e 	bne	r3,zero,806650 <_malloc_r+0x5d8>
  8064d4:	000b883a 	mov	r5,zero
  8064d8:	a4c5883a 	add	r2,r20,r19
  8064dc:	1083ffcc 	andi	r2,r2,4095
  8064e0:	00c40004 	movi	r3,4096
  8064e4:	1887c83a 	sub	r3,r3,r2
  8064e8:	28e7883a 	add	r19,r5,r3
  8064ec:	9009883a 	mov	r4,r18
  8064f0:	980b883a 	mov	r5,r19
  8064f4:	08081a40 	call	8081a4 <_sbrk_r>
  8064f8:	1007883a 	mov	r3,r2
  8064fc:	00bfffc4 	movi	r2,-1
  806500:	18807a26 	beq	r3,r2,8066ec <_malloc_r+0x674>
  806504:	1d05c83a 	sub	r2,r3,r20
  806508:	9885883a 	add	r2,r19,r2
  80650c:	10c00054 	ori	r3,r2,1
  806510:	b8800017 	ldw	r2,0(r23)
  806514:	a021883a 	mov	r16,r20
  806518:	a0c00115 	stw	r3,4(r20)
  80651c:	9885883a 	add	r2,r19,r2
  806520:	b8800015 	stw	r2,0(r23)
  806524:	e5000215 	stw	r20,8(fp)
  806528:	b7003626 	beq	r22,fp,806604 <_malloc_r+0x58c>
  80652c:	018003c4 	movi	r6,15
  806530:	35404b36 	bltu	r6,r21,806660 <_malloc_r+0x5e8>
  806534:	00800044 	movi	r2,1
  806538:	a0800115 	stw	r2,4(r20)
  80653c:	003fcd06 	br	806474 <_malloc_r+0x3fc>
  806540:	2808d27a 	srli	r4,r5,9
  806544:	2000371e 	bne	r4,zero,806624 <_malloc_r+0x5ac>
  806548:	2808d0fa 	srli	r4,r5,3
  80654c:	200690fa 	slli	r3,r4,3
  806550:	1ad1883a 	add	r8,r3,r11
  806554:	41800217 	ldw	r6,8(r8)
  806558:	41805b26 	beq	r8,r6,8066c8 <_malloc_r+0x650>
  80655c:	30800117 	ldw	r2,4(r6)
  806560:	00ffff04 	movi	r3,-4
  806564:	10c4703a 	and	r2,r2,r3
  806568:	2880022e 	bgeu	r5,r2,806574 <_malloc_r+0x4fc>
  80656c:	31800217 	ldw	r6,8(r6)
  806570:	41bffa1e 	bne	r8,r6,80655c <_malloc_r+0x4e4>
  806574:	32000317 	ldw	r8,12(r6)
  806578:	39c00117 	ldw	r7,4(r7)
  80657c:	82000315 	stw	r8,12(r16)
  806580:	81800215 	stw	r6,8(r16)
  806584:	07002074 	movhi	fp,129
  806588:	e70d2e04 	addi	fp,fp,13496
  80658c:	34000315 	stw	r16,12(r6)
  806590:	44000215 	stw	r16,8(r8)
  806594:	003f3e06 	br	806290 <_malloc_r+0x218>
  806598:	63000044 	addi	r12,r12,1
  80659c:	608000cc 	andi	r2,r12,3
  8065a0:	10005d26 	beq	r2,zero,806718 <_malloc_r+0x6a0>
  8065a4:	18c00204 	addi	r3,r3,8
  8065a8:	003f5106 	br	8062f0 <_malloc_r+0x278>
  8065ac:	8089883a 	add	r4,r16,r2
  8065b0:	003f6d06 	br	806368 <_malloc_r+0x2f0>
  8065b4:	00805504 	movi	r2,340
  8065b8:	10c02036 	bltu	r2,r3,80663c <_malloc_r+0x5c4>
  8065bc:	8804d3fa 	srli	r2,r17,15
  8065c0:	11801dc4 	addi	r6,r2,119
  8065c4:	300490fa 	slli	r2,r6,3
  8065c8:	003ed806 	br	80612c <_malloc_r+0xb4>
  8065cc:	48c000c4 	addi	r3,r9,3
  8065d0:	003f3106 	br	806298 <_malloc_r+0x220>
  8065d4:	05c02074 	movhi	r23,129
  8065d8:	bdd9fa04 	addi	r23,r23,26600
  8065dc:	b8800017 	ldw	r2,0(r23)
  8065e0:	988d883a 	add	r6,r19,r2
  8065e4:	b9800015 	stw	r6,0(r23)
  8065e8:	293fb21e 	bne	r5,r4,8064b4 <_malloc_r+0x43c>
  8065ec:	2083ffcc 	andi	r2,r4,4095
  8065f0:	103fb01e 	bne	r2,zero,8064b4 <_malloc_r+0x43c>
  8065f4:	e4000217 	ldw	r16,8(fp)
  8065f8:	9d45883a 	add	r2,r19,r21
  8065fc:	10800054 	ori	r2,r2,1
  806600:	80800115 	stw	r2,4(r16)
  806604:	b8c00017 	ldw	r3,0(r23)
  806608:	d0a6ec17 	ldw	r2,-25680(gp)
  80660c:	10c0012e 	bgeu	r2,r3,806614 <_malloc_r+0x59c>
  806610:	d0e6ec15 	stw	r3,-25680(gp)
  806614:	d0a6ed17 	ldw	r2,-25676(gp)
  806618:	10ff962e 	bgeu	r2,r3,806474 <_malloc_r+0x3fc>
  80661c:	d0e6ed15 	stw	r3,-25676(gp)
  806620:	003f9406 	br	806474 <_malloc_r+0x3fc>
  806624:	00800104 	movi	r2,4
  806628:	11001e36 	bltu	r2,r4,8066a4 <_malloc_r+0x62c>
  80662c:	2804d1ba 	srli	r2,r5,6
  806630:	11000e04 	addi	r4,r2,56
  806634:	200690fa 	slli	r3,r4,3
  806638:	003fc506 	br	806550 <_malloc_r+0x4d8>
  80663c:	00815504 	movi	r2,1364
  806640:	10c01d2e 	bgeu	r2,r3,8066b8 <_malloc_r+0x640>
  806644:	01801f84 	movi	r6,126
  806648:	0080fc04 	movi	r2,1008
  80664c:	003eb706 	br	80612c <_malloc_r+0xb4>
  806650:	00800204 	movi	r2,8
  806654:	10cbc83a 	sub	r5,r2,r3
  806658:	2169883a 	add	r20,r4,r5
  80665c:	003f9e06 	br	8064d8 <_malloc_r+0x460>
  806660:	00bffe04 	movi	r2,-8
  806664:	a93ffd04 	addi	r4,r21,-12
  806668:	2088703a 	and	r4,r4,r2
  80666c:	b10b883a 	add	r5,r22,r4
  806670:	00c00144 	movi	r3,5
  806674:	28c00215 	stw	r3,8(r5)
  806678:	28c00115 	stw	r3,4(r5)
  80667c:	b0800117 	ldw	r2,4(r22)
  806680:	1080004c 	andi	r2,r2,1
  806684:	2084b03a 	or	r2,r4,r2
  806688:	b0800115 	stw	r2,4(r22)
  80668c:	313fdd2e 	bgeu	r6,r4,806604 <_malloc_r+0x58c>
  806690:	b1400204 	addi	r5,r22,8
  806694:	9009883a 	mov	r4,r18
  806698:	08054f00 	call	8054f0 <_free_r>
  80669c:	e4000217 	ldw	r16,8(fp)
  8066a0:	003fd806 	br	806604 <_malloc_r+0x58c>
  8066a4:	00800504 	movi	r2,20
  8066a8:	11001536 	bltu	r2,r4,806700 <_malloc_r+0x688>
  8066ac:	210016c4 	addi	r4,r4,91
  8066b0:	200690fa 	slli	r3,r4,3
  8066b4:	003fa606 	br	806550 <_malloc_r+0x4d8>
  8066b8:	8804d4ba 	srli	r2,r17,18
  8066bc:	11801f04 	addi	r6,r2,124
  8066c0:	300490fa 	slli	r2,r6,3
  8066c4:	003e9906 	br	80612c <_malloc_r+0xb4>
  8066c8:	2009d0ba 	srai	r4,r4,2
  8066cc:	01402074 	movhi	r5,129
  8066d0:	294d2e04 	addi	r5,r5,13496
  8066d4:	00c00044 	movi	r3,1
  8066d8:	28800117 	ldw	r2,4(r5)
  8066dc:	1906983a 	sll	r3,r3,r4
  8066e0:	10c4b03a 	or	r2,r2,r3
  8066e4:	28800115 	stw	r2,4(r5)
  8066e8:	003fa306 	br	806578 <_malloc_r+0x500>
  8066ec:	0027883a 	mov	r19,zero
  8066f0:	00c00044 	movi	r3,1
  8066f4:	003f8606 	br	806510 <_malloc_r+0x498>
  8066f8:	d1200615 	stw	r4,-32744(gp)
  8066fc:	003f7306 	br	8064cc <_malloc_r+0x454>
  806700:	00801504 	movi	r2,84
  806704:	11001936 	bltu	r2,r4,80676c <_malloc_r+0x6f4>
  806708:	2804d33a 	srli	r2,r5,12
  80670c:	11001b84 	addi	r4,r2,110
  806710:	200690fa 	slli	r3,r4,3
  806714:	003f8e06 	br	806550 <_malloc_r+0x4d8>
  806718:	480b883a 	mov	r5,r9
  80671c:	6807883a 	mov	r3,r13
  806720:	288000cc 	andi	r2,r5,3
  806724:	18fffe04 	addi	r3,r3,-8
  806728:	297fffc4 	addi	r5,r5,-1
  80672c:	10001526 	beq	r2,zero,806784 <_malloc_r+0x70c>
  806730:	18800217 	ldw	r2,8(r3)
  806734:	10fffa26 	beq	r2,r3,806720 <_malloc_r+0x6a8>
  806738:	2109883a 	add	r4,r4,r4
  80673c:	393f1e36 	bltu	r7,r4,8063b8 <_malloc_r+0x340>
  806740:	203f1d26 	beq	r4,zero,8063b8 <_malloc_r+0x340>
  806744:	21c4703a 	and	r2,r4,r7
  806748:	10000226 	beq	r2,zero,806754 <_malloc_r+0x6dc>
  80674c:	6013883a 	mov	r9,r12
  806750:	003ee106 	br	8062d8 <_malloc_r+0x260>
  806754:	2109883a 	add	r4,r4,r4
  806758:	3904703a 	and	r2,r7,r4
  80675c:	63000104 	addi	r12,r12,4
  806760:	103ffc26 	beq	r2,zero,806754 <_malloc_r+0x6dc>
  806764:	6013883a 	mov	r9,r12
  806768:	003edb06 	br	8062d8 <_malloc_r+0x260>
  80676c:	00805504 	movi	r2,340
  806770:	11000836 	bltu	r2,r4,806794 <_malloc_r+0x71c>
  806774:	2804d3fa 	srli	r2,r5,15
  806778:	11001dc4 	addi	r4,r2,119
  80677c:	200690fa 	slli	r3,r4,3
  806780:	003f7306 	br	806550 <_malloc_r+0x4d8>
  806784:	0104303a 	nor	r2,zero,r4
  806788:	388e703a 	and	r7,r7,r2
  80678c:	e1c00115 	stw	r7,4(fp)
  806790:	003fe906 	br	806738 <_malloc_r+0x6c0>
  806794:	00815504 	movi	r2,1364
  806798:	1100032e 	bgeu	r2,r4,8067a8 <_malloc_r+0x730>
  80679c:	01001f84 	movi	r4,126
  8067a0:	00c0fc04 	movi	r3,1008
  8067a4:	003f6a06 	br	806550 <_malloc_r+0x4d8>
  8067a8:	2804d4ba 	srli	r2,r5,18
  8067ac:	11001f04 	addi	r4,r2,124
  8067b0:	200690fa 	slli	r3,r4,3
  8067b4:	003f6606 	br	806550 <_malloc_r+0x4d8>

008067b8 <memchr>:
  8067b8:	008000c4 	movi	r2,3
  8067bc:	29403fcc 	andi	r5,r5,255
  8067c0:	2007883a 	mov	r3,r4
  8067c4:	1180022e 	bgeu	r2,r6,8067d0 <memchr+0x18>
  8067c8:	2084703a 	and	r2,r4,r2
  8067cc:	10000b26 	beq	r2,zero,8067fc <memchr+0x44>
  8067d0:	313fffc4 	addi	r4,r6,-1
  8067d4:	3000051e 	bne	r6,zero,8067ec <memchr+0x34>
  8067d8:	00002c06 	br	80688c <memchr+0xd4>
  8067dc:	213fffc4 	addi	r4,r4,-1
  8067e0:	00bfffc4 	movi	r2,-1
  8067e4:	18c00044 	addi	r3,r3,1
  8067e8:	20802826 	beq	r4,r2,80688c <memchr+0xd4>
  8067ec:	18800003 	ldbu	r2,0(r3)
  8067f0:	28bffa1e 	bne	r5,r2,8067dc <memchr+0x24>
  8067f4:	1805883a 	mov	r2,r3
  8067f8:	f800283a 	ret
  8067fc:	0011883a 	mov	r8,zero
  806800:	0007883a 	mov	r3,zero
  806804:	01c00104 	movi	r7,4
  806808:	4004923a 	slli	r2,r8,8
  80680c:	18c00044 	addi	r3,r3,1
  806810:	1151883a 	add	r8,r2,r5
  806814:	19fffc1e 	bne	r3,r7,806808 <memchr+0x50>
  806818:	02bfbff4 	movhi	r10,65279
  80681c:	52bfbfc4 	addi	r10,r10,-257
  806820:	02602074 	movhi	r9,32897
  806824:	4a602004 	addi	r9,r9,-32640
  806828:	02c000c4 	movi	r11,3
  80682c:	20800017 	ldw	r2,0(r4)
  806830:	31bfff04 	addi	r6,r6,-4
  806834:	200f883a 	mov	r7,r4
  806838:	1204f03a 	xor	r2,r2,r8
  80683c:	1287883a 	add	r3,r2,r10
  806840:	1a46703a 	and	r3,r3,r9
  806844:	0084303a 	nor	r2,zero,r2
  806848:	10c4703a 	and	r2,r2,r3
  80684c:	10000b26 	beq	r2,zero,80687c <memchr+0xc4>
  806850:	20800003 	ldbu	r2,0(r4)
  806854:	28800f26 	beq	r5,r2,806894 <memchr+0xdc>
  806858:	20800043 	ldbu	r2,1(r4)
  80685c:	21c00044 	addi	r7,r4,1
  806860:	28800c26 	beq	r5,r2,806894 <memchr+0xdc>
  806864:	20800083 	ldbu	r2,2(r4)
  806868:	21c00084 	addi	r7,r4,2
  80686c:	28800926 	beq	r5,r2,806894 <memchr+0xdc>
  806870:	208000c3 	ldbu	r2,3(r4)
  806874:	21c000c4 	addi	r7,r4,3
  806878:	28800626 	beq	r5,r2,806894 <memchr+0xdc>
  80687c:	21000104 	addi	r4,r4,4
  806880:	59bfea36 	bltu	r11,r6,80682c <memchr+0x74>
  806884:	2007883a 	mov	r3,r4
  806888:	003fd106 	br	8067d0 <memchr+0x18>
  80688c:	0005883a 	mov	r2,zero
  806890:	f800283a 	ret
  806894:	3805883a 	mov	r2,r7
  806898:	f800283a 	ret

0080689c <memcpy>:
  80689c:	01c003c4 	movi	r7,15
  8068a0:	2007883a 	mov	r3,r4
  8068a4:	3980032e 	bgeu	r7,r6,8068b4 <memcpy+0x18>
  8068a8:	2904b03a 	or	r2,r5,r4
  8068ac:	108000cc 	andi	r2,r2,3
  8068b0:	10000926 	beq	r2,zero,8068d8 <memcpy+0x3c>
  8068b4:	30000626 	beq	r6,zero,8068d0 <memcpy+0x34>
  8068b8:	30cd883a 	add	r6,r6,r3
  8068bc:	28800003 	ldbu	r2,0(r5)
  8068c0:	29400044 	addi	r5,r5,1
  8068c4:	18800005 	stb	r2,0(r3)
  8068c8:	18c00044 	addi	r3,r3,1
  8068cc:	30fffb1e 	bne	r6,r3,8068bc <memcpy+0x20>
  8068d0:	2005883a 	mov	r2,r4
  8068d4:	f800283a 	ret
  8068d8:	3811883a 	mov	r8,r7
  8068dc:	200f883a 	mov	r7,r4
  8068e0:	28c00017 	ldw	r3,0(r5)
  8068e4:	31bffc04 	addi	r6,r6,-16
  8068e8:	38c00015 	stw	r3,0(r7)
  8068ec:	28800117 	ldw	r2,4(r5)
  8068f0:	38800115 	stw	r2,4(r7)
  8068f4:	28c00217 	ldw	r3,8(r5)
  8068f8:	38c00215 	stw	r3,8(r7)
  8068fc:	28800317 	ldw	r2,12(r5)
  806900:	29400404 	addi	r5,r5,16
  806904:	38800315 	stw	r2,12(r7)
  806908:	39c00404 	addi	r7,r7,16
  80690c:	41bff436 	bltu	r8,r6,8068e0 <memcpy+0x44>
  806910:	008000c4 	movi	r2,3
  806914:	1180072e 	bgeu	r2,r6,806934 <memcpy+0x98>
  806918:	1007883a 	mov	r3,r2
  80691c:	28800017 	ldw	r2,0(r5)
  806920:	31bfff04 	addi	r6,r6,-4
  806924:	29400104 	addi	r5,r5,4
  806928:	38800015 	stw	r2,0(r7)
  80692c:	39c00104 	addi	r7,r7,4
  806930:	19bffa36 	bltu	r3,r6,80691c <memcpy+0x80>
  806934:	3807883a 	mov	r3,r7
  806938:	003fde06 	br	8068b4 <memcpy+0x18>

0080693c <memmove>:
  80693c:	2807883a 	mov	r3,r5
  806940:	2011883a 	mov	r8,r4
  806944:	29000c2e 	bgeu	r5,r4,806978 <memmove+0x3c>
  806948:	298f883a 	add	r7,r5,r6
  80694c:	21c00a2e 	bgeu	r4,r7,806978 <memmove+0x3c>
  806950:	30000726 	beq	r6,zero,806970 <memmove+0x34>
  806954:	2187883a 	add	r3,r4,r6
  806958:	198dc83a 	sub	r6,r3,r6
  80695c:	39ffffc4 	addi	r7,r7,-1
  806960:	38800003 	ldbu	r2,0(r7)
  806964:	18ffffc4 	addi	r3,r3,-1
  806968:	18800005 	stb	r2,0(r3)
  80696c:	19bffb1e 	bne	r3,r6,80695c <memmove+0x20>
  806970:	2005883a 	mov	r2,r4
  806974:	f800283a 	ret
  806978:	01c003c4 	movi	r7,15
  80697c:	39800a36 	bltu	r7,r6,8069a8 <memmove+0x6c>
  806980:	303ffb26 	beq	r6,zero,806970 <memmove+0x34>
  806984:	400f883a 	mov	r7,r8
  806988:	320d883a 	add	r6,r6,r8
  80698c:	28800003 	ldbu	r2,0(r5)
  806990:	29400044 	addi	r5,r5,1
  806994:	38800005 	stb	r2,0(r7)
  806998:	39c00044 	addi	r7,r7,1
  80699c:	39bffb1e 	bne	r7,r6,80698c <memmove+0x50>
  8069a0:	2005883a 	mov	r2,r4
  8069a4:	f800283a 	ret
  8069a8:	1904b03a 	or	r2,r3,r4
  8069ac:	108000cc 	andi	r2,r2,3
  8069b0:	103ff31e 	bne	r2,zero,806980 <memmove+0x44>
  8069b4:	3811883a 	mov	r8,r7
  8069b8:	180b883a 	mov	r5,r3
  8069bc:	200f883a 	mov	r7,r4
  8069c0:	28c00017 	ldw	r3,0(r5)
  8069c4:	31bffc04 	addi	r6,r6,-16
  8069c8:	38c00015 	stw	r3,0(r7)
  8069cc:	28800117 	ldw	r2,4(r5)
  8069d0:	38800115 	stw	r2,4(r7)
  8069d4:	28c00217 	ldw	r3,8(r5)
  8069d8:	38c00215 	stw	r3,8(r7)
  8069dc:	28800317 	ldw	r2,12(r5)
  8069e0:	29400404 	addi	r5,r5,16
  8069e4:	38800315 	stw	r2,12(r7)
  8069e8:	39c00404 	addi	r7,r7,16
  8069ec:	41bff436 	bltu	r8,r6,8069c0 <memmove+0x84>
  8069f0:	008000c4 	movi	r2,3
  8069f4:	1180072e 	bgeu	r2,r6,806a14 <memmove+0xd8>
  8069f8:	1007883a 	mov	r3,r2
  8069fc:	28800017 	ldw	r2,0(r5)
  806a00:	31bfff04 	addi	r6,r6,-4
  806a04:	29400104 	addi	r5,r5,4
  806a08:	38800015 	stw	r2,0(r7)
  806a0c:	39c00104 	addi	r7,r7,4
  806a10:	19bffa36 	bltu	r3,r6,8069fc <memmove+0xc0>
  806a14:	3811883a 	mov	r8,r7
  806a18:	003fd906 	br	806980 <memmove+0x44>

00806a1c <memset>:
  806a1c:	008000c4 	movi	r2,3
  806a20:	29403fcc 	andi	r5,r5,255
  806a24:	2007883a 	mov	r3,r4
  806a28:	1180022e 	bgeu	r2,r6,806a34 <memset+0x18>
  806a2c:	2084703a 	and	r2,r4,r2
  806a30:	10000826 	beq	r2,zero,806a54 <memset+0x38>
  806a34:	30000526 	beq	r6,zero,806a4c <memset+0x30>
  806a38:	2805883a 	mov	r2,r5
  806a3c:	30cd883a 	add	r6,r6,r3
  806a40:	18800005 	stb	r2,0(r3)
  806a44:	18c00044 	addi	r3,r3,1
  806a48:	19bffd1e 	bne	r3,r6,806a40 <memset+0x24>
  806a4c:	2005883a 	mov	r2,r4
  806a50:	f800283a 	ret
  806a54:	2804923a 	slli	r2,r5,8
  806a58:	020003c4 	movi	r8,15
  806a5c:	200f883a 	mov	r7,r4
  806a60:	2884b03a 	or	r2,r5,r2
  806a64:	1006943a 	slli	r3,r2,16
  806a68:	10c6b03a 	or	r3,r2,r3
  806a6c:	41800a2e 	bgeu	r8,r6,806a98 <memset+0x7c>
  806a70:	4005883a 	mov	r2,r8
  806a74:	31bffc04 	addi	r6,r6,-16
  806a78:	38c00015 	stw	r3,0(r7)
  806a7c:	38c00115 	stw	r3,4(r7)
  806a80:	38c00215 	stw	r3,8(r7)
  806a84:	38c00315 	stw	r3,12(r7)
  806a88:	39c00404 	addi	r7,r7,16
  806a8c:	11bff936 	bltu	r2,r6,806a74 <memset+0x58>
  806a90:	008000c4 	movi	r2,3
  806a94:	1180052e 	bgeu	r2,r6,806aac <memset+0x90>
  806a98:	31bfff04 	addi	r6,r6,-4
  806a9c:	008000c4 	movi	r2,3
  806aa0:	38c00015 	stw	r3,0(r7)
  806aa4:	39c00104 	addi	r7,r7,4
  806aa8:	11bffb36 	bltu	r2,r6,806a98 <memset+0x7c>
  806aac:	3807883a 	mov	r3,r7
  806ab0:	003fe006 	br	806a34 <memset+0x18>

00806ab4 <_Bfree>:
  806ab4:	28000826 	beq	r5,zero,806ad8 <_Bfree+0x24>
  806ab8:	28800117 	ldw	r2,4(r5)
  806abc:	21001317 	ldw	r4,76(r4)
  806ac0:	1085883a 	add	r2,r2,r2
  806ac4:	1085883a 	add	r2,r2,r2
  806ac8:	1105883a 	add	r2,r2,r4
  806acc:	10c00017 	ldw	r3,0(r2)
  806ad0:	28c00015 	stw	r3,0(r5)
  806ad4:	11400015 	stw	r5,0(r2)
  806ad8:	f800283a 	ret

00806adc <__hi0bits>:
  806adc:	20bfffec 	andhi	r2,r4,65535
  806ae0:	10001426 	beq	r2,zero,806b34 <__hi0bits+0x58>
  806ae4:	0007883a 	mov	r3,zero
  806ae8:	20bfc02c 	andhi	r2,r4,65280
  806aec:	1000021e 	bne	r2,zero,806af8 <__hi0bits+0x1c>
  806af0:	2008923a 	slli	r4,r4,8
  806af4:	18c00204 	addi	r3,r3,8
  806af8:	20bc002c 	andhi	r2,r4,61440
  806afc:	1000021e 	bne	r2,zero,806b08 <__hi0bits+0x2c>
  806b00:	2008913a 	slli	r4,r4,4
  806b04:	18c00104 	addi	r3,r3,4
  806b08:	20b0002c 	andhi	r2,r4,49152
  806b0c:	1000031e 	bne	r2,zero,806b1c <__hi0bits+0x40>
  806b10:	2105883a 	add	r2,r4,r4
  806b14:	18c00084 	addi	r3,r3,2
  806b18:	1089883a 	add	r4,r2,r2
  806b1c:	20000316 	blt	r4,zero,806b2c <__hi0bits+0x50>
  806b20:	2090002c 	andhi	r2,r4,16384
  806b24:	10000626 	beq	r2,zero,806b40 <__hi0bits+0x64>
  806b28:	18c00044 	addi	r3,r3,1
  806b2c:	1805883a 	mov	r2,r3
  806b30:	f800283a 	ret
  806b34:	2008943a 	slli	r4,r4,16
  806b38:	00c00404 	movi	r3,16
  806b3c:	003fea06 	br	806ae8 <__hi0bits+0xc>
  806b40:	00c00804 	movi	r3,32
  806b44:	1805883a 	mov	r2,r3
  806b48:	f800283a 	ret

00806b4c <__lo0bits>:
  806b4c:	20c00017 	ldw	r3,0(r4)
  806b50:	188001cc 	andi	r2,r3,7
  806b54:	10000a26 	beq	r2,zero,806b80 <__lo0bits+0x34>
  806b58:	1880004c 	andi	r2,r3,1
  806b5c:	1005003a 	cmpeq	r2,r2,zero
  806b60:	10002126 	beq	r2,zero,806be8 <__lo0bits+0x9c>
  806b64:	1880008c 	andi	r2,r3,2
  806b68:	1000251e 	bne	r2,zero,806c00 <__lo0bits+0xb4>
  806b6c:	1804d0ba 	srli	r2,r3,2
  806b70:	01400084 	movi	r5,2
  806b74:	20800015 	stw	r2,0(r4)
  806b78:	2805883a 	mov	r2,r5
  806b7c:	f800283a 	ret
  806b80:	18bfffcc 	andi	r2,r3,65535
  806b84:	10001526 	beq	r2,zero,806bdc <__lo0bits+0x90>
  806b88:	000b883a 	mov	r5,zero
  806b8c:	18803fcc 	andi	r2,r3,255
  806b90:	1000021e 	bne	r2,zero,806b9c <__lo0bits+0x50>
  806b94:	1806d23a 	srli	r3,r3,8
  806b98:	29400204 	addi	r5,r5,8
  806b9c:	188003cc 	andi	r2,r3,15
  806ba0:	1000021e 	bne	r2,zero,806bac <__lo0bits+0x60>
  806ba4:	1806d13a 	srli	r3,r3,4
  806ba8:	29400104 	addi	r5,r5,4
  806bac:	188000cc 	andi	r2,r3,3
  806bb0:	1000021e 	bne	r2,zero,806bbc <__lo0bits+0x70>
  806bb4:	1806d0ba 	srli	r3,r3,2
  806bb8:	29400084 	addi	r5,r5,2
  806bbc:	1880004c 	andi	r2,r3,1
  806bc0:	1000031e 	bne	r2,zero,806bd0 <__lo0bits+0x84>
  806bc4:	1806d07a 	srli	r3,r3,1
  806bc8:	18000a26 	beq	r3,zero,806bf4 <__lo0bits+0xa8>
  806bcc:	29400044 	addi	r5,r5,1
  806bd0:	2805883a 	mov	r2,r5
  806bd4:	20c00015 	stw	r3,0(r4)
  806bd8:	f800283a 	ret
  806bdc:	1806d43a 	srli	r3,r3,16
  806be0:	01400404 	movi	r5,16
  806be4:	003fe906 	br	806b8c <__lo0bits+0x40>
  806be8:	000b883a 	mov	r5,zero
  806bec:	2805883a 	mov	r2,r5
  806bf0:	f800283a 	ret
  806bf4:	01400804 	movi	r5,32
  806bf8:	2805883a 	mov	r2,r5
  806bfc:	f800283a 	ret
  806c00:	1804d07a 	srli	r2,r3,1
  806c04:	01400044 	movi	r5,1
  806c08:	20800015 	stw	r2,0(r4)
  806c0c:	003fda06 	br	806b78 <__lo0bits+0x2c>

00806c10 <__mcmp>:
  806c10:	20800417 	ldw	r2,16(r4)
  806c14:	28c00417 	ldw	r3,16(r5)
  806c18:	10cfc83a 	sub	r7,r2,r3
  806c1c:	38000c1e 	bne	r7,zero,806c50 <__mcmp+0x40>
  806c20:	18c5883a 	add	r2,r3,r3
  806c24:	1085883a 	add	r2,r2,r2
  806c28:	10c00504 	addi	r3,r2,20
  806c2c:	21000504 	addi	r4,r4,20
  806c30:	28cb883a 	add	r5,r5,r3
  806c34:	2085883a 	add	r2,r4,r2
  806c38:	10bfff04 	addi	r2,r2,-4
  806c3c:	297fff04 	addi	r5,r5,-4
  806c40:	11800017 	ldw	r6,0(r2)
  806c44:	28c00017 	ldw	r3,0(r5)
  806c48:	30c0031e 	bne	r6,r3,806c58 <__mcmp+0x48>
  806c4c:	20bffa36 	bltu	r4,r2,806c38 <__mcmp+0x28>
  806c50:	3805883a 	mov	r2,r7
  806c54:	f800283a 	ret
  806c58:	30c00336 	bltu	r6,r3,806c68 <__mcmp+0x58>
  806c5c:	01c00044 	movi	r7,1
  806c60:	3805883a 	mov	r2,r7
  806c64:	f800283a 	ret
  806c68:	01ffffc4 	movi	r7,-1
  806c6c:	003ff806 	br	806c50 <__mcmp+0x40>

00806c70 <__ulp>:
  806c70:	295ffc2c 	andhi	r5,r5,32752
  806c74:	013f3034 	movhi	r4,64704
  806c78:	290b883a 	add	r5,r5,r4
  806c7c:	0145c83a 	sub	r2,zero,r5
  806c80:	1007d53a 	srai	r3,r2,20
  806c84:	000d883a 	mov	r6,zero
  806c88:	0140040e 	bge	zero,r5,806c9c <__ulp+0x2c>
  806c8c:	280f883a 	mov	r7,r5
  806c90:	3807883a 	mov	r3,r7
  806c94:	3005883a 	mov	r2,r6
  806c98:	f800283a 	ret
  806c9c:	008004c4 	movi	r2,19
  806ca0:	193ffb04 	addi	r4,r3,-20
  806ca4:	10c00c0e 	bge	r2,r3,806cd8 <__ulp+0x68>
  806ca8:	008007c4 	movi	r2,31
  806cac:	1107c83a 	sub	r3,r2,r4
  806cb0:	00800784 	movi	r2,30
  806cb4:	01400044 	movi	r5,1
  806cb8:	11000216 	blt	r2,r4,806cc4 <__ulp+0x54>
  806cbc:	00800044 	movi	r2,1
  806cc0:	10ca983a 	sll	r5,r2,r3
  806cc4:	000f883a 	mov	r7,zero
  806cc8:	280d883a 	mov	r6,r5
  806ccc:	3807883a 	mov	r3,r7
  806cd0:	3005883a 	mov	r2,r6
  806cd4:	f800283a 	ret
  806cd8:	00800234 	movhi	r2,8
  806cdc:	10cfd83a 	sra	r7,r2,r3
  806ce0:	000d883a 	mov	r6,zero
  806ce4:	3005883a 	mov	r2,r6
  806ce8:	3807883a 	mov	r3,r7
  806cec:	f800283a 	ret

00806cf0 <__b2d>:
  806cf0:	20800417 	ldw	r2,16(r4)
  806cf4:	defff904 	addi	sp,sp,-28
  806cf8:	dd000415 	stw	r20,16(sp)
  806cfc:	1085883a 	add	r2,r2,r2
  806d00:	25000504 	addi	r20,r4,20
  806d04:	1085883a 	add	r2,r2,r2
  806d08:	dc000015 	stw	r16,0(sp)
  806d0c:	a0a1883a 	add	r16,r20,r2
  806d10:	dd400515 	stw	r21,20(sp)
  806d14:	857fff17 	ldw	r21,-4(r16)
  806d18:	dc400115 	stw	r17,4(sp)
  806d1c:	dfc00615 	stw	ra,24(sp)
  806d20:	a809883a 	mov	r4,r21
  806d24:	2823883a 	mov	r17,r5
  806d28:	dcc00315 	stw	r19,12(sp)
  806d2c:	dc800215 	stw	r18,8(sp)
  806d30:	0806adc0 	call	806adc <__hi0bits>
  806d34:	100b883a 	mov	r5,r2
  806d38:	00800804 	movi	r2,32
  806d3c:	1145c83a 	sub	r2,r2,r5
  806d40:	88800015 	stw	r2,0(r17)
  806d44:	00800284 	movi	r2,10
  806d48:	80ffff04 	addi	r3,r16,-4
  806d4c:	11401416 	blt	r2,r5,806da0 <__b2d+0xb0>
  806d50:	008002c4 	movi	r2,11
  806d54:	1149c83a 	sub	r4,r2,r5
  806d58:	a0c02736 	bltu	r20,r3,806df8 <__b2d+0x108>
  806d5c:	000d883a 	mov	r6,zero
  806d60:	28800544 	addi	r2,r5,21
  806d64:	a906d83a 	srl	r3,r21,r4
  806d68:	a884983a 	sll	r2,r21,r2
  806d6c:	1ccffc34 	orhi	r19,r3,16368
  806d70:	11a4b03a 	or	r18,r2,r6
  806d74:	9005883a 	mov	r2,r18
  806d78:	9807883a 	mov	r3,r19
  806d7c:	dfc00617 	ldw	ra,24(sp)
  806d80:	dd400517 	ldw	r21,20(sp)
  806d84:	dd000417 	ldw	r20,16(sp)
  806d88:	dcc00317 	ldw	r19,12(sp)
  806d8c:	dc800217 	ldw	r18,8(sp)
  806d90:	dc400117 	ldw	r17,4(sp)
  806d94:	dc000017 	ldw	r16,0(sp)
  806d98:	dec00704 	addi	sp,sp,28
  806d9c:	f800283a 	ret
  806da0:	a0c00e36 	bltu	r20,r3,806ddc <__b2d+0xec>
  806da4:	293ffd44 	addi	r4,r5,-11
  806da8:	000d883a 	mov	r6,zero
  806dac:	20000f26 	beq	r4,zero,806dec <__b2d+0xfc>
  806db0:	00800804 	movi	r2,32
  806db4:	110bc83a 	sub	r5,r2,r4
  806db8:	a0c01236 	bltu	r20,r3,806e04 <__b2d+0x114>
  806dbc:	000f883a 	mov	r7,zero
  806dc0:	a904983a 	sll	r2,r21,r4
  806dc4:	3146d83a 	srl	r3,r6,r5
  806dc8:	3108983a 	sll	r4,r6,r4
  806dcc:	108ffc34 	orhi	r2,r2,16368
  806dd0:	18a6b03a 	or	r19,r3,r2
  806dd4:	3924b03a 	or	r18,r7,r4
  806dd8:	003fe606 	br	806d74 <__b2d+0x84>
  806ddc:	293ffd44 	addi	r4,r5,-11
  806de0:	81bffe17 	ldw	r6,-8(r16)
  806de4:	80fffe04 	addi	r3,r16,-8
  806de8:	203ff11e 	bne	r4,zero,806db0 <__b2d+0xc0>
  806dec:	accffc34 	orhi	r19,r21,16368
  806df0:	3025883a 	mov	r18,r6
  806df4:	003fdf06 	br	806d74 <__b2d+0x84>
  806df8:	18bfff17 	ldw	r2,-4(r3)
  806dfc:	110cd83a 	srl	r6,r2,r4
  806e00:	003fd706 	br	806d60 <__b2d+0x70>
  806e04:	18bfff17 	ldw	r2,-4(r3)
  806e08:	114ed83a 	srl	r7,r2,r5
  806e0c:	003fec06 	br	806dc0 <__b2d+0xd0>

00806e10 <__ratio>:
  806e10:	defff904 	addi	sp,sp,-28
  806e14:	dc400215 	stw	r17,8(sp)
  806e18:	2823883a 	mov	r17,r5
  806e1c:	d80b883a 	mov	r5,sp
  806e20:	dfc00615 	stw	ra,24(sp)
  806e24:	dd000515 	stw	r20,20(sp)
  806e28:	dcc00415 	stw	r19,16(sp)
  806e2c:	dc800315 	stw	r18,12(sp)
  806e30:	2025883a 	mov	r18,r4
  806e34:	0806cf00 	call	806cf0 <__b2d>
  806e38:	8809883a 	mov	r4,r17
  806e3c:	d9400104 	addi	r5,sp,4
  806e40:	1027883a 	mov	r19,r2
  806e44:	1829883a 	mov	r20,r3
  806e48:	0806cf00 	call	806cf0 <__b2d>
  806e4c:	89000417 	ldw	r4,16(r17)
  806e50:	91c00417 	ldw	r7,16(r18)
  806e54:	d9800117 	ldw	r6,4(sp)
  806e58:	180b883a 	mov	r5,r3
  806e5c:	390fc83a 	sub	r7,r7,r4
  806e60:	1009883a 	mov	r4,r2
  806e64:	d8800017 	ldw	r2,0(sp)
  806e68:	380e917a 	slli	r7,r7,5
  806e6c:	2011883a 	mov	r8,r4
  806e70:	1185c83a 	sub	r2,r2,r6
  806e74:	11c5883a 	add	r2,r2,r7
  806e78:	1006953a 	slli	r3,r2,20
  806e7c:	2813883a 	mov	r9,r5
  806e80:	00800d0e 	bge	zero,r2,806eb8 <__ratio+0xa8>
  806e84:	1d29883a 	add	r20,r3,r20
  806e88:	a00b883a 	mov	r5,r20
  806e8c:	480f883a 	mov	r7,r9
  806e90:	9809883a 	mov	r4,r19
  806e94:	400d883a 	mov	r6,r8
  806e98:	0809e580 	call	809e58 <__divdf3>
  806e9c:	dfc00617 	ldw	ra,24(sp)
  806ea0:	dd000517 	ldw	r20,20(sp)
  806ea4:	dcc00417 	ldw	r19,16(sp)
  806ea8:	dc800317 	ldw	r18,12(sp)
  806eac:	dc400217 	ldw	r17,8(sp)
  806eb0:	dec00704 	addi	sp,sp,28
  806eb4:	f800283a 	ret
  806eb8:	28d3c83a 	sub	r9,r5,r3
  806ebc:	003ff206 	br	806e88 <__ratio+0x78>

00806ec0 <_mprec_log10>:
  806ec0:	defffe04 	addi	sp,sp,-8
  806ec4:	008005c4 	movi	r2,23
  806ec8:	dc000015 	stw	r16,0(sp)
  806ecc:	dfc00115 	stw	ra,4(sp)
  806ed0:	2021883a 	mov	r16,r4
  806ed4:	11000c16 	blt	r2,r4,806f08 <_mprec_log10+0x48>
  806ed8:	200490fa 	slli	r2,r4,3
  806edc:	00c02074 	movhi	r3,129
  806ee0:	18cac304 	addi	r3,r3,11020
  806ee4:	10c5883a 	add	r2,r2,r3
  806ee8:	12400117 	ldw	r9,4(r2)
  806eec:	12000017 	ldw	r8,0(r2)
  806ef0:	4807883a 	mov	r3,r9
  806ef4:	4005883a 	mov	r2,r8
  806ef8:	dfc00117 	ldw	ra,4(sp)
  806efc:	dc000017 	ldw	r16,0(sp)
  806f00:	dec00204 	addi	sp,sp,8
  806f04:	f800283a 	ret
  806f08:	0011883a 	mov	r8,zero
  806f0c:	024ffc34 	movhi	r9,16368
  806f10:	0005883a 	mov	r2,zero
  806f14:	00d00934 	movhi	r3,16420
  806f18:	480b883a 	mov	r5,r9
  806f1c:	4009883a 	mov	r4,r8
  806f20:	180f883a 	mov	r7,r3
  806f24:	100d883a 	mov	r6,r2
  806f28:	0809a940 	call	809a94 <__muldf3>
  806f2c:	843fffc4 	addi	r16,r16,-1
  806f30:	1011883a 	mov	r8,r2
  806f34:	1813883a 	mov	r9,r3
  806f38:	803ff51e 	bne	r16,zero,806f10 <_mprec_log10+0x50>
  806f3c:	4005883a 	mov	r2,r8
  806f40:	4807883a 	mov	r3,r9
  806f44:	dfc00117 	ldw	ra,4(sp)
  806f48:	dc000017 	ldw	r16,0(sp)
  806f4c:	dec00204 	addi	sp,sp,8
  806f50:	f800283a 	ret

00806f54 <__copybits>:
  806f54:	297fffc4 	addi	r5,r5,-1
  806f58:	30800417 	ldw	r2,16(r6)
  806f5c:	280bd17a 	srai	r5,r5,5
  806f60:	31800504 	addi	r6,r6,20
  806f64:	1085883a 	add	r2,r2,r2
  806f68:	294b883a 	add	r5,r5,r5
  806f6c:	294b883a 	add	r5,r5,r5
  806f70:	1085883a 	add	r2,r2,r2
  806f74:	290b883a 	add	r5,r5,r4
  806f78:	3087883a 	add	r3,r6,r2
  806f7c:	29400104 	addi	r5,r5,4
  806f80:	30c0052e 	bgeu	r6,r3,806f98 <__copybits+0x44>
  806f84:	30800017 	ldw	r2,0(r6)
  806f88:	31800104 	addi	r6,r6,4
  806f8c:	20800015 	stw	r2,0(r4)
  806f90:	21000104 	addi	r4,r4,4
  806f94:	30fffb36 	bltu	r6,r3,806f84 <__copybits+0x30>
  806f98:	2140032e 	bgeu	r4,r5,806fa8 <__copybits+0x54>
  806f9c:	20000015 	stw	zero,0(r4)
  806fa0:	21000104 	addi	r4,r4,4
  806fa4:	217ffd36 	bltu	r4,r5,806f9c <__copybits+0x48>
  806fa8:	f800283a 	ret

00806fac <__any_on>:
  806fac:	20800417 	ldw	r2,16(r4)
  806fb0:	2807d17a 	srai	r3,r5,5
  806fb4:	21000504 	addi	r4,r4,20
  806fb8:	10c00d0e 	bge	r2,r3,806ff0 <__any_on+0x44>
  806fbc:	1085883a 	add	r2,r2,r2
  806fc0:	1085883a 	add	r2,r2,r2
  806fc4:	208d883a 	add	r6,r4,r2
  806fc8:	2180182e 	bgeu	r4,r6,80702c <__any_on+0x80>
  806fcc:	30bfff17 	ldw	r2,-4(r6)
  806fd0:	30ffff04 	addi	r3,r6,-4
  806fd4:	1000041e 	bne	r2,zero,806fe8 <__any_on+0x3c>
  806fd8:	20c0142e 	bgeu	r4,r3,80702c <__any_on+0x80>
  806fdc:	18ffff04 	addi	r3,r3,-4
  806fe0:	18800017 	ldw	r2,0(r3)
  806fe4:	103ffc26 	beq	r2,zero,806fd8 <__any_on+0x2c>
  806fe8:	00800044 	movi	r2,1
  806fec:	f800283a 	ret
  806ff0:	18800a0e 	bge	r3,r2,80701c <__any_on+0x70>
  806ff4:	294007cc 	andi	r5,r5,31
  806ff8:	28000826 	beq	r5,zero,80701c <__any_on+0x70>
  806ffc:	18c5883a 	add	r2,r3,r3
  807000:	1085883a 	add	r2,r2,r2
  807004:	208d883a 	add	r6,r4,r2
  807008:	30c00017 	ldw	r3,0(r6)
  80700c:	1944d83a 	srl	r2,r3,r5
  807010:	1144983a 	sll	r2,r2,r5
  807014:	18bff41e 	bne	r3,r2,806fe8 <__any_on+0x3c>
  807018:	003feb06 	br	806fc8 <__any_on+0x1c>
  80701c:	18c5883a 	add	r2,r3,r3
  807020:	1085883a 	add	r2,r2,r2
  807024:	208d883a 	add	r6,r4,r2
  807028:	003fe706 	br	806fc8 <__any_on+0x1c>
  80702c:	0005883a 	mov	r2,zero
  807030:	f800283a 	ret

00807034 <_Balloc>:
  807034:	20c01317 	ldw	r3,76(r4)
  807038:	defffb04 	addi	sp,sp,-20
  80703c:	dcc00315 	stw	r19,12(sp)
  807040:	dc800215 	stw	r18,8(sp)
  807044:	dfc00415 	stw	ra,16(sp)
  807048:	2825883a 	mov	r18,r5
  80704c:	dc400115 	stw	r17,4(sp)
  807050:	dc000015 	stw	r16,0(sp)
  807054:	2027883a 	mov	r19,r4
  807058:	01800404 	movi	r6,16
  80705c:	01400104 	movi	r5,4
  807060:	18001726 	beq	r3,zero,8070c0 <_Balloc+0x8c>
  807064:	01400044 	movi	r5,1
  807068:	9485883a 	add	r2,r18,r18
  80706c:	2ca2983a 	sll	r17,r5,r18
  807070:	1085883a 	add	r2,r2,r2
  807074:	10c7883a 	add	r3,r2,r3
  807078:	1c000017 	ldw	r16,0(r3)
  80707c:	8c4d883a 	add	r6,r17,r17
  807080:	318d883a 	add	r6,r6,r6
  807084:	9809883a 	mov	r4,r19
  807088:	31800504 	addi	r6,r6,20
  80708c:	80001226 	beq	r16,zero,8070d8 <_Balloc+0xa4>
  807090:	80800017 	ldw	r2,0(r16)
  807094:	18800015 	stw	r2,0(r3)
  807098:	80000415 	stw	zero,16(r16)
  80709c:	80000315 	stw	zero,12(r16)
  8070a0:	8005883a 	mov	r2,r16
  8070a4:	dfc00417 	ldw	ra,16(sp)
  8070a8:	dcc00317 	ldw	r19,12(sp)
  8070ac:	dc800217 	ldw	r18,8(sp)
  8070b0:	dc400117 	ldw	r17,4(sp)
  8070b4:	dc000017 	ldw	r16,0(sp)
  8070b8:	dec00504 	addi	sp,sp,20
  8070bc:	f800283a 	ret
  8070c0:	08084940 	call	808494 <_calloc_r>
  8070c4:	1007883a 	mov	r3,r2
  8070c8:	0021883a 	mov	r16,zero
  8070cc:	98801315 	stw	r2,76(r19)
  8070d0:	103fe41e 	bne	r2,zero,807064 <_Balloc+0x30>
  8070d4:	003ff206 	br	8070a0 <_Balloc+0x6c>
  8070d8:	08084940 	call	808494 <_calloc_r>
  8070dc:	103ff026 	beq	r2,zero,8070a0 <_Balloc+0x6c>
  8070e0:	1021883a 	mov	r16,r2
  8070e4:	14800115 	stw	r18,4(r2)
  8070e8:	14400215 	stw	r17,8(r2)
  8070ec:	003fea06 	br	807098 <_Balloc+0x64>

008070f0 <__d2b>:
  8070f0:	defff504 	addi	sp,sp,-44
  8070f4:	dcc00515 	stw	r19,20(sp)
  8070f8:	04c00044 	movi	r19,1
  8070fc:	dc000215 	stw	r16,8(sp)
  807100:	2821883a 	mov	r16,r5
  807104:	980b883a 	mov	r5,r19
  807108:	ddc00915 	stw	r23,36(sp)
  80710c:	dd800815 	stw	r22,32(sp)
  807110:	dd400715 	stw	r21,28(sp)
  807114:	dd000615 	stw	r20,24(sp)
  807118:	dc800415 	stw	r18,16(sp)
  80711c:	dc400315 	stw	r17,12(sp)
  807120:	dfc00a15 	stw	ra,40(sp)
  807124:	3023883a 	mov	r17,r6
  807128:	382d883a 	mov	r22,r7
  80712c:	ddc00b17 	ldw	r23,44(sp)
  807130:	08070340 	call	807034 <_Balloc>
  807134:	1025883a 	mov	r18,r2
  807138:	00a00034 	movhi	r2,32768
  80713c:	10bfffc4 	addi	r2,r2,-1
  807140:	8888703a 	and	r4,r17,r2
  807144:	202ad53a 	srli	r21,r4,20
  807148:	00800434 	movhi	r2,16
  80714c:	10bfffc4 	addi	r2,r2,-1
  807150:	8886703a 	and	r3,r17,r2
  807154:	a829003a 	cmpeq	r20,r21,zero
  807158:	800b883a 	mov	r5,r16
  80715c:	d8c00115 	stw	r3,4(sp)
  807160:	94000504 	addi	r16,r18,20
  807164:	a000021e 	bne	r20,zero,807170 <__d2b+0x80>
  807168:	18c00434 	orhi	r3,r3,16
  80716c:	d8c00115 	stw	r3,4(sp)
  807170:	28002726 	beq	r5,zero,807210 <__d2b+0x120>
  807174:	d809883a 	mov	r4,sp
  807178:	d9400015 	stw	r5,0(sp)
  80717c:	0806b4c0 	call	806b4c <__lo0bits>
  807180:	100d883a 	mov	r6,r2
  807184:	10003526 	beq	r2,zero,80725c <__d2b+0x16c>
  807188:	d8c00117 	ldw	r3,4(sp)
  80718c:	00800804 	movi	r2,32
  807190:	1185c83a 	sub	r2,r2,r6
  807194:	d9000017 	ldw	r4,0(sp)
  807198:	1886983a 	sll	r3,r3,r2
  80719c:	1906b03a 	or	r3,r3,r4
  8071a0:	90c00515 	stw	r3,20(r18)
  8071a4:	d8c00117 	ldw	r3,4(sp)
  8071a8:	1986d83a 	srl	r3,r3,r6
  8071ac:	d8c00115 	stw	r3,4(sp)
  8071b0:	180b003a 	cmpeq	r5,r3,zero
  8071b4:	00800084 	movi	r2,2
  8071b8:	114bc83a 	sub	r5,r2,r5
  8071bc:	80c00115 	stw	r3,4(r16)
  8071c0:	91400415 	stw	r5,16(r18)
  8071c4:	a0001a1e 	bne	r20,zero,807230 <__d2b+0x140>
  8071c8:	3545883a 	add	r2,r6,r21
  8071cc:	10bef344 	addi	r2,r2,-1075
  8071d0:	00c00d44 	movi	r3,53
  8071d4:	b0800015 	stw	r2,0(r22)
  8071d8:	1987c83a 	sub	r3,r3,r6
  8071dc:	b8c00015 	stw	r3,0(r23)
  8071e0:	9005883a 	mov	r2,r18
  8071e4:	dfc00a17 	ldw	ra,40(sp)
  8071e8:	ddc00917 	ldw	r23,36(sp)
  8071ec:	dd800817 	ldw	r22,32(sp)
  8071f0:	dd400717 	ldw	r21,28(sp)
  8071f4:	dd000617 	ldw	r20,24(sp)
  8071f8:	dcc00517 	ldw	r19,20(sp)
  8071fc:	dc800417 	ldw	r18,16(sp)
  807200:	dc400317 	ldw	r17,12(sp)
  807204:	dc000217 	ldw	r16,8(sp)
  807208:	dec00b04 	addi	sp,sp,44
  80720c:	f800283a 	ret
  807210:	d9000104 	addi	r4,sp,4
  807214:	0806b4c0 	call	806b4c <__lo0bits>
  807218:	11800804 	addi	r6,r2,32
  80721c:	d8800117 	ldw	r2,4(sp)
  807220:	94c00415 	stw	r19,16(r18)
  807224:	980b883a 	mov	r5,r19
  807228:	90800515 	stw	r2,20(r18)
  80722c:	a03fe626 	beq	r20,zero,8071c8 <__d2b+0xd8>
  807230:	2945883a 	add	r2,r5,r5
  807234:	1085883a 	add	r2,r2,r2
  807238:	1405883a 	add	r2,r2,r16
  80723c:	113fff17 	ldw	r4,-4(r2)
  807240:	30fef384 	addi	r3,r6,-1074
  807244:	2820917a 	slli	r16,r5,5
  807248:	b0c00015 	stw	r3,0(r22)
  80724c:	0806adc0 	call	806adc <__hi0bits>
  807250:	80a1c83a 	sub	r16,r16,r2
  807254:	bc000015 	stw	r16,0(r23)
  807258:	003fe106 	br	8071e0 <__d2b+0xf0>
  80725c:	d8800017 	ldw	r2,0(sp)
  807260:	90800515 	stw	r2,20(r18)
  807264:	d8c00117 	ldw	r3,4(sp)
  807268:	003fd106 	br	8071b0 <__d2b+0xc0>

0080726c <__mdiff>:
  80726c:	defffb04 	addi	sp,sp,-20
  807270:	dc000015 	stw	r16,0(sp)
  807274:	2821883a 	mov	r16,r5
  807278:	dc800215 	stw	r18,8(sp)
  80727c:	300b883a 	mov	r5,r6
  807280:	2025883a 	mov	r18,r4
  807284:	8009883a 	mov	r4,r16
  807288:	dc400115 	stw	r17,4(sp)
  80728c:	dfc00415 	stw	ra,16(sp)
  807290:	dcc00315 	stw	r19,12(sp)
  807294:	3023883a 	mov	r17,r6
  807298:	0806c100 	call	806c10 <__mcmp>
  80729c:	10004226 	beq	r2,zero,8073a8 <__mdiff+0x13c>
  8072a0:	10005016 	blt	r2,zero,8073e4 <__mdiff+0x178>
  8072a4:	0027883a 	mov	r19,zero
  8072a8:	81400117 	ldw	r5,4(r16)
  8072ac:	9009883a 	mov	r4,r18
  8072b0:	08070340 	call	807034 <_Balloc>
  8072b4:	1019883a 	mov	r12,r2
  8072b8:	82800417 	ldw	r10,16(r16)
  8072bc:	88800417 	ldw	r2,16(r17)
  8072c0:	81800504 	addi	r6,r16,20
  8072c4:	5287883a 	add	r3,r10,r10
  8072c8:	1085883a 	add	r2,r2,r2
  8072cc:	18c7883a 	add	r3,r3,r3
  8072d0:	1085883a 	add	r2,r2,r2
  8072d4:	8a000504 	addi	r8,r17,20
  8072d8:	64c00315 	stw	r19,12(r12)
  8072dc:	30db883a 	add	r13,r6,r3
  8072e0:	4097883a 	add	r11,r8,r2
  8072e4:	61c00504 	addi	r7,r12,20
  8072e8:	0013883a 	mov	r9,zero
  8072ec:	31000017 	ldw	r4,0(r6)
  8072f0:	41400017 	ldw	r5,0(r8)
  8072f4:	42000104 	addi	r8,r8,4
  8072f8:	20bfffcc 	andi	r2,r4,65535
  8072fc:	28ffffcc 	andi	r3,r5,65535
  807300:	10c5c83a 	sub	r2,r2,r3
  807304:	1245883a 	add	r2,r2,r9
  807308:	2008d43a 	srli	r4,r4,16
  80730c:	280ad43a 	srli	r5,r5,16
  807310:	1007d43a 	srai	r3,r2,16
  807314:	3880000d 	sth	r2,0(r7)
  807318:	2149c83a 	sub	r4,r4,r5
  80731c:	20c9883a 	add	r4,r4,r3
  807320:	3900008d 	sth	r4,2(r7)
  807324:	31800104 	addi	r6,r6,4
  807328:	39c00104 	addi	r7,r7,4
  80732c:	2013d43a 	srai	r9,r4,16
  807330:	42ffee36 	bltu	r8,r11,8072ec <__mdiff+0x80>
  807334:	33400c2e 	bgeu	r6,r13,807368 <__mdiff+0xfc>
  807338:	30800017 	ldw	r2,0(r6)
  80733c:	31800104 	addi	r6,r6,4
  807340:	10ffffcc 	andi	r3,r2,65535
  807344:	1a47883a 	add	r3,r3,r9
  807348:	1004d43a 	srli	r2,r2,16
  80734c:	1809d43a 	srai	r4,r3,16
  807350:	38c0000d 	sth	r3,0(r7)
  807354:	1105883a 	add	r2,r2,r4
  807358:	3880008d 	sth	r2,2(r7)
  80735c:	1013d43a 	srai	r9,r2,16
  807360:	39c00104 	addi	r7,r7,4
  807364:	337ff436 	bltu	r6,r13,807338 <__mdiff+0xcc>
  807368:	38bfff17 	ldw	r2,-4(r7)
  80736c:	38ffff04 	addi	r3,r7,-4
  807370:	1000041e 	bne	r2,zero,807384 <__mdiff+0x118>
  807374:	18ffff04 	addi	r3,r3,-4
  807378:	18800017 	ldw	r2,0(r3)
  80737c:	52bfffc4 	addi	r10,r10,-1
  807380:	103ffc26 	beq	r2,zero,807374 <__mdiff+0x108>
  807384:	6005883a 	mov	r2,r12
  807388:	62800415 	stw	r10,16(r12)
  80738c:	dfc00417 	ldw	ra,16(sp)
  807390:	dcc00317 	ldw	r19,12(sp)
  807394:	dc800217 	ldw	r18,8(sp)
  807398:	dc400117 	ldw	r17,4(sp)
  80739c:	dc000017 	ldw	r16,0(sp)
  8073a0:	dec00504 	addi	sp,sp,20
  8073a4:	f800283a 	ret
  8073a8:	9009883a 	mov	r4,r18
  8073ac:	000b883a 	mov	r5,zero
  8073b0:	08070340 	call	807034 <_Balloc>
  8073b4:	1019883a 	mov	r12,r2
  8073b8:	00800044 	movi	r2,1
  8073bc:	60800415 	stw	r2,16(r12)
  8073c0:	6005883a 	mov	r2,r12
  8073c4:	60000515 	stw	zero,20(r12)
  8073c8:	dfc00417 	ldw	ra,16(sp)
  8073cc:	dcc00317 	ldw	r19,12(sp)
  8073d0:	dc800217 	ldw	r18,8(sp)
  8073d4:	dc400117 	ldw	r17,4(sp)
  8073d8:	dc000017 	ldw	r16,0(sp)
  8073dc:	dec00504 	addi	sp,sp,20
  8073e0:	f800283a 	ret
  8073e4:	880d883a 	mov	r6,r17
  8073e8:	04c00044 	movi	r19,1
  8073ec:	8023883a 	mov	r17,r16
  8073f0:	3021883a 	mov	r16,r6
  8073f4:	003fac06 	br	8072a8 <__mdiff+0x3c>

008073f8 <__lshift>:
  8073f8:	defff904 	addi	sp,sp,-28
  8073fc:	28800417 	ldw	r2,16(r5)
  807400:	dc000015 	stw	r16,0(sp)
  807404:	3021d17a 	srai	r16,r6,5
  807408:	28c00217 	ldw	r3,8(r5)
  80740c:	10800044 	addi	r2,r2,1
  807410:	dc400115 	stw	r17,4(sp)
  807414:	80a3883a 	add	r17,r16,r2
  807418:	dd400515 	stw	r21,20(sp)
  80741c:	dd000415 	stw	r20,16(sp)
  807420:	dc800215 	stw	r18,8(sp)
  807424:	dfc00615 	stw	ra,24(sp)
  807428:	2825883a 	mov	r18,r5
  80742c:	dcc00315 	stw	r19,12(sp)
  807430:	3029883a 	mov	r20,r6
  807434:	202b883a 	mov	r21,r4
  807438:	29400117 	ldw	r5,4(r5)
  80743c:	1c40030e 	bge	r3,r17,80744c <__lshift+0x54>
  807440:	18c7883a 	add	r3,r3,r3
  807444:	29400044 	addi	r5,r5,1
  807448:	1c7ffd16 	blt	r3,r17,807440 <__lshift+0x48>
  80744c:	a809883a 	mov	r4,r21
  807450:	08070340 	call	807034 <_Balloc>
  807454:	1027883a 	mov	r19,r2
  807458:	11400504 	addi	r5,r2,20
  80745c:	0400090e 	bge	zero,r16,807484 <__lshift+0x8c>
  807460:	2805883a 	mov	r2,r5
  807464:	0007883a 	mov	r3,zero
  807468:	18c00044 	addi	r3,r3,1
  80746c:	10000015 	stw	zero,0(r2)
  807470:	10800104 	addi	r2,r2,4
  807474:	80fffc1e 	bne	r16,r3,807468 <__lshift+0x70>
  807478:	8405883a 	add	r2,r16,r16
  80747c:	1085883a 	add	r2,r2,r2
  807480:	288b883a 	add	r5,r5,r2
  807484:	90800417 	ldw	r2,16(r18)
  807488:	91000504 	addi	r4,r18,20
  80748c:	a18007cc 	andi	r6,r20,31
  807490:	1085883a 	add	r2,r2,r2
  807494:	1085883a 	add	r2,r2,r2
  807498:	208f883a 	add	r7,r4,r2
  80749c:	30001e26 	beq	r6,zero,807518 <__lshift+0x120>
  8074a0:	00800804 	movi	r2,32
  8074a4:	1191c83a 	sub	r8,r2,r6
  8074a8:	0007883a 	mov	r3,zero
  8074ac:	20800017 	ldw	r2,0(r4)
  8074b0:	1184983a 	sll	r2,r2,r6
  8074b4:	1884b03a 	or	r2,r3,r2
  8074b8:	28800015 	stw	r2,0(r5)
  8074bc:	20c00017 	ldw	r3,0(r4)
  8074c0:	21000104 	addi	r4,r4,4
  8074c4:	29400104 	addi	r5,r5,4
  8074c8:	1a06d83a 	srl	r3,r3,r8
  8074cc:	21fff736 	bltu	r4,r7,8074ac <__lshift+0xb4>
  8074d0:	28c00015 	stw	r3,0(r5)
  8074d4:	18000126 	beq	r3,zero,8074dc <__lshift+0xe4>
  8074d8:	8c400044 	addi	r17,r17,1
  8074dc:	88bfffc4 	addi	r2,r17,-1
  8074e0:	98800415 	stw	r2,16(r19)
  8074e4:	a809883a 	mov	r4,r21
  8074e8:	900b883a 	mov	r5,r18
  8074ec:	0806ab40 	call	806ab4 <_Bfree>
  8074f0:	9805883a 	mov	r2,r19
  8074f4:	dfc00617 	ldw	ra,24(sp)
  8074f8:	dd400517 	ldw	r21,20(sp)
  8074fc:	dd000417 	ldw	r20,16(sp)
  807500:	dcc00317 	ldw	r19,12(sp)
  807504:	dc800217 	ldw	r18,8(sp)
  807508:	dc400117 	ldw	r17,4(sp)
  80750c:	dc000017 	ldw	r16,0(sp)
  807510:	dec00704 	addi	sp,sp,28
  807514:	f800283a 	ret
  807518:	20800017 	ldw	r2,0(r4)
  80751c:	21000104 	addi	r4,r4,4
  807520:	28800015 	stw	r2,0(r5)
  807524:	29400104 	addi	r5,r5,4
  807528:	21ffec2e 	bgeu	r4,r7,8074dc <__lshift+0xe4>
  80752c:	20800017 	ldw	r2,0(r4)
  807530:	21000104 	addi	r4,r4,4
  807534:	28800015 	stw	r2,0(r5)
  807538:	29400104 	addi	r5,r5,4
  80753c:	21fff636 	bltu	r4,r7,807518 <__lshift+0x120>
  807540:	003fe606 	br	8074dc <__lshift+0xe4>

00807544 <__multiply>:
  807544:	defff004 	addi	sp,sp,-64
  807548:	dc800815 	stw	r18,32(sp)
  80754c:	dc400715 	stw	r17,28(sp)
  807550:	2c800417 	ldw	r18,16(r5)
  807554:	34400417 	ldw	r17,16(r6)
  807558:	dcc00915 	stw	r19,36(sp)
  80755c:	dc000615 	stw	r16,24(sp)
  807560:	dfc00f15 	stw	ra,60(sp)
  807564:	df000e15 	stw	fp,56(sp)
  807568:	ddc00d15 	stw	r23,52(sp)
  80756c:	dd800c15 	stw	r22,48(sp)
  807570:	dd400b15 	stw	r21,44(sp)
  807574:	dd000a15 	stw	r20,40(sp)
  807578:	2821883a 	mov	r16,r5
  80757c:	3027883a 	mov	r19,r6
  807580:	9440040e 	bge	r18,r17,807594 <__multiply+0x50>
  807584:	8825883a 	mov	r18,r17
  807588:	2c400417 	ldw	r17,16(r5)
  80758c:	2827883a 	mov	r19,r5
  807590:	3021883a 	mov	r16,r6
  807594:	80800217 	ldw	r2,8(r16)
  807598:	9447883a 	add	r3,r18,r17
  80759c:	d8c00415 	stw	r3,16(sp)
  8075a0:	81400117 	ldw	r5,4(r16)
  8075a4:	10c0010e 	bge	r2,r3,8075ac <__multiply+0x68>
  8075a8:	29400044 	addi	r5,r5,1
  8075ac:	08070340 	call	807034 <_Balloc>
  8075b0:	d8800515 	stw	r2,20(sp)
  8075b4:	d9000417 	ldw	r4,16(sp)
  8075b8:	d8c00517 	ldw	r3,20(sp)
  8075bc:	2105883a 	add	r2,r4,r4
  8075c0:	1085883a 	add	r2,r2,r2
  8075c4:	19000504 	addi	r4,r3,20
  8075c8:	2085883a 	add	r2,r4,r2
  8075cc:	d8800315 	stw	r2,12(sp)
  8075d0:	2080052e 	bgeu	r4,r2,8075e8 <__multiply+0xa4>
  8075d4:	2005883a 	mov	r2,r4
  8075d8:	d8c00317 	ldw	r3,12(sp)
  8075dc:	10000015 	stw	zero,0(r2)
  8075e0:	10800104 	addi	r2,r2,4
  8075e4:	10fffc36 	bltu	r2,r3,8075d8 <__multiply+0x94>
  8075e8:	8c45883a 	add	r2,r17,r17
  8075ec:	9487883a 	add	r3,r18,r18
  8075f0:	9dc00504 	addi	r23,r19,20
  8075f4:	1085883a 	add	r2,r2,r2
  8075f8:	84000504 	addi	r16,r16,20
  8075fc:	18c7883a 	add	r3,r3,r3
  807600:	b885883a 	add	r2,r23,r2
  807604:	dc000015 	stw	r16,0(sp)
  807608:	d8800215 	stw	r2,8(sp)
  80760c:	80f9883a 	add	fp,r16,r3
  807610:	b880432e 	bgeu	r23,r2,807720 <__multiply+0x1dc>
  807614:	d9000115 	stw	r4,4(sp)
  807618:	b9000017 	ldw	r4,0(r23)
  80761c:	253fffcc 	andi	r20,r4,65535
  807620:	a0001a26 	beq	r20,zero,80768c <__multiply+0x148>
  807624:	dcc00017 	ldw	r19,0(sp)
  807628:	dc800117 	ldw	r18,4(sp)
  80762c:	002b883a 	mov	r21,zero
  807630:	9c400017 	ldw	r17,0(r19)
  807634:	94000017 	ldw	r16,0(r18)
  807638:	a009883a 	mov	r4,r20
  80763c:	897fffcc 	andi	r5,r17,65535
  807640:	08014540 	call	801454 <__mulsi3>
  807644:	880ad43a 	srli	r5,r17,16
  807648:	80ffffcc 	andi	r3,r16,65535
  80764c:	a8c7883a 	add	r3,r21,r3
  807650:	a009883a 	mov	r4,r20
  807654:	10e3883a 	add	r17,r2,r3
  807658:	8020d43a 	srli	r16,r16,16
  80765c:	08014540 	call	801454 <__mulsi3>
  807660:	8806d43a 	srli	r3,r17,16
  807664:	1405883a 	add	r2,r2,r16
  807668:	9cc00104 	addi	r19,r19,4
  80766c:	1887883a 	add	r3,r3,r2
  807670:	90c0008d 	sth	r3,2(r18)
  807674:	9440000d 	sth	r17,0(r18)
  807678:	182ad43a 	srli	r21,r3,16
  80767c:	94800104 	addi	r18,r18,4
  807680:	9f3feb36 	bltu	r19,fp,807630 <__multiply+0xec>
  807684:	95400015 	stw	r21,0(r18)
  807688:	b9000017 	ldw	r4,0(r23)
  80768c:	202ad43a 	srli	r21,r4,16
  807690:	a8001c26 	beq	r21,zero,807704 <__multiply+0x1c0>
  807694:	d9000117 	ldw	r4,4(sp)
  807698:	dd000017 	ldw	r20,0(sp)
  80769c:	002d883a 	mov	r22,zero
  8076a0:	24c00017 	ldw	r19,0(r4)
  8076a4:	2025883a 	mov	r18,r4
  8076a8:	9823883a 	mov	r17,r19
  8076ac:	a4000017 	ldw	r16,0(r20)
  8076b0:	a809883a 	mov	r4,r21
  8076b4:	a5000104 	addi	r20,r20,4
  8076b8:	817fffcc 	andi	r5,r16,65535
  8076bc:	08014540 	call	801454 <__mulsi3>
  8076c0:	8806d43a 	srli	r3,r17,16
  8076c4:	800ad43a 	srli	r5,r16,16
  8076c8:	94c0000d 	sth	r19,0(r18)
  8076cc:	b0c7883a 	add	r3,r22,r3
  8076d0:	10e1883a 	add	r16,r2,r3
  8076d4:	9400008d 	sth	r16,2(r18)
  8076d8:	a809883a 	mov	r4,r21
  8076dc:	94800104 	addi	r18,r18,4
  8076e0:	08014540 	call	801454 <__mulsi3>
  8076e4:	94400017 	ldw	r17,0(r18)
  8076e8:	8020d43a 	srli	r16,r16,16
  8076ec:	88ffffcc 	andi	r3,r17,65535
  8076f0:	10c5883a 	add	r2,r2,r3
  8076f4:	80a7883a 	add	r19,r16,r2
  8076f8:	982cd43a 	srli	r22,r19,16
  8076fc:	a73feb36 	bltu	r20,fp,8076ac <__multiply+0x168>
  807700:	94c00015 	stw	r19,0(r18)
  807704:	d8800217 	ldw	r2,8(sp)
  807708:	bdc00104 	addi	r23,r23,4
  80770c:	b880042e 	bgeu	r23,r2,807720 <__multiply+0x1dc>
  807710:	d8c00117 	ldw	r3,4(sp)
  807714:	18c00104 	addi	r3,r3,4
  807718:	d8c00115 	stw	r3,4(sp)
  80771c:	003fbe06 	br	807618 <__multiply+0xd4>
  807720:	d9000417 	ldw	r4,16(sp)
  807724:	01000c0e 	bge	zero,r4,807758 <__multiply+0x214>
  807728:	d8c00317 	ldw	r3,12(sp)
  80772c:	18bfff17 	ldw	r2,-4(r3)
  807730:	18ffff04 	addi	r3,r3,-4
  807734:	10000326 	beq	r2,zero,807744 <__multiply+0x200>
  807738:	00000706 	br	807758 <__multiply+0x214>
  80773c:	18800017 	ldw	r2,0(r3)
  807740:	1000051e 	bne	r2,zero,807758 <__multiply+0x214>
  807744:	d9000417 	ldw	r4,16(sp)
  807748:	18ffff04 	addi	r3,r3,-4
  80774c:	213fffc4 	addi	r4,r4,-1
  807750:	d9000415 	stw	r4,16(sp)
  807754:	203ff91e 	bne	r4,zero,80773c <__multiply+0x1f8>
  807758:	d8800417 	ldw	r2,16(sp)
  80775c:	d8c00517 	ldw	r3,20(sp)
  807760:	18800415 	stw	r2,16(r3)
  807764:	1805883a 	mov	r2,r3
  807768:	dfc00f17 	ldw	ra,60(sp)
  80776c:	df000e17 	ldw	fp,56(sp)
  807770:	ddc00d17 	ldw	r23,52(sp)
  807774:	dd800c17 	ldw	r22,48(sp)
  807778:	dd400b17 	ldw	r21,44(sp)
  80777c:	dd000a17 	ldw	r20,40(sp)
  807780:	dcc00917 	ldw	r19,36(sp)
  807784:	dc800817 	ldw	r18,32(sp)
  807788:	dc400717 	ldw	r17,28(sp)
  80778c:	dc000617 	ldw	r16,24(sp)
  807790:	dec01004 	addi	sp,sp,64
  807794:	f800283a 	ret

00807798 <__i2b>:
  807798:	defffd04 	addi	sp,sp,-12
  80779c:	dc000015 	stw	r16,0(sp)
  8077a0:	04000044 	movi	r16,1
  8077a4:	dc800115 	stw	r18,4(sp)
  8077a8:	2825883a 	mov	r18,r5
  8077ac:	800b883a 	mov	r5,r16
  8077b0:	dfc00215 	stw	ra,8(sp)
  8077b4:	08070340 	call	807034 <_Balloc>
  8077b8:	14000415 	stw	r16,16(r2)
  8077bc:	14800515 	stw	r18,20(r2)
  8077c0:	dfc00217 	ldw	ra,8(sp)
  8077c4:	dc800117 	ldw	r18,4(sp)
  8077c8:	dc000017 	ldw	r16,0(sp)
  8077cc:	dec00304 	addi	sp,sp,12
  8077d0:	f800283a 	ret

008077d4 <__multadd>:
  8077d4:	defff604 	addi	sp,sp,-40
  8077d8:	dd800615 	stw	r22,24(sp)
  8077dc:	2d800417 	ldw	r22,16(r5)
  8077e0:	df000815 	stw	fp,32(sp)
  8077e4:	ddc00715 	stw	r23,28(sp)
  8077e8:	dd400515 	stw	r21,20(sp)
  8077ec:	dd000415 	stw	r20,16(sp)
  8077f0:	dcc00315 	stw	r19,12(sp)
  8077f4:	dc800215 	stw	r18,8(sp)
  8077f8:	dfc00915 	stw	ra,36(sp)
  8077fc:	dc400115 	stw	r17,4(sp)
  807800:	dc000015 	stw	r16,0(sp)
  807804:	282f883a 	mov	r23,r5
  807808:	2039883a 	mov	fp,r4
  80780c:	302b883a 	mov	r21,r6
  807810:	3829883a 	mov	r20,r7
  807814:	2c800504 	addi	r18,r5,20
  807818:	0027883a 	mov	r19,zero
  80781c:	94400017 	ldw	r17,0(r18)
  807820:	a80b883a 	mov	r5,r21
  807824:	9cc00044 	addi	r19,r19,1
  807828:	893fffcc 	andi	r4,r17,65535
  80782c:	08014540 	call	801454 <__mulsi3>
  807830:	8808d43a 	srli	r4,r17,16
  807834:	1521883a 	add	r16,r2,r20
  807838:	a80b883a 	mov	r5,r21
  80783c:	08014540 	call	801454 <__mulsi3>
  807840:	8008d43a 	srli	r4,r16,16
  807844:	843fffcc 	andi	r16,r16,65535
  807848:	1105883a 	add	r2,r2,r4
  80784c:	1006943a 	slli	r3,r2,16
  807850:	1028d43a 	srli	r20,r2,16
  807854:	1c07883a 	add	r3,r3,r16
  807858:	90c00015 	stw	r3,0(r18)
  80785c:	94800104 	addi	r18,r18,4
  807860:	9dbfee16 	blt	r19,r22,80781c <__multadd+0x48>
  807864:	a0000826 	beq	r20,zero,807888 <__multadd+0xb4>
  807868:	b8800217 	ldw	r2,8(r23)
  80786c:	b080130e 	bge	r22,r2,8078bc <__multadd+0xe8>
  807870:	b585883a 	add	r2,r22,r22
  807874:	1085883a 	add	r2,r2,r2
  807878:	15c5883a 	add	r2,r2,r23
  80787c:	b0c00044 	addi	r3,r22,1
  807880:	15000515 	stw	r20,20(r2)
  807884:	b8c00415 	stw	r3,16(r23)
  807888:	b805883a 	mov	r2,r23
  80788c:	dfc00917 	ldw	ra,36(sp)
  807890:	df000817 	ldw	fp,32(sp)
  807894:	ddc00717 	ldw	r23,28(sp)
  807898:	dd800617 	ldw	r22,24(sp)
  80789c:	dd400517 	ldw	r21,20(sp)
  8078a0:	dd000417 	ldw	r20,16(sp)
  8078a4:	dcc00317 	ldw	r19,12(sp)
  8078a8:	dc800217 	ldw	r18,8(sp)
  8078ac:	dc400117 	ldw	r17,4(sp)
  8078b0:	dc000017 	ldw	r16,0(sp)
  8078b4:	dec00a04 	addi	sp,sp,40
  8078b8:	f800283a 	ret
  8078bc:	b9400117 	ldw	r5,4(r23)
  8078c0:	e009883a 	mov	r4,fp
  8078c4:	29400044 	addi	r5,r5,1
  8078c8:	08070340 	call	807034 <_Balloc>
  8078cc:	b9800417 	ldw	r6,16(r23)
  8078d0:	b9400304 	addi	r5,r23,12
  8078d4:	11000304 	addi	r4,r2,12
  8078d8:	318d883a 	add	r6,r6,r6
  8078dc:	318d883a 	add	r6,r6,r6
  8078e0:	31800204 	addi	r6,r6,8
  8078e4:	1023883a 	mov	r17,r2
  8078e8:	080689c0 	call	80689c <memcpy>
  8078ec:	b80b883a 	mov	r5,r23
  8078f0:	e009883a 	mov	r4,fp
  8078f4:	0806ab40 	call	806ab4 <_Bfree>
  8078f8:	882f883a 	mov	r23,r17
  8078fc:	003fdc06 	br	807870 <__multadd+0x9c>

00807900 <__pow5mult>:
  807900:	defffa04 	addi	sp,sp,-24
  807904:	308000cc 	andi	r2,r6,3
  807908:	dd000415 	stw	r20,16(sp)
  80790c:	dcc00315 	stw	r19,12(sp)
  807910:	dc000015 	stw	r16,0(sp)
  807914:	dfc00515 	stw	ra,20(sp)
  807918:	dc800215 	stw	r18,8(sp)
  80791c:	dc400115 	stw	r17,4(sp)
  807920:	3021883a 	mov	r16,r6
  807924:	2027883a 	mov	r19,r4
  807928:	2829883a 	mov	r20,r5
  80792c:	10002b1e 	bne	r2,zero,8079dc <__pow5mult+0xdc>
  807930:	8025d0ba 	srai	r18,r16,2
  807934:	90001b26 	beq	r18,zero,8079a4 <__pow5mult+0xa4>
  807938:	9c001217 	ldw	r16,72(r19)
  80793c:	8000081e 	bne	r16,zero,807960 <__pow5mult+0x60>
  807940:	00003006 	br	807a04 <__pow5mult+0x104>
  807944:	800b883a 	mov	r5,r16
  807948:	800d883a 	mov	r6,r16
  80794c:	9809883a 	mov	r4,r19
  807950:	90001426 	beq	r18,zero,8079a4 <__pow5mult+0xa4>
  807954:	80800017 	ldw	r2,0(r16)
  807958:	10001b26 	beq	r2,zero,8079c8 <__pow5mult+0xc8>
  80795c:	1021883a 	mov	r16,r2
  807960:	9080004c 	andi	r2,r18,1
  807964:	1005003a 	cmpeq	r2,r2,zero
  807968:	9025d07a 	srai	r18,r18,1
  80796c:	800d883a 	mov	r6,r16
  807970:	9809883a 	mov	r4,r19
  807974:	a00b883a 	mov	r5,r20
  807978:	103ff21e 	bne	r2,zero,807944 <__pow5mult+0x44>
  80797c:	08075440 	call	807544 <__multiply>
  807980:	a00b883a 	mov	r5,r20
  807984:	9809883a 	mov	r4,r19
  807988:	1023883a 	mov	r17,r2
  80798c:	0806ab40 	call	806ab4 <_Bfree>
  807990:	8829883a 	mov	r20,r17
  807994:	800b883a 	mov	r5,r16
  807998:	800d883a 	mov	r6,r16
  80799c:	9809883a 	mov	r4,r19
  8079a0:	903fec1e 	bne	r18,zero,807954 <__pow5mult+0x54>
  8079a4:	a005883a 	mov	r2,r20
  8079a8:	dfc00517 	ldw	ra,20(sp)
  8079ac:	dd000417 	ldw	r20,16(sp)
  8079b0:	dcc00317 	ldw	r19,12(sp)
  8079b4:	dc800217 	ldw	r18,8(sp)
  8079b8:	dc400117 	ldw	r17,4(sp)
  8079bc:	dc000017 	ldw	r16,0(sp)
  8079c0:	dec00604 	addi	sp,sp,24
  8079c4:	f800283a 	ret
  8079c8:	08075440 	call	807544 <__multiply>
  8079cc:	80800015 	stw	r2,0(r16)
  8079d0:	1021883a 	mov	r16,r2
  8079d4:	10000015 	stw	zero,0(r2)
  8079d8:	003fe106 	br	807960 <__pow5mult+0x60>
  8079dc:	1085883a 	add	r2,r2,r2
  8079e0:	00c02074 	movhi	r3,129
  8079e4:	18cb0904 	addi	r3,r3,11300
  8079e8:	1085883a 	add	r2,r2,r2
  8079ec:	10c5883a 	add	r2,r2,r3
  8079f0:	11bfff17 	ldw	r6,-4(r2)
  8079f4:	000f883a 	mov	r7,zero
  8079f8:	08077d40 	call	8077d4 <__multadd>
  8079fc:	1029883a 	mov	r20,r2
  807a00:	003fcb06 	br	807930 <__pow5mult+0x30>
  807a04:	9809883a 	mov	r4,r19
  807a08:	01409c44 	movi	r5,625
  807a0c:	08077980 	call	807798 <__i2b>
  807a10:	98801215 	stw	r2,72(r19)
  807a14:	1021883a 	mov	r16,r2
  807a18:	10000015 	stw	zero,0(r2)
  807a1c:	003fd006 	br	807960 <__pow5mult+0x60>

00807a20 <__s2b>:
  807a20:	defff904 	addi	sp,sp,-28
  807a24:	dcc00315 	stw	r19,12(sp)
  807a28:	dc800215 	stw	r18,8(sp)
  807a2c:	2827883a 	mov	r19,r5
  807a30:	2025883a 	mov	r18,r4
  807a34:	01400244 	movi	r5,9
  807a38:	39000204 	addi	r4,r7,8
  807a3c:	dd000415 	stw	r20,16(sp)
  807a40:	dc400115 	stw	r17,4(sp)
  807a44:	dfc00615 	stw	ra,24(sp)
  807a48:	dd400515 	stw	r21,20(sp)
  807a4c:	dc000015 	stw	r16,0(sp)
  807a50:	3829883a 	mov	r20,r7
  807a54:	3023883a 	mov	r17,r6
  807a58:	080a7380 	call	80a738 <__divsi3>
  807a5c:	00c00044 	movi	r3,1
  807a60:	1880350e 	bge	r3,r2,807b38 <__s2b+0x118>
  807a64:	000b883a 	mov	r5,zero
  807a68:	18c7883a 	add	r3,r3,r3
  807a6c:	29400044 	addi	r5,r5,1
  807a70:	18bffd16 	blt	r3,r2,807a68 <__s2b+0x48>
  807a74:	9009883a 	mov	r4,r18
  807a78:	08070340 	call	807034 <_Balloc>
  807a7c:	1011883a 	mov	r8,r2
  807a80:	d8800717 	ldw	r2,28(sp)
  807a84:	00c00044 	movi	r3,1
  807a88:	01800244 	movi	r6,9
  807a8c:	40800515 	stw	r2,20(r8)
  807a90:	40c00415 	stw	r3,16(r8)
  807a94:	3440260e 	bge	r6,r17,807b30 <__s2b+0x110>
  807a98:	3021883a 	mov	r16,r6
  807a9c:	99ab883a 	add	r21,r19,r6
  807aa0:	9c05883a 	add	r2,r19,r16
  807aa4:	11c00007 	ldb	r7,0(r2)
  807aa8:	400b883a 	mov	r5,r8
  807aac:	9009883a 	mov	r4,r18
  807ab0:	39fff404 	addi	r7,r7,-48
  807ab4:	01800284 	movi	r6,10
  807ab8:	08077d40 	call	8077d4 <__multadd>
  807abc:	84000044 	addi	r16,r16,1
  807ac0:	1011883a 	mov	r8,r2
  807ac4:	8c3ff61e 	bne	r17,r16,807aa0 <__s2b+0x80>
  807ac8:	ac45883a 	add	r2,r21,r17
  807acc:	117ffe04 	addi	r5,r2,-8
  807ad0:	880d883a 	mov	r6,r17
  807ad4:	35000c0e 	bge	r6,r20,807b08 <__s2b+0xe8>
  807ad8:	a185c83a 	sub	r2,r20,r6
  807adc:	2821883a 	mov	r16,r5
  807ae0:	28a3883a 	add	r17,r5,r2
  807ae4:	81c00007 	ldb	r7,0(r16)
  807ae8:	400b883a 	mov	r5,r8
  807aec:	9009883a 	mov	r4,r18
  807af0:	39fff404 	addi	r7,r7,-48
  807af4:	01800284 	movi	r6,10
  807af8:	08077d40 	call	8077d4 <__multadd>
  807afc:	84000044 	addi	r16,r16,1
  807b00:	1011883a 	mov	r8,r2
  807b04:	847ff71e 	bne	r16,r17,807ae4 <__s2b+0xc4>
  807b08:	4005883a 	mov	r2,r8
  807b0c:	dfc00617 	ldw	ra,24(sp)
  807b10:	dd400517 	ldw	r21,20(sp)
  807b14:	dd000417 	ldw	r20,16(sp)
  807b18:	dcc00317 	ldw	r19,12(sp)
  807b1c:	dc800217 	ldw	r18,8(sp)
  807b20:	dc400117 	ldw	r17,4(sp)
  807b24:	dc000017 	ldw	r16,0(sp)
  807b28:	dec00704 	addi	sp,sp,28
  807b2c:	f800283a 	ret
  807b30:	99400284 	addi	r5,r19,10
  807b34:	003fe706 	br	807ad4 <__s2b+0xb4>
  807b38:	000b883a 	mov	r5,zero
  807b3c:	003fcd06 	br	807a74 <__s2b+0x54>

00807b40 <_realloc_r>:
  807b40:	defff404 	addi	sp,sp,-48
  807b44:	dd800815 	stw	r22,32(sp)
  807b48:	dc800415 	stw	r18,16(sp)
  807b4c:	dc400315 	stw	r17,12(sp)
  807b50:	dfc00b15 	stw	ra,44(sp)
  807b54:	df000a15 	stw	fp,40(sp)
  807b58:	ddc00915 	stw	r23,36(sp)
  807b5c:	dd400715 	stw	r21,28(sp)
  807b60:	dd000615 	stw	r20,24(sp)
  807b64:	dcc00515 	stw	r19,20(sp)
  807b68:	dc000215 	stw	r16,8(sp)
  807b6c:	2825883a 	mov	r18,r5
  807b70:	3023883a 	mov	r17,r6
  807b74:	202d883a 	mov	r22,r4
  807b78:	2800c926 	beq	r5,zero,807ea0 <_realloc_r+0x360>
  807b7c:	080b1080 	call	80b108 <__malloc_lock>
  807b80:	943ffe04 	addi	r16,r18,-8
  807b84:	88c002c4 	addi	r3,r17,11
  807b88:	00800584 	movi	r2,22
  807b8c:	82000117 	ldw	r8,4(r16)
  807b90:	10c01b2e 	bgeu	r2,r3,807c00 <_realloc_r+0xc0>
  807b94:	00bffe04 	movi	r2,-8
  807b98:	188e703a 	and	r7,r3,r2
  807b9c:	3839883a 	mov	fp,r7
  807ba0:	38001a16 	blt	r7,zero,807c0c <_realloc_r+0xcc>
  807ba4:	e4401936 	bltu	fp,r17,807c0c <_realloc_r+0xcc>
  807ba8:	013fff04 	movi	r4,-4
  807bac:	4126703a 	and	r19,r8,r4
  807bb0:	99c02616 	blt	r19,r7,807c4c <_realloc_r+0x10c>
  807bb4:	802b883a 	mov	r21,r16
  807bb8:	9829883a 	mov	r20,r19
  807bbc:	84000204 	addi	r16,r16,8
  807bc0:	a80f883a 	mov	r7,r21
  807bc4:	a70dc83a 	sub	r6,r20,fp
  807bc8:	008003c4 	movi	r2,15
  807bcc:	1180c136 	bltu	r2,r6,807ed4 <_realloc_r+0x394>
  807bd0:	38800117 	ldw	r2,4(r7)
  807bd4:	a549883a 	add	r4,r20,r21
  807bd8:	1080004c 	andi	r2,r2,1
  807bdc:	a084b03a 	or	r2,r20,r2
  807be0:	38800115 	stw	r2,4(r7)
  807be4:	20c00117 	ldw	r3,4(r4)
  807be8:	18c00054 	ori	r3,r3,1
  807bec:	20c00115 	stw	r3,4(r4)
  807bf0:	b009883a 	mov	r4,r22
  807bf4:	080b15c0 	call	80b15c <__malloc_unlock>
  807bf8:	8023883a 	mov	r17,r16
  807bfc:	00000606 	br	807c18 <_realloc_r+0xd8>
  807c00:	01c00404 	movi	r7,16
  807c04:	3839883a 	mov	fp,r7
  807c08:	e47fe72e 	bgeu	fp,r17,807ba8 <_realloc_r+0x68>
  807c0c:	00800304 	movi	r2,12
  807c10:	0023883a 	mov	r17,zero
  807c14:	b0800015 	stw	r2,0(r22)
  807c18:	8805883a 	mov	r2,r17
  807c1c:	dfc00b17 	ldw	ra,44(sp)
  807c20:	df000a17 	ldw	fp,40(sp)
  807c24:	ddc00917 	ldw	r23,36(sp)
  807c28:	dd800817 	ldw	r22,32(sp)
  807c2c:	dd400717 	ldw	r21,28(sp)
  807c30:	dd000617 	ldw	r20,24(sp)
  807c34:	dcc00517 	ldw	r19,20(sp)
  807c38:	dc800417 	ldw	r18,16(sp)
  807c3c:	dc400317 	ldw	r17,12(sp)
  807c40:	dc000217 	ldw	r16,8(sp)
  807c44:	dec00c04 	addi	sp,sp,48
  807c48:	f800283a 	ret
  807c4c:	00802074 	movhi	r2,129
  807c50:	108d2e04 	addi	r2,r2,13496
  807c54:	12400217 	ldw	r9,8(r2)
  807c58:	84cd883a 	add	r6,r16,r19
  807c5c:	802b883a 	mov	r21,r16
  807c60:	3240b926 	beq	r6,r9,807f48 <_realloc_r+0x408>
  807c64:	31400117 	ldw	r5,4(r6)
  807c68:	00bfff84 	movi	r2,-2
  807c6c:	2884703a 	and	r2,r5,r2
  807c70:	1185883a 	add	r2,r2,r6
  807c74:	10c00117 	ldw	r3,4(r2)
  807c78:	18c0004c 	andi	r3,r3,1
  807c7c:	1807003a 	cmpeq	r3,r3,zero
  807c80:	1800a326 	beq	r3,zero,807f10 <_realloc_r+0x3d0>
  807c84:	2908703a 	and	r4,r5,r4
  807c88:	9929883a 	add	r20,r19,r4
  807c8c:	a1c0a30e 	bge	r20,r7,807f1c <_realloc_r+0x3dc>
  807c90:	4080004c 	andi	r2,r8,1
  807c94:	1000551e 	bne	r2,zero,807dec <_realloc_r+0x2ac>
  807c98:	80800017 	ldw	r2,0(r16)
  807c9c:	80afc83a 	sub	r23,r16,r2
  807ca0:	b8c00117 	ldw	r3,4(r23)
  807ca4:	00bfff04 	movi	r2,-4
  807ca8:	1884703a 	and	r2,r3,r2
  807cac:	30002e26 	beq	r6,zero,807d68 <_realloc_r+0x228>
  807cb0:	3240b926 	beq	r6,r9,807f98 <_realloc_r+0x458>
  807cb4:	98a9883a 	add	r20,r19,r2
  807cb8:	2509883a 	add	r4,r4,r20
  807cbc:	d9000015 	stw	r4,0(sp)
  807cc0:	21c02a16 	blt	r4,r7,807d6c <_realloc_r+0x22c>
  807cc4:	30800317 	ldw	r2,12(r6)
  807cc8:	30c00217 	ldw	r3,8(r6)
  807ccc:	01400904 	movi	r5,36
  807cd0:	99bfff04 	addi	r6,r19,-4
  807cd4:	18800315 	stw	r2,12(r3)
  807cd8:	10c00215 	stw	r3,8(r2)
  807cdc:	b9000317 	ldw	r4,12(r23)
  807ce0:	b8800217 	ldw	r2,8(r23)
  807ce4:	b82b883a 	mov	r21,r23
  807ce8:	bc000204 	addi	r16,r23,8
  807cec:	20800215 	stw	r2,8(r4)
  807cf0:	11000315 	stw	r4,12(r2)
  807cf4:	2980e436 	bltu	r5,r6,808088 <_realloc_r+0x548>
  807cf8:	008004c4 	movi	r2,19
  807cfc:	9009883a 	mov	r4,r18
  807d00:	8011883a 	mov	r8,r16
  807d04:	11800f2e 	bgeu	r2,r6,807d44 <_realloc_r+0x204>
  807d08:	90800017 	ldw	r2,0(r18)
  807d0c:	ba000404 	addi	r8,r23,16
  807d10:	91000204 	addi	r4,r18,8
  807d14:	b8800215 	stw	r2,8(r23)
  807d18:	90c00117 	ldw	r3,4(r18)
  807d1c:	008006c4 	movi	r2,27
  807d20:	b8c00315 	stw	r3,12(r23)
  807d24:	1180072e 	bgeu	r2,r6,807d44 <_realloc_r+0x204>
  807d28:	90c00217 	ldw	r3,8(r18)
  807d2c:	ba000604 	addi	r8,r23,24
  807d30:	91000404 	addi	r4,r18,16
  807d34:	b8c00415 	stw	r3,16(r23)
  807d38:	90800317 	ldw	r2,12(r18)
  807d3c:	b8800515 	stw	r2,20(r23)
  807d40:	3140e726 	beq	r6,r5,8080e0 <_realloc_r+0x5a0>
  807d44:	20800017 	ldw	r2,0(r4)
  807d48:	dd000017 	ldw	r20,0(sp)
  807d4c:	b80f883a 	mov	r7,r23
  807d50:	40800015 	stw	r2,0(r8)
  807d54:	20c00117 	ldw	r3,4(r4)
  807d58:	40c00115 	stw	r3,4(r8)
  807d5c:	20800217 	ldw	r2,8(r4)
  807d60:	40800215 	stw	r2,8(r8)
  807d64:	003f9706 	br	807bc4 <_realloc_r+0x84>
  807d68:	98a9883a 	add	r20,r19,r2
  807d6c:	a1c01f16 	blt	r20,r7,807dec <_realloc_r+0x2ac>
  807d70:	b8c00317 	ldw	r3,12(r23)
  807d74:	b8800217 	ldw	r2,8(r23)
  807d78:	99bfff04 	addi	r6,r19,-4
  807d7c:	01400904 	movi	r5,36
  807d80:	b82b883a 	mov	r21,r23
  807d84:	18800215 	stw	r2,8(r3)
  807d88:	10c00315 	stw	r3,12(r2)
  807d8c:	bc000204 	addi	r16,r23,8
  807d90:	2980c336 	bltu	r5,r6,8080a0 <_realloc_r+0x560>
  807d94:	008004c4 	movi	r2,19
  807d98:	9009883a 	mov	r4,r18
  807d9c:	8011883a 	mov	r8,r16
  807da0:	11800f2e 	bgeu	r2,r6,807de0 <_realloc_r+0x2a0>
  807da4:	90800017 	ldw	r2,0(r18)
  807da8:	ba000404 	addi	r8,r23,16
  807dac:	91000204 	addi	r4,r18,8
  807db0:	b8800215 	stw	r2,8(r23)
  807db4:	90c00117 	ldw	r3,4(r18)
  807db8:	008006c4 	movi	r2,27
  807dbc:	b8c00315 	stw	r3,12(r23)
  807dc0:	1180072e 	bgeu	r2,r6,807de0 <_realloc_r+0x2a0>
  807dc4:	90c00217 	ldw	r3,8(r18)
  807dc8:	ba000604 	addi	r8,r23,24
  807dcc:	91000404 	addi	r4,r18,16
  807dd0:	b8c00415 	stw	r3,16(r23)
  807dd4:	90800317 	ldw	r2,12(r18)
  807dd8:	b8800515 	stw	r2,20(r23)
  807ddc:	3140c726 	beq	r6,r5,8080fc <_realloc_r+0x5bc>
  807de0:	20800017 	ldw	r2,0(r4)
  807de4:	b80f883a 	mov	r7,r23
  807de8:	003fd906 	br	807d50 <_realloc_r+0x210>
  807dec:	880b883a 	mov	r5,r17
  807df0:	b009883a 	mov	r4,r22
  807df4:	08060780 	call	806078 <_malloc_r>
  807df8:	1023883a 	mov	r17,r2
  807dfc:	10002526 	beq	r2,zero,807e94 <_realloc_r+0x354>
  807e00:	80800117 	ldw	r2,4(r16)
  807e04:	00ffff84 	movi	r3,-2
  807e08:	893ffe04 	addi	r4,r17,-8
  807e0c:	10c4703a 	and	r2,r2,r3
  807e10:	8085883a 	add	r2,r16,r2
  807e14:	20809526 	beq	r4,r2,80806c <_realloc_r+0x52c>
  807e18:	99bfff04 	addi	r6,r19,-4
  807e1c:	01c00904 	movi	r7,36
  807e20:	39804536 	bltu	r7,r6,807f38 <_realloc_r+0x3f8>
  807e24:	008004c4 	movi	r2,19
  807e28:	9009883a 	mov	r4,r18
  807e2c:	880b883a 	mov	r5,r17
  807e30:	11800f2e 	bgeu	r2,r6,807e70 <_realloc_r+0x330>
  807e34:	90800017 	ldw	r2,0(r18)
  807e38:	89400204 	addi	r5,r17,8
  807e3c:	91000204 	addi	r4,r18,8
  807e40:	88800015 	stw	r2,0(r17)
  807e44:	90c00117 	ldw	r3,4(r18)
  807e48:	008006c4 	movi	r2,27
  807e4c:	88c00115 	stw	r3,4(r17)
  807e50:	1180072e 	bgeu	r2,r6,807e70 <_realloc_r+0x330>
  807e54:	90c00217 	ldw	r3,8(r18)
  807e58:	89400404 	addi	r5,r17,16
  807e5c:	91000404 	addi	r4,r18,16
  807e60:	88c00215 	stw	r3,8(r17)
  807e64:	90800317 	ldw	r2,12(r18)
  807e68:	88800315 	stw	r2,12(r17)
  807e6c:	31c09126 	beq	r6,r7,8080b4 <_realloc_r+0x574>
  807e70:	20800017 	ldw	r2,0(r4)
  807e74:	28800015 	stw	r2,0(r5)
  807e78:	20c00117 	ldw	r3,4(r4)
  807e7c:	28c00115 	stw	r3,4(r5)
  807e80:	20800217 	ldw	r2,8(r4)
  807e84:	28800215 	stw	r2,8(r5)
  807e88:	900b883a 	mov	r5,r18
  807e8c:	b009883a 	mov	r4,r22
  807e90:	08054f00 	call	8054f0 <_free_r>
  807e94:	b009883a 	mov	r4,r22
  807e98:	080b15c0 	call	80b15c <__malloc_unlock>
  807e9c:	003f5e06 	br	807c18 <_realloc_r+0xd8>
  807ea0:	300b883a 	mov	r5,r6
  807ea4:	dfc00b17 	ldw	ra,44(sp)
  807ea8:	df000a17 	ldw	fp,40(sp)
  807eac:	ddc00917 	ldw	r23,36(sp)
  807eb0:	dd800817 	ldw	r22,32(sp)
  807eb4:	dd400717 	ldw	r21,28(sp)
  807eb8:	dd000617 	ldw	r20,24(sp)
  807ebc:	dcc00517 	ldw	r19,20(sp)
  807ec0:	dc800417 	ldw	r18,16(sp)
  807ec4:	dc400317 	ldw	r17,12(sp)
  807ec8:	dc000217 	ldw	r16,8(sp)
  807ecc:	dec00c04 	addi	sp,sp,48
  807ed0:	08060781 	jmpi	806078 <_malloc_r>
  807ed4:	38800117 	ldw	r2,4(r7)
  807ed8:	e54b883a 	add	r5,fp,r21
  807edc:	31000054 	ori	r4,r6,1
  807ee0:	1080004c 	andi	r2,r2,1
  807ee4:	1704b03a 	or	r2,r2,fp
  807ee8:	38800115 	stw	r2,4(r7)
  807eec:	29000115 	stw	r4,4(r5)
  807ef0:	2987883a 	add	r3,r5,r6
  807ef4:	18800117 	ldw	r2,4(r3)
  807ef8:	29400204 	addi	r5,r5,8
  807efc:	b009883a 	mov	r4,r22
  807f00:	10800054 	ori	r2,r2,1
  807f04:	18800115 	stw	r2,4(r3)
  807f08:	08054f00 	call	8054f0 <_free_r>
  807f0c:	003f3806 	br	807bf0 <_realloc_r+0xb0>
  807f10:	000d883a 	mov	r6,zero
  807f14:	0009883a 	mov	r4,zero
  807f18:	003f5d06 	br	807c90 <_realloc_r+0x150>
  807f1c:	30c00217 	ldw	r3,8(r6)
  807f20:	30800317 	ldw	r2,12(r6)
  807f24:	800f883a 	mov	r7,r16
  807f28:	84000204 	addi	r16,r16,8
  807f2c:	10c00215 	stw	r3,8(r2)
  807f30:	18800315 	stw	r2,12(r3)
  807f34:	003f2306 	br	807bc4 <_realloc_r+0x84>
  807f38:	8809883a 	mov	r4,r17
  807f3c:	900b883a 	mov	r5,r18
  807f40:	080693c0 	call	80693c <memmove>
  807f44:	003fd006 	br	807e88 <_realloc_r+0x348>
  807f48:	30800117 	ldw	r2,4(r6)
  807f4c:	e0c00404 	addi	r3,fp,16
  807f50:	1108703a 	and	r4,r2,r4
  807f54:	9905883a 	add	r2,r19,r4
  807f58:	10ff4d16 	blt	r2,r3,807c90 <_realloc_r+0x150>
  807f5c:	1705c83a 	sub	r2,r2,fp
  807f60:	870b883a 	add	r5,r16,fp
  807f64:	10800054 	ori	r2,r2,1
  807f68:	28800115 	stw	r2,4(r5)
  807f6c:	80c00117 	ldw	r3,4(r16)
  807f70:	00802074 	movhi	r2,129
  807f74:	108d2e04 	addi	r2,r2,13496
  807f78:	b009883a 	mov	r4,r22
  807f7c:	18c0004c 	andi	r3,r3,1
  807f80:	e0c6b03a 	or	r3,fp,r3
  807f84:	11400215 	stw	r5,8(r2)
  807f88:	80c00115 	stw	r3,4(r16)
  807f8c:	080b15c0 	call	80b15c <__malloc_unlock>
  807f90:	84400204 	addi	r17,r16,8
  807f94:	003f2006 	br	807c18 <_realloc_r+0xd8>
  807f98:	98a9883a 	add	r20,r19,r2
  807f9c:	2509883a 	add	r4,r4,r20
  807fa0:	e0800404 	addi	r2,fp,16
  807fa4:	d9000115 	stw	r4,4(sp)
  807fa8:	20bf7016 	blt	r4,r2,807d6c <_realloc_r+0x22c>
  807fac:	b8c00317 	ldw	r3,12(r23)
  807fb0:	b8800217 	ldw	r2,8(r23)
  807fb4:	99bfff04 	addi	r6,r19,-4
  807fb8:	01400904 	movi	r5,36
  807fbc:	18800215 	stw	r2,8(r3)
  807fc0:	10c00315 	stw	r3,12(r2)
  807fc4:	bc400204 	addi	r17,r23,8
  807fc8:	29804136 	bltu	r5,r6,8080d0 <_realloc_r+0x590>
  807fcc:	008004c4 	movi	r2,19
  807fd0:	9009883a 	mov	r4,r18
  807fd4:	880f883a 	mov	r7,r17
  807fd8:	11800f2e 	bgeu	r2,r6,808018 <_realloc_r+0x4d8>
  807fdc:	90800017 	ldw	r2,0(r18)
  807fe0:	b9c00404 	addi	r7,r23,16
  807fe4:	91000204 	addi	r4,r18,8
  807fe8:	b8800215 	stw	r2,8(r23)
  807fec:	90c00117 	ldw	r3,4(r18)
  807ff0:	008006c4 	movi	r2,27
  807ff4:	b8c00315 	stw	r3,12(r23)
  807ff8:	1180072e 	bgeu	r2,r6,808018 <_realloc_r+0x4d8>
  807ffc:	90c00217 	ldw	r3,8(r18)
  808000:	b9c00604 	addi	r7,r23,24
  808004:	91000404 	addi	r4,r18,16
  808008:	b8c00415 	stw	r3,16(r23)
  80800c:	90800317 	ldw	r2,12(r18)
  808010:	b8800515 	stw	r2,20(r23)
  808014:	31404026 	beq	r6,r5,808118 <_realloc_r+0x5d8>
  808018:	20800017 	ldw	r2,0(r4)
  80801c:	38800015 	stw	r2,0(r7)
  808020:	20c00117 	ldw	r3,4(r4)
  808024:	38c00115 	stw	r3,4(r7)
  808028:	20800217 	ldw	r2,8(r4)
  80802c:	38800215 	stw	r2,8(r7)
  808030:	d8c00117 	ldw	r3,4(sp)
  808034:	bf0b883a 	add	r5,r23,fp
  808038:	b009883a 	mov	r4,r22
  80803c:	1f05c83a 	sub	r2,r3,fp
  808040:	10800054 	ori	r2,r2,1
  808044:	28800115 	stw	r2,4(r5)
  808048:	b8c00117 	ldw	r3,4(r23)
  80804c:	00802074 	movhi	r2,129
  808050:	108d2e04 	addi	r2,r2,13496
  808054:	11400215 	stw	r5,8(r2)
  808058:	18c0004c 	andi	r3,r3,1
  80805c:	e0c6b03a 	or	r3,fp,r3
  808060:	b8c00115 	stw	r3,4(r23)
  808064:	080b15c0 	call	80b15c <__malloc_unlock>
  808068:	003eeb06 	br	807c18 <_realloc_r+0xd8>
  80806c:	20800117 	ldw	r2,4(r4)
  808070:	00ffff04 	movi	r3,-4
  808074:	800f883a 	mov	r7,r16
  808078:	10c4703a 	and	r2,r2,r3
  80807c:	98a9883a 	add	r20,r19,r2
  808080:	84000204 	addi	r16,r16,8
  808084:	003ecf06 	br	807bc4 <_realloc_r+0x84>
  808088:	900b883a 	mov	r5,r18
  80808c:	8009883a 	mov	r4,r16
  808090:	080693c0 	call	80693c <memmove>
  808094:	dd000017 	ldw	r20,0(sp)
  808098:	b80f883a 	mov	r7,r23
  80809c:	003ec906 	br	807bc4 <_realloc_r+0x84>
  8080a0:	900b883a 	mov	r5,r18
  8080a4:	8009883a 	mov	r4,r16
  8080a8:	080693c0 	call	80693c <memmove>
  8080ac:	b80f883a 	mov	r7,r23
  8080b0:	003ec406 	br	807bc4 <_realloc_r+0x84>
  8080b4:	90c00417 	ldw	r3,16(r18)
  8080b8:	89400604 	addi	r5,r17,24
  8080bc:	91000604 	addi	r4,r18,24
  8080c0:	88c00415 	stw	r3,16(r17)
  8080c4:	90800517 	ldw	r2,20(r18)
  8080c8:	88800515 	stw	r2,20(r17)
  8080cc:	003f6806 	br	807e70 <_realloc_r+0x330>
  8080d0:	900b883a 	mov	r5,r18
  8080d4:	8809883a 	mov	r4,r17
  8080d8:	080693c0 	call	80693c <memmove>
  8080dc:	003fd406 	br	808030 <_realloc_r+0x4f0>
  8080e0:	90c00417 	ldw	r3,16(r18)
  8080e4:	91000604 	addi	r4,r18,24
  8080e8:	ba000804 	addi	r8,r23,32
  8080ec:	b8c00615 	stw	r3,24(r23)
  8080f0:	90800517 	ldw	r2,20(r18)
  8080f4:	b8800715 	stw	r2,28(r23)
  8080f8:	003f1206 	br	807d44 <_realloc_r+0x204>
  8080fc:	90c00417 	ldw	r3,16(r18)
  808100:	91000604 	addi	r4,r18,24
  808104:	ba000804 	addi	r8,r23,32
  808108:	b8c00615 	stw	r3,24(r23)
  80810c:	90800517 	ldw	r2,20(r18)
  808110:	b8800715 	stw	r2,28(r23)
  808114:	003f3206 	br	807de0 <_realloc_r+0x2a0>
  808118:	90c00417 	ldw	r3,16(r18)
  80811c:	91000604 	addi	r4,r18,24
  808120:	b9c00804 	addi	r7,r23,32
  808124:	b8c00615 	stw	r3,24(r23)
  808128:	90800517 	ldw	r2,20(r18)
  80812c:	b8800715 	stw	r2,28(r23)
  808130:	003fb906 	br	808018 <_realloc_r+0x4d8>

00808134 <__isinfd>:
  808134:	200d883a 	mov	r6,r4
  808138:	0109c83a 	sub	r4,zero,r4
  80813c:	2188b03a 	or	r4,r4,r6
  808140:	2008d7fa 	srli	r4,r4,31
  808144:	00a00034 	movhi	r2,32768
  808148:	10bfffc4 	addi	r2,r2,-1
  80814c:	1144703a 	and	r2,r2,r5
  808150:	2088b03a 	or	r4,r4,r2
  808154:	009ffc34 	movhi	r2,32752
  808158:	1105c83a 	sub	r2,r2,r4
  80815c:	0087c83a 	sub	r3,zero,r2
  808160:	10c4b03a 	or	r2,r2,r3
  808164:	1004d7fa 	srli	r2,r2,31
  808168:	00c00044 	movi	r3,1
  80816c:	1885c83a 	sub	r2,r3,r2
  808170:	f800283a 	ret

00808174 <__isnand>:
  808174:	200d883a 	mov	r6,r4
  808178:	0109c83a 	sub	r4,zero,r4
  80817c:	2188b03a 	or	r4,r4,r6
  808180:	2008d7fa 	srli	r4,r4,31
  808184:	00a00034 	movhi	r2,32768
  808188:	10bfffc4 	addi	r2,r2,-1
  80818c:	1144703a 	and	r2,r2,r5
  808190:	2088b03a 	or	r4,r4,r2
  808194:	009ffc34 	movhi	r2,32752
  808198:	1105c83a 	sub	r2,r2,r4
  80819c:	1004d7fa 	srli	r2,r2,31
  8081a0:	f800283a 	ret

008081a4 <_sbrk_r>:
  8081a4:	defffd04 	addi	sp,sp,-12
  8081a8:	dc000015 	stw	r16,0(sp)
  8081ac:	04002074 	movhi	r16,129
  8081b0:	8419ca04 	addi	r16,r16,26408
  8081b4:	dc400115 	stw	r17,4(sp)
  8081b8:	80000015 	stw	zero,0(r16)
  8081bc:	2023883a 	mov	r17,r4
  8081c0:	2809883a 	mov	r4,r5
  8081c4:	dfc00215 	stw	ra,8(sp)
  8081c8:	08100680 	call	810068 <sbrk>
  8081cc:	1007883a 	mov	r3,r2
  8081d0:	00bfffc4 	movi	r2,-1
  8081d4:	18800626 	beq	r3,r2,8081f0 <_sbrk_r+0x4c>
  8081d8:	1805883a 	mov	r2,r3
  8081dc:	dfc00217 	ldw	ra,8(sp)
  8081e0:	dc400117 	ldw	r17,4(sp)
  8081e4:	dc000017 	ldw	r16,0(sp)
  8081e8:	dec00304 	addi	sp,sp,12
  8081ec:	f800283a 	ret
  8081f0:	80800017 	ldw	r2,0(r16)
  8081f4:	103ff826 	beq	r2,zero,8081d8 <_sbrk_r+0x34>
  8081f8:	88800015 	stw	r2,0(r17)
  8081fc:	1805883a 	mov	r2,r3
  808200:	dfc00217 	ldw	ra,8(sp)
  808204:	dc400117 	ldw	r17,4(sp)
  808208:	dc000017 	ldw	r16,0(sp)
  80820c:	dec00304 	addi	sp,sp,12
  808210:	f800283a 	ret

00808214 <__sclose>:
  808214:	2940038f 	ldh	r5,14(r5)
  808218:	080855c1 	jmpi	80855c <_close_r>

0080821c <__sseek>:
  80821c:	defffe04 	addi	sp,sp,-8
  808220:	dc000015 	stw	r16,0(sp)
  808224:	2821883a 	mov	r16,r5
  808228:	2940038f 	ldh	r5,14(r5)
  80822c:	dfc00115 	stw	ra,4(sp)
  808230:	08087d40 	call	8087d4 <_lseek_r>
  808234:	1007883a 	mov	r3,r2
  808238:	00bfffc4 	movi	r2,-1
  80823c:	18800926 	beq	r3,r2,808264 <__sseek+0x48>
  808240:	8080030b 	ldhu	r2,12(r16)
  808244:	80c01415 	stw	r3,80(r16)
  808248:	10840014 	ori	r2,r2,4096
  80824c:	8080030d 	sth	r2,12(r16)
  808250:	1805883a 	mov	r2,r3
  808254:	dfc00117 	ldw	ra,4(sp)
  808258:	dc000017 	ldw	r16,0(sp)
  80825c:	dec00204 	addi	sp,sp,8
  808260:	f800283a 	ret
  808264:	8080030b 	ldhu	r2,12(r16)
  808268:	10bbffcc 	andi	r2,r2,61439
  80826c:	8080030d 	sth	r2,12(r16)
  808270:	1805883a 	mov	r2,r3
  808274:	dfc00117 	ldw	ra,4(sp)
  808278:	dc000017 	ldw	r16,0(sp)
  80827c:	dec00204 	addi	sp,sp,8
  808280:	f800283a 	ret

00808284 <__swrite>:
  808284:	2880030b 	ldhu	r2,12(r5)
  808288:	defffb04 	addi	sp,sp,-20
  80828c:	dcc00315 	stw	r19,12(sp)
  808290:	1080400c 	andi	r2,r2,256
  808294:	dc800215 	stw	r18,8(sp)
  808298:	dc400115 	stw	r17,4(sp)
  80829c:	dc000015 	stw	r16,0(sp)
  8082a0:	3027883a 	mov	r19,r6
  8082a4:	3825883a 	mov	r18,r7
  8082a8:	dfc00415 	stw	ra,16(sp)
  8082ac:	2821883a 	mov	r16,r5
  8082b0:	000d883a 	mov	r6,zero
  8082b4:	01c00084 	movi	r7,2
  8082b8:	2023883a 	mov	r17,r4
  8082bc:	10000226 	beq	r2,zero,8082c8 <__swrite+0x44>
  8082c0:	2940038f 	ldh	r5,14(r5)
  8082c4:	08087d40 	call	8087d4 <_lseek_r>
  8082c8:	8080030b 	ldhu	r2,12(r16)
  8082cc:	8140038f 	ldh	r5,14(r16)
  8082d0:	8809883a 	mov	r4,r17
  8082d4:	10bbffcc 	andi	r2,r2,61439
  8082d8:	980d883a 	mov	r6,r19
  8082dc:	900f883a 	mov	r7,r18
  8082e0:	8080030d 	sth	r2,12(r16)
  8082e4:	dfc00417 	ldw	ra,16(sp)
  8082e8:	dcc00317 	ldw	r19,12(sp)
  8082ec:	dc800217 	ldw	r18,8(sp)
  8082f0:	dc400117 	ldw	r17,4(sp)
  8082f4:	dc000017 	ldw	r16,0(sp)
  8082f8:	dec00504 	addi	sp,sp,20
  8082fc:	080841c1 	jmpi	80841c <_write_r>

00808300 <__sread>:
  808300:	defffe04 	addi	sp,sp,-8
  808304:	dc000015 	stw	r16,0(sp)
  808308:	2821883a 	mov	r16,r5
  80830c:	2940038f 	ldh	r5,14(r5)
  808310:	dfc00115 	stw	ra,4(sp)
  808314:	080884c0 	call	80884c <_read_r>
  808318:	1007883a 	mov	r3,r2
  80831c:	10000816 	blt	r2,zero,808340 <__sread+0x40>
  808320:	80801417 	ldw	r2,80(r16)
  808324:	10c5883a 	add	r2,r2,r3
  808328:	80801415 	stw	r2,80(r16)
  80832c:	1805883a 	mov	r2,r3
  808330:	dfc00117 	ldw	ra,4(sp)
  808334:	dc000017 	ldw	r16,0(sp)
  808338:	dec00204 	addi	sp,sp,8
  80833c:	f800283a 	ret
  808340:	8080030b 	ldhu	r2,12(r16)
  808344:	10bbffcc 	andi	r2,r2,61439
  808348:	8080030d 	sth	r2,12(r16)
  80834c:	1805883a 	mov	r2,r3
  808350:	dfc00117 	ldw	ra,4(sp)
  808354:	dc000017 	ldw	r16,0(sp)
  808358:	dec00204 	addi	sp,sp,8
  80835c:	f800283a 	ret

00808360 <strcmp>:
  808360:	2144b03a 	or	r2,r4,r5
  808364:	108000cc 	andi	r2,r2,3
  808368:	10001d1e 	bne	r2,zero,8083e0 <strcmp+0x80>
  80836c:	200f883a 	mov	r7,r4
  808370:	28800017 	ldw	r2,0(r5)
  808374:	21000017 	ldw	r4,0(r4)
  808378:	280d883a 	mov	r6,r5
  80837c:	2080161e 	bne	r4,r2,8083d8 <strcmp+0x78>
  808380:	023fbff4 	movhi	r8,65279
  808384:	423fbfc4 	addi	r8,r8,-257
  808388:	2207883a 	add	r3,r4,r8
  80838c:	01602074 	movhi	r5,32897
  808390:	29602004 	addi	r5,r5,-32640
  808394:	1946703a 	and	r3,r3,r5
  808398:	0104303a 	nor	r2,zero,r4
  80839c:	10c4703a 	and	r2,r2,r3
  8083a0:	10001c1e 	bne	r2,zero,808414 <strcmp+0xb4>
  8083a4:	4013883a 	mov	r9,r8
  8083a8:	2811883a 	mov	r8,r5
  8083ac:	00000106 	br	8083b4 <strcmp+0x54>
  8083b0:	1800181e 	bne	r3,zero,808414 <strcmp+0xb4>
  8083b4:	39c00104 	addi	r7,r7,4
  8083b8:	39000017 	ldw	r4,0(r7)
  8083bc:	31800104 	addi	r6,r6,4
  8083c0:	31400017 	ldw	r5,0(r6)
  8083c4:	2245883a 	add	r2,r4,r9
  8083c8:	1204703a 	and	r2,r2,r8
  8083cc:	0106303a 	nor	r3,zero,r4
  8083d0:	1886703a 	and	r3,r3,r2
  8083d4:	217ff626 	beq	r4,r5,8083b0 <strcmp+0x50>
  8083d8:	3809883a 	mov	r4,r7
  8083dc:	300b883a 	mov	r5,r6
  8083e0:	20c00007 	ldb	r3,0(r4)
  8083e4:	1800051e 	bne	r3,zero,8083fc <strcmp+0x9c>
  8083e8:	00000606 	br	808404 <strcmp+0xa4>
  8083ec:	21000044 	addi	r4,r4,1
  8083f0:	20c00007 	ldb	r3,0(r4)
  8083f4:	29400044 	addi	r5,r5,1
  8083f8:	18000226 	beq	r3,zero,808404 <strcmp+0xa4>
  8083fc:	28800007 	ldb	r2,0(r5)
  808400:	18bffa26 	beq	r3,r2,8083ec <strcmp+0x8c>
  808404:	20c00003 	ldbu	r3,0(r4)
  808408:	28800003 	ldbu	r2,0(r5)
  80840c:	1885c83a 	sub	r2,r3,r2
  808410:	f800283a 	ret
  808414:	0005883a 	mov	r2,zero
  808418:	f800283a 	ret

0080841c <_write_r>:
  80841c:	defffd04 	addi	sp,sp,-12
  808420:	dc000015 	stw	r16,0(sp)
  808424:	04002074 	movhi	r16,129
  808428:	8419ca04 	addi	r16,r16,26408
  80842c:	dc400115 	stw	r17,4(sp)
  808430:	80000015 	stw	zero,0(r16)
  808434:	2023883a 	mov	r17,r4
  808438:	2809883a 	mov	r4,r5
  80843c:	300b883a 	mov	r5,r6
  808440:	380d883a 	mov	r6,r7
  808444:	dfc00215 	stw	ra,8(sp)
  808448:	08102cc0 	call	8102cc <write>
  80844c:	1007883a 	mov	r3,r2
  808450:	00bfffc4 	movi	r2,-1
  808454:	18800626 	beq	r3,r2,808470 <_write_r+0x54>
  808458:	1805883a 	mov	r2,r3
  80845c:	dfc00217 	ldw	ra,8(sp)
  808460:	dc400117 	ldw	r17,4(sp)
  808464:	dc000017 	ldw	r16,0(sp)
  808468:	dec00304 	addi	sp,sp,12
  80846c:	f800283a 	ret
  808470:	80800017 	ldw	r2,0(r16)
  808474:	103ff826 	beq	r2,zero,808458 <_write_r+0x3c>
  808478:	88800015 	stw	r2,0(r17)
  80847c:	1805883a 	mov	r2,r3
  808480:	dfc00217 	ldw	ra,8(sp)
  808484:	dc400117 	ldw	r17,4(sp)
  808488:	dc000017 	ldw	r16,0(sp)
  80848c:	dec00304 	addi	sp,sp,12
  808490:	f800283a 	ret

00808494 <_calloc_r>:
  808494:	defffe04 	addi	sp,sp,-8
  808498:	dc400015 	stw	r17,0(sp)
  80849c:	2023883a 	mov	r17,r4
  8084a0:	2809883a 	mov	r4,r5
  8084a4:	300b883a 	mov	r5,r6
  8084a8:	dfc00115 	stw	ra,4(sp)
  8084ac:	08014540 	call	801454 <__mulsi3>
  8084b0:	100b883a 	mov	r5,r2
  8084b4:	8809883a 	mov	r4,r17
  8084b8:	08060780 	call	806078 <_malloc_r>
  8084bc:	1023883a 	mov	r17,r2
  8084c0:	01c00904 	movi	r7,36
  8084c4:	10000d26 	beq	r2,zero,8084fc <_calloc_r+0x68>
  8084c8:	10ffff17 	ldw	r3,-4(r2)
  8084cc:	1009883a 	mov	r4,r2
  8084d0:	00bfff04 	movi	r2,-4
  8084d4:	1886703a 	and	r3,r3,r2
  8084d8:	1887883a 	add	r3,r3,r2
  8084dc:	180d883a 	mov	r6,r3
  8084e0:	000b883a 	mov	r5,zero
  8084e4:	38c01736 	bltu	r7,r3,808544 <_calloc_r+0xb0>
  8084e8:	008004c4 	movi	r2,19
  8084ec:	10c00836 	bltu	r2,r3,808510 <_calloc_r+0x7c>
  8084f0:	20000215 	stw	zero,8(r4)
  8084f4:	20000015 	stw	zero,0(r4)
  8084f8:	20000115 	stw	zero,4(r4)
  8084fc:	8805883a 	mov	r2,r17
  808500:	dfc00117 	ldw	ra,4(sp)
  808504:	dc400017 	ldw	r17,0(sp)
  808508:	dec00204 	addi	sp,sp,8
  80850c:	f800283a 	ret
  808510:	008006c4 	movi	r2,27
  808514:	88000015 	stw	zero,0(r17)
  808518:	88000115 	stw	zero,4(r17)
  80851c:	89000204 	addi	r4,r17,8
  808520:	10fff32e 	bgeu	r2,r3,8084f0 <_calloc_r+0x5c>
  808524:	88000215 	stw	zero,8(r17)
  808528:	88000315 	stw	zero,12(r17)
  80852c:	89000404 	addi	r4,r17,16
  808530:	19ffef1e 	bne	r3,r7,8084f0 <_calloc_r+0x5c>
  808534:	89000604 	addi	r4,r17,24
  808538:	88000415 	stw	zero,16(r17)
  80853c:	88000515 	stw	zero,20(r17)
  808540:	003feb06 	br	8084f0 <_calloc_r+0x5c>
  808544:	0806a1c0 	call	806a1c <memset>
  808548:	8805883a 	mov	r2,r17
  80854c:	dfc00117 	ldw	ra,4(sp)
  808550:	dc400017 	ldw	r17,0(sp)
  808554:	dec00204 	addi	sp,sp,8
  808558:	f800283a 	ret

0080855c <_close_r>:
  80855c:	defffd04 	addi	sp,sp,-12
  808560:	dc000015 	stw	r16,0(sp)
  808564:	04002074 	movhi	r16,129
  808568:	8419ca04 	addi	r16,r16,26408
  80856c:	dc400115 	stw	r17,4(sp)
  808570:	80000015 	stw	zero,0(r16)
  808574:	2023883a 	mov	r17,r4
  808578:	2809883a 	mov	r4,r5
  80857c:	dfc00215 	stw	ra,8(sp)
  808580:	080e8380 	call	80e838 <close>
  808584:	1007883a 	mov	r3,r2
  808588:	00bfffc4 	movi	r2,-1
  80858c:	18800626 	beq	r3,r2,8085a8 <_close_r+0x4c>
  808590:	1805883a 	mov	r2,r3
  808594:	dfc00217 	ldw	ra,8(sp)
  808598:	dc400117 	ldw	r17,4(sp)
  80859c:	dc000017 	ldw	r16,0(sp)
  8085a0:	dec00304 	addi	sp,sp,12
  8085a4:	f800283a 	ret
  8085a8:	80800017 	ldw	r2,0(r16)
  8085ac:	103ff826 	beq	r2,zero,808590 <_close_r+0x34>
  8085b0:	88800015 	stw	r2,0(r17)
  8085b4:	1805883a 	mov	r2,r3
  8085b8:	dfc00217 	ldw	ra,8(sp)
  8085bc:	dc400117 	ldw	r17,4(sp)
  8085c0:	dc000017 	ldw	r16,0(sp)
  8085c4:	dec00304 	addi	sp,sp,12
  8085c8:	f800283a 	ret

008085cc <_fclose_r>:
  8085cc:	defffc04 	addi	sp,sp,-16
  8085d0:	dc400115 	stw	r17,4(sp)
  8085d4:	dc000015 	stw	r16,0(sp)
  8085d8:	dfc00315 	stw	ra,12(sp)
  8085dc:	dc800215 	stw	r18,8(sp)
  8085e0:	2821883a 	mov	r16,r5
  8085e4:	2023883a 	mov	r17,r4
  8085e8:	28002926 	beq	r5,zero,808690 <_fclose_r+0xc4>
  8085ec:	08051280 	call	805128 <__sfp_lock_acquire>
  8085f0:	88000226 	beq	r17,zero,8085fc <_fclose_r+0x30>
  8085f4:	88800e17 	ldw	r2,56(r17)
  8085f8:	10002d26 	beq	r2,zero,8086b0 <_fclose_r+0xe4>
  8085fc:	8080030f 	ldh	r2,12(r16)
  808600:	10002226 	beq	r2,zero,80868c <_fclose_r+0xc0>
  808604:	8809883a 	mov	r4,r17
  808608:	800b883a 	mov	r5,r16
  80860c:	0804ea00 	call	804ea0 <_fflush_r>
  808610:	1025883a 	mov	r18,r2
  808614:	80800b17 	ldw	r2,44(r16)
  808618:	10000426 	beq	r2,zero,80862c <_fclose_r+0x60>
  80861c:	81400717 	ldw	r5,28(r16)
  808620:	8809883a 	mov	r4,r17
  808624:	103ee83a 	callr	r2
  808628:	10002a16 	blt	r2,zero,8086d4 <_fclose_r+0x108>
  80862c:	8080030b 	ldhu	r2,12(r16)
  808630:	1080200c 	andi	r2,r2,128
  808634:	1000231e 	bne	r2,zero,8086c4 <_fclose_r+0xf8>
  808638:	81400c17 	ldw	r5,48(r16)
  80863c:	28000526 	beq	r5,zero,808654 <_fclose_r+0x88>
  808640:	80801004 	addi	r2,r16,64
  808644:	28800226 	beq	r5,r2,808650 <_fclose_r+0x84>
  808648:	8809883a 	mov	r4,r17
  80864c:	08054f00 	call	8054f0 <_free_r>
  808650:	80000c15 	stw	zero,48(r16)
  808654:	81401117 	ldw	r5,68(r16)
  808658:	28000326 	beq	r5,zero,808668 <_fclose_r+0x9c>
  80865c:	8809883a 	mov	r4,r17
  808660:	08054f00 	call	8054f0 <_free_r>
  808664:	80001115 	stw	zero,68(r16)
  808668:	8000030d 	sth	zero,12(r16)
  80866c:	080512c0 	call	80512c <__sfp_lock_release>
  808670:	9005883a 	mov	r2,r18
  808674:	dfc00317 	ldw	ra,12(sp)
  808678:	dc800217 	ldw	r18,8(sp)
  80867c:	dc400117 	ldw	r17,4(sp)
  808680:	dc000017 	ldw	r16,0(sp)
  808684:	dec00404 	addi	sp,sp,16
  808688:	f800283a 	ret
  80868c:	080512c0 	call	80512c <__sfp_lock_release>
  808690:	0025883a 	mov	r18,zero
  808694:	9005883a 	mov	r2,r18
  808698:	dfc00317 	ldw	ra,12(sp)
  80869c:	dc800217 	ldw	r18,8(sp)
  8086a0:	dc400117 	ldw	r17,4(sp)
  8086a4:	dc000017 	ldw	r16,0(sp)
  8086a8:	dec00404 	addi	sp,sp,16
  8086ac:	f800283a 	ret
  8086b0:	8809883a 	mov	r4,r17
  8086b4:	08051380 	call	805138 <__sinit>
  8086b8:	8080030f 	ldh	r2,12(r16)
  8086bc:	103fd11e 	bne	r2,zero,808604 <_fclose_r+0x38>
  8086c0:	003ff206 	br	80868c <_fclose_r+0xc0>
  8086c4:	81400417 	ldw	r5,16(r16)
  8086c8:	8809883a 	mov	r4,r17
  8086cc:	08054f00 	call	8054f0 <_free_r>
  8086d0:	003fd906 	br	808638 <_fclose_r+0x6c>
  8086d4:	04bfffc4 	movi	r18,-1
  8086d8:	003fd406 	br	80862c <_fclose_r+0x60>

008086dc <fclose>:
  8086dc:	00802074 	movhi	r2,129
  8086e0:	1092dd04 	addi	r2,r2,19316
  8086e4:	200b883a 	mov	r5,r4
  8086e8:	11000017 	ldw	r4,0(r2)
  8086ec:	08085cc1 	jmpi	8085cc <_fclose_r>

008086f0 <_fstat_r>:
  8086f0:	defffd04 	addi	sp,sp,-12
  8086f4:	dc000015 	stw	r16,0(sp)
  8086f8:	04002074 	movhi	r16,129
  8086fc:	8419ca04 	addi	r16,r16,26408
  808700:	dc400115 	stw	r17,4(sp)
  808704:	80000015 	stw	zero,0(r16)
  808708:	2023883a 	mov	r17,r4
  80870c:	2809883a 	mov	r4,r5
  808710:	300b883a 	mov	r5,r6
  808714:	dfc00215 	stw	ra,8(sp)
  808718:	080ea8c0 	call	80ea8c <fstat>
  80871c:	1007883a 	mov	r3,r2
  808720:	00bfffc4 	movi	r2,-1
  808724:	18800626 	beq	r3,r2,808740 <_fstat_r+0x50>
  808728:	1805883a 	mov	r2,r3
  80872c:	dfc00217 	ldw	ra,8(sp)
  808730:	dc400117 	ldw	r17,4(sp)
  808734:	dc000017 	ldw	r16,0(sp)
  808738:	dec00304 	addi	sp,sp,12
  80873c:	f800283a 	ret
  808740:	80800017 	ldw	r2,0(r16)
  808744:	103ff826 	beq	r2,zero,808728 <_fstat_r+0x38>
  808748:	88800015 	stw	r2,0(r17)
  80874c:	1805883a 	mov	r2,r3
  808750:	dfc00217 	ldw	ra,8(sp)
  808754:	dc400117 	ldw	r17,4(sp)
  808758:	dc000017 	ldw	r16,0(sp)
  80875c:	dec00304 	addi	sp,sp,12
  808760:	f800283a 	ret

00808764 <_isatty_r>:
  808764:	defffd04 	addi	sp,sp,-12
  808768:	dc000015 	stw	r16,0(sp)
  80876c:	04002074 	movhi	r16,129
  808770:	8419ca04 	addi	r16,r16,26408
  808774:	dc400115 	stw	r17,4(sp)
  808778:	80000015 	stw	zero,0(r16)
  80877c:	2023883a 	mov	r17,r4
  808780:	2809883a 	mov	r4,r5
  808784:	dfc00215 	stw	ra,8(sp)
  808788:	080ed140 	call	80ed14 <isatty>
  80878c:	1007883a 	mov	r3,r2
  808790:	00bfffc4 	movi	r2,-1
  808794:	18800626 	beq	r3,r2,8087b0 <_isatty_r+0x4c>
  808798:	1805883a 	mov	r2,r3
  80879c:	dfc00217 	ldw	ra,8(sp)
  8087a0:	dc400117 	ldw	r17,4(sp)
  8087a4:	dc000017 	ldw	r16,0(sp)
  8087a8:	dec00304 	addi	sp,sp,12
  8087ac:	f800283a 	ret
  8087b0:	80800017 	ldw	r2,0(r16)
  8087b4:	103ff826 	beq	r2,zero,808798 <_isatty_r+0x34>
  8087b8:	88800015 	stw	r2,0(r17)
  8087bc:	1805883a 	mov	r2,r3
  8087c0:	dfc00217 	ldw	ra,8(sp)
  8087c4:	dc400117 	ldw	r17,4(sp)
  8087c8:	dc000017 	ldw	r16,0(sp)
  8087cc:	dec00304 	addi	sp,sp,12
  8087d0:	f800283a 	ret

008087d4 <_lseek_r>:
  8087d4:	defffd04 	addi	sp,sp,-12
  8087d8:	dc000015 	stw	r16,0(sp)
  8087dc:	04002074 	movhi	r16,129
  8087e0:	8419ca04 	addi	r16,r16,26408
  8087e4:	dc400115 	stw	r17,4(sp)
  8087e8:	80000015 	stw	zero,0(r16)
  8087ec:	2023883a 	mov	r17,r4
  8087f0:	2809883a 	mov	r4,r5
  8087f4:	300b883a 	mov	r5,r6
  8087f8:	380d883a 	mov	r6,r7
  8087fc:	dfc00215 	stw	ra,8(sp)
  808800:	080fa340 	call	80fa34 <lseek>
  808804:	1007883a 	mov	r3,r2
  808808:	00bfffc4 	movi	r2,-1
  80880c:	18800626 	beq	r3,r2,808828 <_lseek_r+0x54>
  808810:	1805883a 	mov	r2,r3
  808814:	dfc00217 	ldw	ra,8(sp)
  808818:	dc400117 	ldw	r17,4(sp)
  80881c:	dc000017 	ldw	r16,0(sp)
  808820:	dec00304 	addi	sp,sp,12
  808824:	f800283a 	ret
  808828:	80800017 	ldw	r2,0(r16)
  80882c:	103ff826 	beq	r2,zero,808810 <_lseek_r+0x3c>
  808830:	88800015 	stw	r2,0(r17)
  808834:	1805883a 	mov	r2,r3
  808838:	dfc00217 	ldw	ra,8(sp)
  80883c:	dc400117 	ldw	r17,4(sp)
  808840:	dc000017 	ldw	r16,0(sp)
  808844:	dec00304 	addi	sp,sp,12
  808848:	f800283a 	ret

0080884c <_read_r>:
  80884c:	defffd04 	addi	sp,sp,-12
  808850:	dc000015 	stw	r16,0(sp)
  808854:	04002074 	movhi	r16,129
  808858:	8419ca04 	addi	r16,r16,26408
  80885c:	dc400115 	stw	r17,4(sp)
  808860:	80000015 	stw	zero,0(r16)
  808864:	2023883a 	mov	r17,r4
  808868:	2809883a 	mov	r4,r5
  80886c:	300b883a 	mov	r5,r6
  808870:	380d883a 	mov	r6,r7
  808874:	dfc00215 	stw	ra,8(sp)
  808878:	080fe6c0 	call	80fe6c <read>
  80887c:	1007883a 	mov	r3,r2
  808880:	00bfffc4 	movi	r2,-1
  808884:	18800626 	beq	r3,r2,8088a0 <_read_r+0x54>
  808888:	1805883a 	mov	r2,r3
  80888c:	dfc00217 	ldw	ra,8(sp)
  808890:	dc400117 	ldw	r17,4(sp)
  808894:	dc000017 	ldw	r16,0(sp)
  808898:	dec00304 	addi	sp,sp,12
  80889c:	f800283a 	ret
  8088a0:	80800017 	ldw	r2,0(r16)
  8088a4:	103ff826 	beq	r2,zero,808888 <_read_r+0x3c>
  8088a8:	88800015 	stw	r2,0(r17)
  8088ac:	1805883a 	mov	r2,r3
  8088b0:	dfc00217 	ldw	ra,8(sp)
  8088b4:	dc400117 	ldw	r17,4(sp)
  8088b8:	dc000017 	ldw	r16,0(sp)
  8088bc:	dec00304 	addi	sp,sp,12
  8088c0:	f800283a 	ret

008088c4 <__udivdi3>:
  8088c4:	defff104 	addi	sp,sp,-60
  8088c8:	0015883a 	mov	r10,zero
  8088cc:	2005883a 	mov	r2,r4
  8088d0:	3011883a 	mov	r8,r6
  8088d4:	df000d15 	stw	fp,52(sp)
  8088d8:	dd400a15 	stw	r21,40(sp)
  8088dc:	dcc00815 	stw	r19,32(sp)
  8088e0:	dfc00e15 	stw	ra,56(sp)
  8088e4:	ddc00c15 	stw	r23,48(sp)
  8088e8:	dd800b15 	stw	r22,44(sp)
  8088ec:	dd000915 	stw	r20,36(sp)
  8088f0:	dc800715 	stw	r18,28(sp)
  8088f4:	dc400615 	stw	r17,24(sp)
  8088f8:	dc000515 	stw	r16,20(sp)
  8088fc:	da800315 	stw	r10,12(sp)
  808900:	4027883a 	mov	r19,r8
  808904:	1039883a 	mov	fp,r2
  808908:	282b883a 	mov	r21,r5
  80890c:	da800415 	stw	r10,16(sp)
  808910:	3800401e 	bne	r7,zero,808a14 <__udivdi3+0x150>
  808914:	2a006536 	bltu	r5,r8,808aac <__udivdi3+0x1e8>
  808918:	4000b526 	beq	r8,zero,808bf0 <__udivdi3+0x32c>
  80891c:	00bfffd4 	movui	r2,65535
  808920:	14c0ad36 	bltu	r2,r19,808bd8 <__udivdi3+0x314>
  808924:	00803fc4 	movi	r2,255
  808928:	14c15e36 	bltu	r2,r19,808ea4 <__udivdi3+0x5e0>
  80892c:	000b883a 	mov	r5,zero
  808930:	0005883a 	mov	r2,zero
  808934:	9884d83a 	srl	r2,r19,r2
  808938:	01002074 	movhi	r4,129
  80893c:	210b1104 	addi	r4,r4,11332
  808940:	01800804 	movi	r6,32
  808944:	1105883a 	add	r2,r2,r4
  808948:	10c00003 	ldbu	r3,0(r2)
  80894c:	28c7883a 	add	r3,r5,r3
  808950:	30e9c83a 	sub	r20,r6,r3
  808954:	a0010a1e 	bne	r20,zero,808d80 <__udivdi3+0x4bc>
  808958:	982ed43a 	srli	r23,r19,16
  80895c:	acebc83a 	sub	r21,r21,r19
  808960:	9dbfffcc 	andi	r22,r19,65535
  808964:	05000044 	movi	r20,1
  808968:	a809883a 	mov	r4,r21
  80896c:	b80b883a 	mov	r5,r23
  808970:	080a7f80 	call	80a7f8 <__udivsi3>
  808974:	100b883a 	mov	r5,r2
  808978:	b009883a 	mov	r4,r22
  80897c:	1021883a 	mov	r16,r2
  808980:	08014540 	call	801454 <__mulsi3>
  808984:	a809883a 	mov	r4,r21
  808988:	b80b883a 	mov	r5,r23
  80898c:	1023883a 	mov	r17,r2
  808990:	080a8000 	call	80a800 <__umodsi3>
  808994:	1004943a 	slli	r2,r2,16
  808998:	e006d43a 	srli	r3,fp,16
  80899c:	10c4b03a 	or	r2,r2,r3
  8089a0:	1440042e 	bgeu	r2,r17,8089b4 <__udivdi3+0xf0>
  8089a4:	14c5883a 	add	r2,r2,r19
  8089a8:	843fffc4 	addi	r16,r16,-1
  8089ac:	14c00136 	bltu	r2,r19,8089b4 <__udivdi3+0xf0>
  8089b0:	14415c36 	bltu	r2,r17,808f24 <__udivdi3+0x660>
  8089b4:	1463c83a 	sub	r17,r2,r17
  8089b8:	8809883a 	mov	r4,r17
  8089bc:	b80b883a 	mov	r5,r23
  8089c0:	080a7f80 	call	80a7f8 <__udivsi3>
  8089c4:	100b883a 	mov	r5,r2
  8089c8:	b009883a 	mov	r4,r22
  8089cc:	102b883a 	mov	r21,r2
  8089d0:	08014540 	call	801454 <__mulsi3>
  8089d4:	8809883a 	mov	r4,r17
  8089d8:	b80b883a 	mov	r5,r23
  8089dc:	1025883a 	mov	r18,r2
  8089e0:	080a8000 	call	80a800 <__umodsi3>
  8089e4:	1004943a 	slli	r2,r2,16
  8089e8:	e0ffffcc 	andi	r3,fp,65535
  8089ec:	10c4b03a 	or	r2,r2,r3
  8089f0:	1480042e 	bgeu	r2,r18,808a04 <__udivdi3+0x140>
  8089f4:	9885883a 	add	r2,r19,r2
  8089f8:	ad7fffc4 	addi	r21,r21,-1
  8089fc:	14c00136 	bltu	r2,r19,808a04 <__udivdi3+0x140>
  808a00:	14813c36 	bltu	r2,r18,808ef4 <__udivdi3+0x630>
  808a04:	8004943a 	slli	r2,r16,16
  808a08:	a009883a 	mov	r4,r20
  808a0c:	a884b03a 	or	r2,r21,r2
  808a10:	00001506 	br	808a68 <__udivdi3+0x1a4>
  808a14:	380d883a 	mov	r6,r7
  808a18:	29c06c36 	bltu	r5,r7,808bcc <__udivdi3+0x308>
  808a1c:	00bfffd4 	movui	r2,65535
  808a20:	11c06436 	bltu	r2,r7,808bb4 <__udivdi3+0x2f0>
  808a24:	00803fc4 	movi	r2,255
  808a28:	11c11836 	bltu	r2,r7,808e8c <__udivdi3+0x5c8>
  808a2c:	000b883a 	mov	r5,zero
  808a30:	0005883a 	mov	r2,zero
  808a34:	3084d83a 	srl	r2,r6,r2
  808a38:	01002074 	movhi	r4,129
  808a3c:	210b1104 	addi	r4,r4,11332
  808a40:	01c00804 	movi	r7,32
  808a44:	1105883a 	add	r2,r2,r4
  808a48:	10c00003 	ldbu	r3,0(r2)
  808a4c:	28c7883a 	add	r3,r5,r3
  808a50:	38edc83a 	sub	r22,r7,r3
  808a54:	b000731e 	bne	r22,zero,808c24 <__udivdi3+0x360>
  808a58:	35400136 	bltu	r6,r21,808a60 <__udivdi3+0x19c>
  808a5c:	e4c05b36 	bltu	fp,r19,808bcc <__udivdi3+0x308>
  808a60:	00800044 	movi	r2,1
  808a64:	0009883a 	mov	r4,zero
  808a68:	d8800315 	stw	r2,12(sp)
  808a6c:	d9400317 	ldw	r5,12(sp)
  808a70:	d9000415 	stw	r4,16(sp)
  808a74:	2007883a 	mov	r3,r4
  808a78:	2805883a 	mov	r2,r5
  808a7c:	dfc00e17 	ldw	ra,56(sp)
  808a80:	df000d17 	ldw	fp,52(sp)
  808a84:	ddc00c17 	ldw	r23,48(sp)
  808a88:	dd800b17 	ldw	r22,44(sp)
  808a8c:	dd400a17 	ldw	r21,40(sp)
  808a90:	dd000917 	ldw	r20,36(sp)
  808a94:	dcc00817 	ldw	r19,32(sp)
  808a98:	dc800717 	ldw	r18,28(sp)
  808a9c:	dc400617 	ldw	r17,24(sp)
  808aa0:	dc000517 	ldw	r16,20(sp)
  808aa4:	dec00f04 	addi	sp,sp,60
  808aa8:	f800283a 	ret
  808aac:	00bfffd4 	movui	r2,65535
  808ab0:	12005636 	bltu	r2,r8,808c0c <__udivdi3+0x348>
  808ab4:	00803fc4 	movi	r2,255
  808ab8:	12010036 	bltu	r2,r8,808ebc <__udivdi3+0x5f8>
  808abc:	000b883a 	mov	r5,zero
  808ac0:	0005883a 	mov	r2,zero
  808ac4:	9884d83a 	srl	r2,r19,r2
  808ac8:	01002074 	movhi	r4,129
  808acc:	210b1104 	addi	r4,r4,11332
  808ad0:	01800804 	movi	r6,32
  808ad4:	1105883a 	add	r2,r2,r4
  808ad8:	10c00003 	ldbu	r3,0(r2)
  808adc:	28c7883a 	add	r3,r5,r3
  808ae0:	30cbc83a 	sub	r5,r6,r3
  808ae4:	28000626 	beq	r5,zero,808b00 <__udivdi3+0x23c>
  808ae8:	3145c83a 	sub	r2,r6,r5
  808aec:	e084d83a 	srl	r2,fp,r2
  808af0:	a946983a 	sll	r3,r21,r5
  808af4:	e178983a 	sll	fp,fp,r5
  808af8:	9966983a 	sll	r19,r19,r5
  808afc:	18aab03a 	or	r21,r3,r2
  808b00:	982ed43a 	srli	r23,r19,16
  808b04:	a809883a 	mov	r4,r21
  808b08:	9cbfffcc 	andi	r18,r19,65535
  808b0c:	b80b883a 	mov	r5,r23
  808b10:	080a7f80 	call	80a7f8 <__udivsi3>
  808b14:	100b883a 	mov	r5,r2
  808b18:	9009883a 	mov	r4,r18
  808b1c:	1021883a 	mov	r16,r2
  808b20:	08014540 	call	801454 <__mulsi3>
  808b24:	a809883a 	mov	r4,r21
  808b28:	b80b883a 	mov	r5,r23
  808b2c:	1023883a 	mov	r17,r2
  808b30:	080a8000 	call	80a800 <__umodsi3>
  808b34:	1004943a 	slli	r2,r2,16
  808b38:	e006d43a 	srli	r3,fp,16
  808b3c:	10c4b03a 	or	r2,r2,r3
  808b40:	1440042e 	bgeu	r2,r17,808b54 <__udivdi3+0x290>
  808b44:	14c5883a 	add	r2,r2,r19
  808b48:	843fffc4 	addi	r16,r16,-1
  808b4c:	14c00136 	bltu	r2,r19,808b54 <__udivdi3+0x290>
  808b50:	1440ea36 	bltu	r2,r17,808efc <__udivdi3+0x638>
  808b54:	1463c83a 	sub	r17,r2,r17
  808b58:	8809883a 	mov	r4,r17
  808b5c:	b80b883a 	mov	r5,r23
  808b60:	080a7f80 	call	80a7f8 <__udivsi3>
  808b64:	100b883a 	mov	r5,r2
  808b68:	9009883a 	mov	r4,r18
  808b6c:	102b883a 	mov	r21,r2
  808b70:	08014540 	call	801454 <__mulsi3>
  808b74:	8809883a 	mov	r4,r17
  808b78:	b80b883a 	mov	r5,r23
  808b7c:	1025883a 	mov	r18,r2
  808b80:	080a8000 	call	80a800 <__umodsi3>
  808b84:	1004943a 	slli	r2,r2,16
  808b88:	e0ffffcc 	andi	r3,fp,65535
  808b8c:	10c4b03a 	or	r2,r2,r3
  808b90:	1480042e 	bgeu	r2,r18,808ba4 <__udivdi3+0x2e0>
  808b94:	9885883a 	add	r2,r19,r2
  808b98:	ad7fffc4 	addi	r21,r21,-1
  808b9c:	14c00136 	bltu	r2,r19,808ba4 <__udivdi3+0x2e0>
  808ba0:	1480d936 	bltu	r2,r18,808f08 <__udivdi3+0x644>
  808ba4:	8004943a 	slli	r2,r16,16
  808ba8:	0009883a 	mov	r4,zero
  808bac:	a884b03a 	or	r2,r21,r2
  808bb0:	003fad06 	br	808a68 <__udivdi3+0x1a4>
  808bb4:	00804034 	movhi	r2,256
  808bb8:	10bfffc4 	addi	r2,r2,-1
  808bbc:	11c0b636 	bltu	r2,r7,808e98 <__udivdi3+0x5d4>
  808bc0:	01400404 	movi	r5,16
  808bc4:	2805883a 	mov	r2,r5
  808bc8:	003f9a06 	br	808a34 <__udivdi3+0x170>
  808bcc:	0005883a 	mov	r2,zero
  808bd0:	0009883a 	mov	r4,zero
  808bd4:	003fa406 	br	808a68 <__udivdi3+0x1a4>
  808bd8:	00804034 	movhi	r2,256
  808bdc:	10bfffc4 	addi	r2,r2,-1
  808be0:	14c0b336 	bltu	r2,r19,808eb0 <__udivdi3+0x5ec>
  808be4:	01400404 	movi	r5,16
  808be8:	2805883a 	mov	r2,r5
  808bec:	003f5106 	br	808934 <__udivdi3+0x70>
  808bf0:	01000044 	movi	r4,1
  808bf4:	000b883a 	mov	r5,zero
  808bf8:	080a7f80 	call	80a7f8 <__udivsi3>
  808bfc:	1027883a 	mov	r19,r2
  808c00:	00bfffd4 	movui	r2,65535
  808c04:	14fff436 	bltu	r2,r19,808bd8 <__udivdi3+0x314>
  808c08:	003f4606 	br	808924 <__udivdi3+0x60>
  808c0c:	00804034 	movhi	r2,256
  808c10:	10bfffc4 	addi	r2,r2,-1
  808c14:	1200ac36 	bltu	r2,r8,808ec8 <__udivdi3+0x604>
  808c18:	01400404 	movi	r5,16
  808c1c:	2805883a 	mov	r2,r5
  808c20:	003fa806 	br	808ac4 <__udivdi3+0x200>
  808c24:	3d85c83a 	sub	r2,r7,r22
  808c28:	3588983a 	sll	r4,r6,r22
  808c2c:	9886d83a 	srl	r3,r19,r2
  808c30:	a8a2d83a 	srl	r17,r21,r2
  808c34:	e084d83a 	srl	r2,fp,r2
  808c38:	20eeb03a 	or	r23,r4,r3
  808c3c:	b824d43a 	srli	r18,r23,16
  808c40:	ad86983a 	sll	r3,r21,r22
  808c44:	8809883a 	mov	r4,r17
  808c48:	900b883a 	mov	r5,r18
  808c4c:	1886b03a 	or	r3,r3,r2
  808c50:	d8c00115 	stw	r3,4(sp)
  808c54:	bc3fffcc 	andi	r16,r23,65535
  808c58:	080a7f80 	call	80a7f8 <__udivsi3>
  808c5c:	100b883a 	mov	r5,r2
  808c60:	8009883a 	mov	r4,r16
  808c64:	1029883a 	mov	r20,r2
  808c68:	08014540 	call	801454 <__mulsi3>
  808c6c:	900b883a 	mov	r5,r18
  808c70:	8809883a 	mov	r4,r17
  808c74:	102b883a 	mov	r21,r2
  808c78:	080a8000 	call	80a800 <__umodsi3>
  808c7c:	d9400117 	ldw	r5,4(sp)
  808c80:	1004943a 	slli	r2,r2,16
  808c84:	9da6983a 	sll	r19,r19,r22
  808c88:	2806d43a 	srli	r3,r5,16
  808c8c:	10c4b03a 	or	r2,r2,r3
  808c90:	1540032e 	bgeu	r2,r21,808ca0 <__udivdi3+0x3dc>
  808c94:	15c5883a 	add	r2,r2,r23
  808c98:	a53fffc4 	addi	r20,r20,-1
  808c9c:	15c0912e 	bgeu	r2,r23,808ee4 <__udivdi3+0x620>
  808ca0:	1563c83a 	sub	r17,r2,r21
  808ca4:	8809883a 	mov	r4,r17
  808ca8:	900b883a 	mov	r5,r18
  808cac:	080a7f80 	call	80a7f8 <__udivsi3>
  808cb0:	100b883a 	mov	r5,r2
  808cb4:	8009883a 	mov	r4,r16
  808cb8:	102b883a 	mov	r21,r2
  808cbc:	08014540 	call	801454 <__mulsi3>
  808cc0:	8809883a 	mov	r4,r17
  808cc4:	900b883a 	mov	r5,r18
  808cc8:	1021883a 	mov	r16,r2
  808ccc:	080a8000 	call	80a800 <__umodsi3>
  808cd0:	da800117 	ldw	r10,4(sp)
  808cd4:	1004943a 	slli	r2,r2,16
  808cd8:	50ffffcc 	andi	r3,r10,65535
  808cdc:	10c6b03a 	or	r3,r2,r3
  808ce0:	1c00032e 	bgeu	r3,r16,808cf0 <__udivdi3+0x42c>
  808ce4:	1dc7883a 	add	r3,r3,r23
  808ce8:	ad7fffc4 	addi	r21,r21,-1
  808cec:	1dc0792e 	bgeu	r3,r23,808ed4 <__udivdi3+0x610>
  808cf0:	a004943a 	slli	r2,r20,16
  808cf4:	982ed43a 	srli	r23,r19,16
  808cf8:	9cffffcc 	andi	r19,r19,65535
  808cfc:	a8a4b03a 	or	r18,r21,r2
  808d00:	947fffcc 	andi	r17,r18,65535
  808d04:	902ad43a 	srli	r21,r18,16
  808d08:	8809883a 	mov	r4,r17
  808d0c:	980b883a 	mov	r5,r19
  808d10:	1c21c83a 	sub	r16,r3,r16
  808d14:	08014540 	call	801454 <__mulsi3>
  808d18:	8809883a 	mov	r4,r17
  808d1c:	b80b883a 	mov	r5,r23
  808d20:	1029883a 	mov	r20,r2
  808d24:	08014540 	call	801454 <__mulsi3>
  808d28:	980b883a 	mov	r5,r19
  808d2c:	a809883a 	mov	r4,r21
  808d30:	1023883a 	mov	r17,r2
  808d34:	08014540 	call	801454 <__mulsi3>
  808d38:	a809883a 	mov	r4,r21
  808d3c:	b80b883a 	mov	r5,r23
  808d40:	1027883a 	mov	r19,r2
  808d44:	08014540 	call	801454 <__mulsi3>
  808d48:	1009883a 	mov	r4,r2
  808d4c:	a004d43a 	srli	r2,r20,16
  808d50:	8ce3883a 	add	r17,r17,r19
  808d54:	1447883a 	add	r3,r2,r17
  808d58:	1cc0022e 	bgeu	r3,r19,808d64 <__udivdi3+0x4a0>
  808d5c:	00800074 	movhi	r2,1
  808d60:	2089883a 	add	r4,r4,r2
  808d64:	1804d43a 	srli	r2,r3,16
  808d68:	2085883a 	add	r2,r4,r2
  808d6c:	80804436 	bltu	r16,r2,808e80 <__udivdi3+0x5bc>
  808d70:	80803e26 	beq	r16,r2,808e6c <__udivdi3+0x5a8>
  808d74:	9005883a 	mov	r2,r18
  808d78:	0009883a 	mov	r4,zero
  808d7c:	003f3a06 	br	808a68 <__udivdi3+0x1a4>
  808d80:	9d26983a 	sll	r19,r19,r20
  808d84:	3505c83a 	sub	r2,r6,r20
  808d88:	a8a2d83a 	srl	r17,r21,r2
  808d8c:	982ed43a 	srli	r23,r19,16
  808d90:	e084d83a 	srl	r2,fp,r2
  808d94:	ad06983a 	sll	r3,r21,r20
  808d98:	8809883a 	mov	r4,r17
  808d9c:	b80b883a 	mov	r5,r23
  808da0:	1886b03a 	or	r3,r3,r2
  808da4:	d8c00015 	stw	r3,0(sp)
  808da8:	9dbfffcc 	andi	r22,r19,65535
  808dac:	080a7f80 	call	80a7f8 <__udivsi3>
  808db0:	100b883a 	mov	r5,r2
  808db4:	b009883a 	mov	r4,r22
  808db8:	d8800215 	stw	r2,8(sp)
  808dbc:	08014540 	call	801454 <__mulsi3>
  808dc0:	8809883a 	mov	r4,r17
  808dc4:	b80b883a 	mov	r5,r23
  808dc8:	102b883a 	mov	r21,r2
  808dcc:	080a8000 	call	80a800 <__umodsi3>
  808dd0:	d9000017 	ldw	r4,0(sp)
  808dd4:	1004943a 	slli	r2,r2,16
  808dd8:	2006d43a 	srli	r3,r4,16
  808ddc:	10c4b03a 	or	r2,r2,r3
  808de0:	1540052e 	bgeu	r2,r21,808df8 <__udivdi3+0x534>
  808de4:	d9400217 	ldw	r5,8(sp)
  808de8:	14c5883a 	add	r2,r2,r19
  808dec:	297fffc4 	addi	r5,r5,-1
  808df0:	d9400215 	stw	r5,8(sp)
  808df4:	14c0462e 	bgeu	r2,r19,808f10 <__udivdi3+0x64c>
  808df8:	1563c83a 	sub	r17,r2,r21
  808dfc:	8809883a 	mov	r4,r17
  808e00:	b80b883a 	mov	r5,r23
  808e04:	080a7f80 	call	80a7f8 <__udivsi3>
  808e08:	100b883a 	mov	r5,r2
  808e0c:	b009883a 	mov	r4,r22
  808e10:	1025883a 	mov	r18,r2
  808e14:	08014540 	call	801454 <__mulsi3>
  808e18:	8809883a 	mov	r4,r17
  808e1c:	b80b883a 	mov	r5,r23
  808e20:	1021883a 	mov	r16,r2
  808e24:	080a8000 	call	80a800 <__umodsi3>
  808e28:	da800017 	ldw	r10,0(sp)
  808e2c:	1004943a 	slli	r2,r2,16
  808e30:	50ffffcc 	andi	r3,r10,65535
  808e34:	10c6b03a 	or	r3,r2,r3
  808e38:	1c00062e 	bgeu	r3,r16,808e54 <__udivdi3+0x590>
  808e3c:	1cc7883a 	add	r3,r3,r19
  808e40:	94bfffc4 	addi	r18,r18,-1
  808e44:	1cc00336 	bltu	r3,r19,808e54 <__udivdi3+0x590>
  808e48:	1c00022e 	bgeu	r3,r16,808e54 <__udivdi3+0x590>
  808e4c:	94bfffc4 	addi	r18,r18,-1
  808e50:	1cc7883a 	add	r3,r3,r19
  808e54:	d9000217 	ldw	r4,8(sp)
  808e58:	e538983a 	sll	fp,fp,r20
  808e5c:	1c2bc83a 	sub	r21,r3,r16
  808e60:	2004943a 	slli	r2,r4,16
  808e64:	90a8b03a 	or	r20,r18,r2
  808e68:	003ebf06 	br	808968 <__udivdi3+0xa4>
  808e6c:	1804943a 	slli	r2,r3,16
  808e70:	e588983a 	sll	r4,fp,r22
  808e74:	a0ffffcc 	andi	r3,r20,65535
  808e78:	10c5883a 	add	r2,r2,r3
  808e7c:	20bfbd2e 	bgeu	r4,r2,808d74 <__udivdi3+0x4b0>
  808e80:	90bfffc4 	addi	r2,r18,-1
  808e84:	0009883a 	mov	r4,zero
  808e88:	003ef706 	br	808a68 <__udivdi3+0x1a4>
  808e8c:	01400204 	movi	r5,8
  808e90:	2805883a 	mov	r2,r5
  808e94:	003ee706 	br	808a34 <__udivdi3+0x170>
  808e98:	01400604 	movi	r5,24
  808e9c:	2805883a 	mov	r2,r5
  808ea0:	003ee406 	br	808a34 <__udivdi3+0x170>
  808ea4:	01400204 	movi	r5,8
  808ea8:	2805883a 	mov	r2,r5
  808eac:	003ea106 	br	808934 <__udivdi3+0x70>
  808eb0:	01400604 	movi	r5,24
  808eb4:	2805883a 	mov	r2,r5
  808eb8:	003e9e06 	br	808934 <__udivdi3+0x70>
  808ebc:	01400204 	movi	r5,8
  808ec0:	2805883a 	mov	r2,r5
  808ec4:	003eff06 	br	808ac4 <__udivdi3+0x200>
  808ec8:	01400604 	movi	r5,24
  808ecc:	2805883a 	mov	r2,r5
  808ed0:	003efc06 	br	808ac4 <__udivdi3+0x200>
  808ed4:	1c3f862e 	bgeu	r3,r16,808cf0 <__udivdi3+0x42c>
  808ed8:	1dc7883a 	add	r3,r3,r23
  808edc:	ad7fffc4 	addi	r21,r21,-1
  808ee0:	003f8306 	br	808cf0 <__udivdi3+0x42c>
  808ee4:	157f6e2e 	bgeu	r2,r21,808ca0 <__udivdi3+0x3dc>
  808ee8:	a53fffc4 	addi	r20,r20,-1
  808eec:	15c5883a 	add	r2,r2,r23
  808ef0:	003f6b06 	br	808ca0 <__udivdi3+0x3dc>
  808ef4:	ad7fffc4 	addi	r21,r21,-1
  808ef8:	003ec206 	br	808a04 <__udivdi3+0x140>
  808efc:	843fffc4 	addi	r16,r16,-1
  808f00:	14c5883a 	add	r2,r2,r19
  808f04:	003f1306 	br	808b54 <__udivdi3+0x290>
  808f08:	ad7fffc4 	addi	r21,r21,-1
  808f0c:	003f2506 	br	808ba4 <__udivdi3+0x2e0>
  808f10:	157fb92e 	bgeu	r2,r21,808df8 <__udivdi3+0x534>
  808f14:	297fffc4 	addi	r5,r5,-1
  808f18:	14c5883a 	add	r2,r2,r19
  808f1c:	d9400215 	stw	r5,8(sp)
  808f20:	003fb506 	br	808df8 <__udivdi3+0x534>
  808f24:	843fffc4 	addi	r16,r16,-1
  808f28:	14c5883a 	add	r2,r2,r19
  808f2c:	003ea106 	br	8089b4 <__udivdi3+0xf0>

00808f30 <__umoddi3>:
  808f30:	defff004 	addi	sp,sp,-64
  808f34:	3011883a 	mov	r8,r6
  808f38:	000d883a 	mov	r6,zero
  808f3c:	dd400b15 	stw	r21,44(sp)
  808f40:	dcc00915 	stw	r19,36(sp)
  808f44:	dc000615 	stw	r16,24(sp)
  808f48:	dfc00f15 	stw	ra,60(sp)
  808f4c:	df000e15 	stw	fp,56(sp)
  808f50:	ddc00d15 	stw	r23,52(sp)
  808f54:	dd800c15 	stw	r22,48(sp)
  808f58:	dd000a15 	stw	r20,40(sp)
  808f5c:	dc800815 	stw	r18,32(sp)
  808f60:	dc400715 	stw	r17,28(sp)
  808f64:	2817883a 	mov	r11,r5
  808f68:	d9800415 	stw	r6,16(sp)
  808f6c:	4027883a 	mov	r19,r8
  808f70:	d9800515 	stw	r6,20(sp)
  808f74:	2021883a 	mov	r16,r4
  808f78:	282b883a 	mov	r21,r5
  808f7c:	38002c1e 	bne	r7,zero,809030 <__umoddi3+0x100>
  808f80:	2a005636 	bltu	r5,r8,8090dc <__umoddi3+0x1ac>
  808f84:	40009a26 	beq	r8,zero,8091f0 <__umoddi3+0x2c0>
  808f88:	00bfffd4 	movui	r2,65535
  808f8c:	14c09236 	bltu	r2,r19,8091d8 <__umoddi3+0x2a8>
  808f90:	00803fc4 	movi	r2,255
  808f94:	14c15c36 	bltu	r2,r19,809508 <__umoddi3+0x5d8>
  808f98:	000b883a 	mov	r5,zero
  808f9c:	0005883a 	mov	r2,zero
  808fa0:	9884d83a 	srl	r2,r19,r2
  808fa4:	01002074 	movhi	r4,129
  808fa8:	210b1104 	addi	r4,r4,11332
  808fac:	01800804 	movi	r6,32
  808fb0:	1105883a 	add	r2,r2,r4
  808fb4:	10c00003 	ldbu	r3,0(r2)
  808fb8:	28c7883a 	add	r3,r5,r3
  808fbc:	30e5c83a 	sub	r18,r6,r3
  808fc0:	9000a41e 	bne	r18,zero,809254 <__umoddi3+0x324>
  808fc4:	982ed43a 	srli	r23,r19,16
  808fc8:	acebc83a 	sub	r21,r21,r19
  808fcc:	9d3fffcc 	andi	r20,r19,65535
  808fd0:	002d883a 	mov	r22,zero
  808fd4:	a809883a 	mov	r4,r21
  808fd8:	b80b883a 	mov	r5,r23
  808fdc:	080a7f80 	call	80a7f8 <__udivsi3>
  808fe0:	100b883a 	mov	r5,r2
  808fe4:	a009883a 	mov	r4,r20
  808fe8:	08014540 	call	801454 <__mulsi3>
  808fec:	a809883a 	mov	r4,r21
  808ff0:	b80b883a 	mov	r5,r23
  808ff4:	1023883a 	mov	r17,r2
  808ff8:	080a8000 	call	80a800 <__umodsi3>
  808ffc:	1004943a 	slli	r2,r2,16
  809000:	8006d43a 	srli	r3,r16,16
  809004:	10c4b03a 	or	r2,r2,r3
  809008:	1440032e 	bgeu	r2,r17,809018 <__umoddi3+0xe8>
  80900c:	14c5883a 	add	r2,r2,r19
  809010:	14c00136 	bltu	r2,r19,809018 <__umoddi3+0xe8>
  809014:	14415836 	bltu	r2,r17,809578 <__umoddi3+0x648>
  809018:	1463c83a 	sub	r17,r2,r17
  80901c:	8809883a 	mov	r4,r17
  809020:	b80b883a 	mov	r5,r23
  809024:	080a7f80 	call	80a7f8 <__udivsi3>
  809028:	a009883a 	mov	r4,r20
  80902c:	00005306 	br	80917c <__umoddi3+0x24c>
  809030:	380d883a 	mov	r6,r7
  809034:	29c0132e 	bgeu	r5,r7,809084 <__umoddi3+0x154>
  809038:	d9000415 	stw	r4,16(sp)
  80903c:	d9400515 	stw	r5,20(sp)
  809040:	d9400417 	ldw	r5,16(sp)
  809044:	5813883a 	mov	r9,r11
  809048:	2811883a 	mov	r8,r5
  80904c:	4005883a 	mov	r2,r8
  809050:	4807883a 	mov	r3,r9
  809054:	dfc00f17 	ldw	ra,60(sp)
  809058:	df000e17 	ldw	fp,56(sp)
  80905c:	ddc00d17 	ldw	r23,52(sp)
  809060:	dd800c17 	ldw	r22,48(sp)
  809064:	dd400b17 	ldw	r21,44(sp)
  809068:	dd000a17 	ldw	r20,40(sp)
  80906c:	dcc00917 	ldw	r19,36(sp)
  809070:	dc800817 	ldw	r18,32(sp)
  809074:	dc400717 	ldw	r17,28(sp)
  809078:	dc000617 	ldw	r16,24(sp)
  80907c:	dec01004 	addi	sp,sp,64
  809080:	f800283a 	ret
  809084:	00bfffd4 	movui	r2,65535
  809088:	11c06636 	bltu	r2,r7,809224 <__umoddi3+0x2f4>
  80908c:	00803fc4 	movi	r2,255
  809090:	11c12036 	bltu	r2,r7,809514 <__umoddi3+0x5e4>
  809094:	000b883a 	mov	r5,zero
  809098:	0005883a 	mov	r2,zero
  80909c:	3084d83a 	srl	r2,r6,r2
  8090a0:	01002074 	movhi	r4,129
  8090a4:	210b1104 	addi	r4,r4,11332
  8090a8:	01c00804 	movi	r7,32
  8090ac:	1105883a 	add	r2,r2,r4
  8090b0:	10c00003 	ldbu	r3,0(r2)
  8090b4:	28c7883a 	add	r3,r5,r3
  8090b8:	38e5c83a 	sub	r18,r7,r3
  8090bc:	9000941e 	bne	r18,zero,809310 <__umoddi3+0x3e0>
  8090c0:	35405e36 	bltu	r6,r21,80923c <__umoddi3+0x30c>
  8090c4:	84c05d2e 	bgeu	r16,r19,80923c <__umoddi3+0x30c>
  8090c8:	8011883a 	mov	r8,r16
  8090cc:	a813883a 	mov	r9,r21
  8090d0:	dc000415 	stw	r16,16(sp)
  8090d4:	dd400515 	stw	r21,20(sp)
  8090d8:	003fdc06 	br	80904c <__umoddi3+0x11c>
  8090dc:	00bfffd4 	movui	r2,65535
  8090e0:	12004a36 	bltu	r2,r8,80920c <__umoddi3+0x2dc>
  8090e4:	00803fc4 	movi	r2,255
  8090e8:	12010d36 	bltu	r2,r8,809520 <__umoddi3+0x5f0>
  8090ec:	000b883a 	mov	r5,zero
  8090f0:	0005883a 	mov	r2,zero
  8090f4:	9884d83a 	srl	r2,r19,r2
  8090f8:	01002074 	movhi	r4,129
  8090fc:	210b1104 	addi	r4,r4,11332
  809100:	01800804 	movi	r6,32
  809104:	1105883a 	add	r2,r2,r4
  809108:	10c00003 	ldbu	r3,0(r2)
  80910c:	28c7883a 	add	r3,r5,r3
  809110:	30c7c83a 	sub	r3,r6,r3
  809114:	1800dc1e 	bne	r3,zero,809488 <__umoddi3+0x558>
  809118:	002d883a 	mov	r22,zero
  80911c:	982ed43a 	srli	r23,r19,16
  809120:	a809883a 	mov	r4,r21
  809124:	9cbfffcc 	andi	r18,r19,65535
  809128:	b80b883a 	mov	r5,r23
  80912c:	080a7f80 	call	80a7f8 <__udivsi3>
  809130:	100b883a 	mov	r5,r2
  809134:	9009883a 	mov	r4,r18
  809138:	08014540 	call	801454 <__mulsi3>
  80913c:	a809883a 	mov	r4,r21
  809140:	b80b883a 	mov	r5,r23
  809144:	1023883a 	mov	r17,r2
  809148:	080a8000 	call	80a800 <__umodsi3>
  80914c:	1004943a 	slli	r2,r2,16
  809150:	8006d43a 	srli	r3,r16,16
  809154:	10c4b03a 	or	r2,r2,r3
  809158:	1440032e 	bgeu	r2,r17,809168 <__umoddi3+0x238>
  80915c:	14c5883a 	add	r2,r2,r19
  809160:	14c00136 	bltu	r2,r19,809168 <__umoddi3+0x238>
  809164:	14410236 	bltu	r2,r17,809570 <__umoddi3+0x640>
  809168:	1463c83a 	sub	r17,r2,r17
  80916c:	8809883a 	mov	r4,r17
  809170:	b80b883a 	mov	r5,r23
  809174:	080a7f80 	call	80a7f8 <__udivsi3>
  809178:	9009883a 	mov	r4,r18
  80917c:	100b883a 	mov	r5,r2
  809180:	08014540 	call	801454 <__mulsi3>
  809184:	8809883a 	mov	r4,r17
  809188:	b80b883a 	mov	r5,r23
  80918c:	102b883a 	mov	r21,r2
  809190:	080a8000 	call	80a800 <__umodsi3>
  809194:	1004943a 	slli	r2,r2,16
  809198:	80ffffcc 	andi	r3,r16,65535
  80919c:	10c4b03a 	or	r2,r2,r3
  8091a0:	1540042e 	bgeu	r2,r21,8091b4 <__umoddi3+0x284>
  8091a4:	14c5883a 	add	r2,r2,r19
  8091a8:	14c00236 	bltu	r2,r19,8091b4 <__umoddi3+0x284>
  8091ac:	1540012e 	bgeu	r2,r21,8091b4 <__umoddi3+0x284>
  8091b0:	14c5883a 	add	r2,r2,r19
  8091b4:	1545c83a 	sub	r2,r2,r21
  8091b8:	1584d83a 	srl	r2,r2,r22
  8091bc:	0013883a 	mov	r9,zero
  8091c0:	d8800415 	stw	r2,16(sp)
  8091c4:	d8c00417 	ldw	r3,16(sp)
  8091c8:	0005883a 	mov	r2,zero
  8091cc:	d8800515 	stw	r2,20(sp)
  8091d0:	1811883a 	mov	r8,r3
  8091d4:	003f9d06 	br	80904c <__umoddi3+0x11c>
  8091d8:	00804034 	movhi	r2,256
  8091dc:	10bfffc4 	addi	r2,r2,-1
  8091e0:	14c0c636 	bltu	r2,r19,8094fc <__umoddi3+0x5cc>
  8091e4:	01400404 	movi	r5,16
  8091e8:	2805883a 	mov	r2,r5
  8091ec:	003f6c06 	br	808fa0 <__umoddi3+0x70>
  8091f0:	01000044 	movi	r4,1
  8091f4:	000b883a 	mov	r5,zero
  8091f8:	080a7f80 	call	80a7f8 <__udivsi3>
  8091fc:	1027883a 	mov	r19,r2
  809200:	00bfffd4 	movui	r2,65535
  809204:	14fff436 	bltu	r2,r19,8091d8 <__umoddi3+0x2a8>
  809208:	003f6106 	br	808f90 <__umoddi3+0x60>
  80920c:	00804034 	movhi	r2,256
  809210:	10bfffc4 	addi	r2,r2,-1
  809214:	1200c536 	bltu	r2,r8,80952c <__umoddi3+0x5fc>
  809218:	01400404 	movi	r5,16
  80921c:	2805883a 	mov	r2,r5
  809220:	003fb406 	br	8090f4 <__umoddi3+0x1c4>
  809224:	00804034 	movhi	r2,256
  809228:	10bfffc4 	addi	r2,r2,-1
  80922c:	11c0c236 	bltu	r2,r7,809538 <__umoddi3+0x608>
  809230:	01400404 	movi	r5,16
  809234:	2805883a 	mov	r2,r5
  809238:	003f9806 	br	80909c <__umoddi3+0x16c>
  80923c:	84c9c83a 	sub	r4,r16,r19
  809240:	8105803a 	cmpltu	r2,r16,r4
  809244:	a987c83a 	sub	r3,r21,r6
  809248:	18abc83a 	sub	r21,r3,r2
  80924c:	2021883a 	mov	r16,r4
  809250:	003f9d06 	br	8090c8 <__umoddi3+0x198>
  809254:	9ca6983a 	sll	r19,r19,r18
  809258:	3485c83a 	sub	r2,r6,r18
  80925c:	a8a2d83a 	srl	r17,r21,r2
  809260:	982ed43a 	srli	r23,r19,16
  809264:	ac86983a 	sll	r3,r21,r18
  809268:	8084d83a 	srl	r2,r16,r2
  80926c:	8809883a 	mov	r4,r17
  809270:	b80b883a 	mov	r5,r23
  809274:	18b8b03a 	or	fp,r3,r2
  809278:	9d3fffcc 	andi	r20,r19,65535
  80927c:	080a7f80 	call	80a7f8 <__udivsi3>
  809280:	100b883a 	mov	r5,r2
  809284:	a009883a 	mov	r4,r20
  809288:	08014540 	call	801454 <__mulsi3>
  80928c:	8809883a 	mov	r4,r17
  809290:	b80b883a 	mov	r5,r23
  809294:	102b883a 	mov	r21,r2
  809298:	080a8000 	call	80a800 <__umodsi3>
  80929c:	1004943a 	slli	r2,r2,16
  8092a0:	e006d43a 	srli	r3,fp,16
  8092a4:	902d883a 	mov	r22,r18
  8092a8:	10c4b03a 	or	r2,r2,r3
  8092ac:	1540022e 	bgeu	r2,r21,8092b8 <__umoddi3+0x388>
  8092b0:	14c5883a 	add	r2,r2,r19
  8092b4:	14c0ab2e 	bgeu	r2,r19,809564 <__umoddi3+0x634>
  8092b8:	1563c83a 	sub	r17,r2,r21
  8092bc:	8809883a 	mov	r4,r17
  8092c0:	b80b883a 	mov	r5,r23
  8092c4:	080a7f80 	call	80a7f8 <__udivsi3>
  8092c8:	100b883a 	mov	r5,r2
  8092cc:	a009883a 	mov	r4,r20
  8092d0:	08014540 	call	801454 <__mulsi3>
  8092d4:	8809883a 	mov	r4,r17
  8092d8:	b80b883a 	mov	r5,r23
  8092dc:	102b883a 	mov	r21,r2
  8092e0:	080a8000 	call	80a800 <__umodsi3>
  8092e4:	1004943a 	slli	r2,r2,16
  8092e8:	e0ffffcc 	andi	r3,fp,65535
  8092ec:	10c4b03a 	or	r2,r2,r3
  8092f0:	1540042e 	bgeu	r2,r21,809304 <__umoddi3+0x3d4>
  8092f4:	14c5883a 	add	r2,r2,r19
  8092f8:	14c00236 	bltu	r2,r19,809304 <__umoddi3+0x3d4>
  8092fc:	1540012e 	bgeu	r2,r21,809304 <__umoddi3+0x3d4>
  809300:	14c5883a 	add	r2,r2,r19
  809304:	84a0983a 	sll	r16,r16,r18
  809308:	156bc83a 	sub	r21,r2,r21
  80930c:	003f3106 	br	808fd4 <__umoddi3+0xa4>
  809310:	3c8fc83a 	sub	r7,r7,r18
  809314:	3486983a 	sll	r3,r6,r18
  809318:	99c4d83a 	srl	r2,r19,r7
  80931c:	a9e2d83a 	srl	r17,r21,r7
  809320:	ac8c983a 	sll	r6,r21,r18
  809324:	18acb03a 	or	r22,r3,r2
  809328:	b02ed43a 	srli	r23,r22,16
  80932c:	81c4d83a 	srl	r2,r16,r7
  809330:	8809883a 	mov	r4,r17
  809334:	b80b883a 	mov	r5,r23
  809338:	308cb03a 	or	r6,r6,r2
  80933c:	d9c00315 	stw	r7,12(sp)
  809340:	d9800215 	stw	r6,8(sp)
  809344:	b53fffcc 	andi	r20,r22,65535
  809348:	080a7f80 	call	80a7f8 <__udivsi3>
  80934c:	100b883a 	mov	r5,r2
  809350:	a009883a 	mov	r4,r20
  809354:	1039883a 	mov	fp,r2
  809358:	08014540 	call	801454 <__mulsi3>
  80935c:	8809883a 	mov	r4,r17
  809360:	b80b883a 	mov	r5,r23
  809364:	102b883a 	mov	r21,r2
  809368:	080a8000 	call	80a800 <__umodsi3>
  80936c:	d9000217 	ldw	r4,8(sp)
  809370:	1004943a 	slli	r2,r2,16
  809374:	9ca6983a 	sll	r19,r19,r18
  809378:	2006d43a 	srli	r3,r4,16
  80937c:	84a0983a 	sll	r16,r16,r18
  809380:	dcc00015 	stw	r19,0(sp)
  809384:	10c4b03a 	or	r2,r2,r3
  809388:	dc000115 	stw	r16,4(sp)
  80938c:	1540032e 	bgeu	r2,r21,80939c <__umoddi3+0x46c>
  809390:	1585883a 	add	r2,r2,r22
  809394:	e73fffc4 	addi	fp,fp,-1
  809398:	15806e2e 	bgeu	r2,r22,809554 <__umoddi3+0x624>
  80939c:	1563c83a 	sub	r17,r2,r21
  8093a0:	8809883a 	mov	r4,r17
  8093a4:	b80b883a 	mov	r5,r23
  8093a8:	080a7f80 	call	80a7f8 <__udivsi3>
  8093ac:	100b883a 	mov	r5,r2
  8093b0:	a009883a 	mov	r4,r20
  8093b4:	1021883a 	mov	r16,r2
  8093b8:	08014540 	call	801454 <__mulsi3>
  8093bc:	b80b883a 	mov	r5,r23
  8093c0:	8809883a 	mov	r4,r17
  8093c4:	1029883a 	mov	r20,r2
  8093c8:	080a8000 	call	80a800 <__umodsi3>
  8093cc:	d9400217 	ldw	r5,8(sp)
  8093d0:	1004943a 	slli	r2,r2,16
  8093d4:	28ffffcc 	andi	r3,r5,65535
  8093d8:	10c4b03a 	or	r2,r2,r3
  8093dc:	1500032e 	bgeu	r2,r20,8093ec <__umoddi3+0x4bc>
  8093e0:	1585883a 	add	r2,r2,r22
  8093e4:	843fffc4 	addi	r16,r16,-1
  8093e8:	1580562e 	bgeu	r2,r22,809544 <__umoddi3+0x614>
  8093ec:	d9800017 	ldw	r6,0(sp)
  8093f0:	e022943a 	slli	r17,fp,16
  8093f4:	302ed43a 	srli	r23,r6,16
  8093f8:	8462b03a 	or	r17,r16,r17
  8093fc:	34ffffcc 	andi	r19,r6,65535
  809400:	882ad43a 	srli	r21,r17,16
  809404:	8c7fffcc 	andi	r17,r17,65535
  809408:	8809883a 	mov	r4,r17
  80940c:	980b883a 	mov	r5,r19
  809410:	1521c83a 	sub	r16,r2,r20
  809414:	08014540 	call	801454 <__mulsi3>
  809418:	8809883a 	mov	r4,r17
  80941c:	b80b883a 	mov	r5,r23
  809420:	1029883a 	mov	r20,r2
  809424:	08014540 	call	801454 <__mulsi3>
  809428:	980b883a 	mov	r5,r19
  80942c:	a809883a 	mov	r4,r21
  809430:	1023883a 	mov	r17,r2
  809434:	08014540 	call	801454 <__mulsi3>
  809438:	a809883a 	mov	r4,r21
  80943c:	b80b883a 	mov	r5,r23
  809440:	1027883a 	mov	r19,r2
  809444:	08014540 	call	801454 <__mulsi3>
  809448:	100b883a 	mov	r5,r2
  80944c:	a004d43a 	srli	r2,r20,16
  809450:	8ce3883a 	add	r17,r17,r19
  809454:	1449883a 	add	r4,r2,r17
  809458:	24c0022e 	bgeu	r4,r19,809464 <__umoddi3+0x534>
  80945c:	00800074 	movhi	r2,1
  809460:	288b883a 	add	r5,r5,r2
  809464:	2004d43a 	srli	r2,r4,16
  809468:	2008943a 	slli	r4,r4,16
  80946c:	a0ffffcc 	andi	r3,r20,65535
  809470:	288d883a 	add	r6,r5,r2
  809474:	20c9883a 	add	r4,r4,r3
  809478:	81800b36 	bltu	r16,r6,8094a8 <__umoddi3+0x578>
  80947c:	81804026 	beq	r16,r6,809580 <__umoddi3+0x650>
  809480:	818dc83a 	sub	r6,r16,r6
  809484:	00000f06 	br	8094c4 <__umoddi3+0x594>
  809488:	30c5c83a 	sub	r2,r6,r3
  80948c:	182d883a 	mov	r22,r3
  809490:	8084d83a 	srl	r2,r16,r2
  809494:	a8c6983a 	sll	r3,r21,r3
  809498:	9da6983a 	sll	r19,r19,r22
  80949c:	85a0983a 	sll	r16,r16,r22
  8094a0:	18aab03a 	or	r21,r3,r2
  8094a4:	003f1d06 	br	80911c <__umoddi3+0x1ec>
  8094a8:	d8c00017 	ldw	r3,0(sp)
  8094ac:	20c5c83a 	sub	r2,r4,r3
  8094b0:	2089803a 	cmpltu	r4,r4,r2
  8094b4:	3587c83a 	sub	r3,r6,r22
  8094b8:	1907c83a 	sub	r3,r3,r4
  8094bc:	80cdc83a 	sub	r6,r16,r3
  8094c0:	1009883a 	mov	r4,r2
  8094c4:	d9400117 	ldw	r5,4(sp)
  8094c8:	2905c83a 	sub	r2,r5,r4
  8094cc:	2887803a 	cmpltu	r3,r5,r2
  8094d0:	30c7c83a 	sub	r3,r6,r3
  8094d4:	d9800317 	ldw	r6,12(sp)
  8094d8:	1484d83a 	srl	r2,r2,r18
  8094dc:	1988983a 	sll	r4,r3,r6
  8094e0:	1c86d83a 	srl	r3,r3,r18
  8094e4:	2088b03a 	or	r4,r4,r2
  8094e8:	2011883a 	mov	r8,r4
  8094ec:	1813883a 	mov	r9,r3
  8094f0:	d9000415 	stw	r4,16(sp)
  8094f4:	d8c00515 	stw	r3,20(sp)
  8094f8:	003ed406 	br	80904c <__umoddi3+0x11c>
  8094fc:	01400604 	movi	r5,24
  809500:	2805883a 	mov	r2,r5
  809504:	003ea606 	br	808fa0 <__umoddi3+0x70>
  809508:	01400204 	movi	r5,8
  80950c:	2805883a 	mov	r2,r5
  809510:	003ea306 	br	808fa0 <__umoddi3+0x70>
  809514:	01400204 	movi	r5,8
  809518:	2805883a 	mov	r2,r5
  80951c:	003edf06 	br	80909c <__umoddi3+0x16c>
  809520:	01400204 	movi	r5,8
  809524:	2805883a 	mov	r2,r5
  809528:	003ef206 	br	8090f4 <__umoddi3+0x1c4>
  80952c:	01400604 	movi	r5,24
  809530:	2805883a 	mov	r2,r5
  809534:	003eef06 	br	8090f4 <__umoddi3+0x1c4>
  809538:	01400604 	movi	r5,24
  80953c:	2805883a 	mov	r2,r5
  809540:	003ed606 	br	80909c <__umoddi3+0x16c>
  809544:	153fa92e 	bgeu	r2,r20,8093ec <__umoddi3+0x4bc>
  809548:	843fffc4 	addi	r16,r16,-1
  80954c:	1585883a 	add	r2,r2,r22
  809550:	003fa606 	br	8093ec <__umoddi3+0x4bc>
  809554:	157f912e 	bgeu	r2,r21,80939c <__umoddi3+0x46c>
  809558:	e73fffc4 	addi	fp,fp,-1
  80955c:	1585883a 	add	r2,r2,r22
  809560:	003f8e06 	br	80939c <__umoddi3+0x46c>
  809564:	157f542e 	bgeu	r2,r21,8092b8 <__umoddi3+0x388>
  809568:	14c5883a 	add	r2,r2,r19
  80956c:	003f5206 	br	8092b8 <__umoddi3+0x388>
  809570:	14c5883a 	add	r2,r2,r19
  809574:	003efc06 	br	809168 <__umoddi3+0x238>
  809578:	14c5883a 	add	r2,r2,r19
  80957c:	003ea606 	br	809018 <__umoddi3+0xe8>
  809580:	d8800117 	ldw	r2,4(sp)
  809584:	113fc836 	bltu	r2,r4,8094a8 <__umoddi3+0x578>
  809588:	000d883a 	mov	r6,zero
  80958c:	003fcd06 	br	8094c4 <__umoddi3+0x594>

00809590 <_fpadd_parts>:
  809590:	defff804 	addi	sp,sp,-32
  809594:	dcc00315 	stw	r19,12(sp)
  809598:	2027883a 	mov	r19,r4
  80959c:	21000017 	ldw	r4,0(r4)
  8095a0:	00c00044 	movi	r3,1
  8095a4:	dd400515 	stw	r21,20(sp)
  8095a8:	dd000415 	stw	r20,16(sp)
  8095ac:	ddc00715 	stw	r23,28(sp)
  8095b0:	dd800615 	stw	r22,24(sp)
  8095b4:	dc800215 	stw	r18,8(sp)
  8095b8:	dc400115 	stw	r17,4(sp)
  8095bc:	dc000015 	stw	r16,0(sp)
  8095c0:	282b883a 	mov	r21,r5
  8095c4:	3029883a 	mov	r20,r6
  8095c8:	1900632e 	bgeu	r3,r4,809758 <_fpadd_parts+0x1c8>
  8095cc:	28800017 	ldw	r2,0(r5)
  8095d0:	1880812e 	bgeu	r3,r2,8097d8 <_fpadd_parts+0x248>
  8095d4:	00c00104 	movi	r3,4
  8095d8:	20c0dc26 	beq	r4,r3,80994c <_fpadd_parts+0x3bc>
  8095dc:	10c07e26 	beq	r2,r3,8097d8 <_fpadd_parts+0x248>
  8095e0:	00c00084 	movi	r3,2
  8095e4:	10c06726 	beq	r2,r3,809784 <_fpadd_parts+0x1f4>
  8095e8:	20c07b26 	beq	r4,r3,8097d8 <_fpadd_parts+0x248>
  8095ec:	9dc00217 	ldw	r23,8(r19)
  8095f0:	28c00217 	ldw	r3,8(r5)
  8095f4:	9c400317 	ldw	r17,12(r19)
  8095f8:	2bc00317 	ldw	r15,12(r5)
  8095fc:	b8cdc83a 	sub	r6,r23,r3
  809600:	9c800417 	ldw	r18,16(r19)
  809604:	2c000417 	ldw	r16,16(r5)
  809608:	3009883a 	mov	r4,r6
  80960c:	30009716 	blt	r6,zero,80986c <_fpadd_parts+0x2dc>
  809610:	00800fc4 	movi	r2,63
  809614:	11806b16 	blt	r2,r6,8097c4 <_fpadd_parts+0x234>
  809618:	0100a40e 	bge	zero,r4,8098ac <_fpadd_parts+0x31c>
  80961c:	35bff804 	addi	r22,r6,-32
  809620:	b000bc16 	blt	r22,zero,809914 <_fpadd_parts+0x384>
  809624:	8596d83a 	srl	r11,r16,r22
  809628:	0019883a 	mov	r12,zero
  80962c:	0013883a 	mov	r9,zero
  809630:	01000044 	movi	r4,1
  809634:	0015883a 	mov	r10,zero
  809638:	b000be16 	blt	r22,zero,809934 <_fpadd_parts+0x3a4>
  80963c:	2590983a 	sll	r8,r4,r22
  809640:	000f883a 	mov	r7,zero
  809644:	00bfffc4 	movi	r2,-1
  809648:	3889883a 	add	r4,r7,r2
  80964c:	408b883a 	add	r5,r8,r2
  809650:	21cd803a 	cmpltu	r6,r4,r7
  809654:	314b883a 	add	r5,r6,r5
  809658:	7904703a 	and	r2,r15,r4
  80965c:	8146703a 	and	r3,r16,r5
  809660:	10c4b03a 	or	r2,r2,r3
  809664:	10000226 	beq	r2,zero,809670 <_fpadd_parts+0xe0>
  809668:	02400044 	movi	r9,1
  80966c:	0015883a 	mov	r10,zero
  809670:	5a5eb03a 	or	r15,r11,r9
  809674:	62a0b03a 	or	r16,r12,r10
  809678:	99400117 	ldw	r5,4(r19)
  80967c:	a8800117 	ldw	r2,4(r21)
  809680:	28806e26 	beq	r5,r2,80983c <_fpadd_parts+0x2ac>
  809684:	28006626 	beq	r5,zero,809820 <_fpadd_parts+0x290>
  809688:	7c45c83a 	sub	r2,r15,r17
  80968c:	7889803a 	cmpltu	r4,r15,r2
  809690:	8487c83a 	sub	r3,r16,r18
  809694:	1909c83a 	sub	r4,r3,r4
  809698:	100d883a 	mov	r6,r2
  80969c:	200f883a 	mov	r7,r4
  8096a0:	38007716 	blt	r7,zero,809880 <_fpadd_parts+0x2f0>
  8096a4:	a5c00215 	stw	r23,8(r20)
  8096a8:	a1c00415 	stw	r7,16(r20)
  8096ac:	a0000115 	stw	zero,4(r20)
  8096b0:	a1800315 	stw	r6,12(r20)
  8096b4:	a2000317 	ldw	r8,12(r20)
  8096b8:	a2400417 	ldw	r9,16(r20)
  8096bc:	00bfffc4 	movi	r2,-1
  8096c0:	408b883a 	add	r5,r8,r2
  8096c4:	2a09803a 	cmpltu	r4,r5,r8
  8096c8:	488d883a 	add	r6,r9,r2
  8096cc:	01c40034 	movhi	r7,4096
  8096d0:	39ffffc4 	addi	r7,r7,-1
  8096d4:	218d883a 	add	r6,r4,r6
  8096d8:	39801736 	bltu	r7,r6,809738 <_fpadd_parts+0x1a8>
  8096dc:	31c06526 	beq	r6,r7,809874 <_fpadd_parts+0x2e4>
  8096e0:	a3000217 	ldw	r12,8(r20)
  8096e4:	4209883a 	add	r4,r8,r8
  8096e8:	00bfffc4 	movi	r2,-1
  8096ec:	220f803a 	cmpltu	r7,r4,r8
  8096f0:	4a4b883a 	add	r5,r9,r9
  8096f4:	394f883a 	add	r7,r7,r5
  8096f8:	2095883a 	add	r10,r4,r2
  8096fc:	3897883a 	add	r11,r7,r2
  809700:	510d803a 	cmpltu	r6,r10,r4
  809704:	6099883a 	add	r12,r12,r2
  809708:	32d7883a 	add	r11,r6,r11
  80970c:	00840034 	movhi	r2,4096
  809710:	10bfffc4 	addi	r2,r2,-1
  809714:	2011883a 	mov	r8,r4
  809718:	3813883a 	mov	r9,r7
  80971c:	a1000315 	stw	r4,12(r20)
  809720:	a1c00415 	stw	r7,16(r20)
  809724:	a3000215 	stw	r12,8(r20)
  809728:	12c00336 	bltu	r2,r11,809738 <_fpadd_parts+0x1a8>
  80972c:	58bfed1e 	bne	r11,r2,8096e4 <_fpadd_parts+0x154>
  809730:	00bfff84 	movi	r2,-2
  809734:	12bfeb2e 	bgeu	r2,r10,8096e4 <_fpadd_parts+0x154>
  809738:	a2800417 	ldw	r10,16(r20)
  80973c:	008000c4 	movi	r2,3
  809740:	00c80034 	movhi	r3,8192
  809744:	18ffffc4 	addi	r3,r3,-1
  809748:	a2400317 	ldw	r9,12(r20)
  80974c:	a0800015 	stw	r2,0(r20)
  809750:	1a802336 	bltu	r3,r10,8097e0 <_fpadd_parts+0x250>
  809754:	a027883a 	mov	r19,r20
  809758:	9805883a 	mov	r2,r19
  80975c:	ddc00717 	ldw	r23,28(sp)
  809760:	dd800617 	ldw	r22,24(sp)
  809764:	dd400517 	ldw	r21,20(sp)
  809768:	dd000417 	ldw	r20,16(sp)
  80976c:	dcc00317 	ldw	r19,12(sp)
  809770:	dc800217 	ldw	r18,8(sp)
  809774:	dc400117 	ldw	r17,4(sp)
  809778:	dc000017 	ldw	r16,0(sp)
  80977c:	dec00804 	addi	sp,sp,32
  809780:	f800283a 	ret
  809784:	20fff41e 	bne	r4,r3,809758 <_fpadd_parts+0x1c8>
  809788:	31000015 	stw	r4,0(r6)
  80978c:	98800117 	ldw	r2,4(r19)
  809790:	30800115 	stw	r2,4(r6)
  809794:	98c00217 	ldw	r3,8(r19)
  809798:	30c00215 	stw	r3,8(r6)
  80979c:	98800317 	ldw	r2,12(r19)
  8097a0:	30800315 	stw	r2,12(r6)
  8097a4:	98c00417 	ldw	r3,16(r19)
  8097a8:	30c00415 	stw	r3,16(r6)
  8097ac:	98800117 	ldw	r2,4(r19)
  8097b0:	28c00117 	ldw	r3,4(r5)
  8097b4:	3027883a 	mov	r19,r6
  8097b8:	10c4703a 	and	r2,r2,r3
  8097bc:	30800115 	stw	r2,4(r6)
  8097c0:	003fe506 	br	809758 <_fpadd_parts+0x1c8>
  8097c4:	1dc02616 	blt	r3,r23,809860 <_fpadd_parts+0x2d0>
  8097c8:	0023883a 	mov	r17,zero
  8097cc:	182f883a 	mov	r23,r3
  8097d0:	0025883a 	mov	r18,zero
  8097d4:	003fa806 	br	809678 <_fpadd_parts+0xe8>
  8097d8:	a827883a 	mov	r19,r21
  8097dc:	003fde06 	br	809758 <_fpadd_parts+0x1c8>
  8097e0:	01800044 	movi	r6,1
  8097e4:	500497fa 	slli	r2,r10,31
  8097e8:	4808d07a 	srli	r4,r9,1
  8097ec:	518ad83a 	srl	r5,r10,r6
  8097f0:	a2000217 	ldw	r8,8(r20)
  8097f4:	1108b03a 	or	r4,r2,r4
  8097f8:	0007883a 	mov	r3,zero
  8097fc:	4984703a 	and	r2,r9,r6
  809800:	208cb03a 	or	r6,r4,r2
  809804:	28ceb03a 	or	r7,r5,r3
  809808:	42000044 	addi	r8,r8,1
  80980c:	a027883a 	mov	r19,r20
  809810:	a1c00415 	stw	r7,16(r20)
  809814:	a2000215 	stw	r8,8(r20)
  809818:	a1800315 	stw	r6,12(r20)
  80981c:	003fce06 	br	809758 <_fpadd_parts+0x1c8>
  809820:	8bc5c83a 	sub	r2,r17,r15
  809824:	8889803a 	cmpltu	r4,r17,r2
  809828:	9407c83a 	sub	r3,r18,r16
  80982c:	1909c83a 	sub	r4,r3,r4
  809830:	100d883a 	mov	r6,r2
  809834:	200f883a 	mov	r7,r4
  809838:	003f9906 	br	8096a0 <_fpadd_parts+0x110>
  80983c:	7c45883a 	add	r2,r15,r17
  809840:	13c9803a 	cmpltu	r4,r2,r15
  809844:	8487883a 	add	r3,r16,r18
  809848:	20c9883a 	add	r4,r4,r3
  80984c:	a1400115 	stw	r5,4(r20)
  809850:	a5c00215 	stw	r23,8(r20)
  809854:	a0800315 	stw	r2,12(r20)
  809858:	a1000415 	stw	r4,16(r20)
  80985c:	003fb606 	br	809738 <_fpadd_parts+0x1a8>
  809860:	001f883a 	mov	r15,zero
  809864:	0021883a 	mov	r16,zero
  809868:	003f8306 	br	809678 <_fpadd_parts+0xe8>
  80986c:	018dc83a 	sub	r6,zero,r6
  809870:	003f6706 	br	809610 <_fpadd_parts+0x80>
  809874:	00bfff84 	movi	r2,-2
  809878:	117faf36 	bltu	r2,r5,809738 <_fpadd_parts+0x1a8>
  80987c:	003f9806 	br	8096e0 <_fpadd_parts+0x150>
  809880:	0005883a 	mov	r2,zero
  809884:	1189c83a 	sub	r4,r2,r6
  809888:	1105803a 	cmpltu	r2,r2,r4
  80988c:	01cbc83a 	sub	r5,zero,r7
  809890:	2885c83a 	sub	r2,r5,r2
  809894:	01800044 	movi	r6,1
  809898:	a1800115 	stw	r6,4(r20)
  80989c:	a5c00215 	stw	r23,8(r20)
  8098a0:	a1000315 	stw	r4,12(r20)
  8098a4:	a0800415 	stw	r2,16(r20)
  8098a8:	003f8206 	br	8096b4 <_fpadd_parts+0x124>
  8098ac:	203f7226 	beq	r4,zero,809678 <_fpadd_parts+0xe8>
  8098b0:	35bff804 	addi	r22,r6,-32
  8098b4:	b9af883a 	add	r23,r23,r6
  8098b8:	b0003116 	blt	r22,zero,809980 <_fpadd_parts+0x3f0>
  8098bc:	959ad83a 	srl	r13,r18,r22
  8098c0:	001d883a 	mov	r14,zero
  8098c4:	000f883a 	mov	r7,zero
  8098c8:	01000044 	movi	r4,1
  8098cc:	0011883a 	mov	r8,zero
  8098d0:	b0002516 	blt	r22,zero,809968 <_fpadd_parts+0x3d8>
  8098d4:	2594983a 	sll	r10,r4,r22
  8098d8:	0013883a 	mov	r9,zero
  8098dc:	00bfffc4 	movi	r2,-1
  8098e0:	4889883a 	add	r4,r9,r2
  8098e4:	508b883a 	add	r5,r10,r2
  8098e8:	224d803a 	cmpltu	r6,r4,r9
  8098ec:	314b883a 	add	r5,r6,r5
  8098f0:	8904703a 	and	r2,r17,r4
  8098f4:	9146703a 	and	r3,r18,r5
  8098f8:	10c4b03a 	or	r2,r2,r3
  8098fc:	10000226 	beq	r2,zero,809908 <_fpadd_parts+0x378>
  809900:	01c00044 	movi	r7,1
  809904:	0011883a 	mov	r8,zero
  809908:	69e2b03a 	or	r17,r13,r7
  80990c:	7224b03a 	or	r18,r14,r8
  809910:	003f5906 	br	809678 <_fpadd_parts+0xe8>
  809914:	8407883a 	add	r3,r16,r16
  809918:	008007c4 	movi	r2,31
  80991c:	1185c83a 	sub	r2,r2,r6
  809920:	1886983a 	sll	r3,r3,r2
  809924:	7996d83a 	srl	r11,r15,r6
  809928:	8198d83a 	srl	r12,r16,r6
  80992c:	1ad6b03a 	or	r11,r3,r11
  809930:	003f3e06 	br	80962c <_fpadd_parts+0x9c>
  809934:	2006d07a 	srli	r3,r4,1
  809938:	008007c4 	movi	r2,31
  80993c:	1185c83a 	sub	r2,r2,r6
  809940:	1890d83a 	srl	r8,r3,r2
  809944:	218e983a 	sll	r7,r4,r6
  809948:	003f3e06 	br	809644 <_fpadd_parts+0xb4>
  80994c:	113f821e 	bne	r2,r4,809758 <_fpadd_parts+0x1c8>
  809950:	28c00117 	ldw	r3,4(r5)
  809954:	98800117 	ldw	r2,4(r19)
  809958:	10ff7f26 	beq	r2,r3,809758 <_fpadd_parts+0x1c8>
  80995c:	04c02074 	movhi	r19,129
  809960:	9ccb0c04 	addi	r19,r19,11312
  809964:	003f7c06 	br	809758 <_fpadd_parts+0x1c8>
  809968:	2006d07a 	srli	r3,r4,1
  80996c:	008007c4 	movi	r2,31
  809970:	1185c83a 	sub	r2,r2,r6
  809974:	1894d83a 	srl	r10,r3,r2
  809978:	2192983a 	sll	r9,r4,r6
  80997c:	003fd706 	br	8098dc <_fpadd_parts+0x34c>
  809980:	9487883a 	add	r3,r18,r18
  809984:	008007c4 	movi	r2,31
  809988:	1185c83a 	sub	r2,r2,r6
  80998c:	1886983a 	sll	r3,r3,r2
  809990:	899ad83a 	srl	r13,r17,r6
  809994:	919cd83a 	srl	r14,r18,r6
  809998:	1b5ab03a 	or	r13,r3,r13
  80999c:	003fc906 	br	8098c4 <_fpadd_parts+0x334>

008099a0 <__subdf3>:
  8099a0:	deffea04 	addi	sp,sp,-88
  8099a4:	dcc01415 	stw	r19,80(sp)
  8099a8:	dcc00404 	addi	r19,sp,16
  8099ac:	2011883a 	mov	r8,r4
  8099b0:	2813883a 	mov	r9,r5
  8099b4:	dc401315 	stw	r17,76(sp)
  8099b8:	d809883a 	mov	r4,sp
  8099bc:	980b883a 	mov	r5,r19
  8099c0:	dc400904 	addi	r17,sp,36
  8099c4:	dfc01515 	stw	ra,84(sp)
  8099c8:	da400115 	stw	r9,4(sp)
  8099cc:	d9c00315 	stw	r7,12(sp)
  8099d0:	da000015 	stw	r8,0(sp)
  8099d4:	d9800215 	stw	r6,8(sp)
  8099d8:	080acc00 	call	80acc0 <__unpack_d>
  8099dc:	d9000204 	addi	r4,sp,8
  8099e0:	880b883a 	mov	r5,r17
  8099e4:	080acc00 	call	80acc0 <__unpack_d>
  8099e8:	d8800a17 	ldw	r2,40(sp)
  8099ec:	880b883a 	mov	r5,r17
  8099f0:	9809883a 	mov	r4,r19
  8099f4:	d9800e04 	addi	r6,sp,56
  8099f8:	1080005c 	xori	r2,r2,1
  8099fc:	d8800a15 	stw	r2,40(sp)
  809a00:	08095900 	call	809590 <_fpadd_parts>
  809a04:	1009883a 	mov	r4,r2
  809a08:	080a9ac0 	call	80a9ac <__pack_d>
  809a0c:	dfc01517 	ldw	ra,84(sp)
  809a10:	dcc01417 	ldw	r19,80(sp)
  809a14:	dc401317 	ldw	r17,76(sp)
  809a18:	dec01604 	addi	sp,sp,88
  809a1c:	f800283a 	ret

00809a20 <__adddf3>:
  809a20:	deffea04 	addi	sp,sp,-88
  809a24:	dcc01415 	stw	r19,80(sp)
  809a28:	dcc00404 	addi	r19,sp,16
  809a2c:	2011883a 	mov	r8,r4
  809a30:	2813883a 	mov	r9,r5
  809a34:	dc401315 	stw	r17,76(sp)
  809a38:	d809883a 	mov	r4,sp
  809a3c:	980b883a 	mov	r5,r19
  809a40:	dc400904 	addi	r17,sp,36
  809a44:	dfc01515 	stw	ra,84(sp)
  809a48:	da400115 	stw	r9,4(sp)
  809a4c:	d9c00315 	stw	r7,12(sp)
  809a50:	da000015 	stw	r8,0(sp)
  809a54:	d9800215 	stw	r6,8(sp)
  809a58:	080acc00 	call	80acc0 <__unpack_d>
  809a5c:	d9000204 	addi	r4,sp,8
  809a60:	880b883a 	mov	r5,r17
  809a64:	080acc00 	call	80acc0 <__unpack_d>
  809a68:	d9800e04 	addi	r6,sp,56
  809a6c:	9809883a 	mov	r4,r19
  809a70:	880b883a 	mov	r5,r17
  809a74:	08095900 	call	809590 <_fpadd_parts>
  809a78:	1009883a 	mov	r4,r2
  809a7c:	080a9ac0 	call	80a9ac <__pack_d>
  809a80:	dfc01517 	ldw	ra,84(sp)
  809a84:	dcc01417 	ldw	r19,80(sp)
  809a88:	dc401317 	ldw	r17,76(sp)
  809a8c:	dec01604 	addi	sp,sp,88
  809a90:	f800283a 	ret

00809a94 <__muldf3>:
  809a94:	deffe004 	addi	sp,sp,-128
  809a98:	dc401815 	stw	r17,96(sp)
  809a9c:	dc400404 	addi	r17,sp,16
  809aa0:	2011883a 	mov	r8,r4
  809aa4:	2813883a 	mov	r9,r5
  809aa8:	dc001715 	stw	r16,92(sp)
  809aac:	d809883a 	mov	r4,sp
  809ab0:	880b883a 	mov	r5,r17
  809ab4:	dc000904 	addi	r16,sp,36
  809ab8:	dfc01f15 	stw	ra,124(sp)
  809abc:	da400115 	stw	r9,4(sp)
  809ac0:	d9c00315 	stw	r7,12(sp)
  809ac4:	da000015 	stw	r8,0(sp)
  809ac8:	d9800215 	stw	r6,8(sp)
  809acc:	ddc01e15 	stw	r23,120(sp)
  809ad0:	dd801d15 	stw	r22,116(sp)
  809ad4:	dd401c15 	stw	r21,112(sp)
  809ad8:	dd001b15 	stw	r20,108(sp)
  809adc:	dcc01a15 	stw	r19,104(sp)
  809ae0:	dc801915 	stw	r18,100(sp)
  809ae4:	080acc00 	call	80acc0 <__unpack_d>
  809ae8:	d9000204 	addi	r4,sp,8
  809aec:	800b883a 	mov	r5,r16
  809af0:	080acc00 	call	80acc0 <__unpack_d>
  809af4:	d9000417 	ldw	r4,16(sp)
  809af8:	00800044 	movi	r2,1
  809afc:	1100102e 	bgeu	r2,r4,809b40 <__muldf3+0xac>
  809b00:	d8c00917 	ldw	r3,36(sp)
  809b04:	10c0062e 	bgeu	r2,r3,809b20 <__muldf3+0x8c>
  809b08:	00800104 	movi	r2,4
  809b0c:	20800a26 	beq	r4,r2,809b38 <__muldf3+0xa4>
  809b10:	1880cc26 	beq	r3,r2,809e44 <__muldf3+0x3b0>
  809b14:	00800084 	movi	r2,2
  809b18:	20800926 	beq	r4,r2,809b40 <__muldf3+0xac>
  809b1c:	1880191e 	bne	r3,r2,809b84 <__muldf3+0xf0>
  809b20:	d8c00a17 	ldw	r3,40(sp)
  809b24:	d8800517 	ldw	r2,20(sp)
  809b28:	8009883a 	mov	r4,r16
  809b2c:	10c4c03a 	cmpne	r2,r2,r3
  809b30:	d8800a15 	stw	r2,40(sp)
  809b34:	00000706 	br	809b54 <__muldf3+0xc0>
  809b38:	00800084 	movi	r2,2
  809b3c:	1880c326 	beq	r3,r2,809e4c <__muldf3+0x3b8>
  809b40:	d8800517 	ldw	r2,20(sp)
  809b44:	d8c00a17 	ldw	r3,40(sp)
  809b48:	8809883a 	mov	r4,r17
  809b4c:	10c4c03a 	cmpne	r2,r2,r3
  809b50:	d8800515 	stw	r2,20(sp)
  809b54:	080a9ac0 	call	80a9ac <__pack_d>
  809b58:	dfc01f17 	ldw	ra,124(sp)
  809b5c:	ddc01e17 	ldw	r23,120(sp)
  809b60:	dd801d17 	ldw	r22,116(sp)
  809b64:	dd401c17 	ldw	r21,112(sp)
  809b68:	dd001b17 	ldw	r20,108(sp)
  809b6c:	dcc01a17 	ldw	r19,104(sp)
  809b70:	dc801917 	ldw	r18,100(sp)
  809b74:	dc401817 	ldw	r17,96(sp)
  809b78:	dc001717 	ldw	r16,92(sp)
  809b7c:	dec02004 	addi	sp,sp,128
  809b80:	f800283a 	ret
  809b84:	dd800717 	ldw	r22,28(sp)
  809b88:	dc800c17 	ldw	r18,48(sp)
  809b8c:	002b883a 	mov	r21,zero
  809b90:	0023883a 	mov	r17,zero
  809b94:	a80b883a 	mov	r5,r21
  809b98:	b00d883a 	mov	r6,r22
  809b9c:	880f883a 	mov	r7,r17
  809ba0:	ddc00817 	ldw	r23,32(sp)
  809ba4:	dcc00d17 	ldw	r19,52(sp)
  809ba8:	9009883a 	mov	r4,r18
  809bac:	080a8080 	call	80a808 <__muldi3>
  809bb0:	001b883a 	mov	r13,zero
  809bb4:	680f883a 	mov	r7,r13
  809bb8:	b009883a 	mov	r4,r22
  809bbc:	000b883a 	mov	r5,zero
  809bc0:	980d883a 	mov	r6,r19
  809bc4:	b82d883a 	mov	r22,r23
  809bc8:	002f883a 	mov	r23,zero
  809bcc:	db401615 	stw	r13,88(sp)
  809bd0:	d8801315 	stw	r2,76(sp)
  809bd4:	d8c01415 	stw	r3,80(sp)
  809bd8:	dcc01515 	stw	r19,84(sp)
  809bdc:	080a8080 	call	80a808 <__muldi3>
  809be0:	b00d883a 	mov	r6,r22
  809be4:	000b883a 	mov	r5,zero
  809be8:	9009883a 	mov	r4,r18
  809bec:	b80f883a 	mov	r7,r23
  809bf0:	1021883a 	mov	r16,r2
  809bf4:	1823883a 	mov	r17,r3
  809bf8:	080a8080 	call	80a808 <__muldi3>
  809bfc:	8085883a 	add	r2,r16,r2
  809c00:	140d803a 	cmpltu	r6,r2,r16
  809c04:	88c7883a 	add	r3,r17,r3
  809c08:	30cd883a 	add	r6,r6,r3
  809c0c:	1029883a 	mov	r20,r2
  809c10:	302b883a 	mov	r21,r6
  809c14:	da801317 	ldw	r10,76(sp)
  809c18:	dac01417 	ldw	r11,80(sp)
  809c1c:	db001517 	ldw	r12,84(sp)
  809c20:	db401617 	ldw	r13,88(sp)
  809c24:	3440612e 	bgeu	r6,r17,809dac <__muldf3+0x318>
  809c28:	0009883a 	mov	r4,zero
  809c2c:	5105883a 	add	r2,r10,r4
  809c30:	128d803a 	cmpltu	r6,r2,r10
  809c34:	5d07883a 	add	r3,r11,r20
  809c38:	30cd883a 	add	r6,r6,r3
  809c3c:	0021883a 	mov	r16,zero
  809c40:	04400044 	movi	r17,1
  809c44:	1025883a 	mov	r18,r2
  809c48:	3027883a 	mov	r19,r6
  809c4c:	32c06236 	bltu	r6,r11,809dd8 <__muldf3+0x344>
  809c50:	59807a26 	beq	r11,r6,809e3c <__muldf3+0x3a8>
  809c54:	680b883a 	mov	r5,r13
  809c58:	b80f883a 	mov	r7,r23
  809c5c:	6009883a 	mov	r4,r12
  809c60:	b00d883a 	mov	r6,r22
  809c64:	080a8080 	call	80a808 <__muldi3>
  809c68:	1009883a 	mov	r4,r2
  809c6c:	000f883a 	mov	r7,zero
  809c70:	1545883a 	add	r2,r2,r21
  809c74:	1111803a 	cmpltu	r8,r2,r4
  809c78:	19c7883a 	add	r3,r3,r7
  809c7c:	40c7883a 	add	r3,r8,r3
  809c80:	88cb883a 	add	r5,r17,r3
  809c84:	d8c00617 	ldw	r3,24(sp)
  809c88:	8089883a 	add	r4,r16,r2
  809c8c:	d8800b17 	ldw	r2,44(sp)
  809c90:	18c00104 	addi	r3,r3,4
  809c94:	240d803a 	cmpltu	r6,r4,r16
  809c98:	10c7883a 	add	r3,r2,r3
  809c9c:	2013883a 	mov	r9,r4
  809ca0:	d8800a17 	ldw	r2,40(sp)
  809ca4:	d9000517 	ldw	r4,20(sp)
  809ca8:	314d883a 	add	r6,r6,r5
  809cac:	3015883a 	mov	r10,r6
  809cb0:	2088c03a 	cmpne	r4,r4,r2
  809cb4:	00880034 	movhi	r2,8192
  809cb8:	10bfffc4 	addi	r2,r2,-1
  809cbc:	d9000f15 	stw	r4,60(sp)
  809cc0:	d8c01015 	stw	r3,64(sp)
  809cc4:	1180162e 	bgeu	r2,r6,809d20 <__muldf3+0x28c>
  809cc8:	1811883a 	mov	r8,r3
  809ccc:	101f883a 	mov	r15,r2
  809cd0:	980497fa 	slli	r2,r19,31
  809cd4:	9016d07a 	srli	r11,r18,1
  809cd8:	500697fa 	slli	r3,r10,31
  809cdc:	480cd07a 	srli	r6,r9,1
  809ce0:	500ed07a 	srli	r7,r10,1
  809ce4:	12d6b03a 	or	r11,r2,r11
  809ce8:	00800044 	movi	r2,1
  809cec:	198cb03a 	or	r6,r3,r6
  809cf0:	4888703a 	and	r4,r9,r2
  809cf4:	9818d07a 	srli	r12,r19,1
  809cf8:	001b883a 	mov	r13,zero
  809cfc:	03a00034 	movhi	r14,32768
  809d00:	3013883a 	mov	r9,r6
  809d04:	3815883a 	mov	r10,r7
  809d08:	4091883a 	add	r8,r8,r2
  809d0c:	20000226 	beq	r4,zero,809d18 <__muldf3+0x284>
  809d10:	5b64b03a 	or	r18,r11,r13
  809d14:	63a6b03a 	or	r19,r12,r14
  809d18:	7abfed36 	bltu	r15,r10,809cd0 <__muldf3+0x23c>
  809d1c:	da001015 	stw	r8,64(sp)
  809d20:	00840034 	movhi	r2,4096
  809d24:	10bfffc4 	addi	r2,r2,-1
  809d28:	12801436 	bltu	r2,r10,809d7c <__muldf3+0x2e8>
  809d2c:	da001017 	ldw	r8,64(sp)
  809d30:	101f883a 	mov	r15,r2
  809d34:	4a45883a 	add	r2,r9,r9
  809d38:	124d803a 	cmpltu	r6,r2,r9
  809d3c:	5287883a 	add	r3,r10,r10
  809d40:	9497883a 	add	r11,r18,r18
  809d44:	5c8f803a 	cmpltu	r7,r11,r18
  809d48:	9cd9883a 	add	r12,r19,r19
  809d4c:	01000044 	movi	r4,1
  809d50:	30cd883a 	add	r6,r6,r3
  809d54:	3b0f883a 	add	r7,r7,r12
  809d58:	423fffc4 	addi	r8,r8,-1
  809d5c:	1013883a 	mov	r9,r2
  809d60:	3015883a 	mov	r10,r6
  809d64:	111ab03a 	or	r13,r2,r4
  809d68:	98003016 	blt	r19,zero,809e2c <__muldf3+0x398>
  809d6c:	5825883a 	mov	r18,r11
  809d70:	3827883a 	mov	r19,r7
  809d74:	7abfef2e 	bgeu	r15,r10,809d34 <__muldf3+0x2a0>
  809d78:	da001015 	stw	r8,64(sp)
  809d7c:	00803fc4 	movi	r2,255
  809d80:	488e703a 	and	r7,r9,r2
  809d84:	00802004 	movi	r2,128
  809d88:	0007883a 	mov	r3,zero
  809d8c:	0011883a 	mov	r8,zero
  809d90:	38801826 	beq	r7,r2,809df4 <__muldf3+0x360>
  809d94:	008000c4 	movi	r2,3
  809d98:	d9000e04 	addi	r4,sp,56
  809d9c:	da801215 	stw	r10,72(sp)
  809da0:	d8800e15 	stw	r2,56(sp)
  809da4:	da401115 	stw	r9,68(sp)
  809da8:	003f6a06 	br	809b54 <__muldf3+0xc0>
  809dac:	89802126 	beq	r17,r6,809e34 <__muldf3+0x3a0>
  809db0:	0009883a 	mov	r4,zero
  809db4:	5105883a 	add	r2,r10,r4
  809db8:	128d803a 	cmpltu	r6,r2,r10
  809dbc:	5d07883a 	add	r3,r11,r20
  809dc0:	30cd883a 	add	r6,r6,r3
  809dc4:	0021883a 	mov	r16,zero
  809dc8:	0023883a 	mov	r17,zero
  809dcc:	1025883a 	mov	r18,r2
  809dd0:	3027883a 	mov	r19,r6
  809dd4:	32ff9e2e 	bgeu	r6,r11,809c50 <__muldf3+0x1bc>
  809dd8:	00800044 	movi	r2,1
  809ddc:	8089883a 	add	r4,r16,r2
  809de0:	240d803a 	cmpltu	r6,r4,r16
  809de4:	344d883a 	add	r6,r6,r17
  809de8:	2021883a 	mov	r16,r4
  809dec:	3023883a 	mov	r17,r6
  809df0:	003f9806 	br	809c54 <__muldf3+0x1c0>
  809df4:	403fe71e 	bne	r8,zero,809d94 <__muldf3+0x300>
  809df8:	01004004 	movi	r4,256
  809dfc:	4904703a 	and	r2,r9,r4
  809e00:	10c4b03a 	or	r2,r2,r3
  809e04:	103fe31e 	bne	r2,zero,809d94 <__muldf3+0x300>
  809e08:	94c4b03a 	or	r2,r18,r19
  809e0c:	103fe126 	beq	r2,zero,809d94 <__muldf3+0x300>
  809e10:	49c5883a 	add	r2,r9,r7
  809e14:	1251803a 	cmpltu	r8,r2,r9
  809e18:	4291883a 	add	r8,r8,r10
  809e1c:	013fc004 	movi	r4,-256
  809e20:	1112703a 	and	r9,r2,r4
  809e24:	4015883a 	mov	r10,r8
  809e28:	003fda06 	br	809d94 <__muldf3+0x300>
  809e2c:	6813883a 	mov	r9,r13
  809e30:	003fce06 	br	809d6c <__muldf3+0x2d8>
  809e34:	143f7c36 	bltu	r2,r16,809c28 <__muldf3+0x194>
  809e38:	003fdd06 	br	809db0 <__muldf3+0x31c>
  809e3c:	12bf852e 	bgeu	r2,r10,809c54 <__muldf3+0x1c0>
  809e40:	003fe506 	br	809dd8 <__muldf3+0x344>
  809e44:	00800084 	movi	r2,2
  809e48:	20bf351e 	bne	r4,r2,809b20 <__muldf3+0x8c>
  809e4c:	01002074 	movhi	r4,129
  809e50:	210b0c04 	addi	r4,r4,11312
  809e54:	003f3f06 	br	809b54 <__muldf3+0xc0>

00809e58 <__divdf3>:
  809e58:	deffed04 	addi	sp,sp,-76
  809e5c:	dcc01115 	stw	r19,68(sp)
  809e60:	dcc00404 	addi	r19,sp,16
  809e64:	2011883a 	mov	r8,r4
  809e68:	2813883a 	mov	r9,r5
  809e6c:	dc000e15 	stw	r16,56(sp)
  809e70:	d809883a 	mov	r4,sp
  809e74:	980b883a 	mov	r5,r19
  809e78:	dc000904 	addi	r16,sp,36
  809e7c:	dfc01215 	stw	ra,72(sp)
  809e80:	da400115 	stw	r9,4(sp)
  809e84:	d9c00315 	stw	r7,12(sp)
  809e88:	da000015 	stw	r8,0(sp)
  809e8c:	d9800215 	stw	r6,8(sp)
  809e90:	dc801015 	stw	r18,64(sp)
  809e94:	dc400f15 	stw	r17,60(sp)
  809e98:	080acc00 	call	80acc0 <__unpack_d>
  809e9c:	d9000204 	addi	r4,sp,8
  809ea0:	800b883a 	mov	r5,r16
  809ea4:	080acc00 	call	80acc0 <__unpack_d>
  809ea8:	d9000417 	ldw	r4,16(sp)
  809eac:	00800044 	movi	r2,1
  809eb0:	11000b2e 	bgeu	r2,r4,809ee0 <__divdf3+0x88>
  809eb4:	d9400917 	ldw	r5,36(sp)
  809eb8:	1140762e 	bgeu	r2,r5,80a094 <__divdf3+0x23c>
  809ebc:	d8800517 	ldw	r2,20(sp)
  809ec0:	d8c00a17 	ldw	r3,40(sp)
  809ec4:	01800104 	movi	r6,4
  809ec8:	10c4f03a 	xor	r2,r2,r3
  809ecc:	d8800515 	stw	r2,20(sp)
  809ed0:	21800226 	beq	r4,r6,809edc <__divdf3+0x84>
  809ed4:	00800084 	movi	r2,2
  809ed8:	2080141e 	bne	r4,r2,809f2c <__divdf3+0xd4>
  809edc:	29000926 	beq	r5,r4,809f04 <__divdf3+0xac>
  809ee0:	9809883a 	mov	r4,r19
  809ee4:	080a9ac0 	call	80a9ac <__pack_d>
  809ee8:	dfc01217 	ldw	ra,72(sp)
  809eec:	dcc01117 	ldw	r19,68(sp)
  809ef0:	dc801017 	ldw	r18,64(sp)
  809ef4:	dc400f17 	ldw	r17,60(sp)
  809ef8:	dc000e17 	ldw	r16,56(sp)
  809efc:	dec01304 	addi	sp,sp,76
  809f00:	f800283a 	ret
  809f04:	01002074 	movhi	r4,129
  809f08:	210b0c04 	addi	r4,r4,11312
  809f0c:	080a9ac0 	call	80a9ac <__pack_d>
  809f10:	dfc01217 	ldw	ra,72(sp)
  809f14:	dcc01117 	ldw	r19,68(sp)
  809f18:	dc801017 	ldw	r18,64(sp)
  809f1c:	dc400f17 	ldw	r17,60(sp)
  809f20:	dc000e17 	ldw	r16,56(sp)
  809f24:	dec01304 	addi	sp,sp,76
  809f28:	f800283a 	ret
  809f2c:	29805b26 	beq	r5,r6,80a09c <__divdf3+0x244>
  809f30:	28802d26 	beq	r5,r2,809fe8 <__divdf3+0x190>
  809f34:	d8c00617 	ldw	r3,24(sp)
  809f38:	d8800b17 	ldw	r2,44(sp)
  809f3c:	d9c00817 	ldw	r7,32(sp)
  809f40:	dc400d17 	ldw	r17,52(sp)
  809f44:	188bc83a 	sub	r5,r3,r2
  809f48:	d9800717 	ldw	r6,28(sp)
  809f4c:	dc000c17 	ldw	r16,48(sp)
  809f50:	d9400615 	stw	r5,24(sp)
  809f54:	3c403836 	bltu	r7,r17,80a038 <__divdf3+0x1e0>
  809f58:	89c03626 	beq	r17,r7,80a034 <__divdf3+0x1dc>
  809f5c:	0015883a 	mov	r10,zero
  809f60:	001d883a 	mov	r14,zero
  809f64:	02c40034 	movhi	r11,4096
  809f68:	001f883a 	mov	r15,zero
  809f6c:	003f883a 	mov	ra,zero
  809f70:	04800f44 	movi	r18,61
  809f74:	00000f06 	br	809fb4 <__divdf3+0x15c>
  809f78:	601d883a 	mov	r14,r12
  809f7c:	681f883a 	mov	r15,r13
  809f80:	400d883a 	mov	r6,r8
  809f84:	100f883a 	mov	r7,r2
  809f88:	3191883a 	add	r8,r6,r6
  809f8c:	5808d07a 	srli	r4,r11,1
  809f90:	4185803a 	cmpltu	r2,r8,r6
  809f94:	39d3883a 	add	r9,r7,r7
  809f98:	28c6b03a 	or	r3,r5,r3
  809f9c:	1245883a 	add	r2,r2,r9
  809fa0:	1815883a 	mov	r10,r3
  809fa4:	2017883a 	mov	r11,r4
  809fa8:	400d883a 	mov	r6,r8
  809fac:	100f883a 	mov	r7,r2
  809fb0:	fc801726 	beq	ra,r18,80a010 <__divdf3+0x1b8>
  809fb4:	580a97fa 	slli	r5,r11,31
  809fb8:	5006d07a 	srli	r3,r10,1
  809fbc:	ffc00044 	addi	ra,ra,1
  809fc0:	3c7ff136 	bltu	r7,r17,809f88 <__divdf3+0x130>
  809fc4:	3411c83a 	sub	r8,r6,r16
  809fc8:	3205803a 	cmpltu	r2,r6,r8
  809fcc:	3c53c83a 	sub	r9,r7,r17
  809fd0:	7298b03a 	or	r12,r14,r10
  809fd4:	7adab03a 	or	r13,r15,r11
  809fd8:	4885c83a 	sub	r2,r9,r2
  809fdc:	89ffe61e 	bne	r17,r7,809f78 <__divdf3+0x120>
  809fe0:	343fe936 	bltu	r6,r16,809f88 <__divdf3+0x130>
  809fe4:	003fe406 	br	809f78 <__divdf3+0x120>
  809fe8:	9809883a 	mov	r4,r19
  809fec:	d9800415 	stw	r6,16(sp)
  809ff0:	080a9ac0 	call	80a9ac <__pack_d>
  809ff4:	dfc01217 	ldw	ra,72(sp)
  809ff8:	dcc01117 	ldw	r19,68(sp)
  809ffc:	dc801017 	ldw	r18,64(sp)
  80a000:	dc400f17 	ldw	r17,60(sp)
  80a004:	dc000e17 	ldw	r16,56(sp)
  80a008:	dec01304 	addi	sp,sp,76
  80a00c:	f800283a 	ret
  80a010:	00803fc4 	movi	r2,255
  80a014:	7090703a 	and	r8,r14,r2
  80a018:	00802004 	movi	r2,128
  80a01c:	0007883a 	mov	r3,zero
  80a020:	0013883a 	mov	r9,zero
  80a024:	40800d26 	beq	r8,r2,80a05c <__divdf3+0x204>
  80a028:	dbc00815 	stw	r15,32(sp)
  80a02c:	db800715 	stw	r14,28(sp)
  80a030:	003fab06 	br	809ee0 <__divdf3+0x88>
  80a034:	343fc92e 	bgeu	r6,r16,809f5c <__divdf3+0x104>
  80a038:	3185883a 	add	r2,r6,r6
  80a03c:	1189803a 	cmpltu	r4,r2,r6
  80a040:	39c7883a 	add	r3,r7,r7
  80a044:	20c9883a 	add	r4,r4,r3
  80a048:	297fffc4 	addi	r5,r5,-1
  80a04c:	100d883a 	mov	r6,r2
  80a050:	200f883a 	mov	r7,r4
  80a054:	d9400615 	stw	r5,24(sp)
  80a058:	003fc006 	br	809f5c <__divdf3+0x104>
  80a05c:	483ff21e 	bne	r9,zero,80a028 <__divdf3+0x1d0>
  80a060:	01004004 	movi	r4,256
  80a064:	7104703a 	and	r2,r14,r4
  80a068:	10c4b03a 	or	r2,r2,r3
  80a06c:	103fee1e 	bne	r2,zero,80a028 <__divdf3+0x1d0>
  80a070:	31c4b03a 	or	r2,r6,r7
  80a074:	103fec26 	beq	r2,zero,80a028 <__divdf3+0x1d0>
  80a078:	7205883a 	add	r2,r14,r8
  80a07c:	1391803a 	cmpltu	r8,r2,r14
  80a080:	43d1883a 	add	r8,r8,r15
  80a084:	013fc004 	movi	r4,-256
  80a088:	111c703a 	and	r14,r2,r4
  80a08c:	401f883a 	mov	r15,r8
  80a090:	003fe506 	br	80a028 <__divdf3+0x1d0>
  80a094:	8009883a 	mov	r4,r16
  80a098:	003f9206 	br	809ee4 <__divdf3+0x8c>
  80a09c:	9809883a 	mov	r4,r19
  80a0a0:	d8000715 	stw	zero,28(sp)
  80a0a4:	d8000815 	stw	zero,32(sp)
  80a0a8:	d8000615 	stw	zero,24(sp)
  80a0ac:	003f8d06 	br	809ee4 <__divdf3+0x8c>

0080a0b0 <__eqdf2>:
  80a0b0:	deffef04 	addi	sp,sp,-68
  80a0b4:	dc400f15 	stw	r17,60(sp)
  80a0b8:	dc400404 	addi	r17,sp,16
  80a0bc:	2005883a 	mov	r2,r4
  80a0c0:	2807883a 	mov	r3,r5
  80a0c4:	dc000e15 	stw	r16,56(sp)
  80a0c8:	d809883a 	mov	r4,sp
  80a0cc:	880b883a 	mov	r5,r17
  80a0d0:	dc000904 	addi	r16,sp,36
  80a0d4:	d8c00115 	stw	r3,4(sp)
  80a0d8:	d8800015 	stw	r2,0(sp)
  80a0dc:	d9800215 	stw	r6,8(sp)
  80a0e0:	dfc01015 	stw	ra,64(sp)
  80a0e4:	d9c00315 	stw	r7,12(sp)
  80a0e8:	080acc00 	call	80acc0 <__unpack_d>
  80a0ec:	d9000204 	addi	r4,sp,8
  80a0f0:	800b883a 	mov	r5,r16
  80a0f4:	080acc00 	call	80acc0 <__unpack_d>
  80a0f8:	d8800417 	ldw	r2,16(sp)
  80a0fc:	00c00044 	movi	r3,1
  80a100:	180d883a 	mov	r6,r3
  80a104:	1880062e 	bgeu	r3,r2,80a120 <__eqdf2+0x70>
  80a108:	d8800917 	ldw	r2,36(sp)
  80a10c:	8809883a 	mov	r4,r17
  80a110:	800b883a 	mov	r5,r16
  80a114:	1880022e 	bgeu	r3,r2,80a120 <__eqdf2+0x70>
  80a118:	080adf80 	call	80adf8 <__fpcmp_parts_d>
  80a11c:	100d883a 	mov	r6,r2
  80a120:	3005883a 	mov	r2,r6
  80a124:	dfc01017 	ldw	ra,64(sp)
  80a128:	dc400f17 	ldw	r17,60(sp)
  80a12c:	dc000e17 	ldw	r16,56(sp)
  80a130:	dec01104 	addi	sp,sp,68
  80a134:	f800283a 	ret

0080a138 <__nedf2>:
  80a138:	deffef04 	addi	sp,sp,-68
  80a13c:	dc400f15 	stw	r17,60(sp)
  80a140:	dc400404 	addi	r17,sp,16
  80a144:	2005883a 	mov	r2,r4
  80a148:	2807883a 	mov	r3,r5
  80a14c:	dc000e15 	stw	r16,56(sp)
  80a150:	d809883a 	mov	r4,sp
  80a154:	880b883a 	mov	r5,r17
  80a158:	dc000904 	addi	r16,sp,36
  80a15c:	d8c00115 	stw	r3,4(sp)
  80a160:	d8800015 	stw	r2,0(sp)
  80a164:	d9800215 	stw	r6,8(sp)
  80a168:	dfc01015 	stw	ra,64(sp)
  80a16c:	d9c00315 	stw	r7,12(sp)
  80a170:	080acc00 	call	80acc0 <__unpack_d>
  80a174:	d9000204 	addi	r4,sp,8
  80a178:	800b883a 	mov	r5,r16
  80a17c:	080acc00 	call	80acc0 <__unpack_d>
  80a180:	d8800417 	ldw	r2,16(sp)
  80a184:	00c00044 	movi	r3,1
  80a188:	180d883a 	mov	r6,r3
  80a18c:	1880062e 	bgeu	r3,r2,80a1a8 <__nedf2+0x70>
  80a190:	d8800917 	ldw	r2,36(sp)
  80a194:	8809883a 	mov	r4,r17
  80a198:	800b883a 	mov	r5,r16
  80a19c:	1880022e 	bgeu	r3,r2,80a1a8 <__nedf2+0x70>
  80a1a0:	080adf80 	call	80adf8 <__fpcmp_parts_d>
  80a1a4:	100d883a 	mov	r6,r2
  80a1a8:	3005883a 	mov	r2,r6
  80a1ac:	dfc01017 	ldw	ra,64(sp)
  80a1b0:	dc400f17 	ldw	r17,60(sp)
  80a1b4:	dc000e17 	ldw	r16,56(sp)
  80a1b8:	dec01104 	addi	sp,sp,68
  80a1bc:	f800283a 	ret

0080a1c0 <__gtdf2>:
  80a1c0:	deffef04 	addi	sp,sp,-68
  80a1c4:	dc400f15 	stw	r17,60(sp)
  80a1c8:	dc400404 	addi	r17,sp,16
  80a1cc:	2005883a 	mov	r2,r4
  80a1d0:	2807883a 	mov	r3,r5
  80a1d4:	dc000e15 	stw	r16,56(sp)
  80a1d8:	d809883a 	mov	r4,sp
  80a1dc:	880b883a 	mov	r5,r17
  80a1e0:	dc000904 	addi	r16,sp,36
  80a1e4:	d8c00115 	stw	r3,4(sp)
  80a1e8:	d8800015 	stw	r2,0(sp)
  80a1ec:	d9800215 	stw	r6,8(sp)
  80a1f0:	dfc01015 	stw	ra,64(sp)
  80a1f4:	d9c00315 	stw	r7,12(sp)
  80a1f8:	080acc00 	call	80acc0 <__unpack_d>
  80a1fc:	d9000204 	addi	r4,sp,8
  80a200:	800b883a 	mov	r5,r16
  80a204:	080acc00 	call	80acc0 <__unpack_d>
  80a208:	d8800417 	ldw	r2,16(sp)
  80a20c:	00c00044 	movi	r3,1
  80a210:	01bfffc4 	movi	r6,-1
  80a214:	1880062e 	bgeu	r3,r2,80a230 <__gtdf2+0x70>
  80a218:	d8800917 	ldw	r2,36(sp)
  80a21c:	8809883a 	mov	r4,r17
  80a220:	800b883a 	mov	r5,r16
  80a224:	1880022e 	bgeu	r3,r2,80a230 <__gtdf2+0x70>
  80a228:	080adf80 	call	80adf8 <__fpcmp_parts_d>
  80a22c:	100d883a 	mov	r6,r2
  80a230:	3005883a 	mov	r2,r6
  80a234:	dfc01017 	ldw	ra,64(sp)
  80a238:	dc400f17 	ldw	r17,60(sp)
  80a23c:	dc000e17 	ldw	r16,56(sp)
  80a240:	dec01104 	addi	sp,sp,68
  80a244:	f800283a 	ret

0080a248 <__gedf2>:
  80a248:	deffef04 	addi	sp,sp,-68
  80a24c:	dc400f15 	stw	r17,60(sp)
  80a250:	dc400404 	addi	r17,sp,16
  80a254:	2005883a 	mov	r2,r4
  80a258:	2807883a 	mov	r3,r5
  80a25c:	dc000e15 	stw	r16,56(sp)
  80a260:	d809883a 	mov	r4,sp
  80a264:	880b883a 	mov	r5,r17
  80a268:	dc000904 	addi	r16,sp,36
  80a26c:	d8c00115 	stw	r3,4(sp)
  80a270:	d8800015 	stw	r2,0(sp)
  80a274:	d9800215 	stw	r6,8(sp)
  80a278:	dfc01015 	stw	ra,64(sp)
  80a27c:	d9c00315 	stw	r7,12(sp)
  80a280:	080acc00 	call	80acc0 <__unpack_d>
  80a284:	d9000204 	addi	r4,sp,8
  80a288:	800b883a 	mov	r5,r16
  80a28c:	080acc00 	call	80acc0 <__unpack_d>
  80a290:	d8800417 	ldw	r2,16(sp)
  80a294:	00c00044 	movi	r3,1
  80a298:	01bfffc4 	movi	r6,-1
  80a29c:	1880062e 	bgeu	r3,r2,80a2b8 <__gedf2+0x70>
  80a2a0:	d8800917 	ldw	r2,36(sp)
  80a2a4:	8809883a 	mov	r4,r17
  80a2a8:	800b883a 	mov	r5,r16
  80a2ac:	1880022e 	bgeu	r3,r2,80a2b8 <__gedf2+0x70>
  80a2b0:	080adf80 	call	80adf8 <__fpcmp_parts_d>
  80a2b4:	100d883a 	mov	r6,r2
  80a2b8:	3005883a 	mov	r2,r6
  80a2bc:	dfc01017 	ldw	ra,64(sp)
  80a2c0:	dc400f17 	ldw	r17,60(sp)
  80a2c4:	dc000e17 	ldw	r16,56(sp)
  80a2c8:	dec01104 	addi	sp,sp,68
  80a2cc:	f800283a 	ret

0080a2d0 <__ltdf2>:
  80a2d0:	deffef04 	addi	sp,sp,-68
  80a2d4:	dc400f15 	stw	r17,60(sp)
  80a2d8:	dc400404 	addi	r17,sp,16
  80a2dc:	2005883a 	mov	r2,r4
  80a2e0:	2807883a 	mov	r3,r5
  80a2e4:	dc000e15 	stw	r16,56(sp)
  80a2e8:	d809883a 	mov	r4,sp
  80a2ec:	880b883a 	mov	r5,r17
  80a2f0:	dc000904 	addi	r16,sp,36
  80a2f4:	d8c00115 	stw	r3,4(sp)
  80a2f8:	d8800015 	stw	r2,0(sp)
  80a2fc:	d9800215 	stw	r6,8(sp)
  80a300:	dfc01015 	stw	ra,64(sp)
  80a304:	d9c00315 	stw	r7,12(sp)
  80a308:	080acc00 	call	80acc0 <__unpack_d>
  80a30c:	d9000204 	addi	r4,sp,8
  80a310:	800b883a 	mov	r5,r16
  80a314:	080acc00 	call	80acc0 <__unpack_d>
  80a318:	d8800417 	ldw	r2,16(sp)
  80a31c:	00c00044 	movi	r3,1
  80a320:	180d883a 	mov	r6,r3
  80a324:	1880062e 	bgeu	r3,r2,80a340 <__ltdf2+0x70>
  80a328:	d8800917 	ldw	r2,36(sp)
  80a32c:	8809883a 	mov	r4,r17
  80a330:	800b883a 	mov	r5,r16
  80a334:	1880022e 	bgeu	r3,r2,80a340 <__ltdf2+0x70>
  80a338:	080adf80 	call	80adf8 <__fpcmp_parts_d>
  80a33c:	100d883a 	mov	r6,r2
  80a340:	3005883a 	mov	r2,r6
  80a344:	dfc01017 	ldw	ra,64(sp)
  80a348:	dc400f17 	ldw	r17,60(sp)
  80a34c:	dc000e17 	ldw	r16,56(sp)
  80a350:	dec01104 	addi	sp,sp,68
  80a354:	f800283a 	ret

0080a358 <__floatsidf>:
  80a358:	2006d7fa 	srli	r3,r4,31
  80a35c:	defff604 	addi	sp,sp,-40
  80a360:	008000c4 	movi	r2,3
  80a364:	dfc00915 	stw	ra,36(sp)
  80a368:	dcc00815 	stw	r19,32(sp)
  80a36c:	dc800715 	stw	r18,28(sp)
  80a370:	dc400615 	stw	r17,24(sp)
  80a374:	dc000515 	stw	r16,20(sp)
  80a378:	d8800015 	stw	r2,0(sp)
  80a37c:	d8c00115 	stw	r3,4(sp)
  80a380:	20000f1e 	bne	r4,zero,80a3c0 <__floatsidf+0x68>
  80a384:	00800084 	movi	r2,2
  80a388:	d8800015 	stw	r2,0(sp)
  80a38c:	d809883a 	mov	r4,sp
  80a390:	080a9ac0 	call	80a9ac <__pack_d>
  80a394:	1009883a 	mov	r4,r2
  80a398:	180b883a 	mov	r5,r3
  80a39c:	2005883a 	mov	r2,r4
  80a3a0:	2807883a 	mov	r3,r5
  80a3a4:	dfc00917 	ldw	ra,36(sp)
  80a3a8:	dcc00817 	ldw	r19,32(sp)
  80a3ac:	dc800717 	ldw	r18,28(sp)
  80a3b0:	dc400617 	ldw	r17,24(sp)
  80a3b4:	dc000517 	ldw	r16,20(sp)
  80a3b8:	dec00a04 	addi	sp,sp,40
  80a3bc:	f800283a 	ret
  80a3c0:	00800f04 	movi	r2,60
  80a3c4:	1807003a 	cmpeq	r3,r3,zero
  80a3c8:	d8800215 	stw	r2,8(sp)
  80a3cc:	18001126 	beq	r3,zero,80a414 <__floatsidf+0xbc>
  80a3d0:	0027883a 	mov	r19,zero
  80a3d4:	2025883a 	mov	r18,r4
  80a3d8:	d9000315 	stw	r4,12(sp)
  80a3dc:	dcc00415 	stw	r19,16(sp)
  80a3e0:	080a92c0 	call	80a92c <__clzsi2>
  80a3e4:	11000744 	addi	r4,r2,29
  80a3e8:	013fe80e 	bge	zero,r4,80a38c <__floatsidf+0x34>
  80a3ec:	10bfff44 	addi	r2,r2,-3
  80a3f0:	10000c16 	blt	r2,zero,80a424 <__floatsidf+0xcc>
  80a3f4:	90a2983a 	sll	r17,r18,r2
  80a3f8:	0021883a 	mov	r16,zero
  80a3fc:	d8800217 	ldw	r2,8(sp)
  80a400:	dc400415 	stw	r17,16(sp)
  80a404:	dc000315 	stw	r16,12(sp)
  80a408:	1105c83a 	sub	r2,r2,r4
  80a40c:	d8800215 	stw	r2,8(sp)
  80a410:	003fde06 	br	80a38c <__floatsidf+0x34>
  80a414:	00a00034 	movhi	r2,32768
  80a418:	20800a26 	beq	r4,r2,80a444 <__floatsidf+0xec>
  80a41c:	0109c83a 	sub	r4,zero,r4
  80a420:	003feb06 	br	80a3d0 <__floatsidf+0x78>
  80a424:	9006d07a 	srli	r3,r18,1
  80a428:	008007c4 	movi	r2,31
  80a42c:	1105c83a 	sub	r2,r2,r4
  80a430:	1886d83a 	srl	r3,r3,r2
  80a434:	9922983a 	sll	r17,r19,r4
  80a438:	9120983a 	sll	r16,r18,r4
  80a43c:	1c62b03a 	or	r17,r3,r17
  80a440:	003fee06 	br	80a3fc <__floatsidf+0xa4>
  80a444:	0009883a 	mov	r4,zero
  80a448:	01707834 	movhi	r5,49632
  80a44c:	003fd306 	br	80a39c <__floatsidf+0x44>

0080a450 <__fixdfsi>:
  80a450:	defff804 	addi	sp,sp,-32
  80a454:	2005883a 	mov	r2,r4
  80a458:	2807883a 	mov	r3,r5
  80a45c:	d809883a 	mov	r4,sp
  80a460:	d9400204 	addi	r5,sp,8
  80a464:	d8c00115 	stw	r3,4(sp)
  80a468:	d8800015 	stw	r2,0(sp)
  80a46c:	dfc00715 	stw	ra,28(sp)
  80a470:	080acc00 	call	80acc0 <__unpack_d>
  80a474:	d8c00217 	ldw	r3,8(sp)
  80a478:	00800084 	movi	r2,2
  80a47c:	1880051e 	bne	r3,r2,80a494 <__fixdfsi+0x44>
  80a480:	0007883a 	mov	r3,zero
  80a484:	1805883a 	mov	r2,r3
  80a488:	dfc00717 	ldw	ra,28(sp)
  80a48c:	dec00804 	addi	sp,sp,32
  80a490:	f800283a 	ret
  80a494:	00800044 	movi	r2,1
  80a498:	10fff92e 	bgeu	r2,r3,80a480 <__fixdfsi+0x30>
  80a49c:	00800104 	movi	r2,4
  80a4a0:	18800426 	beq	r3,r2,80a4b4 <__fixdfsi+0x64>
  80a4a4:	d8c00417 	ldw	r3,16(sp)
  80a4a8:	183ff516 	blt	r3,zero,80a480 <__fixdfsi+0x30>
  80a4ac:	00800784 	movi	r2,30
  80a4b0:	10c0080e 	bge	r2,r3,80a4d4 <__fixdfsi+0x84>
  80a4b4:	d8800317 	ldw	r2,12(sp)
  80a4b8:	1000121e 	bne	r2,zero,80a504 <__fixdfsi+0xb4>
  80a4bc:	00e00034 	movhi	r3,32768
  80a4c0:	18ffffc4 	addi	r3,r3,-1
  80a4c4:	1805883a 	mov	r2,r3
  80a4c8:	dfc00717 	ldw	ra,28(sp)
  80a4cc:	dec00804 	addi	sp,sp,32
  80a4d0:	f800283a 	ret
  80a4d4:	00800f04 	movi	r2,60
  80a4d8:	10d1c83a 	sub	r8,r2,r3
  80a4dc:	40bff804 	addi	r2,r8,-32
  80a4e0:	d9800517 	ldw	r6,20(sp)
  80a4e4:	d9c00617 	ldw	r7,24(sp)
  80a4e8:	10000816 	blt	r2,zero,80a50c <__fixdfsi+0xbc>
  80a4ec:	3888d83a 	srl	r4,r7,r2
  80a4f0:	d8800317 	ldw	r2,12(sp)
  80a4f4:	2007883a 	mov	r3,r4
  80a4f8:	103fe226 	beq	r2,zero,80a484 <__fixdfsi+0x34>
  80a4fc:	0107c83a 	sub	r3,zero,r4
  80a500:	003fe006 	br	80a484 <__fixdfsi+0x34>
  80a504:	00e00034 	movhi	r3,32768
  80a508:	003fde06 	br	80a484 <__fixdfsi+0x34>
  80a50c:	39c7883a 	add	r3,r7,r7
  80a510:	008007c4 	movi	r2,31
  80a514:	1205c83a 	sub	r2,r2,r8
  80a518:	1886983a 	sll	r3,r3,r2
  80a51c:	3208d83a 	srl	r4,r6,r8
  80a520:	1908b03a 	or	r4,r3,r4
  80a524:	003ff206 	br	80a4f0 <__fixdfsi+0xa0>

0080a528 <__floatunsidf>:
  80a528:	defff204 	addi	sp,sp,-56
  80a52c:	dfc00d15 	stw	ra,52(sp)
  80a530:	ddc00c15 	stw	r23,48(sp)
  80a534:	dd800b15 	stw	r22,44(sp)
  80a538:	dd400a15 	stw	r21,40(sp)
  80a53c:	dd000915 	stw	r20,36(sp)
  80a540:	dcc00815 	stw	r19,32(sp)
  80a544:	dc800715 	stw	r18,28(sp)
  80a548:	dc400615 	stw	r17,24(sp)
  80a54c:	dc000515 	stw	r16,20(sp)
  80a550:	d8000115 	stw	zero,4(sp)
  80a554:	20000f1e 	bne	r4,zero,80a594 <__floatunsidf+0x6c>
  80a558:	00800084 	movi	r2,2
  80a55c:	d8800015 	stw	r2,0(sp)
  80a560:	d809883a 	mov	r4,sp
  80a564:	080a9ac0 	call	80a9ac <__pack_d>
  80a568:	dfc00d17 	ldw	ra,52(sp)
  80a56c:	ddc00c17 	ldw	r23,48(sp)
  80a570:	dd800b17 	ldw	r22,44(sp)
  80a574:	dd400a17 	ldw	r21,40(sp)
  80a578:	dd000917 	ldw	r20,36(sp)
  80a57c:	dcc00817 	ldw	r19,32(sp)
  80a580:	dc800717 	ldw	r18,28(sp)
  80a584:	dc400617 	ldw	r17,24(sp)
  80a588:	dc000517 	ldw	r16,20(sp)
  80a58c:	dec00e04 	addi	sp,sp,56
  80a590:	f800283a 	ret
  80a594:	008000c4 	movi	r2,3
  80a598:	00c00f04 	movi	r3,60
  80a59c:	002f883a 	mov	r23,zero
  80a5a0:	202d883a 	mov	r22,r4
  80a5a4:	d8800015 	stw	r2,0(sp)
  80a5a8:	d8c00215 	stw	r3,8(sp)
  80a5ac:	d9000315 	stw	r4,12(sp)
  80a5b0:	ddc00415 	stw	r23,16(sp)
  80a5b4:	080a92c0 	call	80a92c <__clzsi2>
  80a5b8:	12400744 	addi	r9,r2,29
  80a5bc:	48000b16 	blt	r9,zero,80a5ec <__floatunsidf+0xc4>
  80a5c0:	483fe726 	beq	r9,zero,80a560 <__floatunsidf+0x38>
  80a5c4:	10bfff44 	addi	r2,r2,-3
  80a5c8:	10002e16 	blt	r2,zero,80a684 <__floatunsidf+0x15c>
  80a5cc:	b0a2983a 	sll	r17,r22,r2
  80a5d0:	0021883a 	mov	r16,zero
  80a5d4:	d8800217 	ldw	r2,8(sp)
  80a5d8:	dc400415 	stw	r17,16(sp)
  80a5dc:	dc000315 	stw	r16,12(sp)
  80a5e0:	1245c83a 	sub	r2,r2,r9
  80a5e4:	d8800215 	stw	r2,8(sp)
  80a5e8:	003fdd06 	br	80a560 <__floatunsidf+0x38>
  80a5ec:	0255c83a 	sub	r10,zero,r9
  80a5f0:	51bff804 	addi	r6,r10,-32
  80a5f4:	30001b16 	blt	r6,zero,80a664 <__floatunsidf+0x13c>
  80a5f8:	b9a8d83a 	srl	r20,r23,r6
  80a5fc:	002b883a 	mov	r21,zero
  80a600:	000f883a 	mov	r7,zero
  80a604:	01000044 	movi	r4,1
  80a608:	0011883a 	mov	r8,zero
  80a60c:	30002516 	blt	r6,zero,80a6a4 <__floatunsidf+0x17c>
  80a610:	21a6983a 	sll	r19,r4,r6
  80a614:	0025883a 	mov	r18,zero
  80a618:	00bfffc4 	movi	r2,-1
  80a61c:	9089883a 	add	r4,r18,r2
  80a620:	988b883a 	add	r5,r19,r2
  80a624:	248d803a 	cmpltu	r6,r4,r18
  80a628:	314b883a 	add	r5,r6,r5
  80a62c:	b104703a 	and	r2,r22,r4
  80a630:	b946703a 	and	r3,r23,r5
  80a634:	10c4b03a 	or	r2,r2,r3
  80a638:	10000226 	beq	r2,zero,80a644 <__floatunsidf+0x11c>
  80a63c:	01c00044 	movi	r7,1
  80a640:	0011883a 	mov	r8,zero
  80a644:	d9000217 	ldw	r4,8(sp)
  80a648:	a1c4b03a 	or	r2,r20,r7
  80a64c:	aa06b03a 	or	r3,r21,r8
  80a650:	2249c83a 	sub	r4,r4,r9
  80a654:	d8c00415 	stw	r3,16(sp)
  80a658:	d9000215 	stw	r4,8(sp)
  80a65c:	d8800315 	stw	r2,12(sp)
  80a660:	003fbf06 	br	80a560 <__floatunsidf+0x38>
  80a664:	bdc7883a 	add	r3,r23,r23
  80a668:	008007c4 	movi	r2,31
  80a66c:	1285c83a 	sub	r2,r2,r10
  80a670:	1886983a 	sll	r3,r3,r2
  80a674:	b2a8d83a 	srl	r20,r22,r10
  80a678:	baaad83a 	srl	r21,r23,r10
  80a67c:	1d28b03a 	or	r20,r3,r20
  80a680:	003fdf06 	br	80a600 <__floatunsidf+0xd8>
  80a684:	b006d07a 	srli	r3,r22,1
  80a688:	008007c4 	movi	r2,31
  80a68c:	1245c83a 	sub	r2,r2,r9
  80a690:	1886d83a 	srl	r3,r3,r2
  80a694:	ba62983a 	sll	r17,r23,r9
  80a698:	b260983a 	sll	r16,r22,r9
  80a69c:	1c62b03a 	or	r17,r3,r17
  80a6a0:	003fcc06 	br	80a5d4 <__floatunsidf+0xac>
  80a6a4:	2006d07a 	srli	r3,r4,1
  80a6a8:	008007c4 	movi	r2,31
  80a6ac:	1285c83a 	sub	r2,r2,r10
  80a6b0:	18a6d83a 	srl	r19,r3,r2
  80a6b4:	22a4983a 	sll	r18,r4,r10
  80a6b8:	003fd706 	br	80a618 <__floatunsidf+0xf0>

0080a6bc <udivmodsi4>:
  80a6bc:	29001b2e 	bgeu	r5,r4,80a72c <udivmodsi4+0x70>
  80a6c0:	28001a16 	blt	r5,zero,80a72c <udivmodsi4+0x70>
  80a6c4:	00800044 	movi	r2,1
  80a6c8:	0007883a 	mov	r3,zero
  80a6cc:	01c007c4 	movi	r7,31
  80a6d0:	00000306 	br	80a6e0 <udivmodsi4+0x24>
  80a6d4:	19c01326 	beq	r3,r7,80a724 <udivmodsi4+0x68>
  80a6d8:	18c00044 	addi	r3,r3,1
  80a6dc:	28000416 	blt	r5,zero,80a6f0 <udivmodsi4+0x34>
  80a6e0:	294b883a 	add	r5,r5,r5
  80a6e4:	1085883a 	add	r2,r2,r2
  80a6e8:	293ffa36 	bltu	r5,r4,80a6d4 <udivmodsi4+0x18>
  80a6ec:	10000d26 	beq	r2,zero,80a724 <udivmodsi4+0x68>
  80a6f0:	0007883a 	mov	r3,zero
  80a6f4:	21400236 	bltu	r4,r5,80a700 <udivmodsi4+0x44>
  80a6f8:	2149c83a 	sub	r4,r4,r5
  80a6fc:	1886b03a 	or	r3,r3,r2
  80a700:	1004d07a 	srli	r2,r2,1
  80a704:	280ad07a 	srli	r5,r5,1
  80a708:	103ffa1e 	bne	r2,zero,80a6f4 <udivmodsi4+0x38>
  80a70c:	30000226 	beq	r6,zero,80a718 <udivmodsi4+0x5c>
  80a710:	2005883a 	mov	r2,r4
  80a714:	f800283a 	ret
  80a718:	1809883a 	mov	r4,r3
  80a71c:	2005883a 	mov	r2,r4
  80a720:	f800283a 	ret
  80a724:	0007883a 	mov	r3,zero
  80a728:	003ff806 	br	80a70c <udivmodsi4+0x50>
  80a72c:	00800044 	movi	r2,1
  80a730:	0007883a 	mov	r3,zero
  80a734:	003fef06 	br	80a6f4 <udivmodsi4+0x38>

0080a738 <__divsi3>:
  80a738:	defffe04 	addi	sp,sp,-8
  80a73c:	dc000015 	stw	r16,0(sp)
  80a740:	dfc00115 	stw	ra,4(sp)
  80a744:	0021883a 	mov	r16,zero
  80a748:	20000c16 	blt	r4,zero,80a77c <__divsi3+0x44>
  80a74c:	000d883a 	mov	r6,zero
  80a750:	28000e16 	blt	r5,zero,80a78c <__divsi3+0x54>
  80a754:	080a6bc0 	call	80a6bc <udivmodsi4>
  80a758:	1007883a 	mov	r3,r2
  80a75c:	8005003a 	cmpeq	r2,r16,zero
  80a760:	1000011e 	bne	r2,zero,80a768 <__divsi3+0x30>
  80a764:	00c7c83a 	sub	r3,zero,r3
  80a768:	1805883a 	mov	r2,r3
  80a76c:	dfc00117 	ldw	ra,4(sp)
  80a770:	dc000017 	ldw	r16,0(sp)
  80a774:	dec00204 	addi	sp,sp,8
  80a778:	f800283a 	ret
  80a77c:	0109c83a 	sub	r4,zero,r4
  80a780:	04000044 	movi	r16,1
  80a784:	000d883a 	mov	r6,zero
  80a788:	283ff20e 	bge	r5,zero,80a754 <__divsi3+0x1c>
  80a78c:	014bc83a 	sub	r5,zero,r5
  80a790:	8021003a 	cmpeq	r16,r16,zero
  80a794:	003fef06 	br	80a754 <__divsi3+0x1c>

0080a798 <__modsi3>:
  80a798:	deffff04 	addi	sp,sp,-4
  80a79c:	dfc00015 	stw	ra,0(sp)
  80a7a0:	01800044 	movi	r6,1
  80a7a4:	2807883a 	mov	r3,r5
  80a7a8:	20000416 	blt	r4,zero,80a7bc <__modsi3+0x24>
  80a7ac:	28000c16 	blt	r5,zero,80a7e0 <__modsi3+0x48>
  80a7b0:	dfc00017 	ldw	ra,0(sp)
  80a7b4:	dec00104 	addi	sp,sp,4
  80a7b8:	080a6bc1 	jmpi	80a6bc <udivmodsi4>
  80a7bc:	0109c83a 	sub	r4,zero,r4
  80a7c0:	28000b16 	blt	r5,zero,80a7f0 <__modsi3+0x58>
  80a7c4:	180b883a 	mov	r5,r3
  80a7c8:	01800044 	movi	r6,1
  80a7cc:	080a6bc0 	call	80a6bc <udivmodsi4>
  80a7d0:	0085c83a 	sub	r2,zero,r2
  80a7d4:	dfc00017 	ldw	ra,0(sp)
  80a7d8:	dec00104 	addi	sp,sp,4
  80a7dc:	f800283a 	ret
  80a7e0:	014bc83a 	sub	r5,zero,r5
  80a7e4:	dfc00017 	ldw	ra,0(sp)
  80a7e8:	dec00104 	addi	sp,sp,4
  80a7ec:	080a6bc1 	jmpi	80a6bc <udivmodsi4>
  80a7f0:	0147c83a 	sub	r3,zero,r5
  80a7f4:	003ff306 	br	80a7c4 <__modsi3+0x2c>

0080a7f8 <__udivsi3>:
  80a7f8:	000d883a 	mov	r6,zero
  80a7fc:	080a6bc1 	jmpi	80a6bc <udivmodsi4>

0080a800 <__umodsi3>:
  80a800:	01800044 	movi	r6,1
  80a804:	080a6bc1 	jmpi	80a6bc <udivmodsi4>

0080a808 <__muldi3>:
  80a808:	defff204 	addi	sp,sp,-56
  80a80c:	df000c15 	stw	fp,48(sp)
  80a810:	3038d43a 	srli	fp,r6,16
  80a814:	dd000815 	stw	r20,32(sp)
  80a818:	dc400515 	stw	r17,20(sp)
  80a81c:	2028d43a 	srli	r20,r4,16
  80a820:	247fffcc 	andi	r17,r4,65535
  80a824:	dc000415 	stw	r16,16(sp)
  80a828:	343fffcc 	andi	r16,r6,65535
  80a82c:	dcc00715 	stw	r19,28(sp)
  80a830:	d9000015 	stw	r4,0(sp)
  80a834:	2827883a 	mov	r19,r5
  80a838:	8809883a 	mov	r4,r17
  80a83c:	d9400115 	stw	r5,4(sp)
  80a840:	800b883a 	mov	r5,r16
  80a844:	d9800215 	stw	r6,8(sp)
  80a848:	dfc00d15 	stw	ra,52(sp)
  80a84c:	d9c00315 	stw	r7,12(sp)
  80a850:	dd800a15 	stw	r22,40(sp)
  80a854:	dd400915 	stw	r21,36(sp)
  80a858:	302d883a 	mov	r22,r6
  80a85c:	ddc00b15 	stw	r23,44(sp)
  80a860:	dc800615 	stw	r18,24(sp)
  80a864:	08014540 	call	801454 <__mulsi3>
  80a868:	8809883a 	mov	r4,r17
  80a86c:	e00b883a 	mov	r5,fp
  80a870:	102b883a 	mov	r21,r2
  80a874:	08014540 	call	801454 <__mulsi3>
  80a878:	800b883a 	mov	r5,r16
  80a87c:	a009883a 	mov	r4,r20
  80a880:	1023883a 	mov	r17,r2
  80a884:	08014540 	call	801454 <__mulsi3>
  80a888:	a009883a 	mov	r4,r20
  80a88c:	e00b883a 	mov	r5,fp
  80a890:	1021883a 	mov	r16,r2
  80a894:	08014540 	call	801454 <__mulsi3>
  80a898:	a8ffffcc 	andi	r3,r21,65535
  80a89c:	a82ad43a 	srli	r21,r21,16
  80a8a0:	8c23883a 	add	r17,r17,r16
  80a8a4:	1011883a 	mov	r8,r2
  80a8a8:	ac6b883a 	add	r21,r21,r17
  80a8ac:	a804943a 	slli	r2,r21,16
  80a8b0:	b009883a 	mov	r4,r22
  80a8b4:	980b883a 	mov	r5,r19
  80a8b8:	10c7883a 	add	r3,r2,r3
  80a8bc:	a812d43a 	srli	r9,r21,16
  80a8c0:	180d883a 	mov	r6,r3
  80a8c4:	ac00022e 	bgeu	r21,r16,80a8d0 <__muldi3+0xc8>
  80a8c8:	00800074 	movhi	r2,1
  80a8cc:	4091883a 	add	r8,r8,r2
  80a8d0:	4267883a 	add	r19,r8,r9
  80a8d4:	302d883a 	mov	r22,r6
  80a8d8:	08014540 	call	801454 <__mulsi3>
  80a8dc:	d9400317 	ldw	r5,12(sp)
  80a8e0:	d9000017 	ldw	r4,0(sp)
  80a8e4:	1023883a 	mov	r17,r2
  80a8e8:	08014540 	call	801454 <__mulsi3>
  80a8ec:	14cb883a 	add	r5,r2,r19
  80a8f0:	894b883a 	add	r5,r17,r5
  80a8f4:	b005883a 	mov	r2,r22
  80a8f8:	2807883a 	mov	r3,r5
  80a8fc:	dfc00d17 	ldw	ra,52(sp)
  80a900:	df000c17 	ldw	fp,48(sp)
  80a904:	ddc00b17 	ldw	r23,44(sp)
  80a908:	dd800a17 	ldw	r22,40(sp)
  80a90c:	dd400917 	ldw	r21,36(sp)
  80a910:	dd000817 	ldw	r20,32(sp)
  80a914:	dcc00717 	ldw	r19,28(sp)
  80a918:	dc800617 	ldw	r18,24(sp)
  80a91c:	dc400517 	ldw	r17,20(sp)
  80a920:	dc000417 	ldw	r16,16(sp)
  80a924:	dec00e04 	addi	sp,sp,56
  80a928:	f800283a 	ret

0080a92c <__clzsi2>:
  80a92c:	00bfffd4 	movui	r2,65535
  80a930:	11000e36 	bltu	r2,r4,80a96c <__clzsi2+0x40>
  80a934:	00803fc4 	movi	r2,255
  80a938:	01400204 	movi	r5,8
  80a93c:	0007883a 	mov	r3,zero
  80a940:	11001036 	bltu	r2,r4,80a984 <__clzsi2+0x58>
  80a944:	000b883a 	mov	r5,zero
  80a948:	20c6d83a 	srl	r3,r4,r3
  80a94c:	00802074 	movhi	r2,129
  80a950:	108b1104 	addi	r2,r2,11332
  80a954:	1887883a 	add	r3,r3,r2
  80a958:	18800003 	ldbu	r2,0(r3)
  80a95c:	00c00804 	movi	r3,32
  80a960:	2885883a 	add	r2,r5,r2
  80a964:	1885c83a 	sub	r2,r3,r2
  80a968:	f800283a 	ret
  80a96c:	01400404 	movi	r5,16
  80a970:	00804034 	movhi	r2,256
  80a974:	10bfffc4 	addi	r2,r2,-1
  80a978:	2807883a 	mov	r3,r5
  80a97c:	113ff22e 	bgeu	r2,r4,80a948 <__clzsi2+0x1c>
  80a980:	01400604 	movi	r5,24
  80a984:	2807883a 	mov	r3,r5
  80a988:	20c6d83a 	srl	r3,r4,r3
  80a98c:	00802074 	movhi	r2,129
  80a990:	108b1104 	addi	r2,r2,11332
  80a994:	1887883a 	add	r3,r3,r2
  80a998:	18800003 	ldbu	r2,0(r3)
  80a99c:	00c00804 	movi	r3,32
  80a9a0:	2885883a 	add	r2,r5,r2
  80a9a4:	1885c83a 	sub	r2,r3,r2
  80a9a8:	f800283a 	ret

0080a9ac <__pack_d>:
  80a9ac:	20c00017 	ldw	r3,0(r4)
  80a9b0:	defffd04 	addi	sp,sp,-12
  80a9b4:	dc000015 	stw	r16,0(sp)
  80a9b8:	dc800215 	stw	r18,8(sp)
  80a9bc:	dc400115 	stw	r17,4(sp)
  80a9c0:	00800044 	movi	r2,1
  80a9c4:	22000317 	ldw	r8,12(r4)
  80a9c8:	001f883a 	mov	r15,zero
  80a9cc:	22400417 	ldw	r9,16(r4)
  80a9d0:	24000117 	ldw	r16,4(r4)
  80a9d4:	10c0552e 	bgeu	r2,r3,80ab2c <__pack_d+0x180>
  80a9d8:	00800104 	movi	r2,4
  80a9dc:	18804f26 	beq	r3,r2,80ab1c <__pack_d+0x170>
  80a9e0:	00800084 	movi	r2,2
  80a9e4:	18800226 	beq	r3,r2,80a9f0 <__pack_d+0x44>
  80a9e8:	4244b03a 	or	r2,r8,r9
  80a9ec:	10001a1e 	bne	r2,zero,80aa58 <__pack_d+0xac>
  80a9f0:	000d883a 	mov	r6,zero
  80a9f4:	000f883a 	mov	r7,zero
  80a9f8:	0011883a 	mov	r8,zero
  80a9fc:	00800434 	movhi	r2,16
  80aa00:	10bfffc4 	addi	r2,r2,-1
  80aa04:	301d883a 	mov	r14,r6
  80aa08:	3884703a 	and	r2,r7,r2
  80aa0c:	400a953a 	slli	r5,r8,20
  80aa10:	79bffc2c 	andhi	r6,r15,65520
  80aa14:	308cb03a 	or	r6,r6,r2
  80aa18:	00e00434 	movhi	r3,32784
  80aa1c:	18ffffc4 	addi	r3,r3,-1
  80aa20:	800497fa 	slli	r2,r16,31
  80aa24:	30c6703a 	and	r3,r6,r3
  80aa28:	1946b03a 	or	r3,r3,r5
  80aa2c:	01600034 	movhi	r5,32768
  80aa30:	297fffc4 	addi	r5,r5,-1
  80aa34:	194a703a 	and	r5,r3,r5
  80aa38:	288ab03a 	or	r5,r5,r2
  80aa3c:	2807883a 	mov	r3,r5
  80aa40:	7005883a 	mov	r2,r14
  80aa44:	dc800217 	ldw	r18,8(sp)
  80aa48:	dc400117 	ldw	r17,4(sp)
  80aa4c:	dc000017 	ldw	r16,0(sp)
  80aa50:	dec00304 	addi	sp,sp,12
  80aa54:	f800283a 	ret
  80aa58:	21000217 	ldw	r4,8(r4)
  80aa5c:	00bf0084 	movi	r2,-1022
  80aa60:	20803f16 	blt	r4,r2,80ab60 <__pack_d+0x1b4>
  80aa64:	0080ffc4 	movi	r2,1023
  80aa68:	11002c16 	blt	r2,r4,80ab1c <__pack_d+0x170>
  80aa6c:	00803fc4 	movi	r2,255
  80aa70:	408c703a 	and	r6,r8,r2
  80aa74:	00802004 	movi	r2,128
  80aa78:	0007883a 	mov	r3,zero
  80aa7c:	000f883a 	mov	r7,zero
  80aa80:	2280ffc4 	addi	r10,r4,1023
  80aa84:	30801e26 	beq	r6,r2,80ab00 <__pack_d+0x154>
  80aa88:	00801fc4 	movi	r2,127
  80aa8c:	4089883a 	add	r4,r8,r2
  80aa90:	220d803a 	cmpltu	r6,r4,r8
  80aa94:	324d883a 	add	r6,r6,r9
  80aa98:	2011883a 	mov	r8,r4
  80aa9c:	3013883a 	mov	r9,r6
  80aaa0:	00880034 	movhi	r2,8192
  80aaa4:	10bfffc4 	addi	r2,r2,-1
  80aaa8:	12400d36 	bltu	r2,r9,80aae0 <__pack_d+0x134>
  80aaac:	4804963a 	slli	r2,r9,24
  80aab0:	400cd23a 	srli	r6,r8,8
  80aab4:	480ed23a 	srli	r7,r9,8
  80aab8:	013fffc4 	movi	r4,-1
  80aabc:	118cb03a 	or	r6,r2,r6
  80aac0:	01400434 	movhi	r5,16
  80aac4:	297fffc4 	addi	r5,r5,-1
  80aac8:	3104703a 	and	r2,r6,r4
  80aacc:	3946703a 	and	r3,r7,r5
  80aad0:	5201ffcc 	andi	r8,r10,2047
  80aad4:	100d883a 	mov	r6,r2
  80aad8:	180f883a 	mov	r7,r3
  80aadc:	003fc706 	br	80a9fc <__pack_d+0x50>
  80aae0:	480897fa 	slli	r4,r9,31
  80aae4:	4004d07a 	srli	r2,r8,1
  80aae8:	4806d07a 	srli	r3,r9,1
  80aaec:	52800044 	addi	r10,r10,1
  80aaf0:	2084b03a 	or	r2,r4,r2
  80aaf4:	1011883a 	mov	r8,r2
  80aaf8:	1813883a 	mov	r9,r3
  80aafc:	003feb06 	br	80aaac <__pack_d+0x100>
  80ab00:	383fe11e 	bne	r7,zero,80aa88 <__pack_d+0xdc>
  80ab04:	01004004 	movi	r4,256
  80ab08:	4104703a 	and	r2,r8,r4
  80ab0c:	10c4b03a 	or	r2,r2,r3
  80ab10:	103fe326 	beq	r2,zero,80aaa0 <__pack_d+0xf4>
  80ab14:	3005883a 	mov	r2,r6
  80ab18:	003fdc06 	br	80aa8c <__pack_d+0xe0>
  80ab1c:	000d883a 	mov	r6,zero
  80ab20:	000f883a 	mov	r7,zero
  80ab24:	0201ffc4 	movi	r8,2047
  80ab28:	003fb406 	br	80a9fc <__pack_d+0x50>
  80ab2c:	0005883a 	mov	r2,zero
  80ab30:	00c00234 	movhi	r3,8
  80ab34:	408cb03a 	or	r6,r8,r2
  80ab38:	48ceb03a 	or	r7,r9,r3
  80ab3c:	013fffc4 	movi	r4,-1
  80ab40:	01400434 	movhi	r5,16
  80ab44:	297fffc4 	addi	r5,r5,-1
  80ab48:	3104703a 	and	r2,r6,r4
  80ab4c:	3946703a 	and	r3,r7,r5
  80ab50:	100d883a 	mov	r6,r2
  80ab54:	180f883a 	mov	r7,r3
  80ab58:	0201ffc4 	movi	r8,2047
  80ab5c:	003fa706 	br	80a9fc <__pack_d+0x50>
  80ab60:	1109c83a 	sub	r4,r2,r4
  80ab64:	00800e04 	movi	r2,56
  80ab68:	11004316 	blt	r2,r4,80ac78 <__pack_d+0x2cc>
  80ab6c:	21fff804 	addi	r7,r4,-32
  80ab70:	38004516 	blt	r7,zero,80ac88 <__pack_d+0x2dc>
  80ab74:	49d8d83a 	srl	r12,r9,r7
  80ab78:	001b883a 	mov	r13,zero
  80ab7c:	0023883a 	mov	r17,zero
  80ab80:	01400044 	movi	r5,1
  80ab84:	0025883a 	mov	r18,zero
  80ab88:	38004716 	blt	r7,zero,80aca8 <__pack_d+0x2fc>
  80ab8c:	29d6983a 	sll	r11,r5,r7
  80ab90:	0015883a 	mov	r10,zero
  80ab94:	00bfffc4 	movi	r2,-1
  80ab98:	5089883a 	add	r4,r10,r2
  80ab9c:	588b883a 	add	r5,r11,r2
  80aba0:	228d803a 	cmpltu	r6,r4,r10
  80aba4:	314b883a 	add	r5,r6,r5
  80aba8:	4104703a 	and	r2,r8,r4
  80abac:	4946703a 	and	r3,r9,r5
  80abb0:	10c4b03a 	or	r2,r2,r3
  80abb4:	10000226 	beq	r2,zero,80abc0 <__pack_d+0x214>
  80abb8:	04400044 	movi	r17,1
  80abbc:	0025883a 	mov	r18,zero
  80abc0:	00803fc4 	movi	r2,255
  80abc4:	644eb03a 	or	r7,r12,r17
  80abc8:	3892703a 	and	r9,r7,r2
  80abcc:	00802004 	movi	r2,128
  80abd0:	6c90b03a 	or	r8,r13,r18
  80abd4:	0015883a 	mov	r10,zero
  80abd8:	48801626 	beq	r9,r2,80ac34 <__pack_d+0x288>
  80abdc:	01001fc4 	movi	r4,127
  80abe0:	3905883a 	add	r2,r7,r4
  80abe4:	11cd803a 	cmpltu	r6,r2,r7
  80abe8:	320d883a 	add	r6,r6,r8
  80abec:	100f883a 	mov	r7,r2
  80abf0:	00840034 	movhi	r2,4096
  80abf4:	10bfffc4 	addi	r2,r2,-1
  80abf8:	3011883a 	mov	r8,r6
  80abfc:	0007883a 	mov	r3,zero
  80ac00:	11801b36 	bltu	r2,r6,80ac70 <__pack_d+0x2c4>
  80ac04:	4004963a 	slli	r2,r8,24
  80ac08:	3808d23a 	srli	r4,r7,8
  80ac0c:	400ad23a 	srli	r5,r8,8
  80ac10:	1813883a 	mov	r9,r3
  80ac14:	1108b03a 	or	r4,r2,r4
  80ac18:	00bfffc4 	movi	r2,-1
  80ac1c:	00c00434 	movhi	r3,16
  80ac20:	18ffffc4 	addi	r3,r3,-1
  80ac24:	208c703a 	and	r6,r4,r2
  80ac28:	28ce703a 	and	r7,r5,r3
  80ac2c:	4a01ffcc 	andi	r8,r9,2047
  80ac30:	003f7206 	br	80a9fc <__pack_d+0x50>
  80ac34:	503fe91e 	bne	r10,zero,80abdc <__pack_d+0x230>
  80ac38:	01004004 	movi	r4,256
  80ac3c:	3904703a 	and	r2,r7,r4
  80ac40:	0007883a 	mov	r3,zero
  80ac44:	10c4b03a 	or	r2,r2,r3
  80ac48:	10000626 	beq	r2,zero,80ac64 <__pack_d+0x2b8>
  80ac4c:	3a45883a 	add	r2,r7,r9
  80ac50:	11cd803a 	cmpltu	r6,r2,r7
  80ac54:	320d883a 	add	r6,r6,r8
  80ac58:	100f883a 	mov	r7,r2
  80ac5c:	3011883a 	mov	r8,r6
  80ac60:	0007883a 	mov	r3,zero
  80ac64:	00840034 	movhi	r2,4096
  80ac68:	10bfffc4 	addi	r2,r2,-1
  80ac6c:	123fe52e 	bgeu	r2,r8,80ac04 <__pack_d+0x258>
  80ac70:	00c00044 	movi	r3,1
  80ac74:	003fe306 	br	80ac04 <__pack_d+0x258>
  80ac78:	0009883a 	mov	r4,zero
  80ac7c:	0013883a 	mov	r9,zero
  80ac80:	000b883a 	mov	r5,zero
  80ac84:	003fe406 	br	80ac18 <__pack_d+0x26c>
  80ac88:	4a47883a 	add	r3,r9,r9
  80ac8c:	008007c4 	movi	r2,31
  80ac90:	1105c83a 	sub	r2,r2,r4
  80ac94:	1886983a 	sll	r3,r3,r2
  80ac98:	4118d83a 	srl	r12,r8,r4
  80ac9c:	491ad83a 	srl	r13,r9,r4
  80aca0:	1b18b03a 	or	r12,r3,r12
  80aca4:	003fb506 	br	80ab7c <__pack_d+0x1d0>
  80aca8:	2806d07a 	srli	r3,r5,1
  80acac:	008007c4 	movi	r2,31
  80acb0:	1105c83a 	sub	r2,r2,r4
  80acb4:	1896d83a 	srl	r11,r3,r2
  80acb8:	2914983a 	sll	r10,r5,r4
  80acbc:	003fb506 	br	80ab94 <__pack_d+0x1e8>

0080acc0 <__unpack_d>:
  80acc0:	20c00117 	ldw	r3,4(r4)
  80acc4:	22400017 	ldw	r9,0(r4)
  80acc8:	00800434 	movhi	r2,16
  80accc:	10bfffc4 	addi	r2,r2,-1
  80acd0:	1808d53a 	srli	r4,r3,20
  80acd4:	180cd7fa 	srli	r6,r3,31
  80acd8:	1894703a 	and	r10,r3,r2
  80acdc:	2201ffcc 	andi	r8,r4,2047
  80ace0:	281b883a 	mov	r13,r5
  80ace4:	4817883a 	mov	r11,r9
  80ace8:	29800115 	stw	r6,4(r5)
  80acec:	5019883a 	mov	r12,r10
  80acf0:	40001e1e 	bne	r8,zero,80ad6c <__unpack_d+0xac>
  80acf4:	4a84b03a 	or	r2,r9,r10
  80acf8:	10001926 	beq	r2,zero,80ad60 <__unpack_d+0xa0>
  80acfc:	4804d63a 	srli	r2,r9,24
  80ad00:	500c923a 	slli	r6,r10,8
  80ad04:	013f0084 	movi	r4,-1022
  80ad08:	00c40034 	movhi	r3,4096
  80ad0c:	18ffffc4 	addi	r3,r3,-1
  80ad10:	118cb03a 	or	r6,r2,r6
  80ad14:	008000c4 	movi	r2,3
  80ad18:	480a923a 	slli	r5,r9,8
  80ad1c:	68800015 	stw	r2,0(r13)
  80ad20:	69000215 	stw	r4,8(r13)
  80ad24:	19800b36 	bltu	r3,r6,80ad54 <__unpack_d+0x94>
  80ad28:	200f883a 	mov	r7,r4
  80ad2c:	1811883a 	mov	r8,r3
  80ad30:	2945883a 	add	r2,r5,r5
  80ad34:	1149803a 	cmpltu	r4,r2,r5
  80ad38:	3187883a 	add	r3,r6,r6
  80ad3c:	20c9883a 	add	r4,r4,r3
  80ad40:	100b883a 	mov	r5,r2
  80ad44:	200d883a 	mov	r6,r4
  80ad48:	39ffffc4 	addi	r7,r7,-1
  80ad4c:	413ff82e 	bgeu	r8,r4,80ad30 <__unpack_d+0x70>
  80ad50:	69c00215 	stw	r7,8(r13)
  80ad54:	69800415 	stw	r6,16(r13)
  80ad58:	69400315 	stw	r5,12(r13)
  80ad5c:	f800283a 	ret
  80ad60:	00800084 	movi	r2,2
  80ad64:	28800015 	stw	r2,0(r5)
  80ad68:	f800283a 	ret
  80ad6c:	0081ffc4 	movi	r2,2047
  80ad70:	40800f26 	beq	r8,r2,80adb0 <__unpack_d+0xf0>
  80ad74:	480cd63a 	srli	r6,r9,24
  80ad78:	5006923a 	slli	r3,r10,8
  80ad7c:	4804923a 	slli	r2,r9,8
  80ad80:	0009883a 	mov	r4,zero
  80ad84:	30c6b03a 	or	r3,r6,r3
  80ad88:	01440034 	movhi	r5,4096
  80ad8c:	110cb03a 	or	r6,r2,r4
  80ad90:	423f0044 	addi	r8,r8,-1023
  80ad94:	194eb03a 	or	r7,r3,r5
  80ad98:	008000c4 	movi	r2,3
  80ad9c:	69c00415 	stw	r7,16(r13)
  80ada0:	6a000215 	stw	r8,8(r13)
  80ada4:	68800015 	stw	r2,0(r13)
  80ada8:	69800315 	stw	r6,12(r13)
  80adac:	f800283a 	ret
  80adb0:	4a84b03a 	or	r2,r9,r10
  80adb4:	1000031e 	bne	r2,zero,80adc4 <__unpack_d+0x104>
  80adb8:	00800104 	movi	r2,4
  80adbc:	28800015 	stw	r2,0(r5)
  80adc0:	f800283a 	ret
  80adc4:	0009883a 	mov	r4,zero
  80adc8:	01400234 	movhi	r5,8
  80adcc:	4904703a 	and	r2,r9,r4
  80add0:	5146703a 	and	r3,r10,r5
  80add4:	10c4b03a 	or	r2,r2,r3
  80add8:	10000526 	beq	r2,zero,80adf0 <__unpack_d+0x130>
  80addc:	00800044 	movi	r2,1
  80ade0:	68800015 	stw	r2,0(r13)
  80ade4:	6b000415 	stw	r12,16(r13)
  80ade8:	6ac00315 	stw	r11,12(r13)
  80adec:	f800283a 	ret
  80adf0:	68000015 	stw	zero,0(r13)
  80adf4:	003ffb06 	br	80ade4 <__unpack_d+0x124>

0080adf8 <__fpcmp_parts_d>:
  80adf8:	21800017 	ldw	r6,0(r4)
  80adfc:	00c00044 	movi	r3,1
  80ae00:	19800a2e 	bgeu	r3,r6,80ae2c <__fpcmp_parts_d+0x34>
  80ae04:	28800017 	ldw	r2,0(r5)
  80ae08:	1880082e 	bgeu	r3,r2,80ae2c <__fpcmp_parts_d+0x34>
  80ae0c:	00c00104 	movi	r3,4
  80ae10:	30c02626 	beq	r6,r3,80aeac <__fpcmp_parts_d+0xb4>
  80ae14:	10c02226 	beq	r2,r3,80aea0 <__fpcmp_parts_d+0xa8>
  80ae18:	00c00084 	movi	r3,2
  80ae1c:	30c00526 	beq	r6,r3,80ae34 <__fpcmp_parts_d+0x3c>
  80ae20:	10c0071e 	bne	r2,r3,80ae40 <__fpcmp_parts_d+0x48>
  80ae24:	20800117 	ldw	r2,4(r4)
  80ae28:	1000091e 	bne	r2,zero,80ae50 <__fpcmp_parts_d+0x58>
  80ae2c:	00800044 	movi	r2,1
  80ae30:	f800283a 	ret
  80ae34:	10c01a1e 	bne	r2,r3,80aea0 <__fpcmp_parts_d+0xa8>
  80ae38:	0005883a 	mov	r2,zero
  80ae3c:	f800283a 	ret
  80ae40:	22000117 	ldw	r8,4(r4)
  80ae44:	28800117 	ldw	r2,4(r5)
  80ae48:	40800326 	beq	r8,r2,80ae58 <__fpcmp_parts_d+0x60>
  80ae4c:	403ff726 	beq	r8,zero,80ae2c <__fpcmp_parts_d+0x34>
  80ae50:	00bfffc4 	movi	r2,-1
  80ae54:	f800283a 	ret
  80ae58:	20c00217 	ldw	r3,8(r4)
  80ae5c:	28800217 	ldw	r2,8(r5)
  80ae60:	10fffa16 	blt	r2,r3,80ae4c <__fpcmp_parts_d+0x54>
  80ae64:	18800916 	blt	r3,r2,80ae8c <__fpcmp_parts_d+0x94>
  80ae68:	21c00417 	ldw	r7,16(r4)
  80ae6c:	28c00417 	ldw	r3,16(r5)
  80ae70:	21800317 	ldw	r6,12(r4)
  80ae74:	28800317 	ldw	r2,12(r5)
  80ae78:	19fff436 	bltu	r3,r7,80ae4c <__fpcmp_parts_d+0x54>
  80ae7c:	38c00526 	beq	r7,r3,80ae94 <__fpcmp_parts_d+0x9c>
  80ae80:	38c00236 	bltu	r7,r3,80ae8c <__fpcmp_parts_d+0x94>
  80ae84:	19ffec1e 	bne	r3,r7,80ae38 <__fpcmp_parts_d+0x40>
  80ae88:	30bfeb2e 	bgeu	r6,r2,80ae38 <__fpcmp_parts_d+0x40>
  80ae8c:	403fe71e 	bne	r8,zero,80ae2c <__fpcmp_parts_d+0x34>
  80ae90:	003fef06 	br	80ae50 <__fpcmp_parts_d+0x58>
  80ae94:	11bffa2e 	bgeu	r2,r6,80ae80 <__fpcmp_parts_d+0x88>
  80ae98:	403fe426 	beq	r8,zero,80ae2c <__fpcmp_parts_d+0x34>
  80ae9c:	003fec06 	br	80ae50 <__fpcmp_parts_d+0x58>
  80aea0:	28800117 	ldw	r2,4(r5)
  80aea4:	103fe11e 	bne	r2,zero,80ae2c <__fpcmp_parts_d+0x34>
  80aea8:	003fe906 	br	80ae50 <__fpcmp_parts_d+0x58>
  80aeac:	11bfdd1e 	bne	r2,r6,80ae24 <__fpcmp_parts_d+0x2c>
  80aeb0:	28c00117 	ldw	r3,4(r5)
  80aeb4:	20800117 	ldw	r2,4(r4)
  80aeb8:	1885c83a 	sub	r2,r3,r2
  80aebc:	f800283a 	ret

0080aec0 <pre_constructors>:
  80aec0:	deffff04 	addi	sp,sp,-4
  80aec4:	df000015 	stw	fp,0(sp)
  80aec8:	d839883a 	mov	fp,sp
  80aecc:	e037883a 	mov	sp,fp
  80aed0:	df000017 	ldw	fp,0(sp)
  80aed4:	dec00104 	addi	sp,sp,4
  80aed8:	f800283a 	ret

0080aedc <post_constructors>:
  80aedc:	deffff04 	addi	sp,sp,-4
  80aee0:	df000015 	stw	fp,0(sp)
  80aee4:	d839883a 	mov	fp,sp
  80aee8:	e037883a 	mov	sp,fp
  80aeec:	df000017 	ldw	fp,0(sp)
  80aef0:	dec00104 	addi	sp,sp,4
  80aef4:	f800283a 	ret

0080aef8 <alt_main>:
  80aef8:	defffa04 	addi	sp,sp,-24
  80aefc:	dfc00515 	stw	ra,20(sp)
  80af00:	df000415 	stw	fp,16(sp)
  80af04:	df000404 	addi	fp,sp,16
  80af08:	00802074 	movhi	r2,129
  80af0c:	108ec104 	addi	r2,r2,15108
  80af10:	10800017 	ldw	r2,0(r2)
  80af14:	10800058 	cmpnei	r2,r2,1
  80af18:	1000031e 	bne	r2,zero,80af28 <alt_main+0x30>
  80af1c:	01002074 	movhi	r4,129
  80af20:	210b5104 	addi	r4,r4,11588
  80af24:	080f6100 	call	80f610 <alt_log_printf_proc>
  80af28:	0009883a 	mov	r4,zero
  80af2c:	081045c0 	call	81045c <alt_irq_init>
  80af30:	00802074 	movhi	r2,129
  80af34:	108ec104 	addi	r2,r2,15108
  80af38:	10800017 	ldw	r2,0(r2)
  80af3c:	10800058 	cmpnei	r2,r2,1
  80af40:	1000031e 	bne	r2,zero,80af50 <alt_main+0x58>
  80af44:	01002074 	movhi	r4,129
  80af48:	210b5f04 	addi	r4,r4,11644
  80af4c:	080f6100 	call	80f610 <alt_log_printf_proc>
  80af50:	01000104 	movi	r4,4
  80af54:	080b39c0 	call	80b39c <xQueueCreateMutex>
  80af58:	1007883a 	mov	r3,r2
  80af5c:	00802074 	movhi	r2,129
  80af60:	1099ce04 	addi	r2,r2,26424
  80af64:	10c00015 	stw	r3,0(r2)
  80af68:	01000104 	movi	r4,4
  80af6c:	080b39c0 	call	80b39c <xQueueCreateMutex>
  80af70:	1007883a 	mov	r3,r2
  80af74:	00802074 	movhi	r2,129
  80af78:	1099e804 	addi	r2,r2,26528
  80af7c:	10c00015 	stw	r3,0(r2)
  80af80:	00802074 	movhi	r2,129
  80af84:	108ec104 	addi	r2,r2,15108
  80af88:	10800017 	ldw	r2,0(r2)
  80af8c:	10800058 	cmpnei	r2,r2,1
  80af90:	1000031e 	bne	r2,zero,80afa0 <alt_main+0xa8>
  80af94:	01002074 	movhi	r4,129
  80af98:	210b6d04 	addi	r4,r4,11700
  80af9c:	080f6100 	call	80f610 <alt_log_printf_proc>
  80afa0:	00802074 	movhi	r2,129
  80afa4:	1099e104 	addi	r2,r2,26500
  80afa8:	e0bffc15 	stw	r2,-16(fp)
  80afac:	00800044 	movi	r2,1
  80afb0:	e0bffd0d 	sth	r2,-12(fp)
  80afb4:	e0bffd0b 	ldhu	r2,-12(fp)
  80afb8:	1005003a 	cmpeq	r2,r2,zero
  80afbc:	1000031e 	bne	r2,zero,80afcc <alt_main+0xd4>
  80afc0:	e0bffd0b 	ldhu	r2,-12(fp)
  80afc4:	e0bfff15 	stw	r2,-4(fp)
  80afc8:	00000206 	br	80afd4 <alt_main+0xdc>
  80afcc:	00800044 	movi	r2,1
  80afd0:	e0bfff15 	stw	r2,-4(fp)
  80afd4:	e17ffd0b 	ldhu	r5,-12(fp)
  80afd8:	e13fff17 	ldw	r4,-4(fp)
  80afdc:	080b5980 	call	80b598 <xQueueCreateCountingSemaphore>
  80afe0:	1007883a 	mov	r3,r2
  80afe4:	e0bffc17 	ldw	r2,-16(fp)
  80afe8:	10c00015 	stw	r3,0(r2)
  80afec:	00802074 	movhi	r2,129
  80aff0:	108ec104 	addi	r2,r2,15108
  80aff4:	10800017 	ldw	r2,0(r2)
  80aff8:	10800058 	cmpnei	r2,r2,1
  80affc:	1000031e 	bne	r2,zero,80b00c <alt_main+0x114>
  80b000:	01002074 	movhi	r4,129
  80b004:	210b7b04 	addi	r4,r4,11756
  80b008:	080f6100 	call	80f610 <alt_log_printf_proc>
  80b00c:	08104900 	call	810490 <alt_sys_init>
  80b010:	00802074 	movhi	r2,129
  80b014:	108ec104 	addi	r2,r2,15108
  80b018:	10800017 	ldw	r2,0(r2)
  80b01c:	10800058 	cmpnei	r2,r2,1
  80b020:	1000031e 	bne	r2,zero,80b030 <alt_main+0x138>
  80b024:	01002074 	movhi	r4,129
  80b028:	210b8504 	addi	r4,r4,11796
  80b02c:	080f6100 	call	80f610 <alt_log_printf_proc>
  80b030:	00802074 	movhi	r2,129
  80b034:	108ec104 	addi	r2,r2,15108
  80b038:	10800017 	ldw	r2,0(r2)
  80b03c:	10800058 	cmpnei	r2,r2,1
  80b040:	1000031e 	bne	r2,zero,80b050 <alt_main+0x158>
  80b044:	01002074 	movhi	r4,129
  80b048:	210b8e04 	addi	r4,r4,11832
  80b04c:	080f6100 	call	80f610 <alt_log_printf_proc>
  80b050:	01002074 	movhi	r4,129
  80b054:	210b9604 	addi	r4,r4,11864
  80b058:	01402074 	movhi	r5,129
  80b05c:	294b9604 	addi	r5,r5,11864
  80b060:	01802074 	movhi	r6,129
  80b064:	318b9604 	addi	r6,r6,11864
  80b068:	080ec9c0 	call	80ec9c <alt_io_redirect>
  80b06c:	080aec00 	call	80aec0 <pre_constructors>
  80b070:	00802074 	movhi	r2,129
  80b074:	108ec104 	addi	r2,r2,15108
  80b078:	10800017 	ldw	r2,0(r2)
  80b07c:	10800058 	cmpnei	r2,r2,1
  80b080:	1000031e 	bne	r2,zero,80b090 <alt_main+0x198>
  80b084:	01002074 	movhi	r4,129
  80b088:	210b9a04 	addi	r4,r4,11880
  80b08c:	080f6100 	call	80f610 <alt_log_printf_proc>
  80b090:	080e9c40 	call	80e9c4 <_do_ctors>
  80b094:	080aedc0 	call	80aedc <post_constructors>
  80b098:	00802074 	movhi	r2,129
  80b09c:	108ec104 	addi	r2,r2,15108
  80b0a0:	10800017 	ldw	r2,0(r2)
  80b0a4:	10800058 	cmpnei	r2,r2,1
  80b0a8:	1000031e 	bne	r2,zero,80b0b8 <alt_main+0x1c0>
  80b0ac:	01002074 	movhi	r4,129
  80b0b0:	210ba504 	addi	r4,r4,11924
  80b0b4:	080f6100 	call	80f610 <alt_log_printf_proc>
  80b0b8:	01002074 	movhi	r4,129
  80b0bc:	213a8a04 	addi	r4,r4,-5592
  80b0c0:	08120a80 	call	8120a8 <atexit>
  80b0c4:	00802074 	movhi	r2,129
  80b0c8:	108ec104 	addi	r2,r2,15108
  80b0cc:	10800017 	ldw	r2,0(r2)
  80b0d0:	10800058 	cmpnei	r2,r2,1
  80b0d4:	1000031e 	bne	r2,zero,80b0e4 <alt_main+0x1ec>
  80b0d8:	01002074 	movhi	r4,129
  80b0dc:	210bad04 	addi	r4,r4,11956
  80b0e0:	080f6100 	call	80f610 <alt_log_printf_proc>
  80b0e4:	d126ef17 	ldw	r4,-25668(gp)
  80b0e8:	d166f017 	ldw	r5,-25664(gp)
  80b0ec:	d1a6f117 	ldw	r6,-25660(gp)
  80b0f0:	08006740 	call	800674 <main>
  80b0f4:	e0bffe15 	stw	r2,-8(fp)
  80b0f8:	01000044 	movi	r4,1
  80b0fc:	080e8380 	call	80e838 <close>
  80b100:	e13ffe17 	ldw	r4,-8(fp)
  80b104:	08120cc0 	call	8120cc <exit>

0080b108 <__malloc_lock>:
  80b108:	defffd04 	addi	sp,sp,-12
  80b10c:	dfc00215 	stw	ra,8(sp)
  80b110:	df000115 	stw	fp,4(sp)
  80b114:	df000104 	addi	fp,sp,4
  80b118:	e13fff15 	stw	r4,-4(fp)
  80b11c:	080dca80 	call	80dca8 <xTaskGetSchedulerState>
  80b120:	1005003a 	cmpeq	r2,r2,zero
  80b124:	1000081e 	bne	r2,zero,80b148 <__malloc_lock+0x40>
  80b128:	00000206 	br	80b134 <__malloc_lock+0x2c>
  80b12c:	01000044 	movi	r4,1
  80b130:	080c6140 	call	80c614 <vTaskDelay>
  80b134:	d126f217 	ldw	r4,-25656(gp)
  80b138:	01400284 	movi	r5,10
  80b13c:	080b4f80 	call	80b4f8 <xQueueTakeMutexRecursive>
  80b140:	10800058 	cmpnei	r2,r2,1
  80b144:	103ff91e 	bne	r2,zero,80b12c <__malloc_lock+0x24>
  80b148:	e037883a 	mov	sp,fp
  80b14c:	dfc00117 	ldw	ra,4(sp)
  80b150:	df000017 	ldw	fp,0(sp)
  80b154:	dec00204 	addi	sp,sp,8
  80b158:	f800283a 	ret

0080b15c <__malloc_unlock>:
  80b15c:	defffd04 	addi	sp,sp,-12
  80b160:	dfc00215 	stw	ra,8(sp)
  80b164:	df000115 	stw	fp,4(sp)
  80b168:	df000104 	addi	fp,sp,4
  80b16c:	e13fff15 	stw	r4,-4(fp)
  80b170:	080dca80 	call	80dca8 <xTaskGetSchedulerState>
  80b174:	1005003a 	cmpeq	r2,r2,zero
  80b178:	1000021e 	bne	r2,zero,80b184 <__malloc_unlock+0x28>
  80b17c:	d126f217 	ldw	r4,-25656(gp)
  80b180:	080b46c0 	call	80b46c <xQueueGiveMutexRecursive>
  80b184:	e037883a 	mov	sp,fp
  80b188:	dfc00117 	ldw	ra,4(sp)
  80b18c:	df000017 	ldw	fp,0(sp)
  80b190:	dec00204 	addi	sp,sp,8
  80b194:	f800283a 	ret

0080b198 <xQueueGenericReset>:
  80b198:	defffb04 	addi	sp,sp,-20
  80b19c:	dfc00415 	stw	ra,16(sp)
  80b1a0:	df000315 	stw	fp,12(sp)
  80b1a4:	dc000215 	stw	r16,8(sp)
  80b1a8:	df000204 	addi	fp,sp,8
  80b1ac:	e13ffe15 	stw	r4,-8(fp)
  80b1b0:	e17fff15 	stw	r5,-4(fp)
  80b1b4:	080dca80 	call	80dca8 <xTaskGetSchedulerState>
  80b1b8:	1005003a 	cmpeq	r2,r2,zero
  80b1bc:	1000011e 	bne	r2,zero,80b1c4 <xQueueGenericReset+0x2c>
  80b1c0:	080dedc0 	call	80dedc <vTaskEnterCritical>
  80b1c4:	e0bffe17 	ldw	r2,-8(fp)
  80b1c8:	14000017 	ldw	r16,0(r2)
  80b1cc:	e0bffe17 	ldw	r2,-8(fp)
  80b1d0:	11000f17 	ldw	r4,60(r2)
  80b1d4:	e0bffe17 	ldw	r2,-8(fp)
  80b1d8:	11401017 	ldw	r5,64(r2)
  80b1dc:	08014540 	call	801454 <__mulsi3>
  80b1e0:	8087883a 	add	r3,r16,r2
  80b1e4:	e0bffe17 	ldw	r2,-8(fp)
  80b1e8:	10c00115 	stw	r3,4(r2)
  80b1ec:	e0bffe17 	ldw	r2,-8(fp)
  80b1f0:	10000e15 	stw	zero,56(r2)
  80b1f4:	e0bffe17 	ldw	r2,-8(fp)
  80b1f8:	10c00017 	ldw	r3,0(r2)
  80b1fc:	e0bffe17 	ldw	r2,-8(fp)
  80b200:	10c00215 	stw	r3,8(r2)
  80b204:	e0bffe17 	ldw	r2,-8(fp)
  80b208:	14000017 	ldw	r16,0(r2)
  80b20c:	e0bffe17 	ldw	r2,-8(fp)
  80b210:	10800f17 	ldw	r2,60(r2)
  80b214:	113fffc4 	addi	r4,r2,-1
  80b218:	e0bffe17 	ldw	r2,-8(fp)
  80b21c:	11401017 	ldw	r5,64(r2)
  80b220:	08014540 	call	801454 <__mulsi3>
  80b224:	8087883a 	add	r3,r16,r2
  80b228:	e0bffe17 	ldw	r2,-8(fp)
  80b22c:	10c00315 	stw	r3,12(r2)
  80b230:	e0fffe17 	ldw	r3,-8(fp)
  80b234:	00bfffc4 	movi	r2,-1
  80b238:	18801115 	stw	r2,68(r3)
  80b23c:	e0fffe17 	ldw	r3,-8(fp)
  80b240:	00bfffc4 	movi	r2,-1
  80b244:	18801215 	stw	r2,72(r3)
  80b248:	e0bfff17 	ldw	r2,-4(fp)
  80b24c:	1004c03a 	cmpne	r2,r2,zero
  80b250:	10000b1e 	bne	r2,zero,80b280 <xQueueGenericReset+0xe8>
  80b254:	e0bffe17 	ldw	r2,-8(fp)
  80b258:	10800417 	ldw	r2,16(r2)
  80b25c:	1005003a 	cmpeq	r2,r2,zero
  80b260:	10000d1e 	bne	r2,zero,80b298 <xQueueGenericReset+0x100>
  80b264:	e0bffe17 	ldw	r2,-8(fp)
  80b268:	11000404 	addi	r4,r2,16
  80b26c:	080d3cc0 	call	80d3cc <xTaskRemoveFromEventList>
  80b270:	10800058 	cmpnei	r2,r2,1
  80b274:	1000081e 	bne	r2,zero,80b298 <xQueueGenericReset+0x100>
  80b278:	003b683a 	trap	0
  80b27c:	00000606 	br	80b298 <xQueueGenericReset+0x100>
  80b280:	e0bffe17 	ldw	r2,-8(fp)
  80b284:	11000404 	addi	r4,r2,16
  80b288:	08113840 	call	811384 <vListInitialise>
  80b28c:	e0bffe17 	ldw	r2,-8(fp)
  80b290:	11000904 	addi	r4,r2,36
  80b294:	08113840 	call	811384 <vListInitialise>
  80b298:	080dca80 	call	80dca8 <xTaskGetSchedulerState>
  80b29c:	1005003a 	cmpeq	r2,r2,zero
  80b2a0:	1000011e 	bne	r2,zero,80b2a8 <xQueueGenericReset+0x110>
  80b2a4:	080df2c0 	call	80df2c <vTaskExitCritical>
  80b2a8:	00800044 	movi	r2,1
  80b2ac:	e037883a 	mov	sp,fp
  80b2b0:	dfc00217 	ldw	ra,8(sp)
  80b2b4:	df000117 	ldw	fp,4(sp)
  80b2b8:	dc000017 	ldw	r16,0(sp)
  80b2bc:	dec00304 	addi	sp,sp,12
  80b2c0:	f800283a 	ret

0080b2c4 <xQueueGenericCreate>:
  80b2c4:	defff804 	addi	sp,sp,-32
  80b2c8:	dfc00715 	stw	ra,28(sp)
  80b2cc:	df000615 	stw	fp,24(sp)
  80b2d0:	df000604 	addi	fp,sp,24
  80b2d4:	e13ffd15 	stw	r4,-12(fp)
  80b2d8:	e17ffe15 	stw	r5,-8(fp)
  80b2dc:	e1bfff05 	stb	r6,-4(fp)
  80b2e0:	e03ffa15 	stw	zero,-24(fp)
  80b2e4:	e0bffd17 	ldw	r2,-12(fp)
  80b2e8:	1005003a 	cmpeq	r2,r2,zero
  80b2ec:	1000251e 	bne	r2,zero,80b384 <xQueueGenericCreate+0xc0>
  80b2f0:	01001404 	movi	r4,80
  80b2f4:	08113000 	call	811300 <pvPortMalloc>
  80b2f8:	e0bffc15 	stw	r2,-16(fp)
  80b2fc:	e0bffc17 	ldw	r2,-16(fp)
  80b300:	1005003a 	cmpeq	r2,r2,zero
  80b304:	10001f1e 	bne	r2,zero,80b384 <xQueueGenericCreate+0xc0>
  80b308:	e13ffd17 	ldw	r4,-12(fp)
  80b30c:	e17ffe17 	ldw	r5,-8(fp)
  80b310:	08014540 	call	801454 <__mulsi3>
  80b314:	10800044 	addi	r2,r2,1
  80b318:	e0bffb15 	stw	r2,-20(fp)
  80b31c:	e13ffb17 	ldw	r4,-20(fp)
  80b320:	08113000 	call	811300 <pvPortMalloc>
  80b324:	1007883a 	mov	r3,r2
  80b328:	e0bffc17 	ldw	r2,-16(fp)
  80b32c:	10c00015 	stw	r3,0(r2)
  80b330:	e0bffc17 	ldw	r2,-16(fp)
  80b334:	10800017 	ldw	r2,0(r2)
  80b338:	1005003a 	cmpeq	r2,r2,zero
  80b33c:	10000f1e 	bne	r2,zero,80b37c <xQueueGenericCreate+0xb8>
  80b340:	e0fffc17 	ldw	r3,-16(fp)
  80b344:	e0bffd17 	ldw	r2,-12(fp)
  80b348:	18800f15 	stw	r2,60(r3)
  80b34c:	e0fffc17 	ldw	r3,-16(fp)
  80b350:	e0bffe17 	ldw	r2,-8(fp)
  80b354:	18801015 	stw	r2,64(r3)
  80b358:	e13ffc17 	ldw	r4,-16(fp)
  80b35c:	01400044 	movi	r5,1
  80b360:	080b1980 	call	80b198 <xQueueGenericReset>
  80b364:	e0fffc17 	ldw	r3,-16(fp)
  80b368:	e0bfff03 	ldbu	r2,-4(fp)
  80b36c:	18801345 	stb	r2,77(r3)
  80b370:	e0bffc17 	ldw	r2,-16(fp)
  80b374:	e0bffa15 	stw	r2,-24(fp)
  80b378:	00000206 	br	80b384 <xQueueGenericCreate+0xc0>
  80b37c:	e13ffc17 	ldw	r4,-16(fp)
  80b380:	08113400 	call	811340 <vPortFree>
  80b384:	e0bffa17 	ldw	r2,-24(fp)
  80b388:	e037883a 	mov	sp,fp
  80b38c:	dfc00117 	ldw	ra,4(sp)
  80b390:	df000017 	ldw	fp,0(sp)
  80b394:	dec00204 	addi	sp,sp,8
  80b398:	f800283a 	ret

0080b39c <xQueueCreateMutex>:
  80b39c:	defffc04 	addi	sp,sp,-16
  80b3a0:	dfc00315 	stw	ra,12(sp)
  80b3a4:	df000215 	stw	fp,8(sp)
  80b3a8:	df000204 	addi	fp,sp,8
  80b3ac:	e13fff05 	stb	r4,-4(fp)
  80b3b0:	01001404 	movi	r4,80
  80b3b4:	08113000 	call	811300 <pvPortMalloc>
  80b3b8:	e0bffe15 	stw	r2,-8(fp)
  80b3bc:	e0bffe17 	ldw	r2,-8(fp)
  80b3c0:	1005003a 	cmpeq	r2,r2,zero
  80b3c4:	1000231e 	bne	r2,zero,80b454 <xQueueCreateMutex+0xb8>
  80b3c8:	e0bffe17 	ldw	r2,-8(fp)
  80b3cc:	10000115 	stw	zero,4(r2)
  80b3d0:	e0bffe17 	ldw	r2,-8(fp)
  80b3d4:	10000015 	stw	zero,0(r2)
  80b3d8:	e0bffe17 	ldw	r2,-8(fp)
  80b3dc:	10000215 	stw	zero,8(r2)
  80b3e0:	e0bffe17 	ldw	r2,-8(fp)
  80b3e4:	10000315 	stw	zero,12(r2)
  80b3e8:	e0bffe17 	ldw	r2,-8(fp)
  80b3ec:	10000e15 	stw	zero,56(r2)
  80b3f0:	e0fffe17 	ldw	r3,-8(fp)
  80b3f4:	00800044 	movi	r2,1
  80b3f8:	18800f15 	stw	r2,60(r3)
  80b3fc:	e0bffe17 	ldw	r2,-8(fp)
  80b400:	10001015 	stw	zero,64(r2)
  80b404:	e0fffe17 	ldw	r3,-8(fp)
  80b408:	00bfffc4 	movi	r2,-1
  80b40c:	18801115 	stw	r2,68(r3)
  80b410:	e0fffe17 	ldw	r3,-8(fp)
  80b414:	00bfffc4 	movi	r2,-1
  80b418:	18801215 	stw	r2,72(r3)
  80b41c:	e0fffe17 	ldw	r3,-8(fp)
  80b420:	e0bfff03 	ldbu	r2,-4(fp)
  80b424:	18801345 	stb	r2,77(r3)
  80b428:	e0bffe17 	ldw	r2,-8(fp)
  80b42c:	11000404 	addi	r4,r2,16
  80b430:	08113840 	call	811384 <vListInitialise>
  80b434:	e0bffe17 	ldw	r2,-8(fp)
  80b438:	11000904 	addi	r4,r2,36
  80b43c:	08113840 	call	811384 <vListInitialise>
  80b440:	e13ffe17 	ldw	r4,-8(fp)
  80b444:	000b883a 	mov	r5,zero
  80b448:	000d883a 	mov	r6,zero
  80b44c:	000f883a 	mov	r7,zero
  80b450:	080b5f40 	call	80b5f4 <xQueueGenericSend>
  80b454:	e0bffe17 	ldw	r2,-8(fp)
  80b458:	e037883a 	mov	sp,fp
  80b45c:	dfc00117 	ldw	ra,4(sp)
  80b460:	df000017 	ldw	fp,0(sp)
  80b464:	dec00204 	addi	sp,sp,8
  80b468:	f800283a 	ret

0080b46c <xQueueGiveMutexRecursive>:
  80b46c:	defffb04 	addi	sp,sp,-20
  80b470:	dfc00415 	stw	ra,16(sp)
  80b474:	df000315 	stw	fp,12(sp)
  80b478:	dc000215 	stw	r16,8(sp)
  80b47c:	df000204 	addi	fp,sp,8
  80b480:	e13fff15 	stw	r4,-4(fp)
  80b484:	e0bfff17 	ldw	r2,-4(fp)
  80b488:	14000117 	ldw	r16,4(r2)
  80b48c:	080dc800 	call	80dc80 <xTaskGetCurrentTaskHandle>
  80b490:	8080111e 	bne	r16,r2,80b4d8 <xQueueGiveMutexRecursive+0x6c>
  80b494:	e0bfff17 	ldw	r2,-4(fp)
  80b498:	10800317 	ldw	r2,12(r2)
  80b49c:	10ffffc4 	addi	r3,r2,-1
  80b4a0:	e0bfff17 	ldw	r2,-4(fp)
  80b4a4:	10c00315 	stw	r3,12(r2)
  80b4a8:	e0bfff17 	ldw	r2,-4(fp)
  80b4ac:	10800317 	ldw	r2,12(r2)
  80b4b0:	1004c03a 	cmpne	r2,r2,zero
  80b4b4:	1000051e 	bne	r2,zero,80b4cc <xQueueGiveMutexRecursive+0x60>
  80b4b8:	e13fff17 	ldw	r4,-4(fp)
  80b4bc:	000b883a 	mov	r5,zero
  80b4c0:	000d883a 	mov	r6,zero
  80b4c4:	000f883a 	mov	r7,zero
  80b4c8:	080b5f40 	call	80b5f4 <xQueueGenericSend>
  80b4cc:	00800044 	movi	r2,1
  80b4d0:	e0bffe15 	stw	r2,-8(fp)
  80b4d4:	00000106 	br	80b4dc <xQueueGiveMutexRecursive+0x70>
  80b4d8:	e03ffe15 	stw	zero,-8(fp)
  80b4dc:	e0bffe17 	ldw	r2,-8(fp)
  80b4e0:	e037883a 	mov	sp,fp
  80b4e4:	dfc00217 	ldw	ra,8(sp)
  80b4e8:	df000117 	ldw	fp,4(sp)
  80b4ec:	dc000017 	ldw	r16,0(sp)
  80b4f0:	dec00304 	addi	sp,sp,12
  80b4f4:	f800283a 	ret

0080b4f8 <xQueueTakeMutexRecursive>:
  80b4f8:	defffa04 	addi	sp,sp,-24
  80b4fc:	dfc00515 	stw	ra,20(sp)
  80b500:	df000415 	stw	fp,16(sp)
  80b504:	dc000315 	stw	r16,12(sp)
  80b508:	df000304 	addi	fp,sp,12
  80b50c:	e13ffe15 	stw	r4,-8(fp)
  80b510:	e17fff15 	stw	r5,-4(fp)
  80b514:	e0bffe17 	ldw	r2,-8(fp)
  80b518:	14000117 	ldw	r16,4(r2)
  80b51c:	080dc800 	call	80dc80 <xTaskGetCurrentTaskHandle>
  80b520:	8080081e 	bne	r16,r2,80b544 <xQueueTakeMutexRecursive+0x4c>
  80b524:	e0bffe17 	ldw	r2,-8(fp)
  80b528:	10800317 	ldw	r2,12(r2)
  80b52c:	10c00044 	addi	r3,r2,1
  80b530:	e0bffe17 	ldw	r2,-8(fp)
  80b534:	10c00315 	stw	r3,12(r2)
  80b538:	00800044 	movi	r2,1
  80b53c:	e0bffd15 	stw	r2,-12(fp)
  80b540:	00000e06 	br	80b57c <xQueueTakeMutexRecursive+0x84>
  80b544:	e13ffe17 	ldw	r4,-8(fp)
  80b548:	000b883a 	mov	r5,zero
  80b54c:	e1bfff17 	ldw	r6,-4(fp)
  80b550:	000f883a 	mov	r7,zero
  80b554:	080b8940 	call	80b894 <xQueueGenericReceive>
  80b558:	e0bffd15 	stw	r2,-12(fp)
  80b55c:	e0bffd17 	ldw	r2,-12(fp)
  80b560:	10800058 	cmpnei	r2,r2,1
  80b564:	1000051e 	bne	r2,zero,80b57c <xQueueTakeMutexRecursive+0x84>
  80b568:	e0bffe17 	ldw	r2,-8(fp)
  80b56c:	10800317 	ldw	r2,12(r2)
  80b570:	10c00044 	addi	r3,r2,1
  80b574:	e0bffe17 	ldw	r2,-8(fp)
  80b578:	10c00315 	stw	r3,12(r2)
  80b57c:	e0bffd17 	ldw	r2,-12(fp)
  80b580:	e037883a 	mov	sp,fp
  80b584:	dfc00217 	ldw	ra,8(sp)
  80b588:	df000117 	ldw	fp,4(sp)
  80b58c:	dc000017 	ldw	r16,0(sp)
  80b590:	dec00304 	addi	sp,sp,12
  80b594:	f800283a 	ret

0080b598 <xQueueCreateCountingSemaphore>:
  80b598:	defffb04 	addi	sp,sp,-20
  80b59c:	dfc00415 	stw	ra,16(sp)
  80b5a0:	df000315 	stw	fp,12(sp)
  80b5a4:	df000304 	addi	fp,sp,12
  80b5a8:	e13ffe15 	stw	r4,-8(fp)
  80b5ac:	e17fff15 	stw	r5,-4(fp)
  80b5b0:	e13ffe17 	ldw	r4,-8(fp)
  80b5b4:	000b883a 	mov	r5,zero
  80b5b8:	01800084 	movi	r6,2
  80b5bc:	080b2c40 	call	80b2c4 <xQueueGenericCreate>
  80b5c0:	e0bffd15 	stw	r2,-12(fp)
  80b5c4:	e0bffd17 	ldw	r2,-12(fp)
  80b5c8:	1005003a 	cmpeq	r2,r2,zero
  80b5cc:	1000031e 	bne	r2,zero,80b5dc <xQueueCreateCountingSemaphore+0x44>
  80b5d0:	e0fffd17 	ldw	r3,-12(fp)
  80b5d4:	e0bfff17 	ldw	r2,-4(fp)
  80b5d8:	18800e15 	stw	r2,56(r3)
  80b5dc:	e0bffd17 	ldw	r2,-12(fp)
  80b5e0:	e037883a 	mov	sp,fp
  80b5e4:	dfc00117 	ldw	ra,4(sp)
  80b5e8:	df000017 	ldw	fp,0(sp)
  80b5ec:	dec00204 	addi	sp,sp,8
  80b5f0:	f800283a 	ret

0080b5f4 <xQueueGenericSend>:
  80b5f4:	defff604 	addi	sp,sp,-40
  80b5f8:	dfc00915 	stw	ra,36(sp)
  80b5fc:	df000815 	stw	fp,32(sp)
  80b600:	df000804 	addi	fp,sp,32
  80b604:	e13ffb15 	stw	r4,-20(fp)
  80b608:	e17ffc15 	stw	r5,-16(fp)
  80b60c:	e1bffd15 	stw	r6,-12(fp)
  80b610:	e1fffe15 	stw	r7,-8(fp)
  80b614:	e03ff815 	stw	zero,-32(fp)
  80b618:	00000006 	br	80b61c <xQueueGenericSend+0x28>
  80b61c:	080dca80 	call	80dca8 <xTaskGetSchedulerState>
  80b620:	1005003a 	cmpeq	r2,r2,zero
  80b624:	1000011e 	bne	r2,zero,80b62c <xQueueGenericSend+0x38>
  80b628:	080dedc0 	call	80dedc <vTaskEnterCritical>
  80b62c:	e0bffb17 	ldw	r2,-20(fp)
  80b630:	10c00e17 	ldw	r3,56(r2)
  80b634:	e0bffb17 	ldw	r2,-20(fp)
  80b638:	10800f17 	ldw	r2,60(r2)
  80b63c:	1880152e 	bgeu	r3,r2,80b694 <xQueueGenericSend+0xa0>
  80b640:	e13ffb17 	ldw	r4,-20(fp)
  80b644:	e17ffc17 	ldw	r5,-16(fp)
  80b648:	e1bffe17 	ldw	r6,-8(fp)
  80b64c:	080bd440 	call	80bd44 <prvCopyDataToQueue>
  80b650:	e0bffb17 	ldw	r2,-20(fp)
  80b654:	10800917 	ldw	r2,36(r2)
  80b658:	1005003a 	cmpeq	r2,r2,zero
  80b65c:	1000061e 	bne	r2,zero,80b678 <xQueueGenericSend+0x84>
  80b660:	e0bffb17 	ldw	r2,-20(fp)
  80b664:	11000904 	addi	r4,r2,36
  80b668:	080d3cc0 	call	80d3cc <xTaskRemoveFromEventList>
  80b66c:	10800058 	cmpnei	r2,r2,1
  80b670:	1000011e 	bne	r2,zero,80b678 <xQueueGenericSend+0x84>
  80b674:	003b683a 	trap	0
  80b678:	080dca80 	call	80dca8 <xTaskGetSchedulerState>
  80b67c:	1005003a 	cmpeq	r2,r2,zero
  80b680:	1000011e 	bne	r2,zero,80b688 <xQueueGenericSend+0x94>
  80b684:	080df2c0 	call	80df2c <vTaskExitCritical>
  80b688:	00800044 	movi	r2,1
  80b68c:	e0bfff15 	stw	r2,-4(fp)
  80b690:	00004506 	br	80b7a8 <xQueueGenericSend+0x1b4>
  80b694:	e0bffd17 	ldw	r2,-12(fp)
  80b698:	1004c03a 	cmpne	r2,r2,zero
  80b69c:	1000061e 	bne	r2,zero,80b6b8 <xQueueGenericSend+0xc4>
  80b6a0:	080dca80 	call	80dca8 <xTaskGetSchedulerState>
  80b6a4:	1005003a 	cmpeq	r2,r2,zero
  80b6a8:	1000011e 	bne	r2,zero,80b6b0 <xQueueGenericSend+0xbc>
  80b6ac:	080df2c0 	call	80df2c <vTaskExitCritical>
  80b6b0:	e03fff15 	stw	zero,-4(fp)
  80b6b4:	00003c06 	br	80b7a8 <xQueueGenericSend+0x1b4>
  80b6b8:	e0bff817 	ldw	r2,-32(fp)
  80b6bc:	1004c03a 	cmpne	r2,r2,zero
  80b6c0:	1000041e 	bne	r2,zero,80b6d4 <xQueueGenericSend+0xe0>
  80b6c4:	e13ff904 	addi	r4,fp,-28
  80b6c8:	080d4b00 	call	80d4b0 <vTaskSetTimeOutState>
  80b6cc:	00800044 	movi	r2,1
  80b6d0:	e0bff815 	stw	r2,-32(fp)
  80b6d4:	080dca80 	call	80dca8 <xTaskGetSchedulerState>
  80b6d8:	1005003a 	cmpeq	r2,r2,zero
  80b6dc:	1000011e 	bne	r2,zero,80b6e4 <xQueueGenericSend+0xf0>
  80b6e0:	080df2c0 	call	80df2c <vTaskExitCritical>
  80b6e4:	080cce40 	call	80cce4 <vTaskSuspendAll>
  80b6e8:	080dca80 	call	80dca8 <xTaskGetSchedulerState>
  80b6ec:	1005003a 	cmpeq	r2,r2,zero
  80b6f0:	1000011e 	bne	r2,zero,80b6f8 <xQueueGenericSend+0x104>
  80b6f4:	080dedc0 	call	80dedc <vTaskEnterCritical>
  80b6f8:	e0bffb17 	ldw	r2,-20(fp)
  80b6fc:	10801117 	ldw	r2,68(r2)
  80b700:	10bfffd8 	cmpnei	r2,r2,-1
  80b704:	1000021e 	bne	r2,zero,80b710 <xQueueGenericSend+0x11c>
  80b708:	e0bffb17 	ldw	r2,-20(fp)
  80b70c:	10001115 	stw	zero,68(r2)
  80b710:	e0bffb17 	ldw	r2,-20(fp)
  80b714:	10801217 	ldw	r2,72(r2)
  80b718:	10bfffd8 	cmpnei	r2,r2,-1
  80b71c:	1000021e 	bne	r2,zero,80b728 <xQueueGenericSend+0x134>
  80b720:	e0bffb17 	ldw	r2,-20(fp)
  80b724:	10001215 	stw	zero,72(r2)
  80b728:	080dca80 	call	80dca8 <xTaskGetSchedulerState>
  80b72c:	1005003a 	cmpeq	r2,r2,zero
  80b730:	1000011e 	bne	r2,zero,80b738 <xQueueGenericSend+0x144>
  80b734:	080df2c0 	call	80df2c <vTaskExitCritical>
  80b738:	e13ff904 	addi	r4,fp,-28
  80b73c:	e17ffd04 	addi	r5,fp,-12
  80b740:	080d4e80 	call	80d4e8 <xTaskCheckForTimeOut>
  80b744:	1004c03a 	cmpne	r2,r2,zero
  80b748:	1000131e 	bne	r2,zero,80b798 <xQueueGenericSend+0x1a4>
  80b74c:	e13ffb17 	ldw	r4,-20(fp)
  80b750:	080c0ec0 	call	80c0ec <prvIsQueueFull>
  80b754:	1005003a 	cmpeq	r2,r2,zero
  80b758:	10000b1e 	bne	r2,zero,80b788 <xQueueGenericSend+0x194>
  80b75c:	e0bffb17 	ldw	r2,-20(fp)
  80b760:	11000404 	addi	r4,r2,16
  80b764:	e17ffd17 	ldw	r5,-12(fp)
  80b768:	080d2e80 	call	80d2e8 <vTaskPlaceOnEventList>
  80b76c:	e13ffb17 	ldw	r4,-20(fp)
  80b770:	080bf3c0 	call	80bf3c <prvUnlockQueue>
  80b774:	080cd0c0 	call	80cd0c <xTaskResumeAll>
  80b778:	1004c03a 	cmpne	r2,r2,zero
  80b77c:	103fa71e 	bne	r2,zero,80b61c <xQueueGenericSend+0x28>
  80b780:	003b683a 	trap	0
  80b784:	003fa506 	br	80b61c <xQueueGenericSend+0x28>
  80b788:	e13ffb17 	ldw	r4,-20(fp)
  80b78c:	080bf3c0 	call	80bf3c <prvUnlockQueue>
  80b790:	080cd0c0 	call	80cd0c <xTaskResumeAll>
  80b794:	003fa106 	br	80b61c <xQueueGenericSend+0x28>
  80b798:	e13ffb17 	ldw	r4,-20(fp)
  80b79c:	080bf3c0 	call	80bf3c <prvUnlockQueue>
  80b7a0:	080cd0c0 	call	80cd0c <xTaskResumeAll>
  80b7a4:	e03fff15 	stw	zero,-4(fp)
  80b7a8:	e0bfff17 	ldw	r2,-4(fp)
  80b7ac:	e037883a 	mov	sp,fp
  80b7b0:	dfc00117 	ldw	ra,4(sp)
  80b7b4:	df000017 	ldw	fp,0(sp)
  80b7b8:	dec00204 	addi	sp,sp,8
  80b7bc:	f800283a 	ret

0080b7c0 <xQueueGenericSendFromISR>:
  80b7c0:	defff804 	addi	sp,sp,-32
  80b7c4:	dfc00715 	stw	ra,28(sp)
  80b7c8:	df000615 	stw	fp,24(sp)
  80b7cc:	df000604 	addi	fp,sp,24
  80b7d0:	e13ffc15 	stw	r4,-16(fp)
  80b7d4:	e17ffd15 	stw	r5,-12(fp)
  80b7d8:	e1bffe15 	stw	r6,-8(fp)
  80b7dc:	e1ffff15 	stw	r7,-4(fp)
  80b7e0:	e03ffa15 	stw	zero,-24(fp)
  80b7e4:	e0bffc17 	ldw	r2,-16(fp)
  80b7e8:	10c00e17 	ldw	r3,56(r2)
  80b7ec:	e0bffc17 	ldw	r2,-16(fp)
  80b7f0:	10800f17 	ldw	r2,60(r2)
  80b7f4:	1880202e 	bgeu	r3,r2,80b878 <xQueueGenericSendFromISR+0xb8>
  80b7f8:	e13ffc17 	ldw	r4,-16(fp)
  80b7fc:	e17ffd17 	ldw	r5,-12(fp)
  80b800:	e1bfff17 	ldw	r6,-4(fp)
  80b804:	080bd440 	call	80bd44 <prvCopyDataToQueue>
  80b808:	e0bffc17 	ldw	r2,-16(fp)
  80b80c:	10801217 	ldw	r2,72(r2)
  80b810:	10bfffd8 	cmpnei	r2,r2,-1
  80b814:	1000101e 	bne	r2,zero,80b858 <xQueueGenericSendFromISR+0x98>
  80b818:	e0bffc17 	ldw	r2,-16(fp)
  80b81c:	10800917 	ldw	r2,36(r2)
  80b820:	1005003a 	cmpeq	r2,r2,zero
  80b824:	1000111e 	bne	r2,zero,80b86c <xQueueGenericSendFromISR+0xac>
  80b828:	e0bffc17 	ldw	r2,-16(fp)
  80b82c:	11000904 	addi	r4,r2,36
  80b830:	080d3cc0 	call	80d3cc <xTaskRemoveFromEventList>
  80b834:	1005003a 	cmpeq	r2,r2,zero
  80b838:	10000c1e 	bne	r2,zero,80b86c <xQueueGenericSendFromISR+0xac>
  80b83c:	e0bffe17 	ldw	r2,-8(fp)
  80b840:	1005003a 	cmpeq	r2,r2,zero
  80b844:	1000091e 	bne	r2,zero,80b86c <xQueueGenericSendFromISR+0xac>
  80b848:	e0fffe17 	ldw	r3,-8(fp)
  80b84c:	00800044 	movi	r2,1
  80b850:	18800015 	stw	r2,0(r3)
  80b854:	00000506 	br	80b86c <xQueueGenericSendFromISR+0xac>
  80b858:	e0bffc17 	ldw	r2,-16(fp)
  80b85c:	10801217 	ldw	r2,72(r2)
  80b860:	10c00044 	addi	r3,r2,1
  80b864:	e0bffc17 	ldw	r2,-16(fp)
  80b868:	10c01215 	stw	r3,72(r2)
  80b86c:	00800044 	movi	r2,1
  80b870:	e0bffb15 	stw	r2,-20(fp)
  80b874:	00000106 	br	80b87c <xQueueGenericSendFromISR+0xbc>
  80b878:	e03ffb15 	stw	zero,-20(fp)
  80b87c:	e0bffb17 	ldw	r2,-20(fp)
  80b880:	e037883a 	mov	sp,fp
  80b884:	dfc00117 	ldw	ra,4(sp)
  80b888:	df000017 	ldw	fp,0(sp)
  80b88c:	dec00204 	addi	sp,sp,8
  80b890:	f800283a 	ret

0080b894 <xQueueGenericReceive>:
  80b894:	defff504 	addi	sp,sp,-44
  80b898:	dfc00a15 	stw	ra,40(sp)
  80b89c:	df000915 	stw	fp,36(sp)
  80b8a0:	df000904 	addi	fp,sp,36
  80b8a4:	e13ffb15 	stw	r4,-20(fp)
  80b8a8:	e17ffc15 	stw	r5,-16(fp)
  80b8ac:	e1bffd15 	stw	r6,-12(fp)
  80b8b0:	e1fffe15 	stw	r7,-8(fp)
  80b8b4:	e03ff815 	stw	zero,-32(fp)
  80b8b8:	00000006 	br	80b8bc <xQueueGenericReceive+0x28>
  80b8bc:	080dca80 	call	80dca8 <xTaskGetSchedulerState>
  80b8c0:	1005003a 	cmpeq	r2,r2,zero
  80b8c4:	1000011e 	bne	r2,zero,80b8cc <xQueueGenericReceive+0x38>
  80b8c8:	080dedc0 	call	80dedc <vTaskEnterCritical>
  80b8cc:	e0bffb17 	ldw	r2,-20(fp)
  80b8d0:	10800e17 	ldw	r2,56(r2)
  80b8d4:	1005003a 	cmpeq	r2,r2,zero
  80b8d8:	1000351e 	bne	r2,zero,80b9b0 <xQueueGenericReceive+0x11c>
  80b8dc:	e0bffb17 	ldw	r2,-20(fp)
  80b8e0:	10800317 	ldw	r2,12(r2)
  80b8e4:	e0bff715 	stw	r2,-36(fp)
  80b8e8:	e13ffb17 	ldw	r4,-20(fp)
  80b8ec:	e17ffc17 	ldw	r5,-16(fp)
  80b8f0:	080bea00 	call	80bea0 <prvCopyDataFromQueue>
  80b8f4:	e0bffe17 	ldw	r2,-8(fp)
  80b8f8:	1004c03a 	cmpne	r2,r2,zero
  80b8fc:	1000181e 	bne	r2,zero,80b960 <xQueueGenericReceive+0xcc>
  80b900:	e0bffb17 	ldw	r2,-20(fp)
  80b904:	10800e17 	ldw	r2,56(r2)
  80b908:	10ffffc4 	addi	r3,r2,-1
  80b90c:	e0bffb17 	ldw	r2,-20(fp)
  80b910:	10c00e15 	stw	r3,56(r2)
  80b914:	e0bffb17 	ldw	r2,-20(fp)
  80b918:	10800017 	ldw	r2,0(r2)
  80b91c:	1004c03a 	cmpne	r2,r2,zero
  80b920:	1000041e 	bne	r2,zero,80b934 <xQueueGenericReceive+0xa0>
  80b924:	080dc800 	call	80dc80 <xTaskGetCurrentTaskHandle>
  80b928:	1007883a 	mov	r3,r2
  80b92c:	e0bffb17 	ldw	r2,-20(fp)
  80b930:	10c00115 	stw	r3,4(r2)
  80b934:	e0bffb17 	ldw	r2,-20(fp)
  80b938:	10800417 	ldw	r2,16(r2)
  80b93c:	1005003a 	cmpeq	r2,r2,zero
  80b940:	1000141e 	bne	r2,zero,80b994 <xQueueGenericReceive+0x100>
  80b944:	e0bffb17 	ldw	r2,-20(fp)
  80b948:	11000404 	addi	r4,r2,16
  80b94c:	080d3cc0 	call	80d3cc <xTaskRemoveFromEventList>
  80b950:	10800058 	cmpnei	r2,r2,1
  80b954:	10000f1e 	bne	r2,zero,80b994 <xQueueGenericReceive+0x100>
  80b958:	003b683a 	trap	0
  80b95c:	00000d06 	br	80b994 <xQueueGenericReceive+0x100>
  80b960:	e0fffb17 	ldw	r3,-20(fp)
  80b964:	e0bff717 	ldw	r2,-36(fp)
  80b968:	18800315 	stw	r2,12(r3)
  80b96c:	e0bffb17 	ldw	r2,-20(fp)
  80b970:	10800917 	ldw	r2,36(r2)
  80b974:	1005003a 	cmpeq	r2,r2,zero
  80b978:	1000061e 	bne	r2,zero,80b994 <xQueueGenericReceive+0x100>
  80b97c:	e0bffb17 	ldw	r2,-20(fp)
  80b980:	11000904 	addi	r4,r2,36
  80b984:	080d3cc0 	call	80d3cc <xTaskRemoveFromEventList>
  80b988:	1005003a 	cmpeq	r2,r2,zero
  80b98c:	1000011e 	bne	r2,zero,80b994 <xQueueGenericReceive+0x100>
  80b990:	003b683a 	trap	0
  80b994:	080dca80 	call	80dca8 <xTaskGetSchedulerState>
  80b998:	1005003a 	cmpeq	r2,r2,zero
  80b99c:	1000011e 	bne	r2,zero,80b9a4 <xQueueGenericReceive+0x110>
  80b9a0:	080df2c0 	call	80df2c <vTaskExitCritical>
  80b9a4:	00800044 	movi	r2,1
  80b9a8:	e0bfff15 	stw	r2,-4(fp)
  80b9ac:	00005506 	br	80bb04 <xQueueGenericReceive+0x270>
  80b9b0:	e0bffd17 	ldw	r2,-12(fp)
  80b9b4:	1004c03a 	cmpne	r2,r2,zero
  80b9b8:	1000061e 	bne	r2,zero,80b9d4 <xQueueGenericReceive+0x140>
  80b9bc:	080dca80 	call	80dca8 <xTaskGetSchedulerState>
  80b9c0:	1005003a 	cmpeq	r2,r2,zero
  80b9c4:	1000011e 	bne	r2,zero,80b9cc <xQueueGenericReceive+0x138>
  80b9c8:	080df2c0 	call	80df2c <vTaskExitCritical>
  80b9cc:	e03fff15 	stw	zero,-4(fp)
  80b9d0:	00004c06 	br	80bb04 <xQueueGenericReceive+0x270>
  80b9d4:	e0bff817 	ldw	r2,-32(fp)
  80b9d8:	1004c03a 	cmpne	r2,r2,zero
  80b9dc:	1000041e 	bne	r2,zero,80b9f0 <xQueueGenericReceive+0x15c>
  80b9e0:	e13ff904 	addi	r4,fp,-28
  80b9e4:	080d4b00 	call	80d4b0 <vTaskSetTimeOutState>
  80b9e8:	00800044 	movi	r2,1
  80b9ec:	e0bff815 	stw	r2,-32(fp)
  80b9f0:	080dca80 	call	80dca8 <xTaskGetSchedulerState>
  80b9f4:	1005003a 	cmpeq	r2,r2,zero
  80b9f8:	1000011e 	bne	r2,zero,80ba00 <xQueueGenericReceive+0x16c>
  80b9fc:	080df2c0 	call	80df2c <vTaskExitCritical>
  80ba00:	080cce40 	call	80cce4 <vTaskSuspendAll>
  80ba04:	080dca80 	call	80dca8 <xTaskGetSchedulerState>
  80ba08:	1005003a 	cmpeq	r2,r2,zero
  80ba0c:	1000011e 	bne	r2,zero,80ba14 <xQueueGenericReceive+0x180>
  80ba10:	080dedc0 	call	80dedc <vTaskEnterCritical>
  80ba14:	e0bffb17 	ldw	r2,-20(fp)
  80ba18:	10801117 	ldw	r2,68(r2)
  80ba1c:	10bfffd8 	cmpnei	r2,r2,-1
  80ba20:	1000021e 	bne	r2,zero,80ba2c <xQueueGenericReceive+0x198>
  80ba24:	e0bffb17 	ldw	r2,-20(fp)
  80ba28:	10001115 	stw	zero,68(r2)
  80ba2c:	e0bffb17 	ldw	r2,-20(fp)
  80ba30:	10801217 	ldw	r2,72(r2)
  80ba34:	10bfffd8 	cmpnei	r2,r2,-1
  80ba38:	1000021e 	bne	r2,zero,80ba44 <xQueueGenericReceive+0x1b0>
  80ba3c:	e0bffb17 	ldw	r2,-20(fp)
  80ba40:	10001215 	stw	zero,72(r2)
  80ba44:	080dca80 	call	80dca8 <xTaskGetSchedulerState>
  80ba48:	1005003a 	cmpeq	r2,r2,zero
  80ba4c:	1000011e 	bne	r2,zero,80ba54 <xQueueGenericReceive+0x1c0>
  80ba50:	080df2c0 	call	80df2c <vTaskExitCritical>
  80ba54:	e13ff904 	addi	r4,fp,-28
  80ba58:	e17ffd04 	addi	r5,fp,-12
  80ba5c:	080d4e80 	call	80d4e8 <xTaskCheckForTimeOut>
  80ba60:	1004c03a 	cmpne	r2,r2,zero
  80ba64:	1000231e 	bne	r2,zero,80baf4 <xQueueGenericReceive+0x260>
  80ba68:	e13ffb17 	ldw	r4,-20(fp)
  80ba6c:	080c05c0 	call	80c05c <prvIsQueueEmpty>
  80ba70:	1005003a 	cmpeq	r2,r2,zero
  80ba74:	10001b1e 	bne	r2,zero,80bae4 <xQueueGenericReceive+0x250>
  80ba78:	e0bffb17 	ldw	r2,-20(fp)
  80ba7c:	10800017 	ldw	r2,0(r2)
  80ba80:	1004c03a 	cmpne	r2,r2,zero
  80ba84:	10000c1e 	bne	r2,zero,80bab8 <xQueueGenericReceive+0x224>
  80ba88:	080dca80 	call	80dca8 <xTaskGetSchedulerState>
  80ba8c:	1005003a 	cmpeq	r2,r2,zero
  80ba90:	1000011e 	bne	r2,zero,80ba98 <xQueueGenericReceive+0x204>
  80ba94:	080dedc0 	call	80dedc <vTaskEnterCritical>
  80ba98:	e0bffb17 	ldw	r2,-20(fp)
  80ba9c:	10800117 	ldw	r2,4(r2)
  80baa0:	1009883a 	mov	r4,r2
  80baa4:	080dcfc0 	call	80dcfc <vTaskPriorityInherit>
  80baa8:	080dca80 	call	80dca8 <xTaskGetSchedulerState>
  80baac:	1005003a 	cmpeq	r2,r2,zero
  80bab0:	1000011e 	bne	r2,zero,80bab8 <xQueueGenericReceive+0x224>
  80bab4:	080df2c0 	call	80df2c <vTaskExitCritical>
  80bab8:	e0bffb17 	ldw	r2,-20(fp)
  80babc:	11000904 	addi	r4,r2,36
  80bac0:	e17ffd17 	ldw	r5,-12(fp)
  80bac4:	080d2e80 	call	80d2e8 <vTaskPlaceOnEventList>
  80bac8:	e13ffb17 	ldw	r4,-20(fp)
  80bacc:	080bf3c0 	call	80bf3c <prvUnlockQueue>
  80bad0:	080cd0c0 	call	80cd0c <xTaskResumeAll>
  80bad4:	1004c03a 	cmpne	r2,r2,zero
  80bad8:	103f781e 	bne	r2,zero,80b8bc <xQueueGenericReceive+0x28>
  80badc:	003b683a 	trap	0
  80bae0:	003f7606 	br	80b8bc <xQueueGenericReceive+0x28>
  80bae4:	e13ffb17 	ldw	r4,-20(fp)
  80bae8:	080bf3c0 	call	80bf3c <prvUnlockQueue>
  80baec:	080cd0c0 	call	80cd0c <xTaskResumeAll>
  80baf0:	003f7206 	br	80b8bc <xQueueGenericReceive+0x28>
  80baf4:	e13ffb17 	ldw	r4,-20(fp)
  80baf8:	080bf3c0 	call	80bf3c <prvUnlockQueue>
  80bafc:	080cd0c0 	call	80cd0c <xTaskResumeAll>
  80bb00:	e03fff15 	stw	zero,-4(fp)
  80bb04:	e0bfff17 	ldw	r2,-4(fp)
  80bb08:	e037883a 	mov	sp,fp
  80bb0c:	dfc00117 	ldw	ra,4(sp)
  80bb10:	df000017 	ldw	fp,0(sp)
  80bb14:	dec00204 	addi	sp,sp,8
  80bb18:	f800283a 	ret

0080bb1c <xQueueReceiveFromISR>:
  80bb1c:	defff904 	addi	sp,sp,-28
  80bb20:	dfc00615 	stw	ra,24(sp)
  80bb24:	df000515 	stw	fp,20(sp)
  80bb28:	df000504 	addi	fp,sp,20
  80bb2c:	e13ffd15 	stw	r4,-12(fp)
  80bb30:	e17ffe15 	stw	r5,-8(fp)
  80bb34:	e1bfff15 	stw	r6,-4(fp)
  80bb38:	e03ffb15 	stw	zero,-20(fp)
  80bb3c:	e0bffd17 	ldw	r2,-12(fp)
  80bb40:	10800e17 	ldw	r2,56(r2)
  80bb44:	1005003a 	cmpeq	r2,r2,zero
  80bb48:	1000241e 	bne	r2,zero,80bbdc <xQueueReceiveFromISR+0xc0>
  80bb4c:	e13ffd17 	ldw	r4,-12(fp)
  80bb50:	e17ffe17 	ldw	r5,-8(fp)
  80bb54:	080bea00 	call	80bea0 <prvCopyDataFromQueue>
  80bb58:	e0bffd17 	ldw	r2,-12(fp)
  80bb5c:	10800e17 	ldw	r2,56(r2)
  80bb60:	10ffffc4 	addi	r3,r2,-1
  80bb64:	e0bffd17 	ldw	r2,-12(fp)
  80bb68:	10c00e15 	stw	r3,56(r2)
  80bb6c:	e0bffd17 	ldw	r2,-12(fp)
  80bb70:	10801117 	ldw	r2,68(r2)
  80bb74:	10bfffd8 	cmpnei	r2,r2,-1
  80bb78:	1000101e 	bne	r2,zero,80bbbc <xQueueReceiveFromISR+0xa0>
  80bb7c:	e0bffd17 	ldw	r2,-12(fp)
  80bb80:	10800417 	ldw	r2,16(r2)
  80bb84:	1005003a 	cmpeq	r2,r2,zero
  80bb88:	1000111e 	bne	r2,zero,80bbd0 <xQueueReceiveFromISR+0xb4>
  80bb8c:	e0bffd17 	ldw	r2,-12(fp)
  80bb90:	11000404 	addi	r4,r2,16
  80bb94:	080d3cc0 	call	80d3cc <xTaskRemoveFromEventList>
  80bb98:	1005003a 	cmpeq	r2,r2,zero
  80bb9c:	10000c1e 	bne	r2,zero,80bbd0 <xQueueReceiveFromISR+0xb4>
  80bba0:	e0bfff17 	ldw	r2,-4(fp)
  80bba4:	1005003a 	cmpeq	r2,r2,zero
  80bba8:	1000091e 	bne	r2,zero,80bbd0 <xQueueReceiveFromISR+0xb4>
  80bbac:	e0ffff17 	ldw	r3,-4(fp)
  80bbb0:	00800044 	movi	r2,1
  80bbb4:	18800015 	stw	r2,0(r3)
  80bbb8:	00000506 	br	80bbd0 <xQueueReceiveFromISR+0xb4>
  80bbbc:	e0bffd17 	ldw	r2,-12(fp)
  80bbc0:	10801117 	ldw	r2,68(r2)
  80bbc4:	10c00044 	addi	r3,r2,1
  80bbc8:	e0bffd17 	ldw	r2,-12(fp)
  80bbcc:	10c01115 	stw	r3,68(r2)
  80bbd0:	00800044 	movi	r2,1
  80bbd4:	e0bffc15 	stw	r2,-16(fp)
  80bbd8:	00000106 	br	80bbe0 <xQueueReceiveFromISR+0xc4>
  80bbdc:	e03ffc15 	stw	zero,-16(fp)
  80bbe0:	e0bffc17 	ldw	r2,-16(fp)
  80bbe4:	e037883a 	mov	sp,fp
  80bbe8:	dfc00117 	ldw	ra,4(sp)
  80bbec:	df000017 	ldw	fp,0(sp)
  80bbf0:	dec00204 	addi	sp,sp,8
  80bbf4:	f800283a 	ret

0080bbf8 <uxQueueMessagesWaiting>:
  80bbf8:	defffc04 	addi	sp,sp,-16
  80bbfc:	dfc00315 	stw	ra,12(sp)
  80bc00:	df000215 	stw	fp,8(sp)
  80bc04:	df000204 	addi	fp,sp,8
  80bc08:	e13fff15 	stw	r4,-4(fp)
  80bc0c:	080dca80 	call	80dca8 <xTaskGetSchedulerState>
  80bc10:	1005003a 	cmpeq	r2,r2,zero
  80bc14:	1000011e 	bne	r2,zero,80bc1c <uxQueueMessagesWaiting+0x24>
  80bc18:	080dedc0 	call	80dedc <vTaskEnterCritical>
  80bc1c:	e0bfff17 	ldw	r2,-4(fp)
  80bc20:	10800e17 	ldw	r2,56(r2)
  80bc24:	e0bffe15 	stw	r2,-8(fp)
  80bc28:	080dca80 	call	80dca8 <xTaskGetSchedulerState>
  80bc2c:	1005003a 	cmpeq	r2,r2,zero
  80bc30:	1000011e 	bne	r2,zero,80bc38 <uxQueueMessagesWaiting+0x40>
  80bc34:	080df2c0 	call	80df2c <vTaskExitCritical>
  80bc38:	e0bffe17 	ldw	r2,-8(fp)
  80bc3c:	e037883a 	mov	sp,fp
  80bc40:	dfc00117 	ldw	ra,4(sp)
  80bc44:	df000017 	ldw	fp,0(sp)
  80bc48:	dec00204 	addi	sp,sp,8
  80bc4c:	f800283a 	ret

0080bc50 <uxQueueMessagesWaitingFromISR>:
  80bc50:	defffd04 	addi	sp,sp,-12
  80bc54:	df000215 	stw	fp,8(sp)
  80bc58:	df000204 	addi	fp,sp,8
  80bc5c:	e13fff15 	stw	r4,-4(fp)
  80bc60:	e0bfff17 	ldw	r2,-4(fp)
  80bc64:	10800e17 	ldw	r2,56(r2)
  80bc68:	e0bffe15 	stw	r2,-8(fp)
  80bc6c:	e0bffe17 	ldw	r2,-8(fp)
  80bc70:	e037883a 	mov	sp,fp
  80bc74:	df000017 	ldw	fp,0(sp)
  80bc78:	dec00104 	addi	sp,sp,4
  80bc7c:	f800283a 	ret

0080bc80 <vQueueDelete>:
  80bc80:	defffd04 	addi	sp,sp,-12
  80bc84:	dfc00215 	stw	ra,8(sp)
  80bc88:	df000115 	stw	fp,4(sp)
  80bc8c:	df000104 	addi	fp,sp,4
  80bc90:	e13fff15 	stw	r4,-4(fp)
  80bc94:	e0bfff17 	ldw	r2,-4(fp)
  80bc98:	11000017 	ldw	r4,0(r2)
  80bc9c:	08113400 	call	811340 <vPortFree>
  80bca0:	e13fff17 	ldw	r4,-4(fp)
  80bca4:	08113400 	call	811340 <vPortFree>
  80bca8:	e037883a 	mov	sp,fp
  80bcac:	dfc00117 	ldw	ra,4(sp)
  80bcb0:	df000017 	ldw	fp,0(sp)
  80bcb4:	dec00204 	addi	sp,sp,8
  80bcb8:	f800283a 	ret

0080bcbc <ucQueueGetQueueNumber>:
  80bcbc:	defffe04 	addi	sp,sp,-8
  80bcc0:	df000115 	stw	fp,4(sp)
  80bcc4:	df000104 	addi	fp,sp,4
  80bcc8:	e13fff15 	stw	r4,-4(fp)
  80bccc:	e0bfff17 	ldw	r2,-4(fp)
  80bcd0:	10801303 	ldbu	r2,76(r2)
  80bcd4:	10803fcc 	andi	r2,r2,255
  80bcd8:	e037883a 	mov	sp,fp
  80bcdc:	df000017 	ldw	fp,0(sp)
  80bce0:	dec00104 	addi	sp,sp,4
  80bce4:	f800283a 	ret

0080bce8 <vQueueSetQueueNumber>:
  80bce8:	defffd04 	addi	sp,sp,-12
  80bcec:	df000215 	stw	fp,8(sp)
  80bcf0:	df000204 	addi	fp,sp,8
  80bcf4:	e13ffe15 	stw	r4,-8(fp)
  80bcf8:	e17fff05 	stb	r5,-4(fp)
  80bcfc:	e0fffe17 	ldw	r3,-8(fp)
  80bd00:	e0bfff03 	ldbu	r2,-4(fp)
  80bd04:	18801305 	stb	r2,76(r3)
  80bd08:	e037883a 	mov	sp,fp
  80bd0c:	df000017 	ldw	fp,0(sp)
  80bd10:	dec00104 	addi	sp,sp,4
  80bd14:	f800283a 	ret

0080bd18 <ucQueueGetQueueType>:
  80bd18:	defffe04 	addi	sp,sp,-8
  80bd1c:	df000115 	stw	fp,4(sp)
  80bd20:	df000104 	addi	fp,sp,4
  80bd24:	e13fff15 	stw	r4,-4(fp)
  80bd28:	e0bfff17 	ldw	r2,-4(fp)
  80bd2c:	10801343 	ldbu	r2,77(r2)
  80bd30:	10803fcc 	andi	r2,r2,255
  80bd34:	e037883a 	mov	sp,fp
  80bd38:	df000017 	ldw	fp,0(sp)
  80bd3c:	dec00104 	addi	sp,sp,4
  80bd40:	f800283a 	ret

0080bd44 <prvCopyDataToQueue>:
  80bd44:	defffb04 	addi	sp,sp,-20
  80bd48:	dfc00415 	stw	ra,16(sp)
  80bd4c:	df000315 	stw	fp,12(sp)
  80bd50:	df000304 	addi	fp,sp,12
  80bd54:	e13ffd15 	stw	r4,-12(fp)
  80bd58:	e17ffe15 	stw	r5,-8(fp)
  80bd5c:	e1bfff15 	stw	r6,-4(fp)
  80bd60:	e0bffd17 	ldw	r2,-12(fp)
  80bd64:	10801017 	ldw	r2,64(r2)
  80bd68:	1004c03a 	cmpne	r2,r2,zero
  80bd6c:	10000b1e 	bne	r2,zero,80bd9c <prvCopyDataToQueue+0x58>
  80bd70:	e0bffd17 	ldw	r2,-12(fp)
  80bd74:	10800017 	ldw	r2,0(r2)
  80bd78:	1004c03a 	cmpne	r2,r2,zero
  80bd7c:	10003e1e 	bne	r2,zero,80be78 <prvCopyDataToQueue+0x134>
  80bd80:	e0bffd17 	ldw	r2,-12(fp)
  80bd84:	10800117 	ldw	r2,4(r2)
  80bd88:	1009883a 	mov	r4,r2
  80bd8c:	080de100 	call	80de10 <vTaskPriorityDisinherit>
  80bd90:	e0bffd17 	ldw	r2,-12(fp)
  80bd94:	10000115 	stw	zero,4(r2)
  80bd98:	00003706 	br	80be78 <prvCopyDataToQueue+0x134>
  80bd9c:	e0bfff17 	ldw	r2,-4(fp)
  80bda0:	1004c03a 	cmpne	r2,r2,zero
  80bda4:	1000191e 	bne	r2,zero,80be0c <prvCopyDataToQueue+0xc8>
  80bda8:	e0bffd17 	ldw	r2,-12(fp)
  80bdac:	10c00217 	ldw	r3,8(r2)
  80bdb0:	e0bffd17 	ldw	r2,-12(fp)
  80bdb4:	11801017 	ldw	r6,64(r2)
  80bdb8:	e0bffe17 	ldw	r2,-8(fp)
  80bdbc:	1809883a 	mov	r4,r3
  80bdc0:	100b883a 	mov	r5,r2
  80bdc4:	080689c0 	call	80689c <memcpy>
  80bdc8:	e0bffd17 	ldw	r2,-12(fp)
  80bdcc:	10c00217 	ldw	r3,8(r2)
  80bdd0:	e0bffd17 	ldw	r2,-12(fp)
  80bdd4:	10801017 	ldw	r2,64(r2)
  80bdd8:	1887883a 	add	r3,r3,r2
  80bddc:	e0bffd17 	ldw	r2,-12(fp)
  80bde0:	10c00215 	stw	r3,8(r2)
  80bde4:	e0bffd17 	ldw	r2,-12(fp)
  80bde8:	10c00217 	ldw	r3,8(r2)
  80bdec:	e0bffd17 	ldw	r2,-12(fp)
  80bdf0:	10800117 	ldw	r2,4(r2)
  80bdf4:	18802036 	bltu	r3,r2,80be78 <prvCopyDataToQueue+0x134>
  80bdf8:	e0bffd17 	ldw	r2,-12(fp)
  80bdfc:	10c00017 	ldw	r3,0(r2)
  80be00:	e0bffd17 	ldw	r2,-12(fp)
  80be04:	10c00215 	stw	r3,8(r2)
  80be08:	00001b06 	br	80be78 <prvCopyDataToQueue+0x134>
  80be0c:	e0bffd17 	ldw	r2,-12(fp)
  80be10:	10c00317 	ldw	r3,12(r2)
  80be14:	e0bffd17 	ldw	r2,-12(fp)
  80be18:	11801017 	ldw	r6,64(r2)
  80be1c:	e0bffe17 	ldw	r2,-8(fp)
  80be20:	1809883a 	mov	r4,r3
  80be24:	100b883a 	mov	r5,r2
  80be28:	080689c0 	call	80689c <memcpy>
  80be2c:	e0bffd17 	ldw	r2,-12(fp)
  80be30:	10c00317 	ldw	r3,12(r2)
  80be34:	e0bffd17 	ldw	r2,-12(fp)
  80be38:	10801017 	ldw	r2,64(r2)
  80be3c:	1887c83a 	sub	r3,r3,r2
  80be40:	e0bffd17 	ldw	r2,-12(fp)
  80be44:	10c00315 	stw	r3,12(r2)
  80be48:	e0bffd17 	ldw	r2,-12(fp)
  80be4c:	10c00317 	ldw	r3,12(r2)
  80be50:	e0bffd17 	ldw	r2,-12(fp)
  80be54:	10800017 	ldw	r2,0(r2)
  80be58:	1880072e 	bgeu	r3,r2,80be78 <prvCopyDataToQueue+0x134>
  80be5c:	e0bffd17 	ldw	r2,-12(fp)
  80be60:	10c00117 	ldw	r3,4(r2)
  80be64:	e0bffd17 	ldw	r2,-12(fp)
  80be68:	10801017 	ldw	r2,64(r2)
  80be6c:	1887c83a 	sub	r3,r3,r2
  80be70:	e0bffd17 	ldw	r2,-12(fp)
  80be74:	10c00315 	stw	r3,12(r2)
  80be78:	e0bffd17 	ldw	r2,-12(fp)
  80be7c:	10800e17 	ldw	r2,56(r2)
  80be80:	10c00044 	addi	r3,r2,1
  80be84:	e0bffd17 	ldw	r2,-12(fp)
  80be88:	10c00e15 	stw	r3,56(r2)
  80be8c:	e037883a 	mov	sp,fp
  80be90:	dfc00117 	ldw	ra,4(sp)
  80be94:	df000017 	ldw	fp,0(sp)
  80be98:	dec00204 	addi	sp,sp,8
  80be9c:	f800283a 	ret

0080bea0 <prvCopyDataFromQueue>:
  80bea0:	defffc04 	addi	sp,sp,-16
  80bea4:	dfc00315 	stw	ra,12(sp)
  80bea8:	df000215 	stw	fp,8(sp)
  80beac:	df000204 	addi	fp,sp,8
  80beb0:	e13ffe15 	stw	r4,-8(fp)
  80beb4:	e17fff15 	stw	r5,-4(fp)
  80beb8:	e0bffe17 	ldw	r2,-8(fp)
  80bebc:	10800017 	ldw	r2,0(r2)
  80bec0:	1005003a 	cmpeq	r2,r2,zero
  80bec4:	1000181e 	bne	r2,zero,80bf28 <prvCopyDataFromQueue+0x88>
  80bec8:	e0bffe17 	ldw	r2,-8(fp)
  80becc:	10c00317 	ldw	r3,12(r2)
  80bed0:	e0bffe17 	ldw	r2,-8(fp)
  80bed4:	10801017 	ldw	r2,64(r2)
  80bed8:	1887883a 	add	r3,r3,r2
  80bedc:	e0bffe17 	ldw	r2,-8(fp)
  80bee0:	10c00315 	stw	r3,12(r2)
  80bee4:	e0bffe17 	ldw	r2,-8(fp)
  80bee8:	10c00317 	ldw	r3,12(r2)
  80beec:	e0bffe17 	ldw	r2,-8(fp)
  80bef0:	10800117 	ldw	r2,4(r2)
  80bef4:	18800436 	bltu	r3,r2,80bf08 <prvCopyDataFromQueue+0x68>
  80bef8:	e0bffe17 	ldw	r2,-8(fp)
  80befc:	10c00017 	ldw	r3,0(r2)
  80bf00:	e0bffe17 	ldw	r2,-8(fp)
  80bf04:	10c00315 	stw	r3,12(r2)
  80bf08:	e0bffe17 	ldw	r2,-8(fp)
  80bf0c:	10c00317 	ldw	r3,12(r2)
  80bf10:	e0bffe17 	ldw	r2,-8(fp)
  80bf14:	11801017 	ldw	r6,64(r2)
  80bf18:	e0bfff17 	ldw	r2,-4(fp)
  80bf1c:	1009883a 	mov	r4,r2
  80bf20:	180b883a 	mov	r5,r3
  80bf24:	080689c0 	call	80689c <memcpy>
  80bf28:	e037883a 	mov	sp,fp
  80bf2c:	dfc00117 	ldw	ra,4(sp)
  80bf30:	df000017 	ldw	fp,0(sp)
  80bf34:	dec00204 	addi	sp,sp,8
  80bf38:	f800283a 	ret

0080bf3c <prvUnlockQueue>:
  80bf3c:	defffd04 	addi	sp,sp,-12
  80bf40:	dfc00215 	stw	ra,8(sp)
  80bf44:	df000115 	stw	fp,4(sp)
  80bf48:	df000104 	addi	fp,sp,4
  80bf4c:	e13fff15 	stw	r4,-4(fp)
  80bf50:	080dca80 	call	80dca8 <xTaskGetSchedulerState>
  80bf54:	1005003a 	cmpeq	r2,r2,zero
  80bf58:	1000111e 	bne	r2,zero,80bfa0 <prvUnlockQueue+0x64>
  80bf5c:	080dedc0 	call	80dedc <vTaskEnterCritical>
  80bf60:	00000f06 	br	80bfa0 <prvUnlockQueue+0x64>
  80bf64:	e0bfff17 	ldw	r2,-4(fp)
  80bf68:	10800917 	ldw	r2,36(r2)
  80bf6c:	1005003a 	cmpeq	r2,r2,zero
  80bf70:	10000f1e 	bne	r2,zero,80bfb0 <prvUnlockQueue+0x74>
  80bf74:	e0bfff17 	ldw	r2,-4(fp)
  80bf78:	11000904 	addi	r4,r2,36
  80bf7c:	080d3cc0 	call	80d3cc <xTaskRemoveFromEventList>
  80bf80:	1005003a 	cmpeq	r2,r2,zero
  80bf84:	1000011e 	bne	r2,zero,80bf8c <prvUnlockQueue+0x50>
  80bf88:	080d5d40 	call	80d5d4 <vTaskMissedYield>
  80bf8c:	e0bfff17 	ldw	r2,-4(fp)
  80bf90:	10801217 	ldw	r2,72(r2)
  80bf94:	10ffffc4 	addi	r3,r2,-1
  80bf98:	e0bfff17 	ldw	r2,-4(fp)
  80bf9c:	10c01215 	stw	r3,72(r2)
  80bfa0:	e0bfff17 	ldw	r2,-4(fp)
  80bfa4:	10801217 	ldw	r2,72(r2)
  80bfa8:	10800048 	cmpgei	r2,r2,1
  80bfac:	103fed1e 	bne	r2,zero,80bf64 <prvUnlockQueue+0x28>
  80bfb0:	e0ffff17 	ldw	r3,-4(fp)
  80bfb4:	00bfffc4 	movi	r2,-1
  80bfb8:	18801215 	stw	r2,72(r3)
  80bfbc:	080dca80 	call	80dca8 <xTaskGetSchedulerState>
  80bfc0:	1005003a 	cmpeq	r2,r2,zero
  80bfc4:	1000011e 	bne	r2,zero,80bfcc <prvUnlockQueue+0x90>
  80bfc8:	080df2c0 	call	80df2c <vTaskExitCritical>
  80bfcc:	080dca80 	call	80dca8 <xTaskGetSchedulerState>
  80bfd0:	1005003a 	cmpeq	r2,r2,zero
  80bfd4:	1000111e 	bne	r2,zero,80c01c <prvUnlockQueue+0xe0>
  80bfd8:	080dedc0 	call	80dedc <vTaskEnterCritical>
  80bfdc:	00000f06 	br	80c01c <prvUnlockQueue+0xe0>
  80bfe0:	e0bfff17 	ldw	r2,-4(fp)
  80bfe4:	10800417 	ldw	r2,16(r2)
  80bfe8:	1005003a 	cmpeq	r2,r2,zero
  80bfec:	10000f1e 	bne	r2,zero,80c02c <prvUnlockQueue+0xf0>
  80bff0:	e0bfff17 	ldw	r2,-4(fp)
  80bff4:	11000404 	addi	r4,r2,16
  80bff8:	080d3cc0 	call	80d3cc <xTaskRemoveFromEventList>
  80bffc:	1005003a 	cmpeq	r2,r2,zero
  80c000:	1000011e 	bne	r2,zero,80c008 <prvUnlockQueue+0xcc>
  80c004:	080d5d40 	call	80d5d4 <vTaskMissedYield>
  80c008:	e0bfff17 	ldw	r2,-4(fp)
  80c00c:	10801117 	ldw	r2,68(r2)
  80c010:	10ffffc4 	addi	r3,r2,-1
  80c014:	e0bfff17 	ldw	r2,-4(fp)
  80c018:	10c01115 	stw	r3,68(r2)
  80c01c:	e0bfff17 	ldw	r2,-4(fp)
  80c020:	10801117 	ldw	r2,68(r2)
  80c024:	10800048 	cmpgei	r2,r2,1
  80c028:	103fed1e 	bne	r2,zero,80bfe0 <prvUnlockQueue+0xa4>
  80c02c:	e0ffff17 	ldw	r3,-4(fp)
  80c030:	00bfffc4 	movi	r2,-1
  80c034:	18801115 	stw	r2,68(r3)
  80c038:	080dca80 	call	80dca8 <xTaskGetSchedulerState>
  80c03c:	1005003a 	cmpeq	r2,r2,zero
  80c040:	1000011e 	bne	r2,zero,80c048 <prvUnlockQueue+0x10c>
  80c044:	080df2c0 	call	80df2c <vTaskExitCritical>
  80c048:	e037883a 	mov	sp,fp
  80c04c:	dfc00117 	ldw	ra,4(sp)
  80c050:	df000017 	ldw	fp,0(sp)
  80c054:	dec00204 	addi	sp,sp,8
  80c058:	f800283a 	ret

0080c05c <prvIsQueueEmpty>:
  80c05c:	defffc04 	addi	sp,sp,-16
  80c060:	dfc00315 	stw	ra,12(sp)
  80c064:	df000215 	stw	fp,8(sp)
  80c068:	df000204 	addi	fp,sp,8
  80c06c:	e13fff15 	stw	r4,-4(fp)
  80c070:	080dca80 	call	80dca8 <xTaskGetSchedulerState>
  80c074:	1005003a 	cmpeq	r2,r2,zero
  80c078:	1000011e 	bne	r2,zero,80c080 <prvIsQueueEmpty+0x24>
  80c07c:	080dedc0 	call	80dedc <vTaskEnterCritical>
  80c080:	e0bfff17 	ldw	r2,-4(fp)
  80c084:	10800e17 	ldw	r2,56(r2)
  80c088:	1005003a 	cmpeq	r2,r2,zero
  80c08c:	e0bffe15 	stw	r2,-8(fp)
  80c090:	080dca80 	call	80dca8 <xTaskGetSchedulerState>
  80c094:	1005003a 	cmpeq	r2,r2,zero
  80c098:	1000011e 	bne	r2,zero,80c0a0 <prvIsQueueEmpty+0x44>
  80c09c:	080df2c0 	call	80df2c <vTaskExitCritical>
  80c0a0:	e0bffe17 	ldw	r2,-8(fp)
  80c0a4:	e037883a 	mov	sp,fp
  80c0a8:	dfc00117 	ldw	ra,4(sp)
  80c0ac:	df000017 	ldw	fp,0(sp)
  80c0b0:	dec00204 	addi	sp,sp,8
  80c0b4:	f800283a 	ret

0080c0b8 <xQueueIsQueueEmptyFromISR>:
  80c0b8:	defffd04 	addi	sp,sp,-12
  80c0bc:	df000215 	stw	fp,8(sp)
  80c0c0:	df000204 	addi	fp,sp,8
  80c0c4:	e13fff15 	stw	r4,-4(fp)
  80c0c8:	e0bfff17 	ldw	r2,-4(fp)
  80c0cc:	10800e17 	ldw	r2,56(r2)
  80c0d0:	1005003a 	cmpeq	r2,r2,zero
  80c0d4:	e0bffe15 	stw	r2,-8(fp)
  80c0d8:	e0bffe17 	ldw	r2,-8(fp)
  80c0dc:	e037883a 	mov	sp,fp
  80c0e0:	df000017 	ldw	fp,0(sp)
  80c0e4:	dec00104 	addi	sp,sp,4
  80c0e8:	f800283a 	ret

0080c0ec <prvIsQueueFull>:
  80c0ec:	defffc04 	addi	sp,sp,-16
  80c0f0:	dfc00315 	stw	ra,12(sp)
  80c0f4:	df000215 	stw	fp,8(sp)
  80c0f8:	df000204 	addi	fp,sp,8
  80c0fc:	e13fff15 	stw	r4,-4(fp)
  80c100:	080dca80 	call	80dca8 <xTaskGetSchedulerState>
  80c104:	1005003a 	cmpeq	r2,r2,zero
  80c108:	1000011e 	bne	r2,zero,80c110 <prvIsQueueFull+0x24>
  80c10c:	080dedc0 	call	80dedc <vTaskEnterCritical>
  80c110:	e0bfff17 	ldw	r2,-4(fp)
  80c114:	10c00e17 	ldw	r3,56(r2)
  80c118:	e0bfff17 	ldw	r2,-4(fp)
  80c11c:	10800f17 	ldw	r2,60(r2)
  80c120:	1885003a 	cmpeq	r2,r3,r2
  80c124:	e0bffe15 	stw	r2,-8(fp)
  80c128:	080dca80 	call	80dca8 <xTaskGetSchedulerState>
  80c12c:	1005003a 	cmpeq	r2,r2,zero
  80c130:	1000011e 	bne	r2,zero,80c138 <prvIsQueueFull+0x4c>
  80c134:	080df2c0 	call	80df2c <vTaskExitCritical>
  80c138:	e0bffe17 	ldw	r2,-8(fp)
  80c13c:	e037883a 	mov	sp,fp
  80c140:	dfc00117 	ldw	ra,4(sp)
  80c144:	df000017 	ldw	fp,0(sp)
  80c148:	dec00204 	addi	sp,sp,8
  80c14c:	f800283a 	ret

0080c150 <xQueueIsQueueFullFromISR>:
  80c150:	defffd04 	addi	sp,sp,-12
  80c154:	df000215 	stw	fp,8(sp)
  80c158:	df000204 	addi	fp,sp,8
  80c15c:	e13fff15 	stw	r4,-4(fp)
  80c160:	e0bfff17 	ldw	r2,-4(fp)
  80c164:	10c00e17 	ldw	r3,56(r2)
  80c168:	e0bfff17 	ldw	r2,-4(fp)
  80c16c:	10800f17 	ldw	r2,60(r2)
  80c170:	1885003a 	cmpeq	r2,r3,r2
  80c174:	e0bffe15 	stw	r2,-8(fp)
  80c178:	e0bffe17 	ldw	r2,-8(fp)
  80c17c:	e037883a 	mov	sp,fp
  80c180:	df000017 	ldw	fp,0(sp)
  80c184:	dec00104 	addi	sp,sp,4
  80c188:	f800283a 	ret

0080c18c <vQueueWaitForMessageRestricted>:
  80c18c:	defffc04 	addi	sp,sp,-16
  80c190:	dfc00315 	stw	ra,12(sp)
  80c194:	df000215 	stw	fp,8(sp)
  80c198:	df000204 	addi	fp,sp,8
  80c19c:	e13ffe15 	stw	r4,-8(fp)
  80c1a0:	e17fff15 	stw	r5,-4(fp)
  80c1a4:	080dca80 	call	80dca8 <xTaskGetSchedulerState>
  80c1a8:	1005003a 	cmpeq	r2,r2,zero
  80c1ac:	1000011e 	bne	r2,zero,80c1b4 <vQueueWaitForMessageRestricted+0x28>
  80c1b0:	080dedc0 	call	80dedc <vTaskEnterCritical>
  80c1b4:	e0bffe17 	ldw	r2,-8(fp)
  80c1b8:	10801117 	ldw	r2,68(r2)
  80c1bc:	10bfffd8 	cmpnei	r2,r2,-1
  80c1c0:	1000021e 	bne	r2,zero,80c1cc <vQueueWaitForMessageRestricted+0x40>
  80c1c4:	e0bffe17 	ldw	r2,-8(fp)
  80c1c8:	10001115 	stw	zero,68(r2)
  80c1cc:	e0bffe17 	ldw	r2,-8(fp)
  80c1d0:	10801217 	ldw	r2,72(r2)
  80c1d4:	10bfffd8 	cmpnei	r2,r2,-1
  80c1d8:	1000021e 	bne	r2,zero,80c1e4 <vQueueWaitForMessageRestricted+0x58>
  80c1dc:	e0bffe17 	ldw	r2,-8(fp)
  80c1e0:	10001215 	stw	zero,72(r2)
  80c1e4:	080dca80 	call	80dca8 <xTaskGetSchedulerState>
  80c1e8:	1005003a 	cmpeq	r2,r2,zero
  80c1ec:	1000011e 	bne	r2,zero,80c1f4 <vQueueWaitForMessageRestricted+0x68>
  80c1f0:	080df2c0 	call	80df2c <vTaskExitCritical>
  80c1f4:	e0bffe17 	ldw	r2,-8(fp)
  80c1f8:	10800e17 	ldw	r2,56(r2)
  80c1fc:	1004c03a 	cmpne	r2,r2,zero
  80c200:	1000041e 	bne	r2,zero,80c214 <vQueueWaitForMessageRestricted+0x88>
  80c204:	e0bffe17 	ldw	r2,-8(fp)
  80c208:	11000904 	addi	r4,r2,36
  80c20c:	e17fff17 	ldw	r5,-4(fp)
  80c210:	080d36c0 	call	80d36c <vTaskPlaceOnEventListRestricted>
  80c214:	e13ffe17 	ldw	r4,-8(fp)
  80c218:	080bf3c0 	call	80bf3c <prvUnlockQueue>
  80c21c:	e037883a 	mov	sp,fp
  80c220:	dfc00117 	ldw	ra,4(sp)
  80c224:	df000017 	ldw	fp,0(sp)
  80c228:	dec00204 	addi	sp,sp,8
  80c22c:	f800283a 	ret

0080c230 <xTaskGenericCreate>:
  80c230:	defff604 	addi	sp,sp,-40
  80c234:	dfc00915 	stw	ra,36(sp)
  80c238:	df000815 	stw	fp,32(sp)
  80c23c:	df000804 	addi	fp,sp,32
  80c240:	e13ffc15 	stw	r4,-16(fp)
  80c244:	e17ffd15 	stw	r5,-12(fp)
  80c248:	e1ffff15 	stw	r7,-4(fp)
  80c24c:	e1bffe0d 	sth	r6,-8(fp)
  80c250:	e13ffe0b 	ldhu	r4,-8(fp)
  80c254:	e1400417 	ldw	r5,16(fp)
  80c258:	080d9640 	call	80d964 <prvAllocateTCBAndStack>
  80c25c:	e0bffa15 	stw	r2,-24(fp)
  80c260:	e0bffa17 	ldw	r2,-24(fp)
  80c264:	1005003a 	cmpeq	r2,r2,zero
  80c268:	1000611e 	bne	r2,zero,80c3f0 <xTaskGenericCreate+0x1c0>
  80c26c:	e0bffa17 	ldw	r2,-24(fp)
  80c270:	10c00c17 	ldw	r3,48(r2)
  80c274:	e0bffe0b 	ldhu	r2,-8(fp)
  80c278:	1085883a 	add	r2,r2,r2
  80c27c:	1085883a 	add	r2,r2,r2
  80c280:	1885883a 	add	r2,r3,r2
  80c284:	10bfff04 	addi	r2,r2,-4
  80c288:	e0bff915 	stw	r2,-28(fp)
  80c28c:	e0bff917 	ldw	r2,-28(fp)
  80c290:	1007883a 	mov	r3,r2
  80c294:	00bfff04 	movi	r2,-4
  80c298:	1884703a 	and	r2,r3,r2
  80c29c:	e0bff915 	stw	r2,-28(fp)
  80c2a0:	e0bffe0b 	ldhu	r2,-8(fp)
  80c2a4:	d8800015 	stw	r2,0(sp)
  80c2a8:	e13ffa17 	ldw	r4,-24(fp)
  80c2ac:	e17ffd17 	ldw	r5,-12(fp)
  80c2b0:	e1800217 	ldw	r6,8(fp)
  80c2b4:	e1c00517 	ldw	r7,20(fp)
  80c2b8:	080d6a40 	call	80d6a4 <prvInitialiseTCBVariables>
  80c2bc:	e13ff917 	ldw	r4,-28(fp)
  80c2c0:	e17ffc17 	ldw	r5,-16(fp)
  80c2c4:	e1bfff17 	ldw	r6,-4(fp)
  80c2c8:	08116200 	call	811620 <pxPortInitialiseStack>
  80c2cc:	1007883a 	mov	r3,r2
  80c2d0:	e0bffa17 	ldw	r2,-24(fp)
  80c2d4:	10c00015 	stw	r3,0(r2)
  80c2d8:	e0800317 	ldw	r2,12(fp)
  80c2dc:	1005003a 	cmpeq	r2,r2,zero
  80c2e0:	1000031e 	bne	r2,zero,80c2f0 <xTaskGenericCreate+0xc0>
  80c2e4:	e0c00317 	ldw	r3,12(fp)
  80c2e8:	e0bffa17 	ldw	r2,-24(fp)
  80c2ec:	18800015 	stw	r2,0(r3)
  80c2f0:	080dca80 	call	80dca8 <xTaskGetSchedulerState>
  80c2f4:	1005003a 	cmpeq	r2,r2,zero
  80c2f8:	1000011e 	bne	r2,zero,80c300 <xTaskGenericCreate+0xd0>
  80c2fc:	080dedc0 	call	80dedc <vTaskEnterCritical>
  80c300:	d0a6f517 	ldw	r2,-25644(gp)
  80c304:	10800044 	addi	r2,r2,1
  80c308:	d0a6f515 	stw	r2,-25644(gp)
  80c30c:	d0a6f317 	ldw	r2,-25652(gp)
  80c310:	1004c03a 	cmpne	r2,r2,zero
  80c314:	1000071e 	bne	r2,zero,80c334 <xTaskGenericCreate+0x104>
  80c318:	e0bffa17 	ldw	r2,-24(fp)
  80c31c:	d0a6f315 	stw	r2,-25652(gp)
  80c320:	d0a6f517 	ldw	r2,-25644(gp)
  80c324:	10800058 	cmpnei	r2,r2,1
  80c328:	10000b1e 	bne	r2,zero,80c358 <xTaskGenericCreate+0x128>
  80c32c:	080d7780 	call	80d778 <prvInitialiseTaskLists>
  80c330:	00000906 	br	80c358 <xTaskGenericCreate+0x128>
  80c334:	d0a6f917 	ldw	r2,-25628(gp)
  80c338:	1004c03a 	cmpne	r2,r2,zero
  80c33c:	1000061e 	bne	r2,zero,80c358 <xTaskGenericCreate+0x128>
  80c340:	d0a6f317 	ldw	r2,-25652(gp)
  80c344:	10c00b17 	ldw	r3,44(r2)
  80c348:	e0800217 	ldw	r2,8(fp)
  80c34c:	10c00236 	bltu	r2,r3,80c358 <xTaskGenericCreate+0x128>
  80c350:	e0bffa17 	ldw	r2,-24(fp)
  80c354:	d0a6f315 	stw	r2,-25652(gp)
  80c358:	e0bffa17 	ldw	r2,-24(fp)
  80c35c:	10c00b17 	ldw	r3,44(r2)
  80c360:	d0a6f717 	ldw	r2,-25636(gp)
  80c364:	10c0032e 	bgeu	r2,r3,80c374 <xTaskGenericCreate+0x144>
  80c368:	e0bffa17 	ldw	r2,-24(fp)
  80c36c:	10800b17 	ldw	r2,44(r2)
  80c370:	d0a6f715 	stw	r2,-25636(gp)
  80c374:	d0e6fe17 	ldw	r3,-25608(gp)
  80c378:	e0bffa17 	ldw	r2,-24(fp)
  80c37c:	10c01815 	stw	r3,96(r2)
  80c380:	d0a6fe17 	ldw	r2,-25608(gp)
  80c384:	10800044 	addi	r2,r2,1
  80c388:	d0a6fe15 	stw	r2,-25608(gp)
  80c38c:	e0bffa17 	ldw	r2,-24(fp)
  80c390:	10c00b17 	ldw	r3,44(r2)
  80c394:	d0a6f817 	ldw	r2,-25632(gp)
  80c398:	10c0032e 	bgeu	r2,r3,80c3a8 <xTaskGenericCreate+0x178>
  80c39c:	e0bffa17 	ldw	r2,-24(fp)
  80c3a0:	10800b17 	ldw	r2,44(r2)
  80c3a4:	d0a6f815 	stw	r2,-25632(gp)
  80c3a8:	e0bffa17 	ldw	r2,-24(fp)
  80c3ac:	11000b17 	ldw	r4,44(r2)
  80c3b0:	01400504 	movi	r5,20
  80c3b4:	08014540 	call	801454 <__mulsi3>
  80c3b8:	1007883a 	mov	r3,r2
  80c3bc:	00802074 	movhi	r2,129
  80c3c0:	109a1604 	addi	r2,r2,26712
  80c3c4:	1889883a 	add	r4,r3,r2
  80c3c8:	e0bffa17 	ldw	r2,-24(fp)
  80c3cc:	11400104 	addi	r5,r2,4
  80c3d0:	081141c0 	call	81141c <vListInsertEnd>
  80c3d4:	00800044 	movi	r2,1
  80c3d8:	e0bffb15 	stw	r2,-20(fp)
  80c3dc:	080dca80 	call	80dca8 <xTaskGetSchedulerState>
  80c3e0:	1005003a 	cmpeq	r2,r2,zero
  80c3e4:	1000041e 	bne	r2,zero,80c3f8 <xTaskGenericCreate+0x1c8>
  80c3e8:	080df2c0 	call	80df2c <vTaskExitCritical>
  80c3ec:	00000206 	br	80c3f8 <xTaskGenericCreate+0x1c8>
  80c3f0:	00bfffc4 	movi	r2,-1
  80c3f4:	e0bffb15 	stw	r2,-20(fp)
  80c3f8:	e0bffb17 	ldw	r2,-20(fp)
  80c3fc:	10800058 	cmpnei	r2,r2,1
  80c400:	1000081e 	bne	r2,zero,80c424 <xTaskGenericCreate+0x1f4>
  80c404:	d0a6f917 	ldw	r2,-25628(gp)
  80c408:	1005003a 	cmpeq	r2,r2,zero
  80c40c:	1000051e 	bne	r2,zero,80c424 <xTaskGenericCreate+0x1f4>
  80c410:	d0a6f317 	ldw	r2,-25652(gp)
  80c414:	10c00b17 	ldw	r3,44(r2)
  80c418:	e0800217 	ldw	r2,8(fp)
  80c41c:	1880012e 	bgeu	r3,r2,80c424 <xTaskGenericCreate+0x1f4>
  80c420:	003b683a 	trap	0
  80c424:	e0bffb17 	ldw	r2,-20(fp)
  80c428:	e037883a 	mov	sp,fp
  80c42c:	dfc00117 	ldw	ra,4(sp)
  80c430:	df000017 	ldw	fp,0(sp)
  80c434:	dec00204 	addi	sp,sp,8
  80c438:	f800283a 	ret

0080c43c <vTaskDelete>:
  80c43c:	defffb04 	addi	sp,sp,-20
  80c440:	dfc00415 	stw	ra,16(sp)
  80c444:	df000315 	stw	fp,12(sp)
  80c448:	df000304 	addi	fp,sp,12
  80c44c:	e13ffe15 	stw	r4,-8(fp)
  80c450:	080dca80 	call	80dca8 <xTaskGetSchedulerState>
  80c454:	1005003a 	cmpeq	r2,r2,zero
  80c458:	1000011e 	bne	r2,zero,80c460 <vTaskDelete+0x24>
  80c45c:	080dedc0 	call	80dedc <vTaskEnterCritical>
  80c460:	d0e6f317 	ldw	r3,-25652(gp)
  80c464:	e0bffe17 	ldw	r2,-8(fp)
  80c468:	10c0011e 	bne	r2,r3,80c470 <vTaskDelete+0x34>
  80c46c:	e03ffe15 	stw	zero,-8(fp)
  80c470:	e0bffe17 	ldw	r2,-8(fp)
  80c474:	1004c03a 	cmpne	r2,r2,zero
  80c478:	1000031e 	bne	r2,zero,80c488 <vTaskDelete+0x4c>
  80c47c:	d0a6f317 	ldw	r2,-25652(gp)
  80c480:	e0bfff15 	stw	r2,-4(fp)
  80c484:	00000206 	br	80c490 <vTaskDelete+0x54>
  80c488:	e0bffe17 	ldw	r2,-8(fp)
  80c48c:	e0bfff15 	stw	r2,-4(fp)
  80c490:	e0bfff17 	ldw	r2,-4(fp)
  80c494:	e0bffd15 	stw	r2,-12(fp)
  80c498:	e0bffd17 	ldw	r2,-12(fp)
  80c49c:	11000104 	addi	r4,r2,4
  80c4a0:	08115880 	call	811588 <uxListRemove>
  80c4a4:	e0bffd17 	ldw	r2,-12(fp)
  80c4a8:	10800a17 	ldw	r2,40(r2)
  80c4ac:	1005003a 	cmpeq	r2,r2,zero
  80c4b0:	1000031e 	bne	r2,zero,80c4c0 <vTaskDelete+0x84>
  80c4b4:	e0bffd17 	ldw	r2,-12(fp)
  80c4b8:	11000604 	addi	r4,r2,24
  80c4bc:	08115880 	call	811588 <uxListRemove>
  80c4c0:	e0bffd17 	ldw	r2,-12(fp)
  80c4c4:	11400104 	addi	r5,r2,4
  80c4c8:	01002074 	movhi	r4,129
  80c4cc:	211a3e04 	addi	r4,r4,26872
  80c4d0:	081141c0 	call	81141c <vListInsertEnd>
  80c4d4:	d0a6f417 	ldw	r2,-25648(gp)
  80c4d8:	10800044 	addi	r2,r2,1
  80c4dc:	d0a6f415 	stw	r2,-25648(gp)
  80c4e0:	d0a6fe17 	ldw	r2,-25608(gp)
  80c4e4:	10800044 	addi	r2,r2,1
  80c4e8:	d0a6fe15 	stw	r2,-25608(gp)
  80c4ec:	080dca80 	call	80dca8 <xTaskGetSchedulerState>
  80c4f0:	1005003a 	cmpeq	r2,r2,zero
  80c4f4:	1000011e 	bne	r2,zero,80c4fc <vTaskDelete+0xc0>
  80c4f8:	080df2c0 	call	80df2c <vTaskExitCritical>
  80c4fc:	d0a6f917 	ldw	r2,-25628(gp)
  80c500:	1005003a 	cmpeq	r2,r2,zero
  80c504:	1000041e 	bne	r2,zero,80c518 <vTaskDelete+0xdc>
  80c508:	e0bffe17 	ldw	r2,-8(fp)
  80c50c:	1004c03a 	cmpne	r2,r2,zero
  80c510:	1000011e 	bne	r2,zero,80c518 <vTaskDelete+0xdc>
  80c514:	003b683a 	trap	0
  80c518:	e037883a 	mov	sp,fp
  80c51c:	dfc00117 	ldw	ra,4(sp)
  80c520:	df000017 	ldw	fp,0(sp)
  80c524:	dec00204 	addi	sp,sp,8
  80c528:	f800283a 	ret

0080c52c <vTaskDelayUntil>:
  80c52c:	defff904 	addi	sp,sp,-28
  80c530:	dfc00615 	stw	ra,24(sp)
  80c534:	df000515 	stw	fp,20(sp)
  80c538:	df000504 	addi	fp,sp,20
  80c53c:	e13ffe15 	stw	r4,-8(fp)
  80c540:	e17fff15 	stw	r5,-4(fp)
  80c544:	e03ffb15 	stw	zero,-20(fp)
  80c548:	080cce40 	call	80cce4 <vTaskSuspendAll>
  80c54c:	e0bffe17 	ldw	r2,-8(fp)
  80c550:	10c00017 	ldw	r3,0(r2)
  80c554:	e0bfff17 	ldw	r2,-4(fp)
  80c558:	1885883a 	add	r2,r3,r2
  80c55c:	e0bffd15 	stw	r2,-12(fp)
  80c560:	e0bffe17 	ldw	r2,-8(fp)
  80c564:	10c00017 	ldw	r3,0(r2)
  80c568:	d0a6f617 	ldw	r2,-25640(gp)
  80c56c:	10c00a2e 	bgeu	r2,r3,80c598 <vTaskDelayUntil+0x6c>
  80c570:	e0bffe17 	ldw	r2,-8(fp)
  80c574:	10c00017 	ldw	r3,0(r2)
  80c578:	e0bffd17 	ldw	r2,-12(fp)
  80c57c:	10c00f2e 	bgeu	r2,r3,80c5bc <vTaskDelayUntil+0x90>
  80c580:	d0e6f617 	ldw	r3,-25640(gp)
  80c584:	e0bffd17 	ldw	r2,-12(fp)
  80c588:	18800c2e 	bgeu	r3,r2,80c5bc <vTaskDelayUntil+0x90>
  80c58c:	00800044 	movi	r2,1
  80c590:	e0bffb15 	stw	r2,-20(fp)
  80c594:	00000906 	br	80c5bc <vTaskDelayUntil+0x90>
  80c598:	e0bffe17 	ldw	r2,-8(fp)
  80c59c:	10c00017 	ldw	r3,0(r2)
  80c5a0:	e0bffd17 	ldw	r2,-12(fp)
  80c5a4:	10c00336 	bltu	r2,r3,80c5b4 <vTaskDelayUntil+0x88>
  80c5a8:	d0e6f617 	ldw	r3,-25640(gp)
  80c5ac:	e0bffd17 	ldw	r2,-12(fp)
  80c5b0:	1880022e 	bgeu	r3,r2,80c5bc <vTaskDelayUntil+0x90>
  80c5b4:	00800044 	movi	r2,1
  80c5b8:	e0bffb15 	stw	r2,-20(fp)
  80c5bc:	e0fffe17 	ldw	r3,-8(fp)
  80c5c0:	e0bffd17 	ldw	r2,-12(fp)
  80c5c4:	18800015 	stw	r2,0(r3)
  80c5c8:	e0bffb17 	ldw	r2,-20(fp)
  80c5cc:	1005003a 	cmpeq	r2,r2,zero
  80c5d0:	1000051e 	bne	r2,zero,80c5e8 <vTaskDelayUntil+0xbc>
  80c5d4:	d0a6f317 	ldw	r2,-25652(gp)
  80c5d8:	11000104 	addi	r4,r2,4
  80c5dc:	08115880 	call	811588 <uxListRemove>
  80c5e0:	e13ffd17 	ldw	r4,-12(fp)
  80c5e4:	080d8ec0 	call	80d8ec <prvAddCurrentTaskToDelayedList>
  80c5e8:	080cd0c0 	call	80cd0c <xTaskResumeAll>
  80c5ec:	e0bffc15 	stw	r2,-16(fp)
  80c5f0:	e0bffc17 	ldw	r2,-16(fp)
  80c5f4:	1004c03a 	cmpne	r2,r2,zero
  80c5f8:	1000011e 	bne	r2,zero,80c600 <vTaskDelayUntil+0xd4>
  80c5fc:	003b683a 	trap	0
  80c600:	e037883a 	mov	sp,fp
  80c604:	dfc00117 	ldw	ra,4(sp)
  80c608:	df000017 	ldw	fp,0(sp)
  80c60c:	dec00204 	addi	sp,sp,8
  80c610:	f800283a 	ret

0080c614 <vTaskDelay>:
  80c614:	defffb04 	addi	sp,sp,-20
  80c618:	dfc00415 	stw	ra,16(sp)
  80c61c:	df000315 	stw	fp,12(sp)
  80c620:	df000304 	addi	fp,sp,12
  80c624:	e13fff15 	stw	r4,-4(fp)
  80c628:	e03ffd15 	stw	zero,-12(fp)
  80c62c:	e0bfff17 	ldw	r2,-4(fp)
  80c630:	1005003a 	cmpeq	r2,r2,zero
  80c634:	10000c1e 	bne	r2,zero,80c668 <vTaskDelay+0x54>
  80c638:	080cce40 	call	80cce4 <vTaskSuspendAll>
  80c63c:	d0e6f617 	ldw	r3,-25640(gp)
  80c640:	e0bfff17 	ldw	r2,-4(fp)
  80c644:	1885883a 	add	r2,r3,r2
  80c648:	e0bffe15 	stw	r2,-8(fp)
  80c64c:	d0a6f317 	ldw	r2,-25652(gp)
  80c650:	11000104 	addi	r4,r2,4
  80c654:	08115880 	call	811588 <uxListRemove>
  80c658:	e13ffe17 	ldw	r4,-8(fp)
  80c65c:	080d8ec0 	call	80d8ec <prvAddCurrentTaskToDelayedList>
  80c660:	080cd0c0 	call	80cd0c <xTaskResumeAll>
  80c664:	e0bffd15 	stw	r2,-12(fp)
  80c668:	e0bffd17 	ldw	r2,-12(fp)
  80c66c:	1004c03a 	cmpne	r2,r2,zero
  80c670:	1000011e 	bne	r2,zero,80c678 <vTaskDelay+0x64>
  80c674:	003b683a 	trap	0
  80c678:	e037883a 	mov	sp,fp
  80c67c:	dfc00117 	ldw	ra,4(sp)
  80c680:	df000017 	ldw	fp,0(sp)
  80c684:	dec00204 	addi	sp,sp,8
  80c688:	f800283a 	ret

0080c68c <uxTaskPriorityGet>:
  80c68c:	defffa04 	addi	sp,sp,-24
  80c690:	dfc00515 	stw	ra,20(sp)
  80c694:	df000415 	stw	fp,16(sp)
  80c698:	df000404 	addi	fp,sp,16
  80c69c:	e13ffe15 	stw	r4,-8(fp)
  80c6a0:	080dca80 	call	80dca8 <xTaskGetSchedulerState>
  80c6a4:	1005003a 	cmpeq	r2,r2,zero
  80c6a8:	1000011e 	bne	r2,zero,80c6b0 <uxTaskPriorityGet+0x24>
  80c6ac:	080dedc0 	call	80dedc <vTaskEnterCritical>
  80c6b0:	e0bffe17 	ldw	r2,-8(fp)
  80c6b4:	1004c03a 	cmpne	r2,r2,zero
  80c6b8:	1000031e 	bne	r2,zero,80c6c8 <uxTaskPriorityGet+0x3c>
  80c6bc:	d0a6f317 	ldw	r2,-25652(gp)
  80c6c0:	e0bfff15 	stw	r2,-4(fp)
  80c6c4:	00000206 	br	80c6d0 <uxTaskPriorityGet+0x44>
  80c6c8:	e0bffe17 	ldw	r2,-8(fp)
  80c6cc:	e0bfff15 	stw	r2,-4(fp)
  80c6d0:	e0bfff17 	ldw	r2,-4(fp)
  80c6d4:	e0bffd15 	stw	r2,-12(fp)
  80c6d8:	e0bffd17 	ldw	r2,-12(fp)
  80c6dc:	10800b17 	ldw	r2,44(r2)
  80c6e0:	e0bffc15 	stw	r2,-16(fp)
  80c6e4:	080dca80 	call	80dca8 <xTaskGetSchedulerState>
  80c6e8:	1005003a 	cmpeq	r2,r2,zero
  80c6ec:	1000011e 	bne	r2,zero,80c6f4 <uxTaskPriorityGet+0x68>
  80c6f0:	080df2c0 	call	80df2c <vTaskExitCritical>
  80c6f4:	e0bffc17 	ldw	r2,-16(fp)
  80c6f8:	e037883a 	mov	sp,fp
  80c6fc:	dfc00117 	ldw	ra,4(sp)
  80c700:	df000017 	ldw	fp,0(sp)
  80c704:	dec00204 	addi	sp,sp,8
  80c708:	f800283a 	ret

0080c70c <vTaskPrioritySet>:
  80c70c:	defff604 	addi	sp,sp,-40
  80c710:	dfc00915 	stw	ra,36(sp)
  80c714:	df000815 	stw	fp,32(sp)
  80c718:	dc000715 	stw	r16,28(sp)
  80c71c:	df000704 	addi	fp,sp,28
  80c720:	e13ffd15 	stw	r4,-12(fp)
  80c724:	e17ffe15 	stw	r5,-8(fp)
  80c728:	e03ff915 	stw	zero,-28(fp)
  80c72c:	e0bffe17 	ldw	r2,-8(fp)
  80c730:	10800170 	cmpltui	r2,r2,5
  80c734:	1000021e 	bne	r2,zero,80c740 <vTaskPrioritySet+0x34>
  80c738:	00800104 	movi	r2,4
  80c73c:	e0bffe15 	stw	r2,-8(fp)
  80c740:	080dca80 	call	80dca8 <xTaskGetSchedulerState>
  80c744:	1005003a 	cmpeq	r2,r2,zero
  80c748:	1000011e 	bne	r2,zero,80c750 <vTaskPrioritySet+0x44>
  80c74c:	080dedc0 	call	80dedc <vTaskEnterCritical>
  80c750:	d0e6f317 	ldw	r3,-25652(gp)
  80c754:	e0bffd17 	ldw	r2,-12(fp)
  80c758:	10c0011e 	bne	r2,r3,80c760 <vTaskPrioritySet+0x54>
  80c75c:	e03ffd15 	stw	zero,-12(fp)
  80c760:	e0bffd17 	ldw	r2,-12(fp)
  80c764:	1004c03a 	cmpne	r2,r2,zero
  80c768:	1000031e 	bne	r2,zero,80c778 <vTaskPrioritySet+0x6c>
  80c76c:	d0a6f317 	ldw	r2,-25652(gp)
  80c770:	e0bfff15 	stw	r2,-4(fp)
  80c774:	00000206 	br	80c780 <vTaskPrioritySet+0x74>
  80c778:	e0bffd17 	ldw	r2,-12(fp)
  80c77c:	e0bfff15 	stw	r2,-4(fp)
  80c780:	e0bfff17 	ldw	r2,-4(fp)
  80c784:	e0bffc15 	stw	r2,-16(fp)
  80c788:	e0bffc17 	ldw	r2,-16(fp)
  80c78c:	10801a17 	ldw	r2,104(r2)
  80c790:	e0bffb15 	stw	r2,-20(fp)
  80c794:	e0fffb17 	ldw	r3,-20(fp)
  80c798:	e0bffe17 	ldw	r2,-8(fp)
  80c79c:	18804426 	beq	r3,r2,80c8b0 <vTaskPrioritySet+0x1a4>
  80c7a0:	e0fffe17 	ldw	r3,-8(fp)
  80c7a4:	e0bffb17 	ldw	r2,-20(fp)
  80c7a8:	10c0062e 	bgeu	r2,r3,80c7c4 <vTaskPrioritySet+0xb8>
  80c7ac:	e0bffd17 	ldw	r2,-12(fp)
  80c7b0:	1005003a 	cmpeq	r2,r2,zero
  80c7b4:	1000081e 	bne	r2,zero,80c7d8 <vTaskPrioritySet+0xcc>
  80c7b8:	00800044 	movi	r2,1
  80c7bc:	e0bff915 	stw	r2,-28(fp)
  80c7c0:	00000506 	br	80c7d8 <vTaskPrioritySet+0xcc>
  80c7c4:	e0bffd17 	ldw	r2,-12(fp)
  80c7c8:	1004c03a 	cmpne	r2,r2,zero
  80c7cc:	1000021e 	bne	r2,zero,80c7d8 <vTaskPrioritySet+0xcc>
  80c7d0:	00800044 	movi	r2,1
  80c7d4:	e0bff915 	stw	r2,-28(fp)
  80c7d8:	e0bffc17 	ldw	r2,-16(fp)
  80c7dc:	10800b17 	ldw	r2,44(r2)
  80c7e0:	e0bffa15 	stw	r2,-24(fp)
  80c7e4:	e0bffc17 	ldw	r2,-16(fp)
  80c7e8:	10c01a17 	ldw	r3,104(r2)
  80c7ec:	e0bffc17 	ldw	r2,-16(fp)
  80c7f0:	10800b17 	ldw	r2,44(r2)
  80c7f4:	1880031e 	bne	r3,r2,80c804 <vTaskPrioritySet+0xf8>
  80c7f8:	e0fffc17 	ldw	r3,-16(fp)
  80c7fc:	e0bffe17 	ldw	r2,-8(fp)
  80c800:	18800b15 	stw	r2,44(r3)
  80c804:	e0fffc17 	ldw	r3,-16(fp)
  80c808:	e0bffe17 	ldw	r2,-8(fp)
  80c80c:	18801a15 	stw	r2,104(r3)
  80c810:	00c00144 	movi	r3,5
  80c814:	e0bffe17 	ldw	r2,-8(fp)
  80c818:	1887c83a 	sub	r3,r3,r2
  80c81c:	e0bffc17 	ldw	r2,-16(fp)
  80c820:	10c00615 	stw	r3,24(r2)
  80c824:	e0bffc17 	ldw	r2,-16(fp)
  80c828:	14000517 	ldw	r16,20(r2)
  80c82c:	e13ffb17 	ldw	r4,-20(fp)
  80c830:	01400504 	movi	r5,20
  80c834:	08014540 	call	801454 <__mulsi3>
  80c838:	1007883a 	mov	r3,r2
  80c83c:	00802074 	movhi	r2,129
  80c840:	109a1604 	addi	r2,r2,26712
  80c844:	1885883a 	add	r2,r3,r2
  80c848:	8080151e 	bne	r16,r2,80c8a0 <vTaskPrioritySet+0x194>
  80c84c:	e0bffc17 	ldw	r2,-16(fp)
  80c850:	11000104 	addi	r4,r2,4
  80c854:	08115880 	call	811588 <uxListRemove>
  80c858:	e0bffc17 	ldw	r2,-16(fp)
  80c85c:	10c00b17 	ldw	r3,44(r2)
  80c860:	d0a6f817 	ldw	r2,-25632(gp)
  80c864:	10c0032e 	bgeu	r2,r3,80c874 <vTaskPrioritySet+0x168>
  80c868:	e0bffc17 	ldw	r2,-16(fp)
  80c86c:	10800b17 	ldw	r2,44(r2)
  80c870:	d0a6f815 	stw	r2,-25632(gp)
  80c874:	e0bffc17 	ldw	r2,-16(fp)
  80c878:	11000b17 	ldw	r4,44(r2)
  80c87c:	01400504 	movi	r5,20
  80c880:	08014540 	call	801454 <__mulsi3>
  80c884:	1007883a 	mov	r3,r2
  80c888:	00802074 	movhi	r2,129
  80c88c:	109a1604 	addi	r2,r2,26712
  80c890:	1889883a 	add	r4,r3,r2
  80c894:	e0bffc17 	ldw	r2,-16(fp)
  80c898:	11400104 	addi	r5,r2,4
  80c89c:	081141c0 	call	81141c <vListInsertEnd>
  80c8a0:	e0bff917 	ldw	r2,-28(fp)
  80c8a4:	10800058 	cmpnei	r2,r2,1
  80c8a8:	1000011e 	bne	r2,zero,80c8b0 <vTaskPrioritySet+0x1a4>
  80c8ac:	003b683a 	trap	0
  80c8b0:	080dca80 	call	80dca8 <xTaskGetSchedulerState>
  80c8b4:	1005003a 	cmpeq	r2,r2,zero
  80c8b8:	1000011e 	bne	r2,zero,80c8c0 <vTaskPrioritySet+0x1b4>
  80c8bc:	080df2c0 	call	80df2c <vTaskExitCritical>
  80c8c0:	e037883a 	mov	sp,fp
  80c8c4:	dfc00217 	ldw	ra,8(sp)
  80c8c8:	df000117 	ldw	fp,4(sp)
  80c8cc:	dc000017 	ldw	r16,0(sp)
  80c8d0:	dec00304 	addi	sp,sp,12
  80c8d4:	f800283a 	ret

0080c8d8 <vTaskSuspend>:
  80c8d8:	defffb04 	addi	sp,sp,-20
  80c8dc:	dfc00415 	stw	ra,16(sp)
  80c8e0:	df000315 	stw	fp,12(sp)
  80c8e4:	df000304 	addi	fp,sp,12
  80c8e8:	e13ffe15 	stw	r4,-8(fp)
  80c8ec:	080dca80 	call	80dca8 <xTaskGetSchedulerState>
  80c8f0:	1005003a 	cmpeq	r2,r2,zero
  80c8f4:	1000011e 	bne	r2,zero,80c8fc <vTaskSuspend+0x24>
  80c8f8:	080dedc0 	call	80dedc <vTaskEnterCritical>
  80c8fc:	d0e6f317 	ldw	r3,-25652(gp)
  80c900:	e0bffe17 	ldw	r2,-8(fp)
  80c904:	10c0011e 	bne	r2,r3,80c90c <vTaskSuspend+0x34>
  80c908:	e03ffe15 	stw	zero,-8(fp)
  80c90c:	e0bffe17 	ldw	r2,-8(fp)
  80c910:	1004c03a 	cmpne	r2,r2,zero
  80c914:	1000031e 	bne	r2,zero,80c924 <vTaskSuspend+0x4c>
  80c918:	d0a6f317 	ldw	r2,-25652(gp)
  80c91c:	e0bfff15 	stw	r2,-4(fp)
  80c920:	00000206 	br	80c92c <vTaskSuspend+0x54>
  80c924:	e0bffe17 	ldw	r2,-8(fp)
  80c928:	e0bfff15 	stw	r2,-4(fp)
  80c92c:	e0bfff17 	ldw	r2,-4(fp)
  80c930:	e0bffd15 	stw	r2,-12(fp)
  80c934:	e0bffd17 	ldw	r2,-12(fp)
  80c938:	11000104 	addi	r4,r2,4
  80c93c:	08115880 	call	811588 <uxListRemove>
  80c940:	e0bffd17 	ldw	r2,-12(fp)
  80c944:	10800a17 	ldw	r2,40(r2)
  80c948:	1005003a 	cmpeq	r2,r2,zero
  80c94c:	1000031e 	bne	r2,zero,80c95c <vTaskSuspend+0x84>
  80c950:	e0bffd17 	ldw	r2,-12(fp)
  80c954:	11000604 	addi	r4,r2,24
  80c958:	08115880 	call	811588 <uxListRemove>
  80c95c:	e0bffd17 	ldw	r2,-12(fp)
  80c960:	11400104 	addi	r5,r2,4
  80c964:	01002074 	movhi	r4,129
  80c968:	211a4304 	addi	r4,r4,26892
  80c96c:	081141c0 	call	81141c <vListInsertEnd>
  80c970:	080dca80 	call	80dca8 <xTaskGetSchedulerState>
  80c974:	1005003a 	cmpeq	r2,r2,zero
  80c978:	1000011e 	bne	r2,zero,80c980 <vTaskSuspend+0xa8>
  80c97c:	080df2c0 	call	80df2c <vTaskExitCritical>
  80c980:	e0bffe17 	ldw	r2,-8(fp)
  80c984:	1004c03a 	cmpne	r2,r2,zero
  80c988:	10000d1e 	bne	r2,zero,80c9c0 <vTaskSuspend+0xe8>
  80c98c:	d0a6f917 	ldw	r2,-25628(gp)
  80c990:	1005003a 	cmpeq	r2,r2,zero
  80c994:	1000021e 	bne	r2,zero,80c9a0 <vTaskSuspend+0xc8>
  80c998:	003b683a 	trap	0
  80c99c:	00000806 	br	80c9c0 <vTaskSuspend+0xe8>
  80c9a0:	00802074 	movhi	r2,129
  80c9a4:	109a4304 	addi	r2,r2,26892
  80c9a8:	10c00017 	ldw	r3,0(r2)
  80c9ac:	d0a6f517 	ldw	r2,-25644(gp)
  80c9b0:	1880021e 	bne	r3,r2,80c9bc <vTaskSuspend+0xe4>
  80c9b4:	d026f315 	stw	zero,-25652(gp)
  80c9b8:	00000106 	br	80c9c0 <vTaskSuspend+0xe8>
  80c9bc:	080d20c0 	call	80d20c <vTaskSwitchContext>
  80c9c0:	e037883a 	mov	sp,fp
  80c9c4:	dfc00117 	ldw	ra,4(sp)
  80c9c8:	df000017 	ldw	fp,0(sp)
  80c9cc:	dec00204 	addi	sp,sp,8
  80c9d0:	f800283a 	ret

0080c9d4 <xTaskIsTaskSuspended>:
  80c9d4:	defffc04 	addi	sp,sp,-16
  80c9d8:	df000315 	stw	fp,12(sp)
  80c9dc:	df000304 	addi	fp,sp,12
  80c9e0:	e13fff15 	stw	r4,-4(fp)
  80c9e4:	e03ffe15 	stw	zero,-8(fp)
  80c9e8:	e0bfff17 	ldw	r2,-4(fp)
  80c9ec:	e0bffd15 	stw	r2,-12(fp)
  80c9f0:	e0bffd17 	ldw	r2,-12(fp)
  80c9f4:	10c00517 	ldw	r3,20(r2)
  80c9f8:	00802074 	movhi	r2,129
  80c9fc:	109a4304 	addi	r2,r2,26892
  80ca00:	18800b1e 	bne	r3,r2,80ca30 <xTaskIsTaskSuspended+0x5c>
  80ca04:	e0bffd17 	ldw	r2,-12(fp)
  80ca08:	10c00a17 	ldw	r3,40(r2)
  80ca0c:	00802074 	movhi	r2,129
  80ca10:	109a3904 	addi	r2,r2,26852
  80ca14:	18800626 	beq	r3,r2,80ca30 <xTaskIsTaskSuspended+0x5c>
  80ca18:	e0bffd17 	ldw	r2,-12(fp)
  80ca1c:	10800a17 	ldw	r2,40(r2)
  80ca20:	1004c03a 	cmpne	r2,r2,zero
  80ca24:	1000021e 	bne	r2,zero,80ca30 <xTaskIsTaskSuspended+0x5c>
  80ca28:	00800044 	movi	r2,1
  80ca2c:	e0bffe15 	stw	r2,-8(fp)
  80ca30:	e0bffe17 	ldw	r2,-8(fp)
  80ca34:	e037883a 	mov	sp,fp
  80ca38:	df000017 	ldw	fp,0(sp)
  80ca3c:	dec00104 	addi	sp,sp,4
  80ca40:	f800283a 	ret

0080ca44 <vTaskResume>:
  80ca44:	defffc04 	addi	sp,sp,-16
  80ca48:	dfc00315 	stw	ra,12(sp)
  80ca4c:	df000215 	stw	fp,8(sp)
  80ca50:	df000204 	addi	fp,sp,8
  80ca54:	e13fff15 	stw	r4,-4(fp)
  80ca58:	e0bfff17 	ldw	r2,-4(fp)
  80ca5c:	e0bffe15 	stw	r2,-8(fp)
  80ca60:	e0bffe17 	ldw	r2,-8(fp)
  80ca64:	1005003a 	cmpeq	r2,r2,zero
  80ca68:	10002a1e 	bne	r2,zero,80cb14 <vTaskResume+0xd0>
  80ca6c:	d0e6f317 	ldw	r3,-25652(gp)
  80ca70:	e0bffe17 	ldw	r2,-8(fp)
  80ca74:	10c02726 	beq	r2,r3,80cb14 <vTaskResume+0xd0>
  80ca78:	080dca80 	call	80dca8 <xTaskGetSchedulerState>
  80ca7c:	1005003a 	cmpeq	r2,r2,zero
  80ca80:	1000011e 	bne	r2,zero,80ca88 <vTaskResume+0x44>
  80ca84:	080dedc0 	call	80dedc <vTaskEnterCritical>
  80ca88:	e13ffe17 	ldw	r4,-8(fp)
  80ca8c:	080c9d40 	call	80c9d4 <xTaskIsTaskSuspended>
  80ca90:	10800058 	cmpnei	r2,r2,1
  80ca94:	10001b1e 	bne	r2,zero,80cb04 <vTaskResume+0xc0>
  80ca98:	e0bffe17 	ldw	r2,-8(fp)
  80ca9c:	11000104 	addi	r4,r2,4
  80caa0:	08115880 	call	811588 <uxListRemove>
  80caa4:	e0bffe17 	ldw	r2,-8(fp)
  80caa8:	10c00b17 	ldw	r3,44(r2)
  80caac:	d0a6f817 	ldw	r2,-25632(gp)
  80cab0:	10c0032e 	bgeu	r2,r3,80cac0 <vTaskResume+0x7c>
  80cab4:	e0bffe17 	ldw	r2,-8(fp)
  80cab8:	10800b17 	ldw	r2,44(r2)
  80cabc:	d0a6f815 	stw	r2,-25632(gp)
  80cac0:	e0bffe17 	ldw	r2,-8(fp)
  80cac4:	11000b17 	ldw	r4,44(r2)
  80cac8:	01400504 	movi	r5,20
  80cacc:	08014540 	call	801454 <__mulsi3>
  80cad0:	1007883a 	mov	r3,r2
  80cad4:	00802074 	movhi	r2,129
  80cad8:	109a1604 	addi	r2,r2,26712
  80cadc:	1889883a 	add	r4,r3,r2
  80cae0:	e0bffe17 	ldw	r2,-8(fp)
  80cae4:	11400104 	addi	r5,r2,4
  80cae8:	081141c0 	call	81141c <vListInsertEnd>
  80caec:	e0bffe17 	ldw	r2,-8(fp)
  80caf0:	10c00b17 	ldw	r3,44(r2)
  80caf4:	d0a6f317 	ldw	r2,-25652(gp)
  80caf8:	10800b17 	ldw	r2,44(r2)
  80cafc:	18800136 	bltu	r3,r2,80cb04 <vTaskResume+0xc0>
  80cb00:	003b683a 	trap	0
  80cb04:	080dca80 	call	80dca8 <xTaskGetSchedulerState>
  80cb08:	1005003a 	cmpeq	r2,r2,zero
  80cb0c:	1000011e 	bne	r2,zero,80cb14 <vTaskResume+0xd0>
  80cb10:	080df2c0 	call	80df2c <vTaskExitCritical>
  80cb14:	e037883a 	mov	sp,fp
  80cb18:	dfc00117 	ldw	ra,4(sp)
  80cb1c:	df000017 	ldw	fp,0(sp)
  80cb20:	dec00204 	addi	sp,sp,8
  80cb24:	f800283a 	ret

0080cb28 <xTaskResumeFromISR>:
  80cb28:	defffa04 	addi	sp,sp,-24
  80cb2c:	dfc00515 	stw	ra,20(sp)
  80cb30:	df000415 	stw	fp,16(sp)
  80cb34:	df000404 	addi	fp,sp,16
  80cb38:	e13fff15 	stw	r4,-4(fp)
  80cb3c:	e03ffe15 	stw	zero,-8(fp)
  80cb40:	e0bfff17 	ldw	r2,-4(fp)
  80cb44:	e0bffd15 	stw	r2,-12(fp)
  80cb48:	e03ffc15 	stw	zero,-16(fp)
  80cb4c:	e13ffd17 	ldw	r4,-12(fp)
  80cb50:	080c9d40 	call	80c9d4 <xTaskIsTaskSuspended>
  80cb54:	10800058 	cmpnei	r2,r2,1
  80cb58:	1000241e 	bne	r2,zero,80cbec <xTaskResumeFromISR+0xc4>
  80cb5c:	d0a6fa17 	ldw	r2,-25624(gp)
  80cb60:	1004c03a 	cmpne	r2,r2,zero
  80cb64:	10001c1e 	bne	r2,zero,80cbd8 <xTaskResumeFromISR+0xb0>
  80cb68:	e0bffd17 	ldw	r2,-12(fp)
  80cb6c:	10c00b17 	ldw	r3,44(r2)
  80cb70:	d0a6f317 	ldw	r2,-25652(gp)
  80cb74:	10800b17 	ldw	r2,44(r2)
  80cb78:	1885403a 	cmpgeu	r2,r3,r2
  80cb7c:	e0bffe15 	stw	r2,-8(fp)
  80cb80:	e0bffd17 	ldw	r2,-12(fp)
  80cb84:	11000104 	addi	r4,r2,4
  80cb88:	08115880 	call	811588 <uxListRemove>
  80cb8c:	e0bffd17 	ldw	r2,-12(fp)
  80cb90:	10c00b17 	ldw	r3,44(r2)
  80cb94:	d0a6f817 	ldw	r2,-25632(gp)
  80cb98:	10c0032e 	bgeu	r2,r3,80cba8 <xTaskResumeFromISR+0x80>
  80cb9c:	e0bffd17 	ldw	r2,-12(fp)
  80cba0:	10800b17 	ldw	r2,44(r2)
  80cba4:	d0a6f815 	stw	r2,-25632(gp)
  80cba8:	e0bffd17 	ldw	r2,-12(fp)
  80cbac:	11000b17 	ldw	r4,44(r2)
  80cbb0:	01400504 	movi	r5,20
  80cbb4:	08014540 	call	801454 <__mulsi3>
  80cbb8:	1007883a 	mov	r3,r2
  80cbbc:	00802074 	movhi	r2,129
  80cbc0:	109a1604 	addi	r2,r2,26712
  80cbc4:	1889883a 	add	r4,r3,r2
  80cbc8:	e0bffd17 	ldw	r2,-12(fp)
  80cbcc:	11400104 	addi	r5,r2,4
  80cbd0:	081141c0 	call	81141c <vListInsertEnd>
  80cbd4:	00000506 	br	80cbec <xTaskResumeFromISR+0xc4>
  80cbd8:	e0bffd17 	ldw	r2,-12(fp)
  80cbdc:	11400604 	addi	r5,r2,24
  80cbe0:	01002074 	movhi	r4,129
  80cbe4:	211a3904 	addi	r4,r4,26852
  80cbe8:	081141c0 	call	81141c <vListInsertEnd>
  80cbec:	e0bffe17 	ldw	r2,-8(fp)
  80cbf0:	e037883a 	mov	sp,fp
  80cbf4:	dfc00117 	ldw	ra,4(sp)
  80cbf8:	df000017 	ldw	fp,0(sp)
  80cbfc:	dec00204 	addi	sp,sp,8
  80cc00:	f800283a 	ret

0080cc04 <vTaskStartScheduler>:
  80cc04:	defff804 	addi	sp,sp,-32
  80cc08:	dfc00715 	stw	ra,28(sp)
  80cc0c:	df000615 	stw	fp,24(sp)
  80cc10:	df000604 	addi	fp,sp,24
  80cc14:	01402074 	movhi	r5,129
  80cc18:	294bb504 	addi	r5,r5,11988
  80cc1c:	d8000015 	stw	zero,0(sp)
  80cc20:	d8000115 	stw	zero,4(sp)
  80cc24:	d8000215 	stw	zero,8(sp)
  80cc28:	d8000315 	stw	zero,12(sp)
  80cc2c:	01002074 	movhi	r4,129
  80cc30:	2135a204 	addi	r4,r4,-10616
  80cc34:	01810004 	movi	r6,1024
  80cc38:	000f883a 	mov	r7,zero
  80cc3c:	080c2300 	call	80c230 <xTaskGenericCreate>
  80cc40:	e0bfff15 	stw	r2,-4(fp)
  80cc44:	e0bfff17 	ldw	r2,-4(fp)
  80cc48:	10800058 	cmpnei	r2,r2,1
  80cc4c:	1000021e 	bne	r2,zero,80cc58 <vTaskStartScheduler+0x54>
  80cc50:	080df940 	call	80df94 <xTimerCreateTimerTask>
  80cc54:	e0bfff15 	stw	r2,-4(fp)
  80cc58:	e0bfff17 	ldw	r2,-4(fp)
  80cc5c:	10800058 	cmpnei	r2,r2,1
  80cc60:	10000a1e 	bne	r2,zero,80cc8c <vTaskStartScheduler+0x88>
  80cc64:	0005303a 	rdctl	r2,status
  80cc68:	e0bffe15 	stw	r2,-8(fp)
  80cc6c:	e0fffe17 	ldw	r3,-8(fp)
  80cc70:	00bfff84 	movi	r2,-2
  80cc74:	1884703a 	and	r2,r3,r2
  80cc78:	1001703a 	wrctl	status,r2
  80cc7c:	00800044 	movi	r2,1
  80cc80:	d0a6f915 	stw	r2,-25628(gp)
  80cc84:	d026f615 	stw	zero,-25640(gp)
  80cc88:	08117300 	call	811730 <xPortStartScheduler>
  80cc8c:	e037883a 	mov	sp,fp
  80cc90:	dfc00117 	ldw	ra,4(sp)
  80cc94:	df000017 	ldw	fp,0(sp)
  80cc98:	dec00204 	addi	sp,sp,8
  80cc9c:	f800283a 	ret

0080cca0 <vTaskEndScheduler>:
  80cca0:	defffd04 	addi	sp,sp,-12
  80cca4:	dfc00215 	stw	ra,8(sp)
  80cca8:	df000115 	stw	fp,4(sp)
  80ccac:	df000104 	addi	fp,sp,4
  80ccb0:	0005303a 	rdctl	r2,status
  80ccb4:	e0bfff15 	stw	r2,-4(fp)
  80ccb8:	e0ffff17 	ldw	r3,-4(fp)
  80ccbc:	00bfff84 	movi	r2,-2
  80ccc0:	1884703a 	and	r2,r3,r2
  80ccc4:	1001703a 	wrctl	status,r2
  80ccc8:	d026f915 	stw	zero,-25628(gp)
  80cccc:	081175c0 	call	81175c <vPortEndScheduler>
  80ccd0:	e037883a 	mov	sp,fp
  80ccd4:	dfc00117 	ldw	ra,4(sp)
  80ccd8:	df000017 	ldw	fp,0(sp)
  80ccdc:	dec00204 	addi	sp,sp,8
  80cce0:	f800283a 	ret

0080cce4 <vTaskSuspendAll>:
  80cce4:	deffff04 	addi	sp,sp,-4
  80cce8:	df000015 	stw	fp,0(sp)
  80ccec:	d839883a 	mov	fp,sp
  80ccf0:	d0a6fa17 	ldw	r2,-25624(gp)
  80ccf4:	10800044 	addi	r2,r2,1
  80ccf8:	d0a6fa15 	stw	r2,-25624(gp)
  80ccfc:	e037883a 	mov	sp,fp
  80cd00:	df000017 	ldw	fp,0(sp)
  80cd04:	dec00104 	addi	sp,sp,4
  80cd08:	f800283a 	ret

0080cd0c <xTaskResumeAll>:
  80cd0c:	defffb04 	addi	sp,sp,-20
  80cd10:	dfc00415 	stw	ra,16(sp)
  80cd14:	df000315 	stw	fp,12(sp)
  80cd18:	df000304 	addi	fp,sp,12
  80cd1c:	e03ffe15 	stw	zero,-8(fp)
  80cd20:	080dca80 	call	80dca8 <xTaskGetSchedulerState>
  80cd24:	1005003a 	cmpeq	r2,r2,zero
  80cd28:	1000011e 	bne	r2,zero,80cd30 <xTaskResumeAll+0x24>
  80cd2c:	080dedc0 	call	80dedc <vTaskEnterCritical>
  80cd30:	d0a6fa17 	ldw	r2,-25624(gp)
  80cd34:	10bfffc4 	addi	r2,r2,-1
  80cd38:	d0a6fa15 	stw	r2,-25624(gp)
  80cd3c:	d0a6fa17 	ldw	r2,-25624(gp)
  80cd40:	1004c03a 	cmpne	r2,r2,zero
  80cd44:	1000451e 	bne	r2,zero,80ce5c <xTaskResumeAll+0x150>
  80cd48:	d0a6f517 	ldw	r2,-25644(gp)
  80cd4c:	1005003a 	cmpeq	r2,r2,zero
  80cd50:	1000421e 	bne	r2,zero,80ce5c <xTaskResumeAll+0x150>
  80cd54:	e03ffd15 	stw	zero,-12(fp)
  80cd58:	00002406 	br	80cdec <xTaskResumeAll+0xe0>
  80cd5c:	00802074 	movhi	r2,129
  80cd60:	109a3904 	addi	r2,r2,26852
  80cd64:	10800317 	ldw	r2,12(r2)
  80cd68:	10800317 	ldw	r2,12(r2)
  80cd6c:	e0bfff15 	stw	r2,-4(fp)
  80cd70:	e0bfff17 	ldw	r2,-4(fp)
  80cd74:	11000604 	addi	r4,r2,24
  80cd78:	08115880 	call	811588 <uxListRemove>
  80cd7c:	e0ffff17 	ldw	r3,-4(fp)
  80cd80:	19000104 	addi	r4,r3,4
  80cd84:	08115880 	call	811588 <uxListRemove>
  80cd88:	e0bfff17 	ldw	r2,-4(fp)
  80cd8c:	10c00b17 	ldw	r3,44(r2)
  80cd90:	d0a6f817 	ldw	r2,-25632(gp)
  80cd94:	10c0032e 	bgeu	r2,r3,80cda4 <xTaskResumeAll+0x98>
  80cd98:	e0ffff17 	ldw	r3,-4(fp)
  80cd9c:	18800b17 	ldw	r2,44(r3)
  80cda0:	d0a6f815 	stw	r2,-25632(gp)
  80cda4:	e0bfff17 	ldw	r2,-4(fp)
  80cda8:	11000b17 	ldw	r4,44(r2)
  80cdac:	01400504 	movi	r5,20
  80cdb0:	08014540 	call	801454 <__mulsi3>
  80cdb4:	1007883a 	mov	r3,r2
  80cdb8:	00802074 	movhi	r2,129
  80cdbc:	109a1604 	addi	r2,r2,26712
  80cdc0:	1889883a 	add	r4,r3,r2
  80cdc4:	e0ffff17 	ldw	r3,-4(fp)
  80cdc8:	19400104 	addi	r5,r3,4
  80cdcc:	081141c0 	call	81141c <vListInsertEnd>
  80cdd0:	e0bfff17 	ldw	r2,-4(fp)
  80cdd4:	10c00b17 	ldw	r3,44(r2)
  80cdd8:	d0a6f317 	ldw	r2,-25652(gp)
  80cddc:	10800b17 	ldw	r2,44(r2)
  80cde0:	18800236 	bltu	r3,r2,80cdec <xTaskResumeAll+0xe0>
  80cde4:	00800044 	movi	r2,1
  80cde8:	e0bffd15 	stw	r2,-12(fp)
  80cdec:	00802074 	movhi	r2,129
  80cdf0:	109a3904 	addi	r2,r2,26852
  80cdf4:	10800017 	ldw	r2,0(r2)
  80cdf8:	1004c03a 	cmpne	r2,r2,zero
  80cdfc:	103fd71e 	bne	r2,zero,80cd5c <xTaskResumeAll+0x50>
  80ce00:	d0a6fb17 	ldw	r2,-25620(gp)
  80ce04:	1005003a 	cmpeq	r2,r2,zero
  80ce08:	10000a1e 	bne	r2,zero,80ce34 <xTaskResumeAll+0x128>
  80ce0c:	00000406 	br	80ce20 <xTaskResumeAll+0x114>
  80ce10:	080d08c0 	call	80d08c <vTaskIncrementTick>
  80ce14:	d0a6fb17 	ldw	r2,-25620(gp)
  80ce18:	10bfffc4 	addi	r2,r2,-1
  80ce1c:	d0a6fb15 	stw	r2,-25620(gp)
  80ce20:	d0a6fb17 	ldw	r2,-25620(gp)
  80ce24:	1004c03a 	cmpne	r2,r2,zero
  80ce28:	103ff91e 	bne	r2,zero,80ce10 <xTaskResumeAll+0x104>
  80ce2c:	00800044 	movi	r2,1
  80ce30:	e0bffd15 	stw	r2,-12(fp)
  80ce34:	e0bffd17 	ldw	r2,-12(fp)
  80ce38:	10800060 	cmpeqi	r2,r2,1
  80ce3c:	1000031e 	bne	r2,zero,80ce4c <xTaskResumeAll+0x140>
  80ce40:	d0a6fc17 	ldw	r2,-25616(gp)
  80ce44:	10800058 	cmpnei	r2,r2,1
  80ce48:	1000041e 	bne	r2,zero,80ce5c <xTaskResumeAll+0x150>
  80ce4c:	00800044 	movi	r2,1
  80ce50:	e0bffe15 	stw	r2,-8(fp)
  80ce54:	d026fc15 	stw	zero,-25616(gp)
  80ce58:	003b683a 	trap	0
  80ce5c:	080dca80 	call	80dca8 <xTaskGetSchedulerState>
  80ce60:	1005003a 	cmpeq	r2,r2,zero
  80ce64:	1000011e 	bne	r2,zero,80ce6c <xTaskResumeAll+0x160>
  80ce68:	080df2c0 	call	80df2c <vTaskExitCritical>
  80ce6c:	e0bffe17 	ldw	r2,-8(fp)
  80ce70:	e037883a 	mov	sp,fp
  80ce74:	dfc00117 	ldw	ra,4(sp)
  80ce78:	df000017 	ldw	fp,0(sp)
  80ce7c:	dec00204 	addi	sp,sp,8
  80ce80:	f800283a 	ret

0080ce84 <xTaskGetTickCount>:
  80ce84:	defffd04 	addi	sp,sp,-12
  80ce88:	dfc00215 	stw	ra,8(sp)
  80ce8c:	df000115 	stw	fp,4(sp)
  80ce90:	df000104 	addi	fp,sp,4
  80ce94:	080dca80 	call	80dca8 <xTaskGetSchedulerState>
  80ce98:	1005003a 	cmpeq	r2,r2,zero
  80ce9c:	1000011e 	bne	r2,zero,80cea4 <xTaskGetTickCount+0x20>
  80cea0:	080dedc0 	call	80dedc <vTaskEnterCritical>
  80cea4:	d0a6f617 	ldw	r2,-25640(gp)
  80cea8:	e0bfff15 	stw	r2,-4(fp)
  80ceac:	080dca80 	call	80dca8 <xTaskGetSchedulerState>
  80ceb0:	1005003a 	cmpeq	r2,r2,zero
  80ceb4:	1000011e 	bne	r2,zero,80cebc <xTaskGetTickCount+0x38>
  80ceb8:	080df2c0 	call	80df2c <vTaskExitCritical>
  80cebc:	e0bfff17 	ldw	r2,-4(fp)
  80cec0:	e037883a 	mov	sp,fp
  80cec4:	dfc00117 	ldw	ra,4(sp)
  80cec8:	df000017 	ldw	fp,0(sp)
  80cecc:	dec00204 	addi	sp,sp,8
  80ced0:	f800283a 	ret

0080ced4 <xTaskGetTickCountFromISR>:
  80ced4:	defffd04 	addi	sp,sp,-12
  80ced8:	df000215 	stw	fp,8(sp)
  80cedc:	df000204 	addi	fp,sp,8
  80cee0:	e03ffe15 	stw	zero,-8(fp)
  80cee4:	d0a6f617 	ldw	r2,-25640(gp)
  80cee8:	e0bfff15 	stw	r2,-4(fp)
  80ceec:	e0bfff17 	ldw	r2,-4(fp)
  80cef0:	e037883a 	mov	sp,fp
  80cef4:	df000017 	ldw	fp,0(sp)
  80cef8:	dec00104 	addi	sp,sp,4
  80cefc:	f800283a 	ret

0080cf00 <uxTaskGetNumberOfTasks>:
  80cf00:	deffff04 	addi	sp,sp,-4
  80cf04:	df000015 	stw	fp,0(sp)
  80cf08:	d839883a 	mov	fp,sp
  80cf0c:	d0a6f517 	ldw	r2,-25644(gp)
  80cf10:	e037883a 	mov	sp,fp
  80cf14:	df000017 	ldw	fp,0(sp)
  80cf18:	dec00104 	addi	sp,sp,4
  80cf1c:	f800283a 	ret

0080cf20 <vTaskList>:
  80cf20:	defffb04 	addi	sp,sp,-20
  80cf24:	dfc00415 	stw	ra,16(sp)
  80cf28:	df000315 	stw	fp,12(sp)
  80cf2c:	dc000215 	stw	r16,8(sp)
  80cf30:	df000204 	addi	fp,sp,8
  80cf34:	e13fff15 	stw	r4,-4(fp)
  80cf38:	080cce40 	call	80cce4 <vTaskSuspendAll>
  80cf3c:	e0bfff17 	ldw	r2,-4(fp)
  80cf40:	10000005 	stb	zero,0(r2)
  80cf44:	e43fff17 	ldw	r16,-4(fp)
  80cf48:	8009883a 	mov	r4,r16
  80cf4c:	08015b80 	call	8015b8 <strlen>
  80cf50:	1405883a 	add	r2,r2,r16
  80cf54:	1007883a 	mov	r3,r2
  80cf58:	00800344 	movi	r2,13
  80cf5c:	18800005 	stb	r2,0(r3)
  80cf60:	00800284 	movi	r2,10
  80cf64:	18800045 	stb	r2,1(r3)
  80cf68:	18000085 	stb	zero,2(r3)
  80cf6c:	d0a6f717 	ldw	r2,-25636(gp)
  80cf70:	10800044 	addi	r2,r2,1
  80cf74:	e0bffe15 	stw	r2,-8(fp)
  80cf78:	e0bffe17 	ldw	r2,-8(fp)
  80cf7c:	10bfffc4 	addi	r2,r2,-1
  80cf80:	e0bffe15 	stw	r2,-8(fp)
  80cf84:	e13ffe17 	ldw	r4,-8(fp)
  80cf88:	01400504 	movi	r5,20
  80cf8c:	08014540 	call	801454 <__mulsi3>
  80cf90:	1007883a 	mov	r3,r2
  80cf94:	00802074 	movhi	r2,129
  80cf98:	109a1604 	addi	r2,r2,26712
  80cf9c:	1885883a 	add	r2,r3,r2
  80cfa0:	10800017 	ldw	r2,0(r2)
  80cfa4:	1005003a 	cmpeq	r2,r2,zero
  80cfa8:	10000a1e 	bne	r2,zero,80cfd4 <vTaskList+0xb4>
  80cfac:	e13ffe17 	ldw	r4,-8(fp)
  80cfb0:	01400504 	movi	r5,20
  80cfb4:	08014540 	call	801454 <__mulsi3>
  80cfb8:	1007883a 	mov	r3,r2
  80cfbc:	00802074 	movhi	r2,129
  80cfc0:	109a1604 	addi	r2,r2,26712
  80cfc4:	188b883a 	add	r5,r3,r2
  80cfc8:	e13fff17 	ldw	r4,-4(fp)
  80cfcc:	01801484 	movi	r6,82
  80cfd0:	080da280 	call	80da28 <prvListTaskWithinSingleList>
  80cfd4:	e0bffe17 	ldw	r2,-8(fp)
  80cfd8:	1004c03a 	cmpne	r2,r2,zero
  80cfdc:	103fe61e 	bne	r2,zero,80cf78 <vTaskList+0x58>
  80cfe0:	d0a6ff17 	ldw	r2,-25604(gp)
  80cfe4:	10800017 	ldw	r2,0(r2)
  80cfe8:	1005003a 	cmpeq	r2,r2,zero
  80cfec:	1000041e 	bne	r2,zero,80d000 <vTaskList+0xe0>
  80cff0:	d166ff17 	ldw	r5,-25604(gp)
  80cff4:	e13fff17 	ldw	r4,-4(fp)
  80cff8:	01801084 	movi	r6,66
  80cffc:	080da280 	call	80da28 <prvListTaskWithinSingleList>
  80d000:	d0a70017 	ldw	r2,-25600(gp)
  80d004:	10800017 	ldw	r2,0(r2)
  80d008:	1005003a 	cmpeq	r2,r2,zero
  80d00c:	1000041e 	bne	r2,zero,80d020 <vTaskList+0x100>
  80d010:	d1670017 	ldw	r5,-25600(gp)
  80d014:	e13fff17 	ldw	r4,-4(fp)
  80d018:	01801084 	movi	r6,66
  80d01c:	080da280 	call	80da28 <prvListTaskWithinSingleList>
  80d020:	00802074 	movhi	r2,129
  80d024:	109a3e04 	addi	r2,r2,26872
  80d028:	10800017 	ldw	r2,0(r2)
  80d02c:	1005003a 	cmpeq	r2,r2,zero
  80d030:	1000051e 	bne	r2,zero,80d048 <vTaskList+0x128>
  80d034:	e13fff17 	ldw	r4,-4(fp)
  80d038:	01402074 	movhi	r5,129
  80d03c:	295a3e04 	addi	r5,r5,26872
  80d040:	01801104 	movi	r6,68
  80d044:	080da280 	call	80da28 <prvListTaskWithinSingleList>
  80d048:	00802074 	movhi	r2,129
  80d04c:	109a4304 	addi	r2,r2,26892
  80d050:	10800017 	ldw	r2,0(r2)
  80d054:	1005003a 	cmpeq	r2,r2,zero
  80d058:	1000051e 	bne	r2,zero,80d070 <vTaskList+0x150>
  80d05c:	e13fff17 	ldw	r4,-4(fp)
  80d060:	01402074 	movhi	r5,129
  80d064:	295a4304 	addi	r5,r5,26892
  80d068:	018014c4 	movi	r6,83
  80d06c:	080da280 	call	80da28 <prvListTaskWithinSingleList>
  80d070:	080cd0c0 	call	80cd0c <xTaskResumeAll>
  80d074:	e037883a 	mov	sp,fp
  80d078:	dfc00217 	ldw	ra,8(sp)
  80d07c:	df000117 	ldw	fp,4(sp)
  80d080:	dc000017 	ldw	r16,0(sp)
  80d084:	dec00304 	addi	sp,sp,12
  80d088:	f800283a 	ret

0080d08c <vTaskIncrementTick>:
  80d08c:	defffb04 	addi	sp,sp,-20
  80d090:	dfc00415 	stw	ra,16(sp)
  80d094:	df000315 	stw	fp,12(sp)
  80d098:	df000304 	addi	fp,sp,12
  80d09c:	d0a6fa17 	ldw	r2,-25624(gp)
  80d0a0:	1004c03a 	cmpne	r2,r2,zero
  80d0a4:	1000511e 	bne	r2,zero,80d1ec <vTaskIncrementTick+0x160>
  80d0a8:	d0a6f617 	ldw	r2,-25640(gp)
  80d0ac:	10800044 	addi	r2,r2,1
  80d0b0:	d0a6f615 	stw	r2,-25640(gp)
  80d0b4:	d0a6f617 	ldw	r2,-25640(gp)
  80d0b8:	1004c03a 	cmpne	r2,r2,zero
  80d0bc:	1000171e 	bne	r2,zero,80d11c <vTaskIncrementTick+0x90>
  80d0c0:	d0a6ff17 	ldw	r2,-25604(gp)
  80d0c4:	e0bffe15 	stw	r2,-8(fp)
  80d0c8:	d0a70017 	ldw	r2,-25600(gp)
  80d0cc:	d0a6ff15 	stw	r2,-25604(gp)
  80d0d0:	e0bffe17 	ldw	r2,-8(fp)
  80d0d4:	d0a70015 	stw	r2,-25600(gp)
  80d0d8:	d0a6fd17 	ldw	r2,-25612(gp)
  80d0dc:	10800044 	addi	r2,r2,1
  80d0e0:	d0a6fd15 	stw	r2,-25612(gp)
  80d0e4:	d0a6ff17 	ldw	r2,-25604(gp)
  80d0e8:	10800017 	ldw	r2,0(r2)
  80d0ec:	1004c03a 	cmpne	r2,r2,zero
  80d0f0:	1000031e 	bne	r2,zero,80d100 <vTaskIncrementTick+0x74>
  80d0f4:	00bfffc4 	movi	r2,-1
  80d0f8:	d0a00715 	stw	r2,-32740(gp)
  80d0fc:	00000706 	br	80d11c <vTaskIncrementTick+0x90>
  80d100:	d0a6ff17 	ldw	r2,-25604(gp)
  80d104:	10800317 	ldw	r2,12(r2)
  80d108:	10800317 	ldw	r2,12(r2)
  80d10c:	e0bfff15 	stw	r2,-4(fp)
  80d110:	e0bfff17 	ldw	r2,-4(fp)
  80d114:	10800117 	ldw	r2,4(r2)
  80d118:	d0a00715 	stw	r2,-32740(gp)
  80d11c:	d0e6f617 	ldw	r3,-25640(gp)
  80d120:	d0a00717 	ldw	r2,-32740(gp)
  80d124:	18803436 	bltu	r3,r2,80d1f8 <vTaskIncrementTick+0x16c>
  80d128:	d0a6ff17 	ldw	r2,-25604(gp)
  80d12c:	10800017 	ldw	r2,0(r2)
  80d130:	1004c03a 	cmpne	r2,r2,zero
  80d134:	1000031e 	bne	r2,zero,80d144 <vTaskIncrementTick+0xb8>
  80d138:	00bfffc4 	movi	r2,-1
  80d13c:	d0a00715 	stw	r2,-32740(gp)
  80d140:	00002d06 	br	80d1f8 <vTaskIncrementTick+0x16c>
  80d144:	d0a6ff17 	ldw	r2,-25604(gp)
  80d148:	10800317 	ldw	r2,12(r2)
  80d14c:	10800317 	ldw	r2,12(r2)
  80d150:	e0bfff15 	stw	r2,-4(fp)
  80d154:	e0bfff17 	ldw	r2,-4(fp)
  80d158:	10800117 	ldw	r2,4(r2)
  80d15c:	e0bffd15 	stw	r2,-12(fp)
  80d160:	d0e6f617 	ldw	r3,-25640(gp)
  80d164:	e0bffd17 	ldw	r2,-12(fp)
  80d168:	1880032e 	bgeu	r3,r2,80d178 <vTaskIncrementTick+0xec>
  80d16c:	e0bffd17 	ldw	r2,-12(fp)
  80d170:	d0a00715 	stw	r2,-32740(gp)
  80d174:	00002006 	br	80d1f8 <vTaskIncrementTick+0x16c>
  80d178:	e0bfff17 	ldw	r2,-4(fp)
  80d17c:	11000104 	addi	r4,r2,4
  80d180:	08115880 	call	811588 <uxListRemove>
  80d184:	e0bfff17 	ldw	r2,-4(fp)
  80d188:	10800a17 	ldw	r2,40(r2)
  80d18c:	1005003a 	cmpeq	r2,r2,zero
  80d190:	1000031e 	bne	r2,zero,80d1a0 <vTaskIncrementTick+0x114>
  80d194:	e0bfff17 	ldw	r2,-4(fp)
  80d198:	11000604 	addi	r4,r2,24
  80d19c:	08115880 	call	811588 <uxListRemove>
  80d1a0:	e0bfff17 	ldw	r2,-4(fp)
  80d1a4:	10c00b17 	ldw	r3,44(r2)
  80d1a8:	d0a6f817 	ldw	r2,-25632(gp)
  80d1ac:	10c0032e 	bgeu	r2,r3,80d1bc <vTaskIncrementTick+0x130>
  80d1b0:	e0bfff17 	ldw	r2,-4(fp)
  80d1b4:	10800b17 	ldw	r2,44(r2)
  80d1b8:	d0a6f815 	stw	r2,-25632(gp)
  80d1bc:	e0bfff17 	ldw	r2,-4(fp)
  80d1c0:	11000b17 	ldw	r4,44(r2)
  80d1c4:	01400504 	movi	r5,20
  80d1c8:	08014540 	call	801454 <__mulsi3>
  80d1cc:	1007883a 	mov	r3,r2
  80d1d0:	00802074 	movhi	r2,129
  80d1d4:	109a1604 	addi	r2,r2,26712
  80d1d8:	1889883a 	add	r4,r3,r2
  80d1dc:	e0bfff17 	ldw	r2,-4(fp)
  80d1e0:	11400104 	addi	r5,r2,4
  80d1e4:	081141c0 	call	81141c <vListInsertEnd>
  80d1e8:	003fcf06 	br	80d128 <vTaskIncrementTick+0x9c>
  80d1ec:	d0a6fb17 	ldw	r2,-25620(gp)
  80d1f0:	10800044 	addi	r2,r2,1
  80d1f4:	d0a6fb15 	stw	r2,-25620(gp)
  80d1f8:	e037883a 	mov	sp,fp
  80d1fc:	dfc00117 	ldw	ra,4(sp)
  80d200:	df000017 	ldw	fp,0(sp)
  80d204:	dec00204 	addi	sp,sp,8
  80d208:	f800283a 	ret

0080d20c <vTaskSwitchContext>:
  80d20c:	defffd04 	addi	sp,sp,-12
  80d210:	dfc00215 	stw	ra,8(sp)
  80d214:	df000115 	stw	fp,4(sp)
  80d218:	df000104 	addi	fp,sp,4
  80d21c:	d0a6fa17 	ldw	r2,-25624(gp)
  80d220:	1005003a 	cmpeq	r2,r2,zero
  80d224:	1000061e 	bne	r2,zero,80d240 <vTaskSwitchContext+0x34>
  80d228:	00800044 	movi	r2,1
  80d22c:	d0a6fc15 	stw	r2,-25616(gp)
  80d230:	00002806 	br	80d2d4 <vTaskSwitchContext+0xc8>
  80d234:	d0a6f817 	ldw	r2,-25632(gp)
  80d238:	10bfffc4 	addi	r2,r2,-1
  80d23c:	d0a6f815 	stw	r2,-25632(gp)
  80d240:	d126f817 	ldw	r4,-25632(gp)
  80d244:	01400504 	movi	r5,20
  80d248:	08014540 	call	801454 <__mulsi3>
  80d24c:	1007883a 	mov	r3,r2
  80d250:	00802074 	movhi	r2,129
  80d254:	109a1604 	addi	r2,r2,26712
  80d258:	1885883a 	add	r2,r3,r2
  80d25c:	10800017 	ldw	r2,0(r2)
  80d260:	1005003a 	cmpeq	r2,r2,zero
  80d264:	103ff31e 	bne	r2,zero,80d234 <vTaskSwitchContext+0x28>
  80d268:	d126f817 	ldw	r4,-25632(gp)
  80d26c:	01400504 	movi	r5,20
  80d270:	08014540 	call	801454 <__mulsi3>
  80d274:	1007883a 	mov	r3,r2
  80d278:	00802074 	movhi	r2,129
  80d27c:	109a1604 	addi	r2,r2,26712
  80d280:	1885883a 	add	r2,r3,r2
  80d284:	e0bfff15 	stw	r2,-4(fp)
  80d288:	e0bfff17 	ldw	r2,-4(fp)
  80d28c:	10800117 	ldw	r2,4(r2)
  80d290:	10c00117 	ldw	r3,4(r2)
  80d294:	e0bfff17 	ldw	r2,-4(fp)
  80d298:	10c00115 	stw	r3,4(r2)
  80d29c:	e0bfff17 	ldw	r2,-4(fp)
  80d2a0:	10c00117 	ldw	r3,4(r2)
  80d2a4:	e0bfff17 	ldw	r2,-4(fp)
  80d2a8:	10800204 	addi	r2,r2,8
  80d2ac:	1880051e 	bne	r3,r2,80d2c4 <vTaskSwitchContext+0xb8>
  80d2b0:	e0bfff17 	ldw	r2,-4(fp)
  80d2b4:	10800117 	ldw	r2,4(r2)
  80d2b8:	10c00117 	ldw	r3,4(r2)
  80d2bc:	e0bfff17 	ldw	r2,-4(fp)
  80d2c0:	10c00115 	stw	r3,4(r2)
  80d2c4:	e0bfff17 	ldw	r2,-4(fp)
  80d2c8:	10800117 	ldw	r2,4(r2)
  80d2cc:	10800317 	ldw	r2,12(r2)
  80d2d0:	d0a6f315 	stw	r2,-25652(gp)
  80d2d4:	e037883a 	mov	sp,fp
  80d2d8:	dfc00117 	ldw	ra,4(sp)
  80d2dc:	df000017 	ldw	fp,0(sp)
  80d2e0:	dec00204 	addi	sp,sp,8
  80d2e4:	f800283a 	ret

0080d2e8 <vTaskPlaceOnEventList>:
  80d2e8:	defffb04 	addi	sp,sp,-20
  80d2ec:	dfc00415 	stw	ra,16(sp)
  80d2f0:	df000315 	stw	fp,12(sp)
  80d2f4:	df000304 	addi	fp,sp,12
  80d2f8:	e13ffe15 	stw	r4,-8(fp)
  80d2fc:	e17fff15 	stw	r5,-4(fp)
  80d300:	d0a6f317 	ldw	r2,-25652(gp)
  80d304:	11400604 	addi	r5,r2,24
  80d308:	e13ffe17 	ldw	r4,-8(fp)
  80d30c:	08114b40 	call	8114b4 <vListInsert>
  80d310:	d0a6f317 	ldw	r2,-25652(gp)
  80d314:	11000104 	addi	r4,r2,4
  80d318:	08115880 	call	811588 <uxListRemove>
  80d31c:	e0bfff17 	ldw	r2,-4(fp)
  80d320:	10bfffd8 	cmpnei	r2,r2,-1
  80d324:	1000061e 	bne	r2,zero,80d340 <vTaskPlaceOnEventList+0x58>
  80d328:	d0a6f317 	ldw	r2,-25652(gp)
  80d32c:	11400104 	addi	r5,r2,4
  80d330:	01002074 	movhi	r4,129
  80d334:	211a4304 	addi	r4,r4,26892
  80d338:	081141c0 	call	81141c <vListInsertEnd>
  80d33c:	00000606 	br	80d358 <vTaskPlaceOnEventList+0x70>
  80d340:	d0a6f617 	ldw	r2,-25640(gp)
  80d344:	e0ffff17 	ldw	r3,-4(fp)
  80d348:	10c5883a 	add	r2,r2,r3
  80d34c:	e0bffd15 	stw	r2,-12(fp)
  80d350:	e13ffd17 	ldw	r4,-12(fp)
  80d354:	080d8ec0 	call	80d8ec <prvAddCurrentTaskToDelayedList>
  80d358:	e037883a 	mov	sp,fp
  80d35c:	dfc00117 	ldw	ra,4(sp)
  80d360:	df000017 	ldw	fp,0(sp)
  80d364:	dec00204 	addi	sp,sp,8
  80d368:	f800283a 	ret

0080d36c <vTaskPlaceOnEventListRestricted>:
  80d36c:	defffb04 	addi	sp,sp,-20
  80d370:	dfc00415 	stw	ra,16(sp)
  80d374:	df000315 	stw	fp,12(sp)
  80d378:	df000304 	addi	fp,sp,12
  80d37c:	e13ffe15 	stw	r4,-8(fp)
  80d380:	e17fff15 	stw	r5,-4(fp)
  80d384:	d0a6f317 	ldw	r2,-25652(gp)
  80d388:	11400604 	addi	r5,r2,24
  80d38c:	e13ffe17 	ldw	r4,-8(fp)
  80d390:	081141c0 	call	81141c <vListInsertEnd>
  80d394:	d0a6f317 	ldw	r2,-25652(gp)
  80d398:	11000104 	addi	r4,r2,4
  80d39c:	08115880 	call	811588 <uxListRemove>
  80d3a0:	d0e6f617 	ldw	r3,-25640(gp)
  80d3a4:	e0bfff17 	ldw	r2,-4(fp)
  80d3a8:	1885883a 	add	r2,r3,r2
  80d3ac:	e0bffd15 	stw	r2,-12(fp)
  80d3b0:	e13ffd17 	ldw	r4,-12(fp)
  80d3b4:	080d8ec0 	call	80d8ec <prvAddCurrentTaskToDelayedList>
  80d3b8:	e037883a 	mov	sp,fp
  80d3bc:	dfc00117 	ldw	ra,4(sp)
  80d3c0:	df000017 	ldw	fp,0(sp)
  80d3c4:	dec00204 	addi	sp,sp,8
  80d3c8:	f800283a 	ret

0080d3cc <xTaskRemoveFromEventList>:
  80d3cc:	defffb04 	addi	sp,sp,-20
  80d3d0:	dfc00415 	stw	ra,16(sp)
  80d3d4:	df000315 	stw	fp,12(sp)
  80d3d8:	df000304 	addi	fp,sp,12
  80d3dc:	e13fff15 	stw	r4,-4(fp)
  80d3e0:	e0bfff17 	ldw	r2,-4(fp)
  80d3e4:	10800317 	ldw	r2,12(r2)
  80d3e8:	10800317 	ldw	r2,12(r2)
  80d3ec:	e0bffe15 	stw	r2,-8(fp)
  80d3f0:	e0bffe17 	ldw	r2,-8(fp)
  80d3f4:	11000604 	addi	r4,r2,24
  80d3f8:	08115880 	call	811588 <uxListRemove>
  80d3fc:	d0a6fa17 	ldw	r2,-25624(gp)
  80d400:	1004c03a 	cmpne	r2,r2,zero
  80d404:	1000161e 	bne	r2,zero,80d460 <xTaskRemoveFromEventList+0x94>
  80d408:	e0bffe17 	ldw	r2,-8(fp)
  80d40c:	11000104 	addi	r4,r2,4
  80d410:	08115880 	call	811588 <uxListRemove>
  80d414:	e0bffe17 	ldw	r2,-8(fp)
  80d418:	10c00b17 	ldw	r3,44(r2)
  80d41c:	d0a6f817 	ldw	r2,-25632(gp)
  80d420:	10c0032e 	bgeu	r2,r3,80d430 <xTaskRemoveFromEventList+0x64>
  80d424:	e0bffe17 	ldw	r2,-8(fp)
  80d428:	10800b17 	ldw	r2,44(r2)
  80d42c:	d0a6f815 	stw	r2,-25632(gp)
  80d430:	e0bffe17 	ldw	r2,-8(fp)
  80d434:	11000b17 	ldw	r4,44(r2)
  80d438:	01400504 	movi	r5,20
  80d43c:	08014540 	call	801454 <__mulsi3>
  80d440:	1007883a 	mov	r3,r2
  80d444:	00802074 	movhi	r2,129
  80d448:	109a1604 	addi	r2,r2,26712
  80d44c:	1889883a 	add	r4,r3,r2
  80d450:	e0bffe17 	ldw	r2,-8(fp)
  80d454:	11400104 	addi	r5,r2,4
  80d458:	081141c0 	call	81141c <vListInsertEnd>
  80d45c:	00000506 	br	80d474 <xTaskRemoveFromEventList+0xa8>
  80d460:	e0bffe17 	ldw	r2,-8(fp)
  80d464:	11400604 	addi	r5,r2,24
  80d468:	01002074 	movhi	r4,129
  80d46c:	211a3904 	addi	r4,r4,26852
  80d470:	081141c0 	call	81141c <vListInsertEnd>
  80d474:	e0bffe17 	ldw	r2,-8(fp)
  80d478:	10c00b17 	ldw	r3,44(r2)
  80d47c:	d0a6f317 	ldw	r2,-25652(gp)
  80d480:	10800b17 	ldw	r2,44(r2)
  80d484:	18800336 	bltu	r3,r2,80d494 <xTaskRemoveFromEventList+0xc8>
  80d488:	00800044 	movi	r2,1
  80d48c:	e0bffd15 	stw	r2,-12(fp)
  80d490:	00000106 	br	80d498 <xTaskRemoveFromEventList+0xcc>
  80d494:	e03ffd15 	stw	zero,-12(fp)
  80d498:	e0bffd17 	ldw	r2,-12(fp)
  80d49c:	e037883a 	mov	sp,fp
  80d4a0:	dfc00117 	ldw	ra,4(sp)
  80d4a4:	df000017 	ldw	fp,0(sp)
  80d4a8:	dec00204 	addi	sp,sp,8
  80d4ac:	f800283a 	ret

0080d4b0 <vTaskSetTimeOutState>:
  80d4b0:	defffe04 	addi	sp,sp,-8
  80d4b4:	df000115 	stw	fp,4(sp)
  80d4b8:	df000104 	addi	fp,sp,4
  80d4bc:	e13fff15 	stw	r4,-4(fp)
  80d4c0:	d0e6fd17 	ldw	r3,-25612(gp)
  80d4c4:	e0bfff17 	ldw	r2,-4(fp)
  80d4c8:	10c00015 	stw	r3,0(r2)
  80d4cc:	d0e6f617 	ldw	r3,-25640(gp)
  80d4d0:	e0bfff17 	ldw	r2,-4(fp)
  80d4d4:	10c00115 	stw	r3,4(r2)
  80d4d8:	e037883a 	mov	sp,fp
  80d4dc:	df000017 	ldw	fp,0(sp)
  80d4e0:	dec00104 	addi	sp,sp,4
  80d4e4:	f800283a 	ret

0080d4e8 <xTaskCheckForTimeOut>:
  80d4e8:	defffb04 	addi	sp,sp,-20
  80d4ec:	dfc00415 	stw	ra,16(sp)
  80d4f0:	df000315 	stw	fp,12(sp)
  80d4f4:	df000304 	addi	fp,sp,12
  80d4f8:	e13ffe15 	stw	r4,-8(fp)
  80d4fc:	e17fff15 	stw	r5,-4(fp)
  80d500:	080dca80 	call	80dca8 <xTaskGetSchedulerState>
  80d504:	1005003a 	cmpeq	r2,r2,zero
  80d508:	1000011e 	bne	r2,zero,80d510 <xTaskCheckForTimeOut+0x28>
  80d50c:	080dedc0 	call	80dedc <vTaskEnterCritical>
  80d510:	e0bfff17 	ldw	r2,-4(fp)
  80d514:	10800017 	ldw	r2,0(r2)
  80d518:	10bfffd8 	cmpnei	r2,r2,-1
  80d51c:	1000021e 	bne	r2,zero,80d528 <xTaskCheckForTimeOut+0x40>
  80d520:	e03ffd15 	stw	zero,-12(fp)
  80d524:	00002106 	br	80d5ac <xTaskCheckForTimeOut+0xc4>
  80d528:	e0bffe17 	ldw	r2,-8(fp)
  80d52c:	10c00017 	ldw	r3,0(r2)
  80d530:	d0a6fd17 	ldw	r2,-25612(gp)
  80d534:	18800726 	beq	r3,r2,80d554 <xTaskCheckForTimeOut+0x6c>
  80d538:	e0bffe17 	ldw	r2,-8(fp)
  80d53c:	10c00117 	ldw	r3,4(r2)
  80d540:	d0a6f617 	ldw	r2,-25640(gp)
  80d544:	10c00336 	bltu	r2,r3,80d554 <xTaskCheckForTimeOut+0x6c>
  80d548:	00800044 	movi	r2,1
  80d54c:	e0bffd15 	stw	r2,-12(fp)
  80d550:	00001606 	br	80d5ac <xTaskCheckForTimeOut+0xc4>
  80d554:	d0e6f617 	ldw	r3,-25640(gp)
  80d558:	e0bffe17 	ldw	r2,-8(fp)
  80d55c:	10800117 	ldw	r2,4(r2)
  80d560:	1887c83a 	sub	r3,r3,r2
  80d564:	e0bfff17 	ldw	r2,-4(fp)
  80d568:	10800017 	ldw	r2,0(r2)
  80d56c:	18800d2e 	bgeu	r3,r2,80d5a4 <xTaskCheckForTimeOut+0xbc>
  80d570:	e0bfff17 	ldw	r2,-4(fp)
  80d574:	11000017 	ldw	r4,0(r2)
  80d578:	d0e6f617 	ldw	r3,-25640(gp)
  80d57c:	e0bffe17 	ldw	r2,-8(fp)
  80d580:	10800117 	ldw	r2,4(r2)
  80d584:	1885c83a 	sub	r2,r3,r2
  80d588:	2087c83a 	sub	r3,r4,r2
  80d58c:	e0bfff17 	ldw	r2,-4(fp)
  80d590:	10c00015 	stw	r3,0(r2)
  80d594:	e13ffe17 	ldw	r4,-8(fp)
  80d598:	080d4b00 	call	80d4b0 <vTaskSetTimeOutState>
  80d59c:	e03ffd15 	stw	zero,-12(fp)
  80d5a0:	00000206 	br	80d5ac <xTaskCheckForTimeOut+0xc4>
  80d5a4:	00800044 	movi	r2,1
  80d5a8:	e0bffd15 	stw	r2,-12(fp)
  80d5ac:	080dca80 	call	80dca8 <xTaskGetSchedulerState>
  80d5b0:	1005003a 	cmpeq	r2,r2,zero
  80d5b4:	1000011e 	bne	r2,zero,80d5bc <xTaskCheckForTimeOut+0xd4>
  80d5b8:	080df2c0 	call	80df2c <vTaskExitCritical>
  80d5bc:	e0bffd17 	ldw	r2,-12(fp)
  80d5c0:	e037883a 	mov	sp,fp
  80d5c4:	dfc00117 	ldw	ra,4(sp)
  80d5c8:	df000017 	ldw	fp,0(sp)
  80d5cc:	dec00204 	addi	sp,sp,8
  80d5d0:	f800283a 	ret

0080d5d4 <vTaskMissedYield>:
  80d5d4:	deffff04 	addi	sp,sp,-4
  80d5d8:	df000015 	stw	fp,0(sp)
  80d5dc:	d839883a 	mov	fp,sp
  80d5e0:	00800044 	movi	r2,1
  80d5e4:	d0a6fc15 	stw	r2,-25616(gp)
  80d5e8:	e037883a 	mov	sp,fp
  80d5ec:	df000017 	ldw	fp,0(sp)
  80d5f0:	dec00104 	addi	sp,sp,4
  80d5f4:	f800283a 	ret

0080d5f8 <uxTaskGetTaskNumber>:
  80d5f8:	defffc04 	addi	sp,sp,-16
  80d5fc:	df000315 	stw	fp,12(sp)
  80d600:	df000304 	addi	fp,sp,12
  80d604:	e13fff15 	stw	r4,-4(fp)
  80d608:	e0bfff17 	ldw	r2,-4(fp)
  80d60c:	1005003a 	cmpeq	r2,r2,zero
  80d610:	1000061e 	bne	r2,zero,80d62c <uxTaskGetTaskNumber+0x34>
  80d614:	e0bfff17 	ldw	r2,-4(fp)
  80d618:	e0bffd15 	stw	r2,-12(fp)
  80d61c:	e0bffd17 	ldw	r2,-12(fp)
  80d620:	10801917 	ldw	r2,100(r2)
  80d624:	e0bffe15 	stw	r2,-8(fp)
  80d628:	00000106 	br	80d630 <uxTaskGetTaskNumber+0x38>
  80d62c:	e03ffe15 	stw	zero,-8(fp)
  80d630:	e0bffe17 	ldw	r2,-8(fp)
  80d634:	e037883a 	mov	sp,fp
  80d638:	df000017 	ldw	fp,0(sp)
  80d63c:	dec00104 	addi	sp,sp,4
  80d640:	f800283a 	ret

0080d644 <vTaskSetTaskNumber>:
  80d644:	defffc04 	addi	sp,sp,-16
  80d648:	df000315 	stw	fp,12(sp)
  80d64c:	df000304 	addi	fp,sp,12
  80d650:	e13ffe15 	stw	r4,-8(fp)
  80d654:	e17fff15 	stw	r5,-4(fp)
  80d658:	e0bffe17 	ldw	r2,-8(fp)
  80d65c:	1005003a 	cmpeq	r2,r2,zero
  80d660:	1000051e 	bne	r2,zero,80d678 <vTaskSetTaskNumber+0x34>
  80d664:	e0bffe17 	ldw	r2,-8(fp)
  80d668:	e0bffd15 	stw	r2,-12(fp)
  80d66c:	e0fffd17 	ldw	r3,-12(fp)
  80d670:	e0bfff17 	ldw	r2,-4(fp)
  80d674:	18801915 	stw	r2,100(r3)
  80d678:	e037883a 	mov	sp,fp
  80d67c:	df000017 	ldw	fp,0(sp)
  80d680:	dec00104 	addi	sp,sp,4
  80d684:	f800283a 	ret

0080d688 <prvIdleTask>:
  80d688:	defffd04 	addi	sp,sp,-12
  80d68c:	dfc00215 	stw	ra,8(sp)
  80d690:	df000115 	stw	fp,4(sp)
  80d694:	df000104 	addi	fp,sp,4
  80d698:	e13fff15 	stw	r4,-4(fp)
  80d69c:	080d8300 	call	80d830 <prvCheckTasksWaitingTermination>
  80d6a0:	003ffe06 	br	80d69c <prvIdleTask+0x14>

0080d6a4 <prvInitialiseTCBVariables>:
  80d6a4:	defff904 	addi	sp,sp,-28
  80d6a8:	dfc00615 	stw	ra,24(sp)
  80d6ac:	df000515 	stw	fp,20(sp)
  80d6b0:	df000504 	addi	fp,sp,20
  80d6b4:	e13ffb15 	stw	r4,-20(fp)
  80d6b8:	e17ffc15 	stw	r5,-16(fp)
  80d6bc:	e1bffd15 	stw	r6,-12(fp)
  80d6c0:	e1fffe15 	stw	r7,-8(fp)
  80d6c4:	e0800217 	ldw	r2,8(fp)
  80d6c8:	e0bfff0d 	sth	r2,-4(fp)
  80d6cc:	e0bffb17 	ldw	r2,-20(fp)
  80d6d0:	10800d04 	addi	r2,r2,52
  80d6d4:	1009883a 	mov	r4,r2
  80d6d8:	e17ffc17 	ldw	r5,-16(fp)
  80d6dc:	01800a04 	movi	r6,40
  80d6e0:	08123900 	call	812390 <strncpy>
  80d6e4:	e0bffb17 	ldw	r2,-20(fp)
  80d6e8:	100016c5 	stb	zero,91(r2)
  80d6ec:	e0bffd17 	ldw	r2,-12(fp)
  80d6f0:	10800170 	cmpltui	r2,r2,5
  80d6f4:	1000021e 	bne	r2,zero,80d700 <prvInitialiseTCBVariables+0x5c>
  80d6f8:	00800104 	movi	r2,4
  80d6fc:	e0bffd15 	stw	r2,-12(fp)
  80d700:	e0fffb17 	ldw	r3,-20(fp)
  80d704:	e0bffd17 	ldw	r2,-12(fp)
  80d708:	18800b15 	stw	r2,44(r3)
  80d70c:	e0fffb17 	ldw	r3,-20(fp)
  80d710:	e0bffd17 	ldw	r2,-12(fp)
  80d714:	18801a15 	stw	r2,104(r3)
  80d718:	e0bffb17 	ldw	r2,-20(fp)
  80d71c:	11000104 	addi	r4,r2,4
  80d720:	08113f40 	call	8113f4 <vListInitialiseItem>
  80d724:	e0bffb17 	ldw	r2,-20(fp)
  80d728:	11000604 	addi	r4,r2,24
  80d72c:	08113f40 	call	8113f4 <vListInitialiseItem>
  80d730:	e0fffb17 	ldw	r3,-20(fp)
  80d734:	e0bffb17 	ldw	r2,-20(fp)
  80d738:	18800415 	stw	r2,16(r3)
  80d73c:	00c00144 	movi	r3,5
  80d740:	e0bffd17 	ldw	r2,-12(fp)
  80d744:	1887c83a 	sub	r3,r3,r2
  80d748:	e0bffb17 	ldw	r2,-20(fp)
  80d74c:	10c00615 	stw	r3,24(r2)
  80d750:	e0fffb17 	ldw	r3,-20(fp)
  80d754:	e0bffb17 	ldw	r2,-20(fp)
  80d758:	18800915 	stw	r2,36(r3)
  80d75c:	e0bffb17 	ldw	r2,-20(fp)
  80d760:	10001715 	stw	zero,92(r2)
  80d764:	e037883a 	mov	sp,fp
  80d768:	dfc00117 	ldw	ra,4(sp)
  80d76c:	df000017 	ldw	fp,0(sp)
  80d770:	dec00204 	addi	sp,sp,8
  80d774:	f800283a 	ret

0080d778 <prvInitialiseTaskLists>:
  80d778:	defffd04 	addi	sp,sp,-12
  80d77c:	dfc00215 	stw	ra,8(sp)
  80d780:	df000115 	stw	fp,4(sp)
  80d784:	df000104 	addi	fp,sp,4
  80d788:	e03fff15 	stw	zero,-4(fp)
  80d78c:	00000b06 	br	80d7bc <prvInitialiseTaskLists+0x44>
  80d790:	e13fff17 	ldw	r4,-4(fp)
  80d794:	01400504 	movi	r5,20
  80d798:	08014540 	call	801454 <__mulsi3>
  80d79c:	1007883a 	mov	r3,r2
  80d7a0:	00802074 	movhi	r2,129
  80d7a4:	109a1604 	addi	r2,r2,26712
  80d7a8:	1889883a 	add	r4,r3,r2
  80d7ac:	08113840 	call	811384 <vListInitialise>
  80d7b0:	e0bfff17 	ldw	r2,-4(fp)
  80d7b4:	10800044 	addi	r2,r2,1
  80d7b8:	e0bfff15 	stw	r2,-4(fp)
  80d7bc:	e0bfff17 	ldw	r2,-4(fp)
  80d7c0:	10800170 	cmpltui	r2,r2,5
  80d7c4:	103ff21e 	bne	r2,zero,80d790 <prvInitialiseTaskLists+0x18>
  80d7c8:	01002074 	movhi	r4,129
  80d7cc:	211a2f04 	addi	r4,r4,26812
  80d7d0:	08113840 	call	811384 <vListInitialise>
  80d7d4:	01002074 	movhi	r4,129
  80d7d8:	211a3404 	addi	r4,r4,26832
  80d7dc:	08113840 	call	811384 <vListInitialise>
  80d7e0:	01002074 	movhi	r4,129
  80d7e4:	211a3904 	addi	r4,r4,26852
  80d7e8:	08113840 	call	811384 <vListInitialise>
  80d7ec:	01002074 	movhi	r4,129
  80d7f0:	211a3e04 	addi	r4,r4,26872
  80d7f4:	08113840 	call	811384 <vListInitialise>
  80d7f8:	01002074 	movhi	r4,129
  80d7fc:	211a4304 	addi	r4,r4,26892
  80d800:	08113840 	call	811384 <vListInitialise>
  80d804:	00802074 	movhi	r2,129
  80d808:	109a2f04 	addi	r2,r2,26812
  80d80c:	d0a6ff15 	stw	r2,-25604(gp)
  80d810:	00802074 	movhi	r2,129
  80d814:	109a3404 	addi	r2,r2,26832
  80d818:	d0a70015 	stw	r2,-25600(gp)
  80d81c:	e037883a 	mov	sp,fp
  80d820:	dfc00117 	ldw	ra,4(sp)
  80d824:	df000017 	ldw	fp,0(sp)
  80d828:	dec00204 	addi	sp,sp,8
  80d82c:	f800283a 	ret

0080d830 <prvCheckTasksWaitingTermination>:
  80d830:	defffc04 	addi	sp,sp,-16
  80d834:	dfc00315 	stw	ra,12(sp)
  80d838:	df000215 	stw	fp,8(sp)
  80d83c:	df000204 	addi	fp,sp,8
  80d840:	00002206 	br	80d8cc <prvCheckTasksWaitingTermination+0x9c>
  80d844:	080cce40 	call	80cce4 <vTaskSuspendAll>
  80d848:	00802074 	movhi	r2,129
  80d84c:	109a3e04 	addi	r2,r2,26872
  80d850:	10800017 	ldw	r2,0(r2)
  80d854:	1005003a 	cmpeq	r2,r2,zero
  80d858:	e0bfff15 	stw	r2,-4(fp)
  80d85c:	080cd0c0 	call	80cd0c <xTaskResumeAll>
  80d860:	e0bfff17 	ldw	r2,-4(fp)
  80d864:	1004c03a 	cmpne	r2,r2,zero
  80d868:	1000181e 	bne	r2,zero,80d8cc <prvCheckTasksWaitingTermination+0x9c>
  80d86c:	080dca80 	call	80dca8 <xTaskGetSchedulerState>
  80d870:	1005003a 	cmpeq	r2,r2,zero
  80d874:	1000011e 	bne	r2,zero,80d87c <prvCheckTasksWaitingTermination+0x4c>
  80d878:	080dedc0 	call	80dedc <vTaskEnterCritical>
  80d87c:	00802074 	movhi	r2,129
  80d880:	109a3e04 	addi	r2,r2,26872
  80d884:	10800317 	ldw	r2,12(r2)
  80d888:	10800317 	ldw	r2,12(r2)
  80d88c:	e0bffe15 	stw	r2,-8(fp)
  80d890:	e0bffe17 	ldw	r2,-8(fp)
  80d894:	11000104 	addi	r4,r2,4
  80d898:	08115880 	call	811588 <uxListRemove>
  80d89c:	d0a6f517 	ldw	r2,-25644(gp)
  80d8a0:	10bfffc4 	addi	r2,r2,-1
  80d8a4:	d0a6f515 	stw	r2,-25644(gp)
  80d8a8:	d0a6f417 	ldw	r2,-25648(gp)
  80d8ac:	10bfffc4 	addi	r2,r2,-1
  80d8b0:	d0a6f415 	stw	r2,-25648(gp)
  80d8b4:	080dca80 	call	80dca8 <xTaskGetSchedulerState>
  80d8b8:	1005003a 	cmpeq	r2,r2,zero
  80d8bc:	1000011e 	bne	r2,zero,80d8c4 <prvCheckTasksWaitingTermination+0x94>
  80d8c0:	080df2c0 	call	80df2c <vTaskExitCritical>
  80d8c4:	e13ffe17 	ldw	r4,-8(fp)
  80d8c8:	080dc440 	call	80dc44 <prvDeleteTCB>
  80d8cc:	d0a6f417 	ldw	r2,-25648(gp)
  80d8d0:	1004c03a 	cmpne	r2,r2,zero
  80d8d4:	103fdb1e 	bne	r2,zero,80d844 <prvCheckTasksWaitingTermination+0x14>
  80d8d8:	e037883a 	mov	sp,fp
  80d8dc:	dfc00117 	ldw	ra,4(sp)
  80d8e0:	df000017 	ldw	fp,0(sp)
  80d8e4:	dec00204 	addi	sp,sp,8
  80d8e8:	f800283a 	ret

0080d8ec <prvAddCurrentTaskToDelayedList>:
  80d8ec:	defffd04 	addi	sp,sp,-12
  80d8f0:	dfc00215 	stw	ra,8(sp)
  80d8f4:	df000115 	stw	fp,4(sp)
  80d8f8:	df000104 	addi	fp,sp,4
  80d8fc:	e13fff15 	stw	r4,-4(fp)
  80d900:	d0e6f317 	ldw	r3,-25652(gp)
  80d904:	e0bfff17 	ldw	r2,-4(fp)
  80d908:	18800115 	stw	r2,4(r3)
  80d90c:	d0e6f617 	ldw	r3,-25640(gp)
  80d910:	e0bfff17 	ldw	r2,-4(fp)
  80d914:	10c0052e 	bgeu	r2,r3,80d92c <prvAddCurrentTaskToDelayedList+0x40>
  80d918:	d1270017 	ldw	r4,-25600(gp)
  80d91c:	d0a6f317 	ldw	r2,-25652(gp)
  80d920:	11400104 	addi	r5,r2,4
  80d924:	08114b40 	call	8114b4 <vListInsert>
  80d928:	00000906 	br	80d950 <prvAddCurrentTaskToDelayedList+0x64>
  80d92c:	d126ff17 	ldw	r4,-25604(gp)
  80d930:	d0a6f317 	ldw	r2,-25652(gp)
  80d934:	11400104 	addi	r5,r2,4
  80d938:	08114b40 	call	8114b4 <vListInsert>
  80d93c:	d0e00717 	ldw	r3,-32740(gp)
  80d940:	e0bfff17 	ldw	r2,-4(fp)
  80d944:	10c0022e 	bgeu	r2,r3,80d950 <prvAddCurrentTaskToDelayedList+0x64>
  80d948:	e0bfff17 	ldw	r2,-4(fp)
  80d94c:	d0a00715 	stw	r2,-32740(gp)
  80d950:	e037883a 	mov	sp,fp
  80d954:	dfc00117 	ldw	ra,4(sp)
  80d958:	df000017 	ldw	fp,0(sp)
  80d95c:	dec00204 	addi	sp,sp,8
  80d960:	f800283a 	ret

0080d964 <prvAllocateTCBAndStack>:
  80d964:	defffa04 	addi	sp,sp,-24
  80d968:	dfc00515 	stw	ra,20(sp)
  80d96c:	df000415 	stw	fp,16(sp)
  80d970:	df000404 	addi	fp,sp,16
  80d974:	e17ffe15 	stw	r5,-8(fp)
  80d978:	e13ffd0d 	sth	r4,-12(fp)
  80d97c:	01001b04 	movi	r4,108
  80d980:	08113000 	call	811300 <pvPortMalloc>
  80d984:	e0bffc15 	stw	r2,-16(fp)
  80d988:	e0bffc17 	ldw	r2,-16(fp)
  80d98c:	1005003a 	cmpeq	r2,r2,zero
  80d990:	10001f1e 	bne	r2,zero,80da10 <prvAllocateTCBAndStack+0xac>
  80d994:	e0bffe17 	ldw	r2,-8(fp)
  80d998:	1004c03a 	cmpne	r2,r2,zero
  80d99c:	1000071e 	bne	r2,zero,80d9bc <prvAllocateTCBAndStack+0x58>
  80d9a0:	e0bffd0b 	ldhu	r2,-12(fp)
  80d9a4:	1085883a 	add	r2,r2,r2
  80d9a8:	1085883a 	add	r2,r2,r2
  80d9ac:	1009883a 	mov	r4,r2
  80d9b0:	08113000 	call	811300 <pvPortMalloc>
  80d9b4:	e0bfff15 	stw	r2,-4(fp)
  80d9b8:	00000206 	br	80d9c4 <prvAllocateTCBAndStack+0x60>
  80d9bc:	e0bffe17 	ldw	r2,-8(fp)
  80d9c0:	e0bfff15 	stw	r2,-4(fp)
  80d9c4:	e0bffc17 	ldw	r2,-16(fp)
  80d9c8:	e0ffff17 	ldw	r3,-4(fp)
  80d9cc:	10c00c15 	stw	r3,48(r2)
  80d9d0:	e0bffc17 	ldw	r2,-16(fp)
  80d9d4:	10800c17 	ldw	r2,48(r2)
  80d9d8:	1004c03a 	cmpne	r2,r2,zero
  80d9dc:	1000041e 	bne	r2,zero,80d9f0 <prvAllocateTCBAndStack+0x8c>
  80d9e0:	e13ffc17 	ldw	r4,-16(fp)
  80d9e4:	08113400 	call	811340 <vPortFree>
  80d9e8:	e03ffc15 	stw	zero,-16(fp)
  80d9ec:	00000806 	br	80da10 <prvAllocateTCBAndStack+0xac>
  80d9f0:	e0bffc17 	ldw	r2,-16(fp)
  80d9f4:	11000c17 	ldw	r4,48(r2)
  80d9f8:	e0bffd0b 	ldhu	r2,-12(fp)
  80d9fc:	1085883a 	add	r2,r2,r2
  80da00:	1085883a 	add	r2,r2,r2
  80da04:	100d883a 	mov	r6,r2
  80da08:	01402944 	movi	r5,165
  80da0c:	0806a1c0 	call	806a1c <memset>
  80da10:	e0bffc17 	ldw	r2,-16(fp)
  80da14:	e037883a 	mov	sp,fp
  80da18:	dfc00117 	ldw	ra,4(sp)
  80da1c:	df000017 	ldw	fp,0(sp)
  80da20:	dec00204 	addi	sp,sp,8
  80da24:	f800283a 	ret

0080da28 <prvListTaskWithinSingleList>:
  80da28:	defff304 	addi	sp,sp,-52
  80da2c:	dfc00c15 	stw	ra,48(sp)
  80da30:	df000b15 	stw	fp,44(sp)
  80da34:	df000b04 	addi	fp,sp,44
  80da38:	e13ffd15 	stw	r4,-12(fp)
  80da3c:	e17ffe15 	stw	r5,-8(fp)
  80da40:	e1bfff05 	stb	r6,-4(fp)
  80da44:	e0bffe17 	ldw	r2,-8(fp)
  80da48:	e0bff915 	stw	r2,-28(fp)
  80da4c:	e0bff917 	ldw	r2,-28(fp)
  80da50:	10800117 	ldw	r2,4(r2)
  80da54:	10c00117 	ldw	r3,4(r2)
  80da58:	e0bff917 	ldw	r2,-28(fp)
  80da5c:	10c00115 	stw	r3,4(r2)
  80da60:	e0bff917 	ldw	r2,-28(fp)
  80da64:	10c00117 	ldw	r3,4(r2)
  80da68:	e0bff917 	ldw	r2,-28(fp)
  80da6c:	10800204 	addi	r2,r2,8
  80da70:	1880051e 	bne	r3,r2,80da88 <prvListTaskWithinSingleList+0x60>
  80da74:	e0bff917 	ldw	r2,-28(fp)
  80da78:	10800117 	ldw	r2,4(r2)
  80da7c:	10c00117 	ldw	r3,4(r2)
  80da80:	e0bff917 	ldw	r2,-28(fp)
  80da84:	10c00115 	stw	r3,4(r2)
  80da88:	e0bff917 	ldw	r2,-28(fp)
  80da8c:	10800117 	ldw	r2,4(r2)
  80da90:	10800317 	ldw	r2,12(r2)
  80da94:	e0bffb15 	stw	r2,-20(fp)
  80da98:	e0bffe17 	ldw	r2,-8(fp)
  80da9c:	e0bff815 	stw	r2,-32(fp)
  80daa0:	e0bff817 	ldw	r2,-32(fp)
  80daa4:	10800117 	ldw	r2,4(r2)
  80daa8:	10c00117 	ldw	r3,4(r2)
  80daac:	e0bff817 	ldw	r2,-32(fp)
  80dab0:	10c00115 	stw	r3,4(r2)
  80dab4:	e0bff817 	ldw	r2,-32(fp)
  80dab8:	10c00117 	ldw	r3,4(r2)
  80dabc:	e0bff817 	ldw	r2,-32(fp)
  80dac0:	10800204 	addi	r2,r2,8
  80dac4:	1880051e 	bne	r3,r2,80dadc <prvListTaskWithinSingleList+0xb4>
  80dac8:	e0bff817 	ldw	r2,-32(fp)
  80dacc:	10800117 	ldw	r2,4(r2)
  80dad0:	10c00117 	ldw	r3,4(r2)
  80dad4:	e0bff817 	ldw	r2,-32(fp)
  80dad8:	10c00115 	stw	r3,4(r2)
  80dadc:	e0bff817 	ldw	r2,-32(fp)
  80dae0:	10800117 	ldw	r2,4(r2)
  80dae4:	10800317 	ldw	r2,12(r2)
  80dae8:	e0bffc15 	stw	r2,-16(fp)
  80daec:	e0bffc17 	ldw	r2,-16(fp)
  80daf0:	10800c17 	ldw	r2,48(r2)
  80daf4:	1009883a 	mov	r4,r2
  80daf8:	080db700 	call	80db70 <usTaskCheckFreeStackSpace>
  80dafc:	e0bffa0d 	sth	r2,-24(fp)
  80db00:	e0bffc17 	ldw	r2,-16(fp)
  80db04:	11800d04 	addi	r6,r2,52
  80db08:	e1ffff07 	ldb	r7,-4(fp)
  80db0c:	e0bffc17 	ldw	r2,-16(fp)
  80db10:	10c00b17 	ldw	r3,44(r2)
  80db14:	e13ffa0b 	ldhu	r4,-24(fp)
  80db18:	e0bffc17 	ldw	r2,-16(fp)
  80db1c:	10801817 	ldw	r2,96(r2)
  80db20:	d8c00015 	stw	r3,0(sp)
  80db24:	d9000115 	stw	r4,4(sp)
  80db28:	d8800215 	stw	r2,8(sp)
  80db2c:	01002074 	movhi	r4,129
  80db30:	211a0404 	addi	r4,r4,26640
  80db34:	01402074 	movhi	r5,129
  80db38:	294bb704 	addi	r5,r5,11996
  80db3c:	08121a00 	call	8121a0 <sprintf>
  80db40:	e13ffd17 	ldw	r4,-12(fp)
  80db44:	01402074 	movhi	r5,129
  80db48:	295a0404 	addi	r5,r5,26640
  80db4c:	08122740 	call	812274 <strcat>
  80db50:	e0fffc17 	ldw	r3,-16(fp)
  80db54:	e0bffb17 	ldw	r2,-20(fp)
  80db58:	18bfcf1e 	bne	r3,r2,80da98 <prvListTaskWithinSingleList+0x70>
  80db5c:	e037883a 	mov	sp,fp
  80db60:	dfc00117 	ldw	ra,4(sp)
  80db64:	df000017 	ldw	fp,0(sp)
  80db68:	dec00204 	addi	sp,sp,8
  80db6c:	f800283a 	ret

0080db70 <usTaskCheckFreeStackSpace>:
  80db70:	defffd04 	addi	sp,sp,-12
  80db74:	df000215 	stw	fp,8(sp)
  80db78:	df000204 	addi	fp,sp,8
  80db7c:	e13ffe15 	stw	r4,-8(fp)
  80db80:	e03fff0d 	sth	zero,-4(fp)
  80db84:	00000606 	br	80dba0 <usTaskCheckFreeStackSpace+0x30>
  80db88:	e0bffe17 	ldw	r2,-8(fp)
  80db8c:	10800044 	addi	r2,r2,1
  80db90:	e0bffe15 	stw	r2,-8(fp)
  80db94:	e0ffff0b 	ldhu	r3,-4(fp)
  80db98:	18800044 	addi	r2,r3,1
  80db9c:	e0bfff0d 	sth	r2,-4(fp)
  80dba0:	e0bffe17 	ldw	r2,-8(fp)
  80dba4:	10800003 	ldbu	r2,0(r2)
  80dba8:	10803fcc 	andi	r2,r2,255
  80dbac:	10802960 	cmpeqi	r2,r2,165
  80dbb0:	103ff51e 	bne	r2,zero,80db88 <usTaskCheckFreeStackSpace+0x18>
  80dbb4:	e0bfff0b 	ldhu	r2,-4(fp)
  80dbb8:	1004d0ba 	srli	r2,r2,2
  80dbbc:	e0bfff0d 	sth	r2,-4(fp)
  80dbc0:	e0bfff0b 	ldhu	r2,-4(fp)
  80dbc4:	e037883a 	mov	sp,fp
  80dbc8:	df000017 	ldw	fp,0(sp)
  80dbcc:	dec00104 	addi	sp,sp,4
  80dbd0:	f800283a 	ret

0080dbd4 <uxTaskGetStackHighWaterMark>:
  80dbd4:	defff904 	addi	sp,sp,-28
  80dbd8:	dfc00615 	stw	ra,24(sp)
  80dbdc:	df000515 	stw	fp,20(sp)
  80dbe0:	df000504 	addi	fp,sp,20
  80dbe4:	e13ffe15 	stw	r4,-8(fp)
  80dbe8:	e0bffe17 	ldw	r2,-8(fp)
  80dbec:	1004c03a 	cmpne	r2,r2,zero
  80dbf0:	1000031e 	bne	r2,zero,80dc00 <uxTaskGetStackHighWaterMark+0x2c>
  80dbf4:	d0a6f317 	ldw	r2,-25652(gp)
  80dbf8:	e0bfff15 	stw	r2,-4(fp)
  80dbfc:	00000206 	br	80dc08 <uxTaskGetStackHighWaterMark+0x34>
  80dc00:	e0bffe17 	ldw	r2,-8(fp)
  80dc04:	e0bfff15 	stw	r2,-4(fp)
  80dc08:	e0bfff17 	ldw	r2,-4(fp)
  80dc0c:	e0bffd15 	stw	r2,-12(fp)
  80dc10:	e0bffd17 	ldw	r2,-12(fp)
  80dc14:	10800c17 	ldw	r2,48(r2)
  80dc18:	e0bffc15 	stw	r2,-16(fp)
  80dc1c:	e13ffc17 	ldw	r4,-16(fp)
  80dc20:	080db700 	call	80db70 <usTaskCheckFreeStackSpace>
  80dc24:	10bfffcc 	andi	r2,r2,65535
  80dc28:	e0bffb15 	stw	r2,-20(fp)
  80dc2c:	e0bffb17 	ldw	r2,-20(fp)
  80dc30:	e037883a 	mov	sp,fp
  80dc34:	dfc00117 	ldw	ra,4(sp)
  80dc38:	df000017 	ldw	fp,0(sp)
  80dc3c:	dec00204 	addi	sp,sp,8
  80dc40:	f800283a 	ret

0080dc44 <prvDeleteTCB>:
  80dc44:	defffd04 	addi	sp,sp,-12
  80dc48:	dfc00215 	stw	ra,8(sp)
  80dc4c:	df000115 	stw	fp,4(sp)
  80dc50:	df000104 	addi	fp,sp,4
  80dc54:	e13fff15 	stw	r4,-4(fp)
  80dc58:	e0bfff17 	ldw	r2,-4(fp)
  80dc5c:	11000c17 	ldw	r4,48(r2)
  80dc60:	08113400 	call	811340 <vPortFree>
  80dc64:	e13fff17 	ldw	r4,-4(fp)
  80dc68:	08113400 	call	811340 <vPortFree>
  80dc6c:	e037883a 	mov	sp,fp
  80dc70:	dfc00117 	ldw	ra,4(sp)
  80dc74:	df000017 	ldw	fp,0(sp)
  80dc78:	dec00204 	addi	sp,sp,8
  80dc7c:	f800283a 	ret

0080dc80 <xTaskGetCurrentTaskHandle>:
  80dc80:	defffe04 	addi	sp,sp,-8
  80dc84:	df000115 	stw	fp,4(sp)
  80dc88:	df000104 	addi	fp,sp,4
  80dc8c:	d0a6f317 	ldw	r2,-25652(gp)
  80dc90:	e0bfff15 	stw	r2,-4(fp)
  80dc94:	e0bfff17 	ldw	r2,-4(fp)
  80dc98:	e037883a 	mov	sp,fp
  80dc9c:	df000017 	ldw	fp,0(sp)
  80dca0:	dec00104 	addi	sp,sp,4
  80dca4:	f800283a 	ret

0080dca8 <xTaskGetSchedulerState>:
  80dca8:	defffe04 	addi	sp,sp,-8
  80dcac:	df000115 	stw	fp,4(sp)
  80dcb0:	df000104 	addi	fp,sp,4
  80dcb4:	d0a6f917 	ldw	r2,-25628(gp)
  80dcb8:	1004c03a 	cmpne	r2,r2,zero
  80dcbc:	1000021e 	bne	r2,zero,80dcc8 <xTaskGetSchedulerState+0x20>
  80dcc0:	e03fff15 	stw	zero,-4(fp)
  80dcc4:	00000806 	br	80dce8 <xTaskGetSchedulerState+0x40>
  80dcc8:	d0a6fa17 	ldw	r2,-25624(gp)
  80dccc:	1004c03a 	cmpne	r2,r2,zero
  80dcd0:	1000031e 	bne	r2,zero,80dce0 <xTaskGetSchedulerState+0x38>
  80dcd4:	00800044 	movi	r2,1
  80dcd8:	e0bfff15 	stw	r2,-4(fp)
  80dcdc:	00000206 	br	80dce8 <xTaskGetSchedulerState+0x40>
  80dce0:	00800084 	movi	r2,2
  80dce4:	e0bfff15 	stw	r2,-4(fp)
  80dce8:	e0bfff17 	ldw	r2,-4(fp)
  80dcec:	e037883a 	mov	sp,fp
  80dcf0:	df000017 	ldw	fp,0(sp)
  80dcf4:	dec00104 	addi	sp,sp,4
  80dcf8:	f800283a 	ret

0080dcfc <vTaskPriorityInherit>:
  80dcfc:	defffb04 	addi	sp,sp,-20
  80dd00:	dfc00415 	stw	ra,16(sp)
  80dd04:	df000315 	stw	fp,12(sp)
  80dd08:	dc000215 	stw	r16,8(sp)
  80dd0c:	df000204 	addi	fp,sp,8
  80dd10:	e13fff15 	stw	r4,-4(fp)
  80dd14:	e0bfff17 	ldw	r2,-4(fp)
  80dd18:	e0bffe15 	stw	r2,-8(fp)
  80dd1c:	e0bfff17 	ldw	r2,-4(fp)
  80dd20:	1005003a 	cmpeq	r2,r2,zero
  80dd24:	1000341e 	bne	r2,zero,80ddf8 <vTaskPriorityInherit+0xfc>
  80dd28:	e0bffe17 	ldw	r2,-8(fp)
  80dd2c:	10c00b17 	ldw	r3,44(r2)
  80dd30:	d0a6f317 	ldw	r2,-25652(gp)
  80dd34:	10800b17 	ldw	r2,44(r2)
  80dd38:	18802f2e 	bgeu	r3,r2,80ddf8 <vTaskPriorityInherit+0xfc>
  80dd3c:	d0a6f317 	ldw	r2,-25652(gp)
  80dd40:	10c00b17 	ldw	r3,44(r2)
  80dd44:	00800144 	movi	r2,5
  80dd48:	10c7c83a 	sub	r3,r2,r3
  80dd4c:	e0bffe17 	ldw	r2,-8(fp)
  80dd50:	10c00615 	stw	r3,24(r2)
  80dd54:	e0bffe17 	ldw	r2,-8(fp)
  80dd58:	14000517 	ldw	r16,20(r2)
  80dd5c:	e0bffe17 	ldw	r2,-8(fp)
  80dd60:	11000b17 	ldw	r4,44(r2)
  80dd64:	01400504 	movi	r5,20
  80dd68:	08014540 	call	801454 <__mulsi3>
  80dd6c:	1007883a 	mov	r3,r2
  80dd70:	00802074 	movhi	r2,129
  80dd74:	109a1604 	addi	r2,r2,26712
  80dd78:	1885883a 	add	r2,r3,r2
  80dd7c:	80801a1e 	bne	r16,r2,80dde8 <vTaskPriorityInherit+0xec>
  80dd80:	e0bffe17 	ldw	r2,-8(fp)
  80dd84:	11000104 	addi	r4,r2,4
  80dd88:	08115880 	call	811588 <uxListRemove>
  80dd8c:	d0a6f317 	ldw	r2,-25652(gp)
  80dd90:	10c00b17 	ldw	r3,44(r2)
  80dd94:	e0bffe17 	ldw	r2,-8(fp)
  80dd98:	10c00b15 	stw	r3,44(r2)
  80dd9c:	e0bffe17 	ldw	r2,-8(fp)
  80dda0:	10c00b17 	ldw	r3,44(r2)
  80dda4:	d0a6f817 	ldw	r2,-25632(gp)
  80dda8:	10c0032e 	bgeu	r2,r3,80ddb8 <vTaskPriorityInherit+0xbc>
  80ddac:	e0bffe17 	ldw	r2,-8(fp)
  80ddb0:	10800b17 	ldw	r2,44(r2)
  80ddb4:	d0a6f815 	stw	r2,-25632(gp)
  80ddb8:	e0bffe17 	ldw	r2,-8(fp)
  80ddbc:	11000b17 	ldw	r4,44(r2)
  80ddc0:	01400504 	movi	r5,20
  80ddc4:	08014540 	call	801454 <__mulsi3>
  80ddc8:	1007883a 	mov	r3,r2
  80ddcc:	00802074 	movhi	r2,129
  80ddd0:	109a1604 	addi	r2,r2,26712
  80ddd4:	1889883a 	add	r4,r3,r2
  80ddd8:	e0bffe17 	ldw	r2,-8(fp)
  80dddc:	11400104 	addi	r5,r2,4
  80dde0:	081141c0 	call	81141c <vListInsertEnd>
  80dde4:	00000406 	br	80ddf8 <vTaskPriorityInherit+0xfc>
  80dde8:	d0a6f317 	ldw	r2,-25652(gp)
  80ddec:	10c00b17 	ldw	r3,44(r2)
  80ddf0:	e0bffe17 	ldw	r2,-8(fp)
  80ddf4:	10c00b15 	stw	r3,44(r2)
  80ddf8:	e037883a 	mov	sp,fp
  80ddfc:	dfc00217 	ldw	ra,8(sp)
  80de00:	df000117 	ldw	fp,4(sp)
  80de04:	dc000017 	ldw	r16,0(sp)
  80de08:	dec00304 	addi	sp,sp,12
  80de0c:	f800283a 	ret

0080de10 <vTaskPriorityDisinherit>:
  80de10:	defffc04 	addi	sp,sp,-16
  80de14:	dfc00315 	stw	ra,12(sp)
  80de18:	df000215 	stw	fp,8(sp)
  80de1c:	df000204 	addi	fp,sp,8
  80de20:	e13fff15 	stw	r4,-4(fp)
  80de24:	e0bfff17 	ldw	r2,-4(fp)
  80de28:	e0bffe15 	stw	r2,-8(fp)
  80de2c:	e0bfff17 	ldw	r2,-4(fp)
  80de30:	1005003a 	cmpeq	r2,r2,zero
  80de34:	1000241e 	bne	r2,zero,80dec8 <vTaskPriorityDisinherit+0xb8>
  80de38:	e0bffe17 	ldw	r2,-8(fp)
  80de3c:	10c00b17 	ldw	r3,44(r2)
  80de40:	e0bffe17 	ldw	r2,-8(fp)
  80de44:	10801a17 	ldw	r2,104(r2)
  80de48:	18801f26 	beq	r3,r2,80dec8 <vTaskPriorityDisinherit+0xb8>
  80de4c:	e0bffe17 	ldw	r2,-8(fp)
  80de50:	11000104 	addi	r4,r2,4
  80de54:	08115880 	call	811588 <uxListRemove>
  80de58:	e0bffe17 	ldw	r2,-8(fp)
  80de5c:	10c01a17 	ldw	r3,104(r2)
  80de60:	e0bffe17 	ldw	r2,-8(fp)
  80de64:	10c00b15 	stw	r3,44(r2)
  80de68:	e0bffe17 	ldw	r2,-8(fp)
  80de6c:	10c00b17 	ldw	r3,44(r2)
  80de70:	00800144 	movi	r2,5
  80de74:	10c7c83a 	sub	r3,r2,r3
  80de78:	e0bffe17 	ldw	r2,-8(fp)
  80de7c:	10c00615 	stw	r3,24(r2)
  80de80:	e0bffe17 	ldw	r2,-8(fp)
  80de84:	10c00b17 	ldw	r3,44(r2)
  80de88:	d0a6f817 	ldw	r2,-25632(gp)
  80de8c:	10c0032e 	bgeu	r2,r3,80de9c <vTaskPriorityDisinherit+0x8c>
  80de90:	e0bffe17 	ldw	r2,-8(fp)
  80de94:	10800b17 	ldw	r2,44(r2)
  80de98:	d0a6f815 	stw	r2,-25632(gp)
  80de9c:	e0bffe17 	ldw	r2,-8(fp)
  80dea0:	11000b17 	ldw	r4,44(r2)
  80dea4:	01400504 	movi	r5,20
  80dea8:	08014540 	call	801454 <__mulsi3>
  80deac:	1007883a 	mov	r3,r2
  80deb0:	00802074 	movhi	r2,129
  80deb4:	109a1604 	addi	r2,r2,26712
  80deb8:	1889883a 	add	r4,r3,r2
  80debc:	e0bffe17 	ldw	r2,-8(fp)
  80dec0:	11400104 	addi	r5,r2,4
  80dec4:	081141c0 	call	81141c <vListInsertEnd>
  80dec8:	e037883a 	mov	sp,fp
  80decc:	dfc00117 	ldw	ra,4(sp)
  80ded0:	df000017 	ldw	fp,0(sp)
  80ded4:	dec00204 	addi	sp,sp,8
  80ded8:	f800283a 	ret

0080dedc <vTaskEnterCritical>:
  80dedc:	defffe04 	addi	sp,sp,-8
  80dee0:	df000115 	stw	fp,4(sp)
  80dee4:	df000104 	addi	fp,sp,4
  80dee8:	0005303a 	rdctl	r2,status
  80deec:	e0bfff15 	stw	r2,-4(fp)
  80def0:	e0ffff17 	ldw	r3,-4(fp)
  80def4:	00bfff84 	movi	r2,-2
  80def8:	1884703a 	and	r2,r3,r2
  80defc:	1001703a 	wrctl	status,r2
  80df00:	d0a6f917 	ldw	r2,-25628(gp)
  80df04:	1005003a 	cmpeq	r2,r2,zero
  80df08:	1000041e 	bne	r2,zero,80df1c <vTaskEnterCritical+0x40>
  80df0c:	d0a6f317 	ldw	r2,-25652(gp)
  80df10:	10c01717 	ldw	r3,92(r2)
  80df14:	18c00044 	addi	r3,r3,1
  80df18:	10c01715 	stw	r3,92(r2)
  80df1c:	e037883a 	mov	sp,fp
  80df20:	df000017 	ldw	fp,0(sp)
  80df24:	dec00104 	addi	sp,sp,4
  80df28:	f800283a 	ret

0080df2c <vTaskExitCritical>:
  80df2c:	defffe04 	addi	sp,sp,-8
  80df30:	df000115 	stw	fp,4(sp)
  80df34:	df000104 	addi	fp,sp,4
  80df38:	d0a6f917 	ldw	r2,-25628(gp)
  80df3c:	1005003a 	cmpeq	r2,r2,zero
  80df40:	1000101e 	bne	r2,zero,80df84 <vTaskExitCritical+0x58>
  80df44:	d0a6f317 	ldw	r2,-25652(gp)
  80df48:	10801717 	ldw	r2,92(r2)
  80df4c:	1005003a 	cmpeq	r2,r2,zero
  80df50:	10000c1e 	bne	r2,zero,80df84 <vTaskExitCritical+0x58>
  80df54:	d0e6f317 	ldw	r3,-25652(gp)
  80df58:	18801717 	ldw	r2,92(r3)
  80df5c:	10bfffc4 	addi	r2,r2,-1
  80df60:	18801715 	stw	r2,92(r3)
  80df64:	d0a6f317 	ldw	r2,-25652(gp)
  80df68:	10801717 	ldw	r2,92(r2)
  80df6c:	1004c03a 	cmpne	r2,r2,zero
  80df70:	1000041e 	bne	r2,zero,80df84 <vTaskExitCritical+0x58>
  80df74:	00800044 	movi	r2,1
  80df78:	e0bfff15 	stw	r2,-4(fp)
  80df7c:	e0bfff17 	ldw	r2,-4(fp)
  80df80:	1001703a 	wrctl	status,r2
  80df84:	e037883a 	mov	sp,fp
  80df88:	df000017 	ldw	fp,0(sp)
  80df8c:	dec00104 	addi	sp,sp,4
  80df90:	f800283a 	ret

0080df94 <xTimerCreateTimerTask>:
  80df94:	defff904 	addi	sp,sp,-28
  80df98:	dfc00615 	stw	ra,24(sp)
  80df9c:	df000515 	stw	fp,20(sp)
  80dfa0:	df000504 	addi	fp,sp,20
  80dfa4:	e03fff15 	stw	zero,-4(fp)
  80dfa8:	080e7100 	call	80e710 <prvCheckForValidListAndQueue>
  80dfac:	d0a70117 	ldw	r2,-25596(gp)
  80dfb0:	1005003a 	cmpeq	r2,r2,zero
  80dfb4:	10000d1e 	bne	r2,zero,80dfec <xTimerCreateTimerTask+0x58>
  80dfb8:	01402074 	movhi	r5,129
  80dfbc:	294bbc04 	addi	r5,r5,12016
  80dfc0:	00800144 	movi	r2,5
  80dfc4:	d8800015 	stw	r2,0(sp)
  80dfc8:	d8000115 	stw	zero,4(sp)
  80dfcc:	d8000215 	stw	zero,8(sp)
  80dfd0:	d8000315 	stw	zero,12(sp)
  80dfd4:	01002074 	movhi	r4,129
  80dfd8:	21388a04 	addi	r4,r4,-7640
  80dfdc:	01810004 	movi	r6,1024
  80dfe0:	000f883a 	mov	r7,zero
  80dfe4:	080c2300 	call	80c230 <xTaskGenericCreate>
  80dfe8:	e0bfff15 	stw	r2,-4(fp)
  80dfec:	e0bfff17 	ldw	r2,-4(fp)
  80dff0:	e037883a 	mov	sp,fp
  80dff4:	dfc00117 	ldw	ra,4(sp)
  80dff8:	df000017 	ldw	fp,0(sp)
  80dffc:	dec00204 	addi	sp,sp,8
  80e000:	f800283a 	ret

0080e004 <xTimerCreate>:
  80e004:	defff904 	addi	sp,sp,-28
  80e008:	dfc00615 	stw	ra,24(sp)
  80e00c:	df000515 	stw	fp,20(sp)
  80e010:	df000504 	addi	fp,sp,20
  80e014:	e13ffc15 	stw	r4,-16(fp)
  80e018:	e17ffd15 	stw	r5,-12(fp)
  80e01c:	e1bffe15 	stw	r6,-8(fp)
  80e020:	e1ffff15 	stw	r7,-4(fp)
  80e024:	e0bffd17 	ldw	r2,-12(fp)
  80e028:	1004c03a 	cmpne	r2,r2,zero
  80e02c:	1000021e 	bne	r2,zero,80e038 <xTimerCreate+0x34>
  80e030:	e03ffb15 	stw	zero,-20(fp)
  80e034:	00001906 	br	80e09c <xTimerCreate+0x98>
  80e038:	01000a04 	movi	r4,40
  80e03c:	08113000 	call	811300 <pvPortMalloc>
  80e040:	e0bffb15 	stw	r2,-20(fp)
  80e044:	e0bffb17 	ldw	r2,-20(fp)
  80e048:	1005003a 	cmpeq	r2,r2,zero
  80e04c:	1000131e 	bne	r2,zero,80e09c <xTimerCreate+0x98>
  80e050:	080e7100 	call	80e710 <prvCheckForValidListAndQueue>
  80e054:	e0fffb17 	ldw	r3,-20(fp)
  80e058:	e0bffc17 	ldw	r2,-16(fp)
  80e05c:	18800015 	stw	r2,0(r3)
  80e060:	e0fffb17 	ldw	r3,-20(fp)
  80e064:	e0bffd17 	ldw	r2,-12(fp)
  80e068:	18800615 	stw	r2,24(r3)
  80e06c:	e0fffb17 	ldw	r3,-20(fp)
  80e070:	e0bffe17 	ldw	r2,-8(fp)
  80e074:	18800715 	stw	r2,28(r3)
  80e078:	e0fffb17 	ldw	r3,-20(fp)
  80e07c:	e0bfff17 	ldw	r2,-4(fp)
  80e080:	18800815 	stw	r2,32(r3)
  80e084:	e0fffb17 	ldw	r3,-20(fp)
  80e088:	e0800217 	ldw	r2,8(fp)
  80e08c:	18800915 	stw	r2,36(r3)
  80e090:	e0bffb17 	ldw	r2,-20(fp)
  80e094:	11000104 	addi	r4,r2,4
  80e098:	08113f40 	call	8113f4 <vListInitialiseItem>
  80e09c:	e0bffb17 	ldw	r2,-20(fp)
  80e0a0:	e037883a 	mov	sp,fp
  80e0a4:	dfc00117 	ldw	ra,4(sp)
  80e0a8:	df000017 	ldw	fp,0(sp)
  80e0ac:	dec00204 	addi	sp,sp,8
  80e0b0:	f800283a 	ret

0080e0b4 <xTimerGenericCommand>:
  80e0b4:	defff604 	addi	sp,sp,-40
  80e0b8:	dfc00915 	stw	ra,36(sp)
  80e0bc:	df000815 	stw	fp,32(sp)
  80e0c0:	df000804 	addi	fp,sp,32
  80e0c4:	e13ffc15 	stw	r4,-16(fp)
  80e0c8:	e17ffd15 	stw	r5,-12(fp)
  80e0cc:	e1bffe15 	stw	r6,-8(fp)
  80e0d0:	e1ffff15 	stw	r7,-4(fp)
  80e0d4:	e03ff815 	stw	zero,-32(fp)
  80e0d8:	d0a70117 	ldw	r2,-25596(gp)
  80e0dc:	1005003a 	cmpeq	r2,r2,zero
  80e0e0:	1000201e 	bne	r2,zero,80e164 <xTimerGenericCommand+0xb0>
  80e0e4:	e0bffd17 	ldw	r2,-12(fp)
  80e0e8:	e0bff915 	stw	r2,-28(fp)
  80e0ec:	e0bffe17 	ldw	r2,-8(fp)
  80e0f0:	e0bffa15 	stw	r2,-24(fp)
  80e0f4:	e0bffc17 	ldw	r2,-16(fp)
  80e0f8:	e0bffb15 	stw	r2,-20(fp)
  80e0fc:	e0bfff17 	ldw	r2,-4(fp)
  80e100:	1004c03a 	cmpne	r2,r2,zero
  80e104:	1000111e 	bne	r2,zero,80e14c <xTimerGenericCommand+0x98>
  80e108:	080dca80 	call	80dca8 <xTaskGetSchedulerState>
  80e10c:	10800058 	cmpnei	r2,r2,1
  80e110:	1000071e 	bne	r2,zero,80e130 <xTimerGenericCommand+0x7c>
  80e114:	d1270117 	ldw	r4,-25596(gp)
  80e118:	e17ff904 	addi	r5,fp,-28
  80e11c:	e1800217 	ldw	r6,8(fp)
  80e120:	000f883a 	mov	r7,zero
  80e124:	080b5f40 	call	80b5f4 <xQueueGenericSend>
  80e128:	e0bff815 	stw	r2,-32(fp)
  80e12c:	00000d06 	br	80e164 <xTimerGenericCommand+0xb0>
  80e130:	d1270117 	ldw	r4,-25596(gp)
  80e134:	e17ff904 	addi	r5,fp,-28
  80e138:	000d883a 	mov	r6,zero
  80e13c:	000f883a 	mov	r7,zero
  80e140:	080b5f40 	call	80b5f4 <xQueueGenericSend>
  80e144:	e0bff815 	stw	r2,-32(fp)
  80e148:	00000606 	br	80e164 <xTimerGenericCommand+0xb0>
  80e14c:	d1270117 	ldw	r4,-25596(gp)
  80e150:	e17ff904 	addi	r5,fp,-28
  80e154:	e1bfff17 	ldw	r6,-4(fp)
  80e158:	000f883a 	mov	r7,zero
  80e15c:	080b7c00 	call	80b7c0 <xQueueGenericSendFromISR>
  80e160:	e0bff815 	stw	r2,-32(fp)
  80e164:	e0bff817 	ldw	r2,-32(fp)
  80e168:	e037883a 	mov	sp,fp
  80e16c:	dfc00117 	ldw	ra,4(sp)
  80e170:	df000017 	ldw	fp,0(sp)
  80e174:	dec00204 	addi	sp,sp,8
  80e178:	f800283a 	ret

0080e17c <prvProcessExpiredTimer>:
  80e17c:	defff904 	addi	sp,sp,-28
  80e180:	dfc00615 	stw	ra,24(sp)
  80e184:	df000515 	stw	fp,20(sp)
  80e188:	df000504 	addi	fp,sp,20
  80e18c:	e13ffe15 	stw	r4,-8(fp)
  80e190:	e17fff15 	stw	r5,-4(fp)
  80e194:	d0a70317 	ldw	r2,-25588(gp)
  80e198:	10800317 	ldw	r2,12(r2)
  80e19c:	10800317 	ldw	r2,12(r2)
  80e1a0:	e0bffd15 	stw	r2,-12(fp)
  80e1a4:	e0bffd17 	ldw	r2,-12(fp)
  80e1a8:	11000104 	addi	r4,r2,4
  80e1ac:	08115880 	call	811588 <uxListRemove>
  80e1b0:	e0bffd17 	ldw	r2,-12(fp)
  80e1b4:	10800717 	ldw	r2,28(r2)
  80e1b8:	10800058 	cmpnei	r2,r2,1
  80e1bc:	1000111e 	bne	r2,zero,80e204 <prvProcessExpiredTimer+0x88>
  80e1c0:	e0bffd17 	ldw	r2,-12(fp)
  80e1c4:	10c00617 	ldw	r3,24(r2)
  80e1c8:	e0bffe17 	ldw	r2,-8(fp)
  80e1cc:	188b883a 	add	r5,r3,r2
  80e1d0:	e13ffd17 	ldw	r4,-12(fp)
  80e1d4:	e1bfff17 	ldw	r6,-4(fp)
  80e1d8:	e1fffe17 	ldw	r7,-8(fp)
  80e1dc:	080e3c40 	call	80e3c4 <prvInsertTimerInActiveList>
  80e1e0:	10800058 	cmpnei	r2,r2,1
  80e1e4:	1000071e 	bne	r2,zero,80e204 <prvProcessExpiredTimer+0x88>
  80e1e8:	d8000015 	stw	zero,0(sp)
  80e1ec:	e13ffd17 	ldw	r4,-12(fp)
  80e1f0:	000b883a 	mov	r5,zero
  80e1f4:	e1bffe17 	ldw	r6,-8(fp)
  80e1f8:	000f883a 	mov	r7,zero
  80e1fc:	080e0b40 	call	80e0b4 <xTimerGenericCommand>
  80e200:	e0bffc15 	stw	r2,-16(fp)
  80e204:	e0bffd17 	ldw	r2,-12(fp)
  80e208:	10800917 	ldw	r2,36(r2)
  80e20c:	e13ffd17 	ldw	r4,-12(fp)
  80e210:	103ee83a 	callr	r2
  80e214:	e037883a 	mov	sp,fp
  80e218:	dfc00117 	ldw	ra,4(sp)
  80e21c:	df000017 	ldw	fp,0(sp)
  80e220:	dec00204 	addi	sp,sp,8
  80e224:	f800283a 	ret

0080e228 <prvTimerTask>:
  80e228:	defffb04 	addi	sp,sp,-20
  80e22c:	dfc00415 	stw	ra,16(sp)
  80e230:	df000315 	stw	fp,12(sp)
  80e234:	df000304 	addi	fp,sp,12
  80e238:	e13fff15 	stw	r4,-4(fp)
  80e23c:	e13ffe04 	addi	r4,fp,-8
  80e240:	080e2fc0 	call	80e2fc <prvGetNextExpireTime>
  80e244:	e0bffd15 	stw	r2,-12(fp)
  80e248:	e17ffe17 	ldw	r5,-8(fp)
  80e24c:	e13ffd17 	ldw	r4,-12(fp)
  80e250:	080e25c0 	call	80e25c <prvProcessTimerOrBlockTask>
  80e254:	080e4900 	call	80e490 <prvProcessReceivedCommands>
  80e258:	003ff806 	br	80e23c <prvTimerTask+0x14>

0080e25c <prvProcessTimerOrBlockTask>:
  80e25c:	defffa04 	addi	sp,sp,-24
  80e260:	dfc00515 	stw	ra,20(sp)
  80e264:	df000415 	stw	fp,16(sp)
  80e268:	df000404 	addi	fp,sp,16
  80e26c:	e13ffe15 	stw	r4,-8(fp)
  80e270:	e17fff15 	stw	r5,-4(fp)
  80e274:	080cce40 	call	80cce4 <vTaskSuspendAll>
  80e278:	e13ffd04 	addi	r4,fp,-12
  80e27c:	080e35c0 	call	80e35c <prvSampleTimeNow>
  80e280:	e0bffc15 	stw	r2,-16(fp)
  80e284:	e0bffd17 	ldw	r2,-12(fp)
  80e288:	1004c03a 	cmpne	r2,r2,zero
  80e28c:	1000151e 	bne	r2,zero,80e2e4 <prvProcessTimerOrBlockTask+0x88>
  80e290:	e0bfff17 	ldw	r2,-4(fp)
  80e294:	1004c03a 	cmpne	r2,r2,zero
  80e298:	1000081e 	bne	r2,zero,80e2bc <prvProcessTimerOrBlockTask+0x60>
  80e29c:	e0fffe17 	ldw	r3,-8(fp)
  80e2a0:	e0bffc17 	ldw	r2,-16(fp)
  80e2a4:	10c00536 	bltu	r2,r3,80e2bc <prvProcessTimerOrBlockTask+0x60>
  80e2a8:	080cd0c0 	call	80cd0c <xTaskResumeAll>
  80e2ac:	e13ffe17 	ldw	r4,-8(fp)
  80e2b0:	e17ffc17 	ldw	r5,-16(fp)
  80e2b4:	080e17c0 	call	80e17c <prvProcessExpiredTimer>
  80e2b8:	00000b06 	br	80e2e8 <prvProcessTimerOrBlockTask+0x8c>
  80e2bc:	d1270117 	ldw	r4,-25596(gp)
  80e2c0:	e0fffe17 	ldw	r3,-8(fp)
  80e2c4:	e0bffc17 	ldw	r2,-16(fp)
  80e2c8:	188bc83a 	sub	r5,r3,r2
  80e2cc:	080c18c0 	call	80c18c <vQueueWaitForMessageRestricted>
  80e2d0:	080cd0c0 	call	80cd0c <xTaskResumeAll>
  80e2d4:	1004c03a 	cmpne	r2,r2,zero
  80e2d8:	1000031e 	bne	r2,zero,80e2e8 <prvProcessTimerOrBlockTask+0x8c>
  80e2dc:	003b683a 	trap	0
  80e2e0:	00000106 	br	80e2e8 <prvProcessTimerOrBlockTask+0x8c>
  80e2e4:	080cd0c0 	call	80cd0c <xTaskResumeAll>
  80e2e8:	e037883a 	mov	sp,fp
  80e2ec:	dfc00117 	ldw	ra,4(sp)
  80e2f0:	df000017 	ldw	fp,0(sp)
  80e2f4:	dec00204 	addi	sp,sp,8
  80e2f8:	f800283a 	ret

0080e2fc <prvGetNextExpireTime>:
  80e2fc:	defffd04 	addi	sp,sp,-12
  80e300:	df000215 	stw	fp,8(sp)
  80e304:	df000204 	addi	fp,sp,8
  80e308:	e13fff15 	stw	r4,-4(fp)
  80e30c:	d0a70317 	ldw	r2,-25588(gp)
  80e310:	10800017 	ldw	r2,0(r2)
  80e314:	1007003a 	cmpeq	r3,r2,zero
  80e318:	e0bfff17 	ldw	r2,-4(fp)
  80e31c:	10c00015 	stw	r3,0(r2)
  80e320:	e0bfff17 	ldw	r2,-4(fp)
  80e324:	10800017 	ldw	r2,0(r2)
  80e328:	1004c03a 	cmpne	r2,r2,zero
  80e32c:	1000051e 	bne	r2,zero,80e344 <prvGetNextExpireTime+0x48>
  80e330:	d0a70317 	ldw	r2,-25588(gp)
  80e334:	10800317 	ldw	r2,12(r2)
  80e338:	10800017 	ldw	r2,0(r2)
  80e33c:	e0bffe15 	stw	r2,-8(fp)
  80e340:	00000106 	br	80e348 <prvGetNextExpireTime+0x4c>
  80e344:	e03ffe15 	stw	zero,-8(fp)
  80e348:	e0bffe17 	ldw	r2,-8(fp)
  80e34c:	e037883a 	mov	sp,fp
  80e350:	df000017 	ldw	fp,0(sp)
  80e354:	dec00104 	addi	sp,sp,4
  80e358:	f800283a 	ret

0080e35c <prvSampleTimeNow>:
  80e35c:	defffc04 	addi	sp,sp,-16
  80e360:	dfc00315 	stw	ra,12(sp)
  80e364:	df000215 	stw	fp,8(sp)
  80e368:	df000204 	addi	fp,sp,8
  80e36c:	e13fff15 	stw	r4,-4(fp)
  80e370:	080ce840 	call	80ce84 <xTaskGetTickCount>
  80e374:	e0bffe15 	stw	r2,-8(fp)
  80e378:	d0e70217 	ldw	r3,-25592(gp)
  80e37c:	e0bffe17 	ldw	r2,-8(fp)
  80e380:	10c0062e 	bgeu	r2,r3,80e39c <prvSampleTimeNow+0x40>
  80e384:	d1270217 	ldw	r4,-25592(gp)
  80e388:	080e6080 	call	80e608 <prvSwitchTimerLists>
  80e38c:	e0ffff17 	ldw	r3,-4(fp)
  80e390:	00800044 	movi	r2,1
  80e394:	18800015 	stw	r2,0(r3)
  80e398:	00000206 	br	80e3a4 <prvSampleTimeNow+0x48>
  80e39c:	e0bfff17 	ldw	r2,-4(fp)
  80e3a0:	10000015 	stw	zero,0(r2)
  80e3a4:	e0bffe17 	ldw	r2,-8(fp)
  80e3a8:	d0a70215 	stw	r2,-25592(gp)
  80e3ac:	e0bffe17 	ldw	r2,-8(fp)
  80e3b0:	e037883a 	mov	sp,fp
  80e3b4:	dfc00117 	ldw	ra,4(sp)
  80e3b8:	df000017 	ldw	fp,0(sp)
  80e3bc:	dec00204 	addi	sp,sp,8
  80e3c0:	f800283a 	ret

0080e3c4 <prvInsertTimerInActiveList>:
  80e3c4:	defff904 	addi	sp,sp,-28
  80e3c8:	dfc00615 	stw	ra,24(sp)
  80e3cc:	df000515 	stw	fp,20(sp)
  80e3d0:	df000504 	addi	fp,sp,20
  80e3d4:	e13ffc15 	stw	r4,-16(fp)
  80e3d8:	e17ffd15 	stw	r5,-12(fp)
  80e3dc:	e1bffe15 	stw	r6,-8(fp)
  80e3e0:	e1ffff15 	stw	r7,-4(fp)
  80e3e4:	e03ffb15 	stw	zero,-20(fp)
  80e3e8:	e0fffc17 	ldw	r3,-16(fp)
  80e3ec:	e0bffd17 	ldw	r2,-12(fp)
  80e3f0:	18800115 	stw	r2,4(r3)
  80e3f4:	e0fffc17 	ldw	r3,-16(fp)
  80e3f8:	e0bffc17 	ldw	r2,-16(fp)
  80e3fc:	18800415 	stw	r2,16(r3)
  80e400:	e0fffd17 	ldw	r3,-12(fp)
  80e404:	e0bffe17 	ldw	r2,-8(fp)
  80e408:	10c00e36 	bltu	r2,r3,80e444 <prvInsertTimerInActiveList+0x80>
  80e40c:	e0fffe17 	ldw	r3,-8(fp)
  80e410:	e0bfff17 	ldw	r2,-4(fp)
  80e414:	1887c83a 	sub	r3,r3,r2
  80e418:	e0bffc17 	ldw	r2,-16(fp)
  80e41c:	10800617 	ldw	r2,24(r2)
  80e420:	18800336 	bltu	r3,r2,80e430 <prvInsertTimerInActiveList+0x6c>
  80e424:	00800044 	movi	r2,1
  80e428:	e0bffb15 	stw	r2,-20(fp)
  80e42c:	00001206 	br	80e478 <prvInsertTimerInActiveList+0xb4>
  80e430:	d1270417 	ldw	r4,-25584(gp)
  80e434:	e0bffc17 	ldw	r2,-16(fp)
  80e438:	11400104 	addi	r5,r2,4
  80e43c:	08114b40 	call	8114b4 <vListInsert>
  80e440:	00000d06 	br	80e478 <prvInsertTimerInActiveList+0xb4>
  80e444:	e0fffe17 	ldw	r3,-8(fp)
  80e448:	e0bfff17 	ldw	r2,-4(fp)
  80e44c:	1880062e 	bgeu	r3,r2,80e468 <prvInsertTimerInActiveList+0xa4>
  80e450:	e0fffd17 	ldw	r3,-12(fp)
  80e454:	e0bfff17 	ldw	r2,-4(fp)
  80e458:	18800336 	bltu	r3,r2,80e468 <prvInsertTimerInActiveList+0xa4>
  80e45c:	00800044 	movi	r2,1
  80e460:	e0bffb15 	stw	r2,-20(fp)
  80e464:	00000406 	br	80e478 <prvInsertTimerInActiveList+0xb4>
  80e468:	d1270317 	ldw	r4,-25588(gp)
  80e46c:	e0bffc17 	ldw	r2,-16(fp)
  80e470:	11400104 	addi	r5,r2,4
  80e474:	08114b40 	call	8114b4 <vListInsert>
  80e478:	e0bffb17 	ldw	r2,-20(fp)
  80e47c:	e037883a 	mov	sp,fp
  80e480:	dfc00117 	ldw	ra,4(sp)
  80e484:	df000017 	ldw	fp,0(sp)
  80e488:	dec00204 	addi	sp,sp,8
  80e48c:	f800283a 	ret

0080e490 <prvProcessReceivedCommands>:
  80e490:	defff504 	addi	sp,sp,-44
  80e494:	dfc00a15 	stw	ra,40(sp)
  80e498:	df000915 	stw	fp,36(sp)
  80e49c:	df000904 	addi	fp,sp,36
  80e4a0:	e13ffe04 	addi	r4,fp,-8
  80e4a4:	080e35c0 	call	80e35c <prvSampleTimeNow>
  80e4a8:	e0bff815 	stw	r2,-32(fp)
  80e4ac:	00004a06 	br	80e5d8 <prvProcessReceivedCommands+0x148>
  80e4b0:	e0bffd17 	ldw	r2,-12(fp)
  80e4b4:	e0bffa15 	stw	r2,-24(fp)
  80e4b8:	e0bffa17 	ldw	r2,-24(fp)
  80e4bc:	1005003a 	cmpeq	r2,r2,zero
  80e4c0:	1000071e 	bne	r2,zero,80e4e0 <prvProcessReceivedCommands+0x50>
  80e4c4:	e0bffa17 	ldw	r2,-24(fp)
  80e4c8:	10800517 	ldw	r2,20(r2)
  80e4cc:	1005003a 	cmpeq	r2,r2,zero
  80e4d0:	1000031e 	bne	r2,zero,80e4e0 <prvProcessReceivedCommands+0x50>
  80e4d4:	e0bffa17 	ldw	r2,-24(fp)
  80e4d8:	11000104 	addi	r4,r2,4
  80e4dc:	08115880 	call	811588 <uxListRemove>
  80e4e0:	e0bffb17 	ldw	r2,-20(fp)
  80e4e4:	e0bfff15 	stw	r2,-4(fp)
  80e4e8:	e0ffff17 	ldw	r3,-4(fp)
  80e4ec:	18800060 	cmpeqi	r2,r3,1
  80e4f0:	1000391e 	bne	r2,zero,80e5d8 <prvProcessReceivedCommands+0x148>
  80e4f4:	e0ffff17 	ldw	r3,-4(fp)
  80e4f8:	18800088 	cmpgei	r2,r3,2
  80e4fc:	1000041e 	bne	r2,zero,80e510 <prvProcessReceivedCommands+0x80>
  80e500:	e0ffff17 	ldw	r3,-4(fp)
  80e504:	1805003a 	cmpeq	r2,r3,zero
  80e508:	1000081e 	bne	r2,zero,80e52c <prvProcessReceivedCommands+0x9c>
  80e50c:	00003206 	br	80e5d8 <prvProcessReceivedCommands+0x148>
  80e510:	e0ffff17 	ldw	r3,-4(fp)
  80e514:	188000a0 	cmpeqi	r2,r3,2
  80e518:	1000211e 	bne	r2,zero,80e5a0 <prvProcessReceivedCommands+0x110>
  80e51c:	e0ffff17 	ldw	r3,-4(fp)
  80e520:	188000e0 	cmpeqi	r2,r3,3
  80e524:	10002a1e 	bne	r2,zero,80e5d0 <prvProcessReceivedCommands+0x140>
  80e528:	00002b06 	br	80e5d8 <prvProcessReceivedCommands+0x148>
  80e52c:	e0fffc17 	ldw	r3,-16(fp)
  80e530:	e0bffa17 	ldw	r2,-24(fp)
  80e534:	10800617 	ldw	r2,24(r2)
  80e538:	188b883a 	add	r5,r3,r2
  80e53c:	e1fffc17 	ldw	r7,-16(fp)
  80e540:	e13ffa17 	ldw	r4,-24(fp)
  80e544:	e1bff817 	ldw	r6,-32(fp)
  80e548:	080e3c40 	call	80e3c4 <prvInsertTimerInActiveList>
  80e54c:	10800058 	cmpnei	r2,r2,1
  80e550:	1000211e 	bne	r2,zero,80e5d8 <prvProcessReceivedCommands+0x148>
  80e554:	e0bffa17 	ldw	r2,-24(fp)
  80e558:	10800917 	ldw	r2,36(r2)
  80e55c:	e13ffa17 	ldw	r4,-24(fp)
  80e560:	103ee83a 	callr	r2
  80e564:	e0bffa17 	ldw	r2,-24(fp)
  80e568:	10800717 	ldw	r2,28(r2)
  80e56c:	10800058 	cmpnei	r2,r2,1
  80e570:	1000191e 	bne	r2,zero,80e5d8 <prvProcessReceivedCommands+0x148>
  80e574:	e0fffc17 	ldw	r3,-16(fp)
  80e578:	e0bffa17 	ldw	r2,-24(fp)
  80e57c:	10800617 	ldw	r2,24(r2)
  80e580:	188d883a 	add	r6,r3,r2
  80e584:	d8000015 	stw	zero,0(sp)
  80e588:	e13ffa17 	ldw	r4,-24(fp)
  80e58c:	000b883a 	mov	r5,zero
  80e590:	000f883a 	mov	r7,zero
  80e594:	080e0b40 	call	80e0b4 <xTimerGenericCommand>
  80e598:	e0bff915 	stw	r2,-28(fp)
  80e59c:	00000e06 	br	80e5d8 <prvProcessReceivedCommands+0x148>
  80e5a0:	e0fffc17 	ldw	r3,-16(fp)
  80e5a4:	e0bffa17 	ldw	r2,-24(fp)
  80e5a8:	10c00615 	stw	r3,24(r2)
  80e5ac:	e0bffa17 	ldw	r2,-24(fp)
  80e5b0:	10c00617 	ldw	r3,24(r2)
  80e5b4:	e0bff817 	ldw	r2,-32(fp)
  80e5b8:	188b883a 	add	r5,r3,r2
  80e5bc:	e13ffa17 	ldw	r4,-24(fp)
  80e5c0:	e1bff817 	ldw	r6,-32(fp)
  80e5c4:	e1fff817 	ldw	r7,-32(fp)
  80e5c8:	080e3c40 	call	80e3c4 <prvInsertTimerInActiveList>
  80e5cc:	00000206 	br	80e5d8 <prvProcessReceivedCommands+0x148>
  80e5d0:	e13ffa17 	ldw	r4,-24(fp)
  80e5d4:	08113400 	call	811340 <vPortFree>
  80e5d8:	d1270117 	ldw	r4,-25596(gp)
  80e5dc:	e17ffb04 	addi	r5,fp,-20
  80e5e0:	000d883a 	mov	r6,zero
  80e5e4:	000f883a 	mov	r7,zero
  80e5e8:	080b8940 	call	80b894 <xQueueGenericReceive>
  80e5ec:	1004c03a 	cmpne	r2,r2,zero
  80e5f0:	103faf1e 	bne	r2,zero,80e4b0 <prvProcessReceivedCommands+0x20>
  80e5f4:	e037883a 	mov	sp,fp
  80e5f8:	dfc00117 	ldw	ra,4(sp)
  80e5fc:	df000017 	ldw	fp,0(sp)
  80e600:	dec00204 	addi	sp,sp,8
  80e604:	f800283a 	ret

0080e608 <prvSwitchTimerLists>:
  80e608:	defff704 	addi	sp,sp,-36
  80e60c:	dfc00815 	stw	ra,32(sp)
  80e610:	df000715 	stw	fp,28(sp)
  80e614:	df000704 	addi	fp,sp,28
  80e618:	e13fff15 	stw	r4,-4(fp)
  80e61c:	00002d06 	br	80e6d4 <prvSwitchTimerLists+0xcc>
  80e620:	d0a70317 	ldw	r2,-25588(gp)
  80e624:	10800317 	ldw	r2,12(r2)
  80e628:	10800017 	ldw	r2,0(r2)
  80e62c:	e0bffe15 	stw	r2,-8(fp)
  80e630:	d0a70317 	ldw	r2,-25588(gp)
  80e634:	10800317 	ldw	r2,12(r2)
  80e638:	10800317 	ldw	r2,12(r2)
  80e63c:	e0bffb15 	stw	r2,-20(fp)
  80e640:	e0bffb17 	ldw	r2,-20(fp)
  80e644:	11000104 	addi	r4,r2,4
  80e648:	08115880 	call	811588 <uxListRemove>
  80e64c:	e0bffb17 	ldw	r2,-20(fp)
  80e650:	10800917 	ldw	r2,36(r2)
  80e654:	e13ffb17 	ldw	r4,-20(fp)
  80e658:	103ee83a 	callr	r2
  80e65c:	e0bffb17 	ldw	r2,-20(fp)
  80e660:	10800717 	ldw	r2,28(r2)
  80e664:	10800058 	cmpnei	r2,r2,1
  80e668:	10001a1e 	bne	r2,zero,80e6d4 <prvSwitchTimerLists+0xcc>
  80e66c:	e0bffb17 	ldw	r2,-20(fp)
  80e670:	10c00617 	ldw	r3,24(r2)
  80e674:	e0bffe17 	ldw	r2,-8(fp)
  80e678:	1885883a 	add	r2,r3,r2
  80e67c:	e0bffd15 	stw	r2,-12(fp)
  80e680:	e0fffd17 	ldw	r3,-12(fp)
  80e684:	e0bffe17 	ldw	r2,-8(fp)
  80e688:	10c00b2e 	bgeu	r2,r3,80e6b8 <prvSwitchTimerLists+0xb0>
  80e68c:	e0fffb17 	ldw	r3,-20(fp)
  80e690:	e0bffd17 	ldw	r2,-12(fp)
  80e694:	18800115 	stw	r2,4(r3)
  80e698:	e0fffb17 	ldw	r3,-20(fp)
  80e69c:	e0bffb17 	ldw	r2,-20(fp)
  80e6a0:	18800415 	stw	r2,16(r3)
  80e6a4:	d1270317 	ldw	r4,-25588(gp)
  80e6a8:	e0bffb17 	ldw	r2,-20(fp)
  80e6ac:	11400104 	addi	r5,r2,4
  80e6b0:	08114b40 	call	8114b4 <vListInsert>
  80e6b4:	00000706 	br	80e6d4 <prvSwitchTimerLists+0xcc>
  80e6b8:	d8000015 	stw	zero,0(sp)
  80e6bc:	e13ffb17 	ldw	r4,-20(fp)
  80e6c0:	000b883a 	mov	r5,zero
  80e6c4:	e1bffe17 	ldw	r6,-8(fp)
  80e6c8:	000f883a 	mov	r7,zero
  80e6cc:	080e0b40 	call	80e0b4 <xTimerGenericCommand>
  80e6d0:	e0bffa15 	stw	r2,-24(fp)
  80e6d4:	d0a70317 	ldw	r2,-25588(gp)
  80e6d8:	10800017 	ldw	r2,0(r2)
  80e6dc:	1004c03a 	cmpne	r2,r2,zero
  80e6e0:	103fcf1e 	bne	r2,zero,80e620 <prvSwitchTimerLists+0x18>
  80e6e4:	d0a70317 	ldw	r2,-25588(gp)
  80e6e8:	e0bffc15 	stw	r2,-16(fp)
  80e6ec:	d0a70417 	ldw	r2,-25584(gp)
  80e6f0:	d0a70315 	stw	r2,-25588(gp)
  80e6f4:	e0bffc17 	ldw	r2,-16(fp)
  80e6f8:	d0a70415 	stw	r2,-25584(gp)
  80e6fc:	e037883a 	mov	sp,fp
  80e700:	dfc00117 	ldw	ra,4(sp)
  80e704:	df000017 	ldw	fp,0(sp)
  80e708:	dec00204 	addi	sp,sp,8
  80e70c:	f800283a 	ret

0080e710 <prvCheckForValidListAndQueue>:
  80e710:	defffe04 	addi	sp,sp,-8
  80e714:	dfc00115 	stw	ra,4(sp)
  80e718:	df000015 	stw	fp,0(sp)
  80e71c:	d839883a 	mov	fp,sp
  80e720:	080dca80 	call	80dca8 <xTaskGetSchedulerState>
  80e724:	1005003a 	cmpeq	r2,r2,zero
  80e728:	1000011e 	bne	r2,zero,80e730 <prvCheckForValidListAndQueue+0x20>
  80e72c:	080dedc0 	call	80dedc <vTaskEnterCritical>
  80e730:	d0a70117 	ldw	r2,-25596(gp)
  80e734:	1004c03a 	cmpne	r2,r2,zero
  80e738:	1000111e 	bne	r2,zero,80e780 <prvCheckForValidListAndQueue+0x70>
  80e73c:	01002074 	movhi	r4,129
  80e740:	211a4804 	addi	r4,r4,26912
  80e744:	08113840 	call	811384 <vListInitialise>
  80e748:	01002074 	movhi	r4,129
  80e74c:	211a4d04 	addi	r4,r4,26932
  80e750:	08113840 	call	811384 <vListInitialise>
  80e754:	00802074 	movhi	r2,129
  80e758:	109a4804 	addi	r2,r2,26912
  80e75c:	d0a70315 	stw	r2,-25588(gp)
  80e760:	00802074 	movhi	r2,129
  80e764:	109a4d04 	addi	r2,r2,26932
  80e768:	d0a70415 	stw	r2,-25584(gp)
  80e76c:	01000284 	movi	r4,10
  80e770:	01400304 	movi	r5,12
  80e774:	000d883a 	mov	r6,zero
  80e778:	080b2c40 	call	80b2c4 <xQueueGenericCreate>
  80e77c:	d0a70115 	stw	r2,-25596(gp)
  80e780:	080dca80 	call	80dca8 <xTaskGetSchedulerState>
  80e784:	1005003a 	cmpeq	r2,r2,zero
  80e788:	1000011e 	bne	r2,zero,80e790 <prvCheckForValidListAndQueue+0x80>
  80e78c:	080df2c0 	call	80df2c <vTaskExitCritical>
  80e790:	e037883a 	mov	sp,fp
  80e794:	dfc00117 	ldw	ra,4(sp)
  80e798:	df000017 	ldw	fp,0(sp)
  80e79c:	dec00204 	addi	sp,sp,8
  80e7a0:	f800283a 	ret

0080e7a4 <xTimerIsTimerActive>:
  80e7a4:	defffb04 	addi	sp,sp,-20
  80e7a8:	dfc00415 	stw	ra,16(sp)
  80e7ac:	df000315 	stw	fp,12(sp)
  80e7b0:	df000304 	addi	fp,sp,12
  80e7b4:	e13fff15 	stw	r4,-4(fp)
  80e7b8:	e0bfff17 	ldw	r2,-4(fp)
  80e7bc:	e0bffd15 	stw	r2,-12(fp)
  80e7c0:	080dca80 	call	80dca8 <xTaskGetSchedulerState>
  80e7c4:	1005003a 	cmpeq	r2,r2,zero
  80e7c8:	1000011e 	bne	r2,zero,80e7d0 <xTimerIsTimerActive+0x2c>
  80e7cc:	080dedc0 	call	80dedc <vTaskEnterCritical>
  80e7d0:	e0bffd17 	ldw	r2,-12(fp)
  80e7d4:	10800517 	ldw	r2,20(r2)
  80e7d8:	1004c03a 	cmpne	r2,r2,zero
  80e7dc:	e0bffe15 	stw	r2,-8(fp)
  80e7e0:	080dca80 	call	80dca8 <xTaskGetSchedulerState>
  80e7e4:	1005003a 	cmpeq	r2,r2,zero
  80e7e8:	1000011e 	bne	r2,zero,80e7f0 <xTimerIsTimerActive+0x4c>
  80e7ec:	080df2c0 	call	80df2c <vTaskExitCritical>
  80e7f0:	e0bffe17 	ldw	r2,-8(fp)
  80e7f4:	e037883a 	mov	sp,fp
  80e7f8:	dfc00117 	ldw	ra,4(sp)
  80e7fc:	df000017 	ldw	fp,0(sp)
  80e800:	dec00204 	addi	sp,sp,8
  80e804:	f800283a 	ret

0080e808 <pvTimerGetTimerID>:
  80e808:	defffd04 	addi	sp,sp,-12
  80e80c:	df000215 	stw	fp,8(sp)
  80e810:	df000204 	addi	fp,sp,8
  80e814:	e13fff15 	stw	r4,-4(fp)
  80e818:	e0bfff17 	ldw	r2,-4(fp)
  80e81c:	e0bffe15 	stw	r2,-8(fp)
  80e820:	e0bffe17 	ldw	r2,-8(fp)
  80e824:	10800817 	ldw	r2,32(r2)
  80e828:	e037883a 	mov	sp,fp
  80e82c:	df000017 	ldw	fp,0(sp)
  80e830:	dec00104 	addi	sp,sp,4
  80e834:	f800283a 	ret

0080e838 <close>:
  80e838:	defff804 	addi	sp,sp,-32
  80e83c:	dfc00715 	stw	ra,28(sp)
  80e840:	df000615 	stw	fp,24(sp)
  80e844:	df000604 	addi	fp,sp,24
  80e848:	e13ffc15 	stw	r4,-16(fp)
  80e84c:	e0bffc17 	ldw	r2,-16(fp)
  80e850:	1004803a 	cmplt	r2,r2,zero
  80e854:	1000091e 	bne	r2,zero,80e87c <close+0x44>
  80e858:	e13ffc17 	ldw	r4,-16(fp)
  80e85c:	01400304 	movi	r5,12
  80e860:	08014540 	call	801454 <__mulsi3>
  80e864:	1007883a 	mov	r3,r2
  80e868:	00802074 	movhi	r2,129
  80e86c:	108e3a04 	addi	r2,r2,14568
  80e870:	1887883a 	add	r3,r3,r2
  80e874:	e0ffff15 	stw	r3,-4(fp)
  80e878:	00000106 	br	80e880 <close+0x48>
  80e87c:	e03fff15 	stw	zero,-4(fp)
  80e880:	e0bfff17 	ldw	r2,-4(fp)
  80e884:	e0bffb15 	stw	r2,-20(fp)
  80e888:	e0bffb17 	ldw	r2,-20(fp)
  80e88c:	1005003a 	cmpeq	r2,r2,zero
  80e890:	10001d1e 	bne	r2,zero,80e908 <close+0xd0>
  80e894:	e0bffb17 	ldw	r2,-20(fp)
  80e898:	10800017 	ldw	r2,0(r2)
  80e89c:	10800417 	ldw	r2,16(r2)
  80e8a0:	1005003a 	cmpeq	r2,r2,zero
  80e8a4:	1000071e 	bne	r2,zero,80e8c4 <close+0x8c>
  80e8a8:	e0bffb17 	ldw	r2,-20(fp)
  80e8ac:	10800017 	ldw	r2,0(r2)
  80e8b0:	10800417 	ldw	r2,16(r2)
  80e8b4:	e13ffb17 	ldw	r4,-20(fp)
  80e8b8:	103ee83a 	callr	r2
  80e8bc:	e0bffe15 	stw	r2,-8(fp)
  80e8c0:	00000106 	br	80e8c8 <close+0x90>
  80e8c4:	e03ffe15 	stw	zero,-8(fp)
  80e8c8:	e0bffe17 	ldw	r2,-8(fp)
  80e8cc:	e0bffa15 	stw	r2,-24(fp)
  80e8d0:	e13ffc17 	ldw	r4,-16(fp)
  80e8d4:	080fff00 	call	80fff0 <alt_release_fd>
  80e8d8:	e0bffa17 	ldw	r2,-24(fp)
  80e8dc:	1004403a 	cmpge	r2,r2,zero
  80e8e0:	1000071e 	bne	r2,zero,80e900 <close+0xc8>
  80e8e4:	080e9380 	call	80e938 <alt_get_errno>
  80e8e8:	e0fffa17 	ldw	r3,-24(fp)
  80e8ec:	00c7c83a 	sub	r3,zero,r3
  80e8f0:	10c00015 	stw	r3,0(r2)
  80e8f4:	00bfffc4 	movi	r2,-1
  80e8f8:	e0bffd15 	stw	r2,-12(fp)
  80e8fc:	00000806 	br	80e920 <close+0xe8>
  80e900:	e03ffd15 	stw	zero,-12(fp)
  80e904:	00000606 	br	80e920 <close+0xe8>
  80e908:	080e9380 	call	80e938 <alt_get_errno>
  80e90c:	1007883a 	mov	r3,r2
  80e910:	00801444 	movi	r2,81
  80e914:	18800015 	stw	r2,0(r3)
  80e918:	00bfffc4 	movi	r2,-1
  80e91c:	e0bffd15 	stw	r2,-12(fp)
  80e920:	e0bffd17 	ldw	r2,-12(fp)
  80e924:	e037883a 	mov	sp,fp
  80e928:	dfc00117 	ldw	ra,4(sp)
  80e92c:	df000017 	ldw	fp,0(sp)
  80e930:	dec00204 	addi	sp,sp,8
  80e934:	f800283a 	ret

0080e938 <alt_get_errno>:
  80e938:	defffd04 	addi	sp,sp,-12
  80e93c:	dfc00215 	stw	ra,8(sp)
  80e940:	df000115 	stw	fp,4(sp)
  80e944:	df000104 	addi	fp,sp,4
  80e948:	00802074 	movhi	r2,129
  80e94c:	1092e904 	addi	r2,r2,19364
  80e950:	10800017 	ldw	r2,0(r2)
  80e954:	1005003a 	cmpeq	r2,r2,zero
  80e958:	1000061e 	bne	r2,zero,80e974 <alt_get_errno+0x3c>
  80e95c:	00802074 	movhi	r2,129
  80e960:	1092e904 	addi	r2,r2,19364
  80e964:	10800017 	ldw	r2,0(r2)
  80e968:	103ee83a 	callr	r2
  80e96c:	e0bfff15 	stw	r2,-4(fp)
  80e970:	00000306 	br	80e980 <alt_get_errno+0x48>
  80e974:	00802074 	movhi	r2,129
  80e978:	1099ca04 	addi	r2,r2,26408
  80e97c:	e0bfff15 	stw	r2,-4(fp)
  80e980:	e0bfff17 	ldw	r2,-4(fp)
  80e984:	e037883a 	mov	sp,fp
  80e988:	dfc00117 	ldw	ra,4(sp)
  80e98c:	df000017 	ldw	fp,0(sp)
  80e990:	dec00204 	addi	sp,sp,8
  80e994:	f800283a 	ret

0080e998 <alt_dev_null_write>:
  80e998:	defffc04 	addi	sp,sp,-16
  80e99c:	df000315 	stw	fp,12(sp)
  80e9a0:	df000304 	addi	fp,sp,12
  80e9a4:	e13ffd15 	stw	r4,-12(fp)
  80e9a8:	e17ffe15 	stw	r5,-8(fp)
  80e9ac:	e1bfff15 	stw	r6,-4(fp)
  80e9b0:	e0bfff17 	ldw	r2,-4(fp)
  80e9b4:	e037883a 	mov	sp,fp
  80e9b8:	df000017 	ldw	fp,0(sp)
  80e9bc:	dec00104 	addi	sp,sp,4
  80e9c0:	f800283a 	ret

0080e9c4 <_do_ctors>:
  80e9c4:	defffd04 	addi	sp,sp,-12
  80e9c8:	dfc00215 	stw	ra,8(sp)
  80e9cc:	df000115 	stw	fp,4(sp)
  80e9d0:	df000104 	addi	fp,sp,4
  80e9d4:	00bfff04 	movi	r2,-4
  80e9d8:	00c02074 	movhi	r3,129
  80e9dc:	18ca2a04 	addi	r3,r3,10408
  80e9e0:	1885883a 	add	r2,r3,r2
  80e9e4:	e0bfff15 	stw	r2,-4(fp)
  80e9e8:	00000606 	br	80ea04 <_do_ctors+0x40>
  80e9ec:	e0bfff17 	ldw	r2,-4(fp)
  80e9f0:	10800017 	ldw	r2,0(r2)
  80e9f4:	103ee83a 	callr	r2
  80e9f8:	e0bfff17 	ldw	r2,-4(fp)
  80e9fc:	10bfff04 	addi	r2,r2,-4
  80ea00:	e0bfff15 	stw	r2,-4(fp)
  80ea04:	e0ffff17 	ldw	r3,-4(fp)
  80ea08:	00802074 	movhi	r2,129
  80ea0c:	108a2904 	addi	r2,r2,10404
  80ea10:	18bff62e 	bgeu	r3,r2,80e9ec <_do_ctors+0x28>
  80ea14:	e037883a 	mov	sp,fp
  80ea18:	dfc00117 	ldw	ra,4(sp)
  80ea1c:	df000017 	ldw	fp,0(sp)
  80ea20:	dec00204 	addi	sp,sp,8
  80ea24:	f800283a 	ret

0080ea28 <_do_dtors>:
  80ea28:	defffd04 	addi	sp,sp,-12
  80ea2c:	dfc00215 	stw	ra,8(sp)
  80ea30:	df000115 	stw	fp,4(sp)
  80ea34:	df000104 	addi	fp,sp,4
  80ea38:	00bfff04 	movi	r2,-4
  80ea3c:	00c02074 	movhi	r3,129
  80ea40:	18ca2a04 	addi	r3,r3,10408
  80ea44:	1885883a 	add	r2,r3,r2
  80ea48:	e0bfff15 	stw	r2,-4(fp)
  80ea4c:	00000606 	br	80ea68 <_do_dtors+0x40>
  80ea50:	e0bfff17 	ldw	r2,-4(fp)
  80ea54:	10800017 	ldw	r2,0(r2)
  80ea58:	103ee83a 	callr	r2
  80ea5c:	e0bfff17 	ldw	r2,-4(fp)
  80ea60:	10bfff04 	addi	r2,r2,-4
  80ea64:	e0bfff15 	stw	r2,-4(fp)
  80ea68:	e0ffff17 	ldw	r3,-4(fp)
  80ea6c:	00802074 	movhi	r2,129
  80ea70:	108a2a04 	addi	r2,r2,10408
  80ea74:	18bff62e 	bgeu	r3,r2,80ea50 <_do_dtors+0x28>
  80ea78:	e037883a 	mov	sp,fp
  80ea7c:	dfc00117 	ldw	ra,4(sp)
  80ea80:	df000017 	ldw	fp,0(sp)
  80ea84:	dec00204 	addi	sp,sp,8
  80ea88:	f800283a 	ret

0080ea8c <fstat>:
  80ea8c:	defff904 	addi	sp,sp,-28
  80ea90:	dfc00615 	stw	ra,24(sp)
  80ea94:	df000515 	stw	fp,20(sp)
  80ea98:	df000504 	addi	fp,sp,20
  80ea9c:	e13ffc15 	stw	r4,-16(fp)
  80eaa0:	e17ffd15 	stw	r5,-12(fp)
  80eaa4:	e0bffc17 	ldw	r2,-16(fp)
  80eaa8:	1004803a 	cmplt	r2,r2,zero
  80eaac:	1000091e 	bne	r2,zero,80ead4 <fstat+0x48>
  80eab0:	e13ffc17 	ldw	r4,-16(fp)
  80eab4:	01400304 	movi	r5,12
  80eab8:	08014540 	call	801454 <__mulsi3>
  80eabc:	1007883a 	mov	r3,r2
  80eac0:	00802074 	movhi	r2,129
  80eac4:	108e3a04 	addi	r2,r2,14568
  80eac8:	1887883a 	add	r3,r3,r2
  80eacc:	e0ffff15 	stw	r3,-4(fp)
  80ead0:	00000106 	br	80ead8 <fstat+0x4c>
  80ead4:	e03fff15 	stw	zero,-4(fp)
  80ead8:	e0bfff17 	ldw	r2,-4(fp)
  80eadc:	e0bffb15 	stw	r2,-20(fp)
  80eae0:	e0bffb17 	ldw	r2,-20(fp)
  80eae4:	1005003a 	cmpeq	r2,r2,zero
  80eae8:	1000121e 	bne	r2,zero,80eb34 <fstat+0xa8>
  80eaec:	e0bffb17 	ldw	r2,-20(fp)
  80eaf0:	10800017 	ldw	r2,0(r2)
  80eaf4:	10800817 	ldw	r2,32(r2)
  80eaf8:	1005003a 	cmpeq	r2,r2,zero
  80eafc:	1000081e 	bne	r2,zero,80eb20 <fstat+0x94>
  80eb00:	e0bffb17 	ldw	r2,-20(fp)
  80eb04:	10800017 	ldw	r2,0(r2)
  80eb08:	10800817 	ldw	r2,32(r2)
  80eb0c:	e13ffb17 	ldw	r4,-20(fp)
  80eb10:	e17ffd17 	ldw	r5,-12(fp)
  80eb14:	103ee83a 	callr	r2
  80eb18:	e0bffe15 	stw	r2,-8(fp)
  80eb1c:	00000b06 	br	80eb4c <fstat+0xc0>
  80eb20:	e0fffd17 	ldw	r3,-12(fp)
  80eb24:	00880004 	movi	r2,8192
  80eb28:	18800115 	stw	r2,4(r3)
  80eb2c:	e03ffe15 	stw	zero,-8(fp)
  80eb30:	00000606 	br	80eb4c <fstat+0xc0>
  80eb34:	080eb640 	call	80eb64 <alt_get_errno>
  80eb38:	1007883a 	mov	r3,r2
  80eb3c:	00801444 	movi	r2,81
  80eb40:	18800015 	stw	r2,0(r3)
  80eb44:	00bfffc4 	movi	r2,-1
  80eb48:	e0bffe15 	stw	r2,-8(fp)
  80eb4c:	e0bffe17 	ldw	r2,-8(fp)
  80eb50:	e037883a 	mov	sp,fp
  80eb54:	dfc00117 	ldw	ra,4(sp)
  80eb58:	df000017 	ldw	fp,0(sp)
  80eb5c:	dec00204 	addi	sp,sp,8
  80eb60:	f800283a 	ret

0080eb64 <alt_get_errno>:
  80eb64:	defffd04 	addi	sp,sp,-12
  80eb68:	dfc00215 	stw	ra,8(sp)
  80eb6c:	df000115 	stw	fp,4(sp)
  80eb70:	df000104 	addi	fp,sp,4
  80eb74:	00802074 	movhi	r2,129
  80eb78:	1092e904 	addi	r2,r2,19364
  80eb7c:	10800017 	ldw	r2,0(r2)
  80eb80:	1005003a 	cmpeq	r2,r2,zero
  80eb84:	1000061e 	bne	r2,zero,80eba0 <alt_get_errno+0x3c>
  80eb88:	00802074 	movhi	r2,129
  80eb8c:	1092e904 	addi	r2,r2,19364
  80eb90:	10800017 	ldw	r2,0(r2)
  80eb94:	103ee83a 	callr	r2
  80eb98:	e0bfff15 	stw	r2,-4(fp)
  80eb9c:	00000306 	br	80ebac <alt_get_errno+0x48>
  80eba0:	00802074 	movhi	r2,129
  80eba4:	1099ca04 	addi	r2,r2,26408
  80eba8:	e0bfff15 	stw	r2,-4(fp)
  80ebac:	e0bfff17 	ldw	r2,-4(fp)
  80ebb0:	e037883a 	mov	sp,fp
  80ebb4:	dfc00117 	ldw	ra,4(sp)
  80ebb8:	df000017 	ldw	fp,0(sp)
  80ebbc:	dec00204 	addi	sp,sp,8
  80ebc0:	f800283a 	ret

0080ebc4 <alt_open_fd>:
  80ebc4:	defff804 	addi	sp,sp,-32
  80ebc8:	dfc00715 	stw	ra,28(sp)
  80ebcc:	df000615 	stw	fp,24(sp)
  80ebd0:	dc000515 	stw	r16,20(sp)
  80ebd4:	df000504 	addi	fp,sp,20
  80ebd8:	e13ffc15 	stw	r4,-16(fp)
  80ebdc:	e17ffd15 	stw	r5,-12(fp)
  80ebe0:	e1bffe15 	stw	r6,-8(fp)
  80ebe4:	e1ffff15 	stw	r7,-4(fp)
  80ebe8:	e13ffd17 	ldw	r4,-12(fp)
  80ebec:	e17ffe17 	ldw	r5,-8(fp)
  80ebf0:	e1bfff17 	ldw	r6,-4(fp)
  80ebf4:	080fc800 	call	80fc80 <open>
  80ebf8:	e0bffb15 	stw	r2,-20(fp)
  80ebfc:	e0bffb17 	ldw	r2,-20(fp)
  80ec00:	1004803a 	cmplt	r2,r2,zero
  80ec04:	10001f1e 	bne	r2,zero,80ec84 <alt_open_fd+0xc0>
  80ec08:	e13ffb17 	ldw	r4,-20(fp)
  80ec0c:	04002074 	movhi	r16,129
  80ec10:	840e3a04 	addi	r16,r16,14568
  80ec14:	01400304 	movi	r5,12
  80ec18:	08014540 	call	801454 <__mulsi3>
  80ec1c:	1405883a 	add	r2,r2,r16
  80ec20:	10c00017 	ldw	r3,0(r2)
  80ec24:	e0bffc17 	ldw	r2,-16(fp)
  80ec28:	10c00015 	stw	r3,0(r2)
  80ec2c:	e13ffb17 	ldw	r4,-20(fp)
  80ec30:	04002074 	movhi	r16,129
  80ec34:	840e3a04 	addi	r16,r16,14568
  80ec38:	01400304 	movi	r5,12
  80ec3c:	08014540 	call	801454 <__mulsi3>
  80ec40:	1405883a 	add	r2,r2,r16
  80ec44:	10800104 	addi	r2,r2,4
  80ec48:	10c00017 	ldw	r3,0(r2)
  80ec4c:	e0bffc17 	ldw	r2,-16(fp)
  80ec50:	10c00115 	stw	r3,4(r2)
  80ec54:	e13ffb17 	ldw	r4,-20(fp)
  80ec58:	04002074 	movhi	r16,129
  80ec5c:	840e3a04 	addi	r16,r16,14568
  80ec60:	01400304 	movi	r5,12
  80ec64:	08014540 	call	801454 <__mulsi3>
  80ec68:	1405883a 	add	r2,r2,r16
  80ec6c:	10800204 	addi	r2,r2,8
  80ec70:	10c00017 	ldw	r3,0(r2)
  80ec74:	e0bffc17 	ldw	r2,-16(fp)
  80ec78:	10c00215 	stw	r3,8(r2)
  80ec7c:	e13ffb17 	ldw	r4,-20(fp)
  80ec80:	080fff00 	call	80fff0 <alt_release_fd>
  80ec84:	e037883a 	mov	sp,fp
  80ec88:	dfc00217 	ldw	ra,8(sp)
  80ec8c:	df000117 	ldw	fp,4(sp)
  80ec90:	dc000017 	ldw	r16,0(sp)
  80ec94:	dec00304 	addi	sp,sp,12
  80ec98:	f800283a 	ret

0080ec9c <alt_io_redirect>:
  80ec9c:	defffb04 	addi	sp,sp,-20
  80eca0:	dfc00415 	stw	ra,16(sp)
  80eca4:	df000315 	stw	fp,12(sp)
  80eca8:	df000304 	addi	fp,sp,12
  80ecac:	e13ffd15 	stw	r4,-12(fp)
  80ecb0:	e17ffe15 	stw	r5,-8(fp)
  80ecb4:	e1bfff15 	stw	r6,-4(fp)
  80ecb8:	01002074 	movhi	r4,129
  80ecbc:	210e3d04 	addi	r4,r4,14580
  80ecc0:	e17ffd17 	ldw	r5,-12(fp)
  80ecc4:	01800044 	movi	r6,1
  80ecc8:	01c07fc4 	movi	r7,511
  80eccc:	080ebc40 	call	80ebc4 <alt_open_fd>
  80ecd0:	01002074 	movhi	r4,129
  80ecd4:	210e3a04 	addi	r4,r4,14568
  80ecd8:	e17ffe17 	ldw	r5,-8(fp)
  80ecdc:	000d883a 	mov	r6,zero
  80ece0:	01c07fc4 	movi	r7,511
  80ece4:	080ebc40 	call	80ebc4 <alt_open_fd>
  80ece8:	01002074 	movhi	r4,129
  80ecec:	210e4004 	addi	r4,r4,14592
  80ecf0:	e17fff17 	ldw	r5,-4(fp)
  80ecf4:	01800044 	movi	r6,1
  80ecf8:	01c07fc4 	movi	r7,511
  80ecfc:	080ebc40 	call	80ebc4 <alt_open_fd>
  80ed00:	e037883a 	mov	sp,fp
  80ed04:	dfc00117 	ldw	ra,4(sp)
  80ed08:	df000017 	ldw	fp,0(sp)
  80ed0c:	dec00204 	addi	sp,sp,8
  80ed10:	f800283a 	ret

0080ed14 <isatty>:
  80ed14:	deffeb04 	addi	sp,sp,-84
  80ed18:	dfc01415 	stw	ra,80(sp)
  80ed1c:	df001315 	stw	fp,76(sp)
  80ed20:	df001304 	addi	fp,sp,76
  80ed24:	e13ffd15 	stw	r4,-12(fp)
  80ed28:	e0bffd17 	ldw	r2,-12(fp)
  80ed2c:	1004803a 	cmplt	r2,r2,zero
  80ed30:	1000091e 	bne	r2,zero,80ed58 <isatty+0x44>
  80ed34:	e13ffd17 	ldw	r4,-12(fp)
  80ed38:	01400304 	movi	r5,12
  80ed3c:	08014540 	call	801454 <__mulsi3>
  80ed40:	1007883a 	mov	r3,r2
  80ed44:	00802074 	movhi	r2,129
  80ed48:	108e3a04 	addi	r2,r2,14568
  80ed4c:	1887883a 	add	r3,r3,r2
  80ed50:	e0ffff15 	stw	r3,-4(fp)
  80ed54:	00000106 	br	80ed5c <isatty+0x48>
  80ed58:	e03fff15 	stw	zero,-4(fp)
  80ed5c:	e0bfff17 	ldw	r2,-4(fp)
  80ed60:	e0bfed15 	stw	r2,-76(fp)
  80ed64:	e0bfed17 	ldw	r2,-76(fp)
  80ed68:	1005003a 	cmpeq	r2,r2,zero
  80ed6c:	10000f1e 	bne	r2,zero,80edac <isatty+0x98>
  80ed70:	e0bfed17 	ldw	r2,-76(fp)
  80ed74:	10800017 	ldw	r2,0(r2)
  80ed78:	10800817 	ldw	r2,32(r2)
  80ed7c:	1004c03a 	cmpne	r2,r2,zero
  80ed80:	1000031e 	bne	r2,zero,80ed90 <isatty+0x7c>
  80ed84:	00800044 	movi	r2,1
  80ed88:	e0bffe15 	stw	r2,-8(fp)
  80ed8c:	00000c06 	br	80edc0 <isatty+0xac>
  80ed90:	e17fee04 	addi	r5,fp,-72
  80ed94:	e13ffd17 	ldw	r4,-12(fp)
  80ed98:	080ea8c0 	call	80ea8c <fstat>
  80ed9c:	e0bfef17 	ldw	r2,-68(fp)
  80eda0:	10880020 	cmpeqi	r2,r2,8192
  80eda4:	e0bffe15 	stw	r2,-8(fp)
  80eda8:	00000506 	br	80edc0 <isatty+0xac>
  80edac:	080edd80 	call	80edd8 <alt_get_errno>
  80edb0:	1007883a 	mov	r3,r2
  80edb4:	00801444 	movi	r2,81
  80edb8:	18800015 	stw	r2,0(r3)
  80edbc:	e03ffe15 	stw	zero,-8(fp)
  80edc0:	e0bffe17 	ldw	r2,-8(fp)
  80edc4:	e037883a 	mov	sp,fp
  80edc8:	dfc00117 	ldw	ra,4(sp)
  80edcc:	df000017 	ldw	fp,0(sp)
  80edd0:	dec00204 	addi	sp,sp,8
  80edd4:	f800283a 	ret

0080edd8 <alt_get_errno>:
  80edd8:	defffd04 	addi	sp,sp,-12
  80eddc:	dfc00215 	stw	ra,8(sp)
  80ede0:	df000115 	stw	fp,4(sp)
  80ede4:	df000104 	addi	fp,sp,4
  80ede8:	00802074 	movhi	r2,129
  80edec:	1092e904 	addi	r2,r2,19364
  80edf0:	10800017 	ldw	r2,0(r2)
  80edf4:	1005003a 	cmpeq	r2,r2,zero
  80edf8:	1000061e 	bne	r2,zero,80ee14 <alt_get_errno+0x3c>
  80edfc:	00802074 	movhi	r2,129
  80ee00:	1092e904 	addi	r2,r2,19364
  80ee04:	10800017 	ldw	r2,0(r2)
  80ee08:	103ee83a 	callr	r2
  80ee0c:	e0bfff15 	stw	r2,-4(fp)
  80ee10:	00000306 	br	80ee20 <alt_get_errno+0x48>
  80ee14:	00802074 	movhi	r2,129
  80ee18:	1099ca04 	addi	r2,r2,26408
  80ee1c:	e0bfff15 	stw	r2,-4(fp)
  80ee20:	e0bfff17 	ldw	r2,-4(fp)
  80ee24:	e037883a 	mov	sp,fp
  80ee28:	dfc00117 	ldw	ra,4(sp)
  80ee2c:	df000017 	ldw	fp,0(sp)
  80ee30:	dec00204 	addi	sp,sp,8
  80ee34:	f800283a 	ret

0080ee38 <alt_load>:
  80ee38:	defffe04 	addi	sp,sp,-8
  80ee3c:	dfc00115 	stw	ra,4(sp)
  80ee40:	df000015 	stw	fp,0(sp)
  80ee44:	d839883a 	mov	fp,sp
  80ee48:	01002074 	movhi	r4,129
  80ee4c:	2112ee04 	addi	r4,r4,19384
  80ee50:	01402074 	movhi	r5,129
  80ee54:	294c1f04 	addi	r5,r5,12412
  80ee58:	01802074 	movhi	r6,129
  80ee5c:	3192ee04 	addi	r6,r6,19384
  80ee60:	080eeb80 	call	80eeb8 <alt_load_section>
  80ee64:	01002034 	movhi	r4,128
  80ee68:	21000804 	addi	r4,r4,32
  80ee6c:	01402034 	movhi	r5,128
  80ee70:	29400804 	addi	r5,r5,32
  80ee74:	01802034 	movhi	r6,128
  80ee78:	31809d04 	addi	r6,r6,628
  80ee7c:	080eeb80 	call	80eeb8 <alt_load_section>
  80ee80:	01002074 	movhi	r4,129
  80ee84:	210a2a04 	addi	r4,r4,10408
  80ee88:	01402074 	movhi	r5,129
  80ee8c:	294a2a04 	addi	r5,r5,10408
  80ee90:	01802074 	movhi	r6,129
  80ee94:	318c1f04 	addi	r6,r6,12412
  80ee98:	080eeb80 	call	80eeb8 <alt_load_section>
  80ee9c:	08119040 	call	811904 <alt_dcache_flush_all>
  80eea0:	0811cfc0 	call	811cfc <alt_icache_flush_all>
  80eea4:	e037883a 	mov	sp,fp
  80eea8:	dfc00117 	ldw	ra,4(sp)
  80eeac:	df000017 	ldw	fp,0(sp)
  80eeb0:	dec00204 	addi	sp,sp,8
  80eeb4:	f800283a 	ret

0080eeb8 <alt_load_section>:
  80eeb8:	defffc04 	addi	sp,sp,-16
  80eebc:	df000315 	stw	fp,12(sp)
  80eec0:	df000304 	addi	fp,sp,12
  80eec4:	e13ffd15 	stw	r4,-12(fp)
  80eec8:	e17ffe15 	stw	r5,-8(fp)
  80eecc:	e1bfff15 	stw	r6,-4(fp)
  80eed0:	e0fffe17 	ldw	r3,-8(fp)
  80eed4:	e0bffd17 	ldw	r2,-12(fp)
  80eed8:	18800e26 	beq	r3,r2,80ef14 <alt_load_section+0x5c>
  80eedc:	00000a06 	br	80ef08 <alt_load_section+0x50>
  80eee0:	e0bffd17 	ldw	r2,-12(fp)
  80eee4:	10c00017 	ldw	r3,0(r2)
  80eee8:	e0bffe17 	ldw	r2,-8(fp)
  80eeec:	10c00015 	stw	r3,0(r2)
  80eef0:	e0bffe17 	ldw	r2,-8(fp)
  80eef4:	10800104 	addi	r2,r2,4
  80eef8:	e0bffe15 	stw	r2,-8(fp)
  80eefc:	e0bffd17 	ldw	r2,-12(fp)
  80ef00:	10800104 	addi	r2,r2,4
  80ef04:	e0bffd15 	stw	r2,-12(fp)
  80ef08:	e0fffe17 	ldw	r3,-8(fp)
  80ef0c:	e0bfff17 	ldw	r2,-4(fp)
  80ef10:	18bff31e 	bne	r3,r2,80eee0 <alt_load_section+0x28>
  80ef14:	e037883a 	mov	sp,fp
  80ef18:	df000017 	ldw	fp,0(sp)
  80ef1c:	dec00104 	addi	sp,sp,4
  80ef20:	f800283a 	ret

0080ef24 <tx_log_str>:
  80ef24:	01804034 	movhi	r6,256
  80ef28:	31840e04 	addi	r6,r6,4152

0080ef2c <tx_next_char>:
  80ef2c:	21c00007 	ldb	r7,0(r4)
  80ef30:	01c00626 	beq	zero,r7,80ef4c <end_tx>

0080ef34 <wait_tx_ready_loop>:
  80ef34:	31400137 	ldwio	r5,4(r6)
  80ef38:	297fffec 	andhi	r5,r5,65535
  80ef3c:	283ffd26 	beq	r5,zero,80ef34 <wait_tx_ready_loop>
  80ef40:	31c00035 	stwio	r7,0(r6)
  80ef44:	21000044 	addi	r4,r4,1
  80ef48:	003ff806 	br	80ef2c <tx_next_char>

0080ef4c <end_tx>:
  80ef4c:	f800283a 	ret

0080ef50 <alt_log_txchar>:
  80ef50:	defffd04 	addi	sp,sp,-12
  80ef54:	df000215 	stw	fp,8(sp)
  80ef58:	df000204 	addi	fp,sp,8
  80ef5c:	e13ffe15 	stw	r4,-8(fp)
  80ef60:	e17fff15 	stw	r5,-4(fp)
  80ef64:	e0bfff17 	ldw	r2,-4(fp)
  80ef68:	10800104 	addi	r2,r2,4
  80ef6c:	10800037 	ldwio	r2,0(r2)
  80ef70:	10bfffec 	andhi	r2,r2,65535
  80ef74:	1005003a 	cmpeq	r2,r2,zero
  80ef78:	103ffa1e 	bne	r2,zero,80ef64 <alt_log_txchar+0x14>
  80ef7c:	e0bfff17 	ldw	r2,-4(fp)
  80ef80:	1007883a 	mov	r3,r2
  80ef84:	e0bffe17 	ldw	r2,-8(fp)
  80ef88:	18800035 	stwio	r2,0(r3)
  80ef8c:	e037883a 	mov	sp,fp
  80ef90:	df000017 	ldw	fp,0(sp)
  80ef94:	dec00104 	addi	sp,sp,4
  80ef98:	f800283a 	ret

0080ef9c <alt_log_repchar>:
  80ef9c:	defffb04 	addi	sp,sp,-20
  80efa0:	dfc00415 	stw	ra,16(sp)
  80efa4:	df000315 	stw	fp,12(sp)
  80efa8:	df000304 	addi	fp,sp,12
  80efac:	e17ffe15 	stw	r5,-8(fp)
  80efb0:	e1bfff15 	stw	r6,-4(fp)
  80efb4:	e13ffd05 	stb	r4,-12(fp)
  80efb8:	00000306 	br	80efc8 <alt_log_repchar+0x2c>
  80efbc:	e13ffd07 	ldb	r4,-12(fp)
  80efc0:	e17fff17 	ldw	r5,-4(fp)
  80efc4:	080ef500 	call	80ef50 <alt_log_txchar>
  80efc8:	e0bffe17 	ldw	r2,-8(fp)
  80efcc:	10800048 	cmpgei	r2,r2,1
  80efd0:	1007883a 	mov	r3,r2
  80efd4:	e0bffe17 	ldw	r2,-8(fp)
  80efd8:	10bfffc4 	addi	r2,r2,-1
  80efdc:	e0bffe15 	stw	r2,-8(fp)
  80efe0:	18803fcc 	andi	r2,r3,255
  80efe4:	1004c03a 	cmpne	r2,r2,zero
  80efe8:	103ff41e 	bne	r2,zero,80efbc <alt_log_repchar+0x20>
  80efec:	e037883a 	mov	sp,fp
  80eff0:	dfc00117 	ldw	ra,4(sp)
  80eff4:	df000017 	ldw	fp,0(sp)
  80eff8:	dec00204 	addi	sp,sp,8
  80effc:	f800283a 	ret

0080f000 <alt_log_private_printf>:
  80f000:	deffe604 	addi	sp,sp,-104
  80f004:	dfc01915 	stw	ra,100(sp)
  80f008:	df001815 	stw	fp,96(sp)
  80f00c:	dc001715 	stw	r16,92(sp)
  80f010:	df001704 	addi	fp,sp,92
  80f014:	e13ffa15 	stw	r4,-24(fp)
  80f018:	e17ffb15 	stw	r5,-20(fp)
  80f01c:	e1bffc15 	stw	r6,-16(fp)
  80f020:	e03ff615 	stw	zero,-40(fp)
  80f024:	e03ff515 	stw	zero,-44(fp)
  80f028:	e03ff415 	stw	zero,-48(fp)
  80f02c:	e03ff315 	stw	zero,-52(fp)
  80f030:	e03ff215 	stw	zero,-56(fp)
  80f034:	e03ff115 	stw	zero,-60(fp)
  80f038:	e03ff015 	stw	zero,-64(fp)
  80f03c:	e0bffa17 	ldw	r2,-24(fp)
  80f040:	e0bff915 	stw	r2,-28(fp)
  80f044:	e03ff715 	stw	zero,-36(fp)
  80f048:	00015f06 	br	80f5c8 <alt_log_private_printf+0x5c8>
  80f04c:	e0bff717 	ldw	r2,-36(fp)
  80f050:	e0bffe15 	stw	r2,-8(fp)
  80f054:	e0fffe17 	ldw	r3,-8(fp)
  80f058:	18800060 	cmpeqi	r2,r3,1
  80f05c:	10001c1e 	bne	r2,zero,80f0d0 <alt_log_private_printf+0xd0>
  80f060:	e13ffe17 	ldw	r4,-8(fp)
  80f064:	208000a0 	cmpeqi	r2,r4,2
  80f068:	10002b1e 	bne	r2,zero,80f118 <alt_log_private_printf+0x118>
  80f06c:	e0fffe17 	ldw	r3,-8(fp)
  80f070:	1805003a 	cmpeq	r2,r3,zero
  80f074:	1000011e 	bne	r2,zero,80f07c <alt_log_private_printf+0x7c>
  80f078:	00015306 	br	80f5c8 <alt_log_private_printf+0x5c8>
  80f07c:	e0bff807 	ldb	r2,-32(fp)
  80f080:	10800958 	cmpnei	r2,r2,37
  80f084:	10000e1e 	bne	r2,zero,80f0c0 <alt_log_private_printf+0xc0>
  80f088:	e03ff615 	stw	zero,-40(fp)
  80f08c:	e03ff515 	stw	zero,-44(fp)
  80f090:	00800284 	movi	r2,10
  80f094:	e0bff215 	stw	r2,-56(fp)
  80f098:	00800044 	movi	r2,1
  80f09c:	e0bff115 	stw	r2,-60(fp)
  80f0a0:	e03ff015 	stw	zero,-64(fp)
  80f0a4:	00bfffc4 	movi	r2,-1
  80f0a8:	e0bff415 	stw	r2,-48(fp)
  80f0ac:	00bfffc4 	movi	r2,-1
  80f0b0:	e0bff315 	stw	r2,-52(fp)
  80f0b4:	00800044 	movi	r2,1
  80f0b8:	e0bff715 	stw	r2,-36(fp)
  80f0bc:	00014206 	br	80f5c8 <alt_log_private_printf+0x5c8>
  80f0c0:	e13ff807 	ldb	r4,-32(fp)
  80f0c4:	e17ffb17 	ldw	r5,-20(fp)
  80f0c8:	080ef500 	call	80ef50 <alt_log_txchar>
  80f0cc:	00013e06 	br	80f5c8 <alt_log_private_printf+0x5c8>
  80f0d0:	e0bff807 	ldb	r2,-32(fp)
  80f0d4:	10800c18 	cmpnei	r2,r2,48
  80f0d8:	1000051e 	bne	r2,zero,80f0f0 <alt_log_private_printf+0xf0>
  80f0dc:	00800044 	movi	r2,1
  80f0e0:	e0bff615 	stw	r2,-40(fp)
  80f0e4:	00800084 	movi	r2,2
  80f0e8:	e0bff715 	stw	r2,-36(fp)
  80f0ec:	00013606 	br	80f5c8 <alt_log_private_printf+0x5c8>
  80f0f0:	e0bff807 	ldb	r2,-32(fp)
  80f0f4:	10800958 	cmpnei	r2,r2,37
  80f0f8:	1000051e 	bne	r2,zero,80f110 <alt_log_private_printf+0x110>
  80f0fc:	e13ff807 	ldb	r4,-32(fp)
  80f100:	e17ffb17 	ldw	r5,-20(fp)
  80f104:	080ef500 	call	80ef50 <alt_log_txchar>
  80f108:	e03ff715 	stw	zero,-36(fp)
  80f10c:	00012e06 	br	80f5c8 <alt_log_private_printf+0x5c8>
  80f110:	00800084 	movi	r2,2
  80f114:	e0bff715 	stw	r2,-36(fp)
  80f118:	e0bff807 	ldb	r2,-32(fp)
  80f11c:	10800b98 	cmpnei	r2,r2,46
  80f120:	1000021e 	bne	r2,zero,80f12c <alt_log_private_printf+0x12c>
  80f124:	e03ff315 	stw	zero,-52(fp)
  80f128:	00012706 	br	80f5c8 <alt_log_private_printf+0x5c8>
  80f12c:	e0bff807 	ldb	r2,-32(fp)
  80f130:	10800c10 	cmplti	r2,r2,48
  80f134:	10001f1e 	bne	r2,zero,80f1b4 <alt_log_private_printf+0x1b4>
  80f138:	e0bff807 	ldb	r2,-32(fp)
  80f13c:	10800e88 	cmpgei	r2,r2,58
  80f140:	10001c1e 	bne	r2,zero,80f1b4 <alt_log_private_printf+0x1b4>
  80f144:	e0bff803 	ldbu	r2,-32(fp)
  80f148:	10bff404 	addi	r2,r2,-48
  80f14c:	e0bff805 	stb	r2,-32(fp)
  80f150:	e0bff317 	ldw	r2,-52(fp)
  80f154:	1004403a 	cmpge	r2,r2,zero
  80f158:	10000e1e 	bne	r2,zero,80f194 <alt_log_private_printf+0x194>
  80f15c:	e0bff417 	ldw	r2,-48(fp)
  80f160:	1004403a 	cmpge	r2,r2,zero
  80f164:	1000021e 	bne	r2,zero,80f170 <alt_log_private_printf+0x170>
  80f168:	e03ff415 	stw	zero,-48(fp)
  80f16c:	00000406 	br	80f180 <alt_log_private_printf+0x180>
  80f170:	e13ff417 	ldw	r4,-48(fp)
  80f174:	01400284 	movi	r5,10
  80f178:	08014540 	call	801454 <__mulsi3>
  80f17c:	e0bff415 	stw	r2,-48(fp)
  80f180:	e0bff807 	ldb	r2,-32(fp)
  80f184:	e0fff417 	ldw	r3,-48(fp)
  80f188:	1885883a 	add	r2,r3,r2
  80f18c:	e0bff415 	stw	r2,-48(fp)
  80f190:	00010d06 	br	80f5c8 <alt_log_private_printf+0x5c8>
  80f194:	e13ff317 	ldw	r4,-52(fp)
  80f198:	01400284 	movi	r5,10
  80f19c:	08014540 	call	801454 <__mulsi3>
  80f1a0:	1007883a 	mov	r3,r2
  80f1a4:	e0bff807 	ldb	r2,-32(fp)
  80f1a8:	1885883a 	add	r2,r3,r2
  80f1ac:	e0bff315 	stw	r2,-52(fp)
  80f1b0:	00010506 	br	80f5c8 <alt_log_private_printf+0x5c8>
  80f1b4:	e0bff807 	ldb	r2,-32(fp)
  80f1b8:	10801b18 	cmpnei	r2,r2,108
  80f1bc:	1000031e 	bne	r2,zero,80f1cc <alt_log_private_printf+0x1cc>
  80f1c0:	00800044 	movi	r2,1
  80f1c4:	e0bff515 	stw	r2,-44(fp)
  80f1c8:	0000ff06 	br	80f5c8 <alt_log_private_printf+0x5c8>
  80f1cc:	e0bff807 	ldb	r2,-32(fp)
  80f1d0:	10bfea04 	addi	r2,r2,-88
  80f1d4:	e0bfff15 	stw	r2,-4(fp)
  80f1d8:	e13fff17 	ldw	r4,-4(fp)
  80f1dc:	20800868 	cmpgeui	r2,r4,33
  80f1e0:	1000f81e 	bne	r2,zero,80f5c4 <alt_log_private_printf+0x5c4>
  80f1e4:	e0ffff17 	ldw	r3,-4(fp)
  80f1e8:	e0ffff17 	ldw	r3,-4(fp)
  80f1ec:	18c5883a 	add	r2,r3,r3
  80f1f0:	1087883a 	add	r3,r2,r2
  80f1f4:	00802074 	movhi	r2,129
  80f1f8:	10bc8204 	addi	r2,r2,-3576
  80f1fc:	1885883a 	add	r2,r3,r2
  80f200:	10800017 	ldw	r2,0(r2)
  80f204:	1000683a 	jmp	r2
  80f208:	0080f4f8 	rdprs	r2,zero,979
  80f20c:	0080f5c4 	movi	r2,983
  80f210:	0080f5c4 	movi	r2,983
  80f214:	0080f5c4 	movi	r2,983
  80f218:	0080f5c4 	movi	r2,983
  80f21c:	0080f5c4 	movi	r2,983
  80f220:	0080f5c4 	movi	r2,983
  80f224:	0080f5c4 	movi	r2,983
  80f228:	0080f5c4 	movi	r2,983
  80f22c:	0080f5c4 	movi	r2,983
  80f230:	0080f5c4 	movi	r2,983
  80f234:	0080f510 	cmplti	r2,zero,980
  80f238:	0080f28c 	andi	r2,zero,970
  80f23c:	0080f5c4 	movi	r2,983
  80f240:	0080f5c4 	movi	r2,983
  80f244:	0080f5c4 	movi	r2,983
  80f248:	0080f5c4 	movi	r2,983
  80f24c:	0080f28c 	andi	r2,zero,970
  80f250:	0080f5c4 	movi	r2,983
  80f254:	0080f5c4 	movi	r2,983
  80f258:	0080f5c4 	movi	r2,983
  80f25c:	0080f5c4 	movi	r2,983
  80f260:	0080f5c4 	movi	r2,983
  80f264:	0080f4d8 	cmpnei	r2,zero,979
  80f268:	0080f5c4 	movi	r2,983
  80f26c:	0080f5c4 	movi	r2,983
  80f270:	0080f5c4 	movi	r2,983
  80f274:	0080f544 	movi	r2,981
  80f278:	0080f5c4 	movi	r2,983
  80f27c:	0080f4d0 	cmplti	r2,zero,979
  80f280:	0080f5c4 	movi	r2,983
  80f284:	0080f5c4 	movi	r2,983
  80f288:	0080f4e8 	cmpgeui	r2,zero,979
  80f28c:	e0bff517 	ldw	r2,-44(fp)
  80f290:	1005003a 	cmpeq	r2,r2,zero
  80f294:	1000111e 	bne	r2,zero,80f2dc <alt_log_private_printf+0x2dc>
  80f298:	e0bff117 	ldw	r2,-60(fp)
  80f29c:	1005003a 	cmpeq	r2,r2,zero
  80f2a0:	1000071e 	bne	r2,zero,80f2c0 <alt_log_private_printf+0x2c0>
  80f2a4:	e0fffc17 	ldw	r3,-16(fp)
  80f2a8:	18800104 	addi	r2,r3,4
  80f2ac:	e0bffc15 	stw	r2,-16(fp)
  80f2b0:	1805883a 	mov	r2,r3
  80f2b4:	10800017 	ldw	r2,0(r2)
  80f2b8:	e0bfef15 	stw	r2,-68(fp)
  80f2bc:	00001706 	br	80f31c <alt_log_private_printf+0x31c>
  80f2c0:	e0fffc17 	ldw	r3,-16(fp)
  80f2c4:	18800104 	addi	r2,r3,4
  80f2c8:	e0bffc15 	stw	r2,-16(fp)
  80f2cc:	1805883a 	mov	r2,r3
  80f2d0:	10800017 	ldw	r2,0(r2)
  80f2d4:	e0bfef15 	stw	r2,-68(fp)
  80f2d8:	00001006 	br	80f31c <alt_log_private_printf+0x31c>
  80f2dc:	e0bff117 	ldw	r2,-60(fp)
  80f2e0:	1005003a 	cmpeq	r2,r2,zero
  80f2e4:	1000071e 	bne	r2,zero,80f304 <alt_log_private_printf+0x304>
  80f2e8:	e0fffc17 	ldw	r3,-16(fp)
  80f2ec:	18800104 	addi	r2,r3,4
  80f2f0:	e0bffc15 	stw	r2,-16(fp)
  80f2f4:	1805883a 	mov	r2,r3
  80f2f8:	10800017 	ldw	r2,0(r2)
  80f2fc:	e0bfef15 	stw	r2,-68(fp)
  80f300:	00000606 	br	80f31c <alt_log_private_printf+0x31c>
  80f304:	e0fffc17 	ldw	r3,-16(fp)
  80f308:	18800104 	addi	r2,r3,4
  80f30c:	e0bffc15 	stw	r2,-16(fp)
  80f310:	1805883a 	mov	r2,r3
  80f314:	10800017 	ldw	r2,0(r2)
  80f318:	e0bfef15 	stw	r2,-68(fp)
  80f31c:	e03fec15 	stw	zero,-80(fp)
  80f320:	e0bff117 	ldw	r2,-60(fp)
  80f324:	1005003a 	cmpeq	r2,r2,zero
  80f328:	1000081e 	bne	r2,zero,80f34c <alt_log_private_printf+0x34c>
  80f32c:	e0bfef17 	ldw	r2,-68(fp)
  80f330:	1004403a 	cmpge	r2,r2,zero
  80f334:	1000051e 	bne	r2,zero,80f34c <alt_log_private_printf+0x34c>
  80f338:	e0bfef17 	ldw	r2,-68(fp)
  80f33c:	0085c83a 	sub	r2,zero,r2
  80f340:	e0bfef15 	stw	r2,-68(fp)
  80f344:	00800044 	movi	r2,1
  80f348:	e0bfec15 	stw	r2,-80(fp)
  80f34c:	e0bfef17 	ldw	r2,-68(fp)
  80f350:	e0bfed15 	stw	r2,-76(fp)
  80f354:	00800044 	movi	r2,1
  80f358:	e0bfee15 	stw	r2,-72(fp)
  80f35c:	00800044 	movi	r2,1
  80f360:	e0bfeb15 	stw	r2,-84(fp)
  80f364:	00000706 	br	80f384 <alt_log_private_printf+0x384>
  80f368:	e0bfeb17 	ldw	r2,-84(fp)
  80f36c:	10800044 	addi	r2,r2,1
  80f370:	e0bfeb15 	stw	r2,-84(fp)
  80f374:	e17ff217 	ldw	r5,-56(fp)
  80f378:	e13fee17 	ldw	r4,-72(fp)
  80f37c:	08014540 	call	801454 <__mulsi3>
  80f380:	e0bfee15 	stw	r2,-72(fp)
  80f384:	e17ff217 	ldw	r5,-56(fp)
  80f388:	e13fed17 	ldw	r4,-76(fp)
  80f38c:	080a7f80 	call	80a7f8 <__udivsi3>
  80f390:	e0bfed15 	stw	r2,-76(fp)
  80f394:	e0bfed17 	ldw	r2,-76(fp)
  80f398:	1004c03a 	cmpne	r2,r2,zero
  80f39c:	103ff21e 	bne	r2,zero,80f368 <alt_log_private_printf+0x368>
  80f3a0:	e0fff417 	ldw	r3,-48(fp)
  80f3a4:	e0bfeb17 	ldw	r2,-84(fp)
  80f3a8:	1885c83a 	sub	r2,r3,r2
  80f3ac:	e0bff415 	stw	r2,-48(fp)
  80f3b0:	e0bff617 	ldw	r2,-40(fp)
  80f3b4:	1005003a 	cmpeq	r2,r2,zero
  80f3b8:	10000e1e 	bne	r2,zero,80f3f4 <alt_log_private_printf+0x3f4>
  80f3bc:	e0bfec17 	ldw	r2,-80(fp)
  80f3c0:	1005003a 	cmpeq	r2,r2,zero
  80f3c4:	1000061e 	bne	r2,zero,80f3e0 <alt_log_private_printf+0x3e0>
  80f3c8:	e17ffb17 	ldw	r5,-20(fp)
  80f3cc:	01000b44 	movi	r4,45
  80f3d0:	080ef500 	call	80ef50 <alt_log_txchar>
  80f3d4:	e0bff417 	ldw	r2,-48(fp)
  80f3d8:	10bfffc4 	addi	r2,r2,-1
  80f3dc:	e0bff415 	stw	r2,-48(fp)
  80f3e0:	01000c04 	movi	r4,48
  80f3e4:	e17ff417 	ldw	r5,-48(fp)
  80f3e8:	e1bffb17 	ldw	r6,-20(fp)
  80f3ec:	080ef9c0 	call	80ef9c <alt_log_repchar>
  80f3f0:	00003206 	br	80f4bc <alt_log_private_printf+0x4bc>
  80f3f4:	e0bfec17 	ldw	r2,-80(fp)
  80f3f8:	1005003a 	cmpeq	r2,r2,zero
  80f3fc:	1000031e 	bne	r2,zero,80f40c <alt_log_private_printf+0x40c>
  80f400:	e0bff417 	ldw	r2,-48(fp)
  80f404:	10bfffc4 	addi	r2,r2,-1
  80f408:	e0bff415 	stw	r2,-48(fp)
  80f40c:	01000804 	movi	r4,32
  80f410:	e17ff417 	ldw	r5,-48(fp)
  80f414:	e1bffb17 	ldw	r6,-20(fp)
  80f418:	080ef9c0 	call	80ef9c <alt_log_repchar>
  80f41c:	e0bfec17 	ldw	r2,-80(fp)
  80f420:	1005003a 	cmpeq	r2,r2,zero
  80f424:	1000251e 	bne	r2,zero,80f4bc <alt_log_private_printf+0x4bc>
  80f428:	e17ffb17 	ldw	r5,-20(fp)
  80f42c:	01000b44 	movi	r4,45
  80f430:	080ef500 	call	80ef50 <alt_log_txchar>
  80f434:	00002106 	br	80f4bc <alt_log_private_printf+0x4bc>
  80f438:	e13fef17 	ldw	r4,-68(fp)
  80f43c:	e17fee17 	ldw	r5,-72(fp)
  80f440:	080a7f80 	call	80a7f8 <__udivsi3>
  80f444:	e0bfea05 	stb	r2,-88(fp)
  80f448:	e0bfea03 	ldbu	r2,-88(fp)
  80f44c:	10800c04 	addi	r2,r2,48
  80f450:	e0bfea05 	stb	r2,-88(fp)
  80f454:	e0bfea03 	ldbu	r2,-88(fp)
  80f458:	10800eb0 	cmpltui	r2,r2,58
  80f45c:	10000c1e 	bne	r2,zero,80f490 <alt_log_private_printf+0x490>
  80f460:	e0bff017 	ldw	r2,-64(fp)
  80f464:	1005003a 	cmpeq	r2,r2,zero
  80f468:	1000031e 	bne	r2,zero,80f478 <alt_log_private_printf+0x478>
  80f46c:	010001c4 	movi	r4,7
  80f470:	e13ffd05 	stb	r4,-12(fp)
  80f474:	00000206 	br	80f480 <alt_log_private_printf+0x480>
  80f478:	008009c4 	movi	r2,39
  80f47c:	e0bffd05 	stb	r2,-12(fp)
  80f480:	e0bfea03 	ldbu	r2,-88(fp)
  80f484:	e0fffd03 	ldbu	r3,-12(fp)
  80f488:	10c5883a 	add	r2,r2,r3
  80f48c:	e0bfea05 	stb	r2,-88(fp)
  80f490:	e13fea03 	ldbu	r4,-88(fp)
  80f494:	e17ffb17 	ldw	r5,-20(fp)
  80f498:	080ef500 	call	80ef50 <alt_log_txchar>
  80f49c:	e13fef17 	ldw	r4,-68(fp)
  80f4a0:	e17fee17 	ldw	r5,-72(fp)
  80f4a4:	080a8000 	call	80a800 <__umodsi3>
  80f4a8:	e0bfef15 	stw	r2,-68(fp)
  80f4ac:	e17ff217 	ldw	r5,-56(fp)
  80f4b0:	e13fee17 	ldw	r4,-72(fp)
  80f4b4:	080a7f80 	call	80a7f8 <__udivsi3>
  80f4b8:	e0bfee15 	stw	r2,-72(fp)
  80f4bc:	e0bfee17 	ldw	r2,-72(fp)
  80f4c0:	1004c03a 	cmpne	r2,r2,zero
  80f4c4:	103fdc1e 	bne	r2,zero,80f438 <alt_log_private_printf+0x438>
  80f4c8:	e03ff715 	stw	zero,-36(fp)
  80f4cc:	00003d06 	br	80f5c4 <alt_log_private_printf+0x5c4>
  80f4d0:	e03ff115 	stw	zero,-60(fp)
  80f4d4:	003f6d06 	br	80f28c <alt_log_private_printf+0x28c>
  80f4d8:	e03ff115 	stw	zero,-60(fp)
  80f4dc:	00800204 	movi	r2,8
  80f4e0:	e0bff215 	stw	r2,-56(fp)
  80f4e4:	003f6906 	br	80f28c <alt_log_private_printf+0x28c>
  80f4e8:	e03ff115 	stw	zero,-60(fp)
  80f4ec:	00800404 	movi	r2,16
  80f4f0:	e0bff215 	stw	r2,-56(fp)
  80f4f4:	003f6506 	br	80f28c <alt_log_private_printf+0x28c>
  80f4f8:	e03ff115 	stw	zero,-60(fp)
  80f4fc:	00800404 	movi	r2,16
  80f500:	e0bff215 	stw	r2,-56(fp)
  80f504:	00800044 	movi	r2,1
  80f508:	e0bff015 	stw	r2,-64(fp)
  80f50c:	003f5f06 	br	80f28c <alt_log_private_printf+0x28c>
  80f510:	e0bff417 	ldw	r2,-48(fp)
  80f514:	117fffc4 	addi	r5,r2,-1
  80f518:	01000804 	movi	r4,32
  80f51c:	e1bffb17 	ldw	r6,-20(fp)
  80f520:	080ef9c0 	call	80ef9c <alt_log_repchar>
  80f524:	e0fffc17 	ldw	r3,-16(fp)
  80f528:	18800104 	addi	r2,r3,4
  80f52c:	e0bffc15 	stw	r2,-16(fp)
  80f530:	1805883a 	mov	r2,r3
  80f534:	11000017 	ldw	r4,0(r2)
  80f538:	e17ffb17 	ldw	r5,-20(fp)
  80f53c:	080ef500 	call	80ef50 <alt_log_txchar>
  80f540:	00002006 	br	80f5c4 <alt_log_private_printf+0x5c4>
  80f544:	e0fffc17 	ldw	r3,-16(fp)
  80f548:	18800104 	addi	r2,r3,4
  80f54c:	e0bffc15 	stw	r2,-16(fp)
  80f550:	1805883a 	mov	r2,r3
  80f554:	10800017 	ldw	r2,0(r2)
  80f558:	e0bfe915 	stw	r2,-92(fp)
  80f55c:	e43ff417 	ldw	r16,-48(fp)
  80f560:	e13fe917 	ldw	r4,-92(fp)
  80f564:	08015b80 	call	8015b8 <strlen>
  80f568:	8085c83a 	sub	r2,r16,r2
  80f56c:	100b883a 	mov	r5,r2
  80f570:	01000804 	movi	r4,32
  80f574:	e1bffb17 	ldw	r6,-20(fp)
  80f578:	080ef9c0 	call	80ef9c <alt_log_repchar>
  80f57c:	00000a06 	br	80f5a8 <alt_log_private_printf+0x5a8>
  80f580:	e0bfe917 	ldw	r2,-92(fp)
  80f584:	10800003 	ldbu	r2,0(r2)
  80f588:	11003fcc 	andi	r4,r2,255
  80f58c:	2100201c 	xori	r4,r4,128
  80f590:	213fe004 	addi	r4,r4,-128
  80f594:	e0bfe917 	ldw	r2,-92(fp)
  80f598:	10800044 	addi	r2,r2,1
  80f59c:	e0bfe915 	stw	r2,-92(fp)
  80f5a0:	e17ffb17 	ldw	r5,-20(fp)
  80f5a4:	080ef500 	call	80ef50 <alt_log_txchar>
  80f5a8:	e0bfe917 	ldw	r2,-92(fp)
  80f5ac:	10800003 	ldbu	r2,0(r2)
  80f5b0:	10803fcc 	andi	r2,r2,255
  80f5b4:	1080201c 	xori	r2,r2,128
  80f5b8:	10bfe004 	addi	r2,r2,-128
  80f5bc:	1004c03a 	cmpne	r2,r2,zero
  80f5c0:	103fef1e 	bne	r2,zero,80f580 <alt_log_private_printf+0x580>
  80f5c4:	e03ff715 	stw	zero,-36(fp)
  80f5c8:	e0bff917 	ldw	r2,-28(fp)
  80f5cc:	10800003 	ldbu	r2,0(r2)
  80f5d0:	e0bff805 	stb	r2,-32(fp)
  80f5d4:	e0bff807 	ldb	r2,-32(fp)
  80f5d8:	1004c03a 	cmpne	r2,r2,zero
  80f5dc:	1007883a 	mov	r3,r2
  80f5e0:	e0bff917 	ldw	r2,-28(fp)
  80f5e4:	10800044 	addi	r2,r2,1
  80f5e8:	e0bff915 	stw	r2,-28(fp)
  80f5ec:	18803fcc 	andi	r2,r3,255
  80f5f0:	1004c03a 	cmpne	r2,r2,zero
  80f5f4:	103e951e 	bne	r2,zero,80f04c <alt_log_private_printf+0x4c>
  80f5f8:	e037883a 	mov	sp,fp
  80f5fc:	dfc00217 	ldw	ra,8(sp)
  80f600:	df000117 	ldw	fp,4(sp)
  80f604:	dc000017 	ldw	r16,0(sp)
  80f608:	dec00304 	addi	sp,sp,12
  80f60c:	f800283a 	ret

0080f610 <alt_log_printf_proc>:
  80f610:	defff904 	addi	sp,sp,-28
  80f614:	dfc00315 	stw	ra,12(sp)
  80f618:	df000215 	stw	fp,8(sp)
  80f61c:	df000204 	addi	fp,sp,8
  80f620:	e1400215 	stw	r5,8(fp)
  80f624:	e1800315 	stw	r6,12(fp)
  80f628:	e1c00415 	stw	r7,16(fp)
  80f62c:	e13fff15 	stw	r4,-4(fp)
  80f630:	e0800204 	addi	r2,fp,8
  80f634:	e0bffe15 	stw	r2,-8(fp)
  80f638:	e1bffe17 	ldw	r6,-8(fp)
  80f63c:	e13fff17 	ldw	r4,-4(fp)
  80f640:	01404034 	movhi	r5,256
  80f644:	29440e04 	addi	r5,r5,4152
  80f648:	080f0000 	call	80f000 <alt_log_private_printf>
  80f64c:	0005883a 	mov	r2,zero
  80f650:	e037883a 	mov	sp,fp
  80f654:	dfc00117 	ldw	ra,4(sp)
  80f658:	df000017 	ldw	fp,0(sp)
  80f65c:	dec00504 	addi	sp,sp,20
  80f660:	f800283a 	ret

0080f664 <altera_avalon_jtag_uart_report_log>:
  80f664:	defffa04 	addi	sp,sp,-24
  80f668:	dfc00515 	stw	ra,20(sp)
  80f66c:	df000415 	stw	fp,16(sp)
  80f670:	df000404 	addi	fp,sp,16
  80f674:	e13ffe15 	stw	r4,-8(fp)
  80f678:	d0a70683 	ldbu	r2,-25574(gp)
  80f67c:	10803fcc 	andi	r2,r2,255
  80f680:	1005003a 	cmpeq	r2,r2,zero
  80f684:	1000131e 	bne	r2,zero,80f6d4 <altera_avalon_jtag_uart_report_log+0x70>
  80f688:	e0bffe17 	ldw	r2,-8(fp)
  80f68c:	e0bffd15 	stw	r2,-12(fp)
  80f690:	00802074 	movhi	r2,129
  80f694:	108bc104 	addi	r2,r2,12036
  80f698:	e0bffc15 	stw	r2,-16(fp)
  80f69c:	e0bffd17 	ldw	r2,-12(fp)
  80f6a0:	10800017 	ldw	r2,0(r2)
  80f6a4:	100b883a 	mov	r5,r2
  80f6a8:	e13ffd17 	ldw	r4,-12(fp)
  80f6ac:	e1bffc17 	ldw	r6,-16(fp)
  80f6b0:	080f6f00 	call	80f6f0 <alt_log_jtag_uart_print_control_reg>
  80f6b4:	00802074 	movhi	r2,129
  80f6b8:	1099e604 	addi	r2,r2,26520
  80f6bc:	10800017 	ldw	r2,0(r2)
  80f6c0:	1009883a 	mov	r4,r2
  80f6c4:	01400284 	movi	r5,10
  80f6c8:	080a7f80 	call	80a7f8 <__udivsi3>
  80f6cc:	e0bfff15 	stw	r2,-4(fp)
  80f6d0:	00000106 	br	80f6d8 <altera_avalon_jtag_uart_report_log+0x74>
  80f6d4:	e03fff15 	stw	zero,-4(fp)
  80f6d8:	e0bfff17 	ldw	r2,-4(fp)
  80f6dc:	e037883a 	mov	sp,fp
  80f6e0:	dfc00117 	ldw	ra,4(sp)
  80f6e4:	df000017 	ldw	fp,0(sp)
  80f6e8:	dec00204 	addi	sp,sp,8
  80f6ec:	f800283a 	ret

0080f6f0 <alt_log_jtag_uart_print_control_reg>:
  80f6f0:	deffef04 	addi	sp,sp,-68
  80f6f4:	dfc01015 	stw	ra,64(sp)
  80f6f8:	df000f15 	stw	fp,60(sp)
  80f6fc:	df000f04 	addi	fp,sp,60
  80f700:	e13ffd15 	stw	r4,-12(fp)
  80f704:	e17ffe15 	stw	r5,-8(fp)
  80f708:	e1bfff15 	stw	r6,-4(fp)
  80f70c:	e0bffe17 	ldw	r2,-8(fp)
  80f710:	10800104 	addi	r2,r2,4
  80f714:	10800037 	ldwio	r2,0(r2)
  80f718:	e0bffc15 	stw	r2,-16(fp)
  80f71c:	e0bffc17 	ldw	r2,-16(fp)
  80f720:	10bfffec 	andhi	r2,r2,65535
  80f724:	1004d43a 	srli	r2,r2,16
  80f728:	e0bffb15 	stw	r2,-20(fp)
  80f72c:	e0bffc17 	ldw	r2,-16(fp)
  80f730:	1080008c 	andi	r2,r2,2
  80f734:	1004d07a 	srli	r2,r2,1
  80f738:	e0bff715 	stw	r2,-36(fp)
  80f73c:	e0bffc17 	ldw	r2,-16(fp)
  80f740:	1080004c 	andi	r2,r2,1
  80f744:	e0bff615 	stw	r2,-40(fp)
  80f748:	e0bffc17 	ldw	r2,-16(fp)
  80f74c:	1080400c 	andi	r2,r2,256
  80f750:	1004d23a 	srli	r2,r2,8
  80f754:	e0bff815 	stw	r2,-32(fp)
  80f758:	e0bffc17 	ldw	r2,-16(fp)
  80f75c:	1080800c 	andi	r2,r2,512
  80f760:	1004d27a 	srli	r2,r2,9
  80f764:	e0bff915 	stw	r2,-28(fp)
  80f768:	e0bffc17 	ldw	r2,-16(fp)
  80f76c:	1081000c 	andi	r2,r2,1024
  80f770:	1004d2ba 	srli	r2,r2,10
  80f774:	e0bffa15 	stw	r2,-24(fp)
  80f778:	e0bffd17 	ldw	r2,-12(fp)
  80f77c:	10c00f17 	ldw	r3,60(r2)
  80f780:	e0bffd17 	ldw	r2,-12(fp)
  80f784:	10800e17 	ldw	r2,56(r2)
  80f788:	188dc83a 	sub	r6,r3,r2
  80f78c:	e0bffa17 	ldw	r2,-24(fp)
  80f790:	d8800015 	stw	r2,0(sp)
  80f794:	e0bff917 	ldw	r2,-28(fp)
  80f798:	d8800115 	stw	r2,4(sp)
  80f79c:	e0bff817 	ldw	r2,-32(fp)
  80f7a0:	d8800215 	stw	r2,8(sp)
  80f7a4:	e0bff717 	ldw	r2,-36(fp)
  80f7a8:	d8800315 	stw	r2,12(sp)
  80f7ac:	e0bff617 	ldw	r2,-40(fp)
  80f7b0:	d8800415 	stw	r2,16(sp)
  80f7b4:	01002074 	movhi	r4,129
  80f7b8:	210bc404 	addi	r4,r4,12048
  80f7bc:	e17fff17 	ldw	r5,-4(fp)
  80f7c0:	e1fffb17 	ldw	r7,-20(fp)
  80f7c4:	080f6100 	call	80f610 <alt_log_printf_proc>
  80f7c8:	e037883a 	mov	sp,fp
  80f7cc:	dfc00117 	ldw	ra,4(sp)
  80f7d0:	df000017 	ldw	fp,0(sp)
  80f7d4:	dec00204 	addi	sp,sp,8
  80f7d8:	f800283a 	ret

0080f7dc <alt_log_jtag_uart_startup_info>:
  80f7dc:	defffb04 	addi	sp,sp,-20
  80f7e0:	dfc00415 	stw	ra,16(sp)
  80f7e4:	df000315 	stw	fp,12(sp)
  80f7e8:	df000304 	addi	fp,sp,12
  80f7ec:	e13ffe15 	stw	r4,-8(fp)
  80f7f0:	e17fff15 	stw	r5,-4(fp)
  80f7f4:	00802074 	movhi	r2,129
  80f7f8:	108bd604 	addi	r2,r2,12120
  80f7fc:	e0bffd15 	stw	r2,-12(fp)
  80f800:	e13ffe17 	ldw	r4,-8(fp)
  80f804:	e17fff17 	ldw	r5,-4(fp)
  80f808:	e1bffd17 	ldw	r6,-12(fp)
  80f80c:	080f6f00 	call	80f6f0 <alt_log_jtag_uart_print_control_reg>
  80f810:	e037883a 	mov	sp,fp
  80f814:	dfc00117 	ldw	ra,4(sp)
  80f818:	df000017 	ldw	fp,0(sp)
  80f81c:	dec00204 	addi	sp,sp,8
  80f820:	f800283a 	ret

0080f824 <alt_log_jtag_uart_isr_proc>:
  80f824:	defffb04 	addi	sp,sp,-20
  80f828:	dfc00415 	stw	ra,16(sp)
  80f82c:	df000315 	stw	fp,12(sp)
  80f830:	df000304 	addi	fp,sp,12
  80f834:	e13ffe15 	stw	r4,-8(fp)
  80f838:	e17fff15 	stw	r5,-4(fp)
  80f83c:	d0a706c3 	ldbu	r2,-25573(gp)
  80f840:	10803fcc 	andi	r2,r2,255
  80f844:	1005003a 	cmpeq	r2,r2,zero
  80f848:	1000071e 	bne	r2,zero,80f868 <alt_log_jtag_uart_isr_proc+0x44>
  80f84c:	00802074 	movhi	r2,129
  80f850:	108bdb04 	addi	r2,r2,12140
  80f854:	e0bffd15 	stw	r2,-12(fp)
  80f858:	e13fff17 	ldw	r4,-4(fp)
  80f85c:	e17ffe17 	ldw	r5,-8(fp)
  80f860:	e1bffd17 	ldw	r6,-12(fp)
  80f864:	080f6f00 	call	80f6f0 <alt_log_jtag_uart_print_control_reg>
  80f868:	e037883a 	mov	sp,fp
  80f86c:	dfc00117 	ldw	ra,4(sp)
  80f870:	df000017 	ldw	fp,0(sp)
  80f874:	dec00204 	addi	sp,sp,8
  80f878:	f800283a 	ret

0080f87c <alt_log_write>:
  80f87c:	defff904 	addi	sp,sp,-28
  80f880:	dfc00615 	stw	ra,24(sp)
  80f884:	df000515 	stw	fp,20(sp)
  80f888:	df000504 	addi	fp,sp,20
  80f88c:	e13ffd15 	stw	r4,-12(fp)
  80f890:	e17ffe15 	stw	r5,-8(fp)
  80f894:	d0a70603 	ldbu	r2,-25576(gp)
  80f898:	10803fcc 	andi	r2,r2,255
  80f89c:	1005003a 	cmpeq	r2,r2,zero
  80f8a0:	1000411e 	bne	r2,zero,80f9a8 <alt_log_write+0x12c>
  80f8a4:	e0bffe17 	ldw	r2,-8(fp)
  80f8a8:	e0bfff15 	stw	r2,-4(fp)
  80f8ac:	e0ffff17 	ldw	r3,-4(fp)
  80f8b0:	18800430 	cmpltui	r2,r3,16
  80f8b4:	1000021e 	bne	r2,zero,80f8c0 <alt_log_write+0x44>
  80f8b8:	008003c4 	movi	r2,15
  80f8bc:	e0bfff15 	stw	r2,-4(fp)
  80f8c0:	e0ffff17 	ldw	r3,-4(fp)
  80f8c4:	e0fffb15 	stw	r3,-20(fp)
  80f8c8:	e0bffb17 	ldw	r2,-20(fp)
  80f8cc:	10800090 	cmplti	r2,r2,2
  80f8d0:	1000351e 	bne	r2,zero,80f9a8 <alt_log_write+0x12c>
  80f8d4:	e17ffd17 	ldw	r5,-12(fp)
  80f8d8:	e1bffb17 	ldw	r6,-20(fp)
  80f8dc:	01002074 	movhi	r4,129
  80f8e0:	211a5204 	addi	r4,r4,26952
  80f8e4:	08123900 	call	812390 <strncpy>
  80f8e8:	e0bffb17 	ldw	r2,-20(fp)
  80f8ec:	10ffffc4 	addi	r3,r2,-1
  80f8f0:	00802074 	movhi	r2,129
  80f8f4:	109a5204 	addi	r2,r2,26952
  80f8f8:	10c7883a 	add	r3,r2,r3
  80f8fc:	00800284 	movi	r2,10
  80f900:	18800005 	stb	r2,0(r3)
  80f904:	e0fffb17 	ldw	r3,-20(fp)
  80f908:	00802074 	movhi	r2,129
  80f90c:	109a5204 	addi	r2,r2,26952
  80f910:	10c7883a 	add	r3,r2,r3
  80f914:	00800344 	movi	r2,13
  80f918:	18800005 	stb	r2,0(r3)
  80f91c:	e0bffb17 	ldw	r2,-20(fp)
  80f920:	10c00044 	addi	r3,r2,1
  80f924:	00802074 	movhi	r2,129
  80f928:	109a5204 	addi	r2,r2,26952
  80f92c:	10c5883a 	add	r2,r2,r3
  80f930:	10000005 	stb	zero,0(r2)
  80f934:	e03ffc15 	stw	zero,-16(fp)
  80f938:	00001306 	br	80f988 <alt_log_write+0x10c>
  80f93c:	e0fffc17 	ldw	r3,-16(fp)
  80f940:	00802074 	movhi	r2,129
  80f944:	109a5204 	addi	r2,r2,26952
  80f948:	10c5883a 	add	r2,r2,r3
  80f94c:	10800003 	ldbu	r2,0(r2)
  80f950:	10803fcc 	andi	r2,r2,255
  80f954:	1080201c 	xori	r2,r2,128
  80f958:	10bfe004 	addi	r2,r2,-128
  80f95c:	10800118 	cmpnei	r2,r2,4
  80f960:	1000061e 	bne	r2,zero,80f97c <alt_log_write+0x100>
  80f964:	e0fffc17 	ldw	r3,-16(fp)
  80f968:	00802074 	movhi	r2,129
  80f96c:	109a5204 	addi	r2,r2,26952
  80f970:	10c7883a 	add	r3,r2,r3
  80f974:	00801104 	movi	r2,68
  80f978:	18800005 	stb	r2,0(r3)
  80f97c:	e0bffc17 	ldw	r2,-16(fp)
  80f980:	10800044 	addi	r2,r2,1
  80f984:	e0bffc15 	stw	r2,-16(fp)
  80f988:	e0fffc17 	ldw	r3,-16(fp)
  80f98c:	e0bffb17 	ldw	r2,-20(fp)
  80f990:	18bfea16 	blt	r3,r2,80f93c <alt_log_write+0xc0>
  80f994:	01002074 	movhi	r4,129
  80f998:	210bde04 	addi	r4,r4,12152
  80f99c:	01402074 	movhi	r5,129
  80f9a0:	295a5204 	addi	r5,r5,26952
  80f9a4:	080f6100 	call	80f610 <alt_log_printf_proc>
  80f9a8:	e037883a 	mov	sp,fp
  80f9ac:	dfc00117 	ldw	ra,4(sp)
  80f9b0:	df000017 	ldw	fp,0(sp)
  80f9b4:	dec00204 	addi	sp,sp,8
  80f9b8:	f800283a 	ret

0080f9bc <alt_log_system_clock>:
  80f9bc:	defffe04 	addi	sp,sp,-8
  80f9c0:	dfc00115 	stw	ra,4(sp)
  80f9c4:	df000015 	stw	fp,0(sp)
  80f9c8:	d839883a 	mov	fp,sp
  80f9cc:	d0a70643 	ldbu	r2,-25575(gp)
  80f9d0:	10803fcc 	andi	r2,r2,255
  80f9d4:	1005003a 	cmpeq	r2,r2,zero
  80f9d8:	1000111e 	bne	r2,zero,80fa20 <alt_log_system_clock+0x64>
  80f9dc:	d0a70917 	ldw	r2,-25564(gp)
  80f9e0:	10800044 	addi	r2,r2,1
  80f9e4:	d0a70915 	stw	r2,-25564(gp)
  80f9e8:	d0a70917 	ldw	r2,-25564(gp)
  80f9ec:	1007883a 	mov	r3,r2
  80f9f0:	00802074 	movhi	r2,129
  80f9f4:	1099e604 	addi	r2,r2,26520
  80f9f8:	10800017 	ldw	r2,0(r2)
  80f9fc:	10c0082e 	bgeu	r2,r3,80fa20 <alt_log_system_clock+0x64>
  80fa00:	d0270915 	stw	zero,-25564(gp)
  80fa04:	d0a70817 	ldw	r2,-25568(gp)
  80fa08:	100b883a 	mov	r5,r2
  80fa0c:	10800044 	addi	r2,r2,1
  80fa10:	d0a70815 	stw	r2,-25568(gp)
  80fa14:	01002074 	movhi	r4,129
  80fa18:	210be204 	addi	r4,r4,12168
  80fa1c:	080f6100 	call	80f610 <alt_log_printf_proc>
  80fa20:	e037883a 	mov	sp,fp
  80fa24:	dfc00117 	ldw	ra,4(sp)
  80fa28:	df000017 	ldw	fp,0(sp)
  80fa2c:	dec00204 	addi	sp,sp,8
  80fa30:	f800283a 	ret

0080fa34 <lseek>:
  80fa34:	defff804 	addi	sp,sp,-32
  80fa38:	dfc00715 	stw	ra,28(sp)
  80fa3c:	df000615 	stw	fp,24(sp)
  80fa40:	df000604 	addi	fp,sp,24
  80fa44:	e13ffc15 	stw	r4,-16(fp)
  80fa48:	e17ffd15 	stw	r5,-12(fp)
  80fa4c:	e1bffe15 	stw	r6,-8(fp)
  80fa50:	e03ffa15 	stw	zero,-24(fp)
  80fa54:	e0bffc17 	ldw	r2,-16(fp)
  80fa58:	1004803a 	cmplt	r2,r2,zero
  80fa5c:	1000091e 	bne	r2,zero,80fa84 <lseek+0x50>
  80fa60:	e13ffc17 	ldw	r4,-16(fp)
  80fa64:	01400304 	movi	r5,12
  80fa68:	08014540 	call	801454 <__mulsi3>
  80fa6c:	1007883a 	mov	r3,r2
  80fa70:	00802074 	movhi	r2,129
  80fa74:	108e3a04 	addi	r2,r2,14568
  80fa78:	1887883a 	add	r3,r3,r2
  80fa7c:	e0ffff15 	stw	r3,-4(fp)
  80fa80:	00000106 	br	80fa88 <lseek+0x54>
  80fa84:	e03fff15 	stw	zero,-4(fp)
  80fa88:	e0bfff17 	ldw	r2,-4(fp)
  80fa8c:	e0bffb15 	stw	r2,-20(fp)
  80fa90:	e0bffb17 	ldw	r2,-20(fp)
  80fa94:	1005003a 	cmpeq	r2,r2,zero
  80fa98:	1000111e 	bne	r2,zero,80fae0 <lseek+0xac>
  80fa9c:	e0bffb17 	ldw	r2,-20(fp)
  80faa0:	10800017 	ldw	r2,0(r2)
  80faa4:	10800717 	ldw	r2,28(r2)
  80faa8:	1005003a 	cmpeq	r2,r2,zero
  80faac:	1000091e 	bne	r2,zero,80fad4 <lseek+0xa0>
  80fab0:	e0bffb17 	ldw	r2,-20(fp)
  80fab4:	10800017 	ldw	r2,0(r2)
  80fab8:	10800717 	ldw	r2,28(r2)
  80fabc:	e13ffb17 	ldw	r4,-20(fp)
  80fac0:	e17ffd17 	ldw	r5,-12(fp)
  80fac4:	e1bffe17 	ldw	r6,-8(fp)
  80fac8:	103ee83a 	callr	r2
  80facc:	e0bffa15 	stw	r2,-24(fp)
  80fad0:	00000506 	br	80fae8 <lseek+0xb4>
  80fad4:	00bfde84 	movi	r2,-134
  80fad8:	e0bffa15 	stw	r2,-24(fp)
  80fadc:	00000206 	br	80fae8 <lseek+0xb4>
  80fae0:	00bfebc4 	movi	r2,-81
  80fae4:	e0bffa15 	stw	r2,-24(fp)
  80fae8:	e0bffa17 	ldw	r2,-24(fp)
  80faec:	1004403a 	cmpge	r2,r2,zero
  80faf0:	1000071e 	bne	r2,zero,80fb10 <lseek+0xdc>
  80faf4:	080fb280 	call	80fb28 <alt_get_errno>
  80faf8:	1007883a 	mov	r3,r2
  80fafc:	e0bffa17 	ldw	r2,-24(fp)
  80fb00:	0085c83a 	sub	r2,zero,r2
  80fb04:	18800015 	stw	r2,0(r3)
  80fb08:	00bfffc4 	movi	r2,-1
  80fb0c:	e0bffa15 	stw	r2,-24(fp)
  80fb10:	e0bffa17 	ldw	r2,-24(fp)
  80fb14:	e037883a 	mov	sp,fp
  80fb18:	dfc00117 	ldw	ra,4(sp)
  80fb1c:	df000017 	ldw	fp,0(sp)
  80fb20:	dec00204 	addi	sp,sp,8
  80fb24:	f800283a 	ret

0080fb28 <alt_get_errno>:
  80fb28:	defffd04 	addi	sp,sp,-12
  80fb2c:	dfc00215 	stw	ra,8(sp)
  80fb30:	df000115 	stw	fp,4(sp)
  80fb34:	df000104 	addi	fp,sp,4
  80fb38:	00802074 	movhi	r2,129
  80fb3c:	1092e904 	addi	r2,r2,19364
  80fb40:	10800017 	ldw	r2,0(r2)
  80fb44:	1005003a 	cmpeq	r2,r2,zero
  80fb48:	1000061e 	bne	r2,zero,80fb64 <alt_get_errno+0x3c>
  80fb4c:	00802074 	movhi	r2,129
  80fb50:	1092e904 	addi	r2,r2,19364
  80fb54:	10800017 	ldw	r2,0(r2)
  80fb58:	103ee83a 	callr	r2
  80fb5c:	e0bfff15 	stw	r2,-4(fp)
  80fb60:	00000306 	br	80fb70 <alt_get_errno+0x48>
  80fb64:	00802074 	movhi	r2,129
  80fb68:	1099ca04 	addi	r2,r2,26408
  80fb6c:	e0bfff15 	stw	r2,-4(fp)
  80fb70:	e0bfff17 	ldw	r2,-4(fp)
  80fb74:	e037883a 	mov	sp,fp
  80fb78:	dfc00117 	ldw	ra,4(sp)
  80fb7c:	df000017 	ldw	fp,0(sp)
  80fb80:	dec00204 	addi	sp,sp,8
  80fb84:	f800283a 	ret

0080fb88 <alt_file_locked>:
  80fb88:	defffa04 	addi	sp,sp,-24
  80fb8c:	dfc00515 	stw	ra,20(sp)
  80fb90:	df000415 	stw	fp,16(sp)
  80fb94:	dc000315 	stw	r16,12(sp)
  80fb98:	df000304 	addi	fp,sp,12
  80fb9c:	e13ffe15 	stw	r4,-8(fp)
  80fba0:	e0bffe17 	ldw	r2,-8(fp)
  80fba4:	10800217 	ldw	r2,8(r2)
  80fba8:	10d00034 	orhi	r3,r2,16384
  80fbac:	e0bffe17 	ldw	r2,-8(fp)
  80fbb0:	10c00215 	stw	r3,8(r2)
  80fbb4:	e03ffd15 	stw	zero,-12(fp)
  80fbb8:	00002306 	br	80fc48 <alt_file_locked+0xc0>
  80fbbc:	e13ffd17 	ldw	r4,-12(fp)
  80fbc0:	04002074 	movhi	r16,129
  80fbc4:	840e3a04 	addi	r16,r16,14568
  80fbc8:	01400304 	movi	r5,12
  80fbcc:	08014540 	call	801454 <__mulsi3>
  80fbd0:	1405883a 	add	r2,r2,r16
  80fbd4:	10c00017 	ldw	r3,0(r2)
  80fbd8:	e0bffe17 	ldw	r2,-8(fp)
  80fbdc:	10800017 	ldw	r2,0(r2)
  80fbe0:	1880161e 	bne	r3,r2,80fc3c <alt_file_locked+0xb4>
  80fbe4:	e13ffd17 	ldw	r4,-12(fp)
  80fbe8:	04002074 	movhi	r16,129
  80fbec:	840e3a04 	addi	r16,r16,14568
  80fbf0:	01400304 	movi	r5,12
  80fbf4:	08014540 	call	801454 <__mulsi3>
  80fbf8:	1405883a 	add	r2,r2,r16
  80fbfc:	10800204 	addi	r2,r2,8
  80fc00:	10800017 	ldw	r2,0(r2)
  80fc04:	1004403a 	cmpge	r2,r2,zero
  80fc08:	10000c1e 	bne	r2,zero,80fc3c <alt_file_locked+0xb4>
  80fc0c:	e13ffd17 	ldw	r4,-12(fp)
  80fc10:	01400304 	movi	r5,12
  80fc14:	08014540 	call	801454 <__mulsi3>
  80fc18:	1007883a 	mov	r3,r2
  80fc1c:	00802074 	movhi	r2,129
  80fc20:	108e3a04 	addi	r2,r2,14568
  80fc24:	1887883a 	add	r3,r3,r2
  80fc28:	e0bffe17 	ldw	r2,-8(fp)
  80fc2c:	18800326 	beq	r3,r2,80fc3c <alt_file_locked+0xb4>
  80fc30:	00bffcc4 	movi	r2,-13
  80fc34:	e0bfff15 	stw	r2,-4(fp)
  80fc38:	00000a06 	br	80fc64 <alt_file_locked+0xdc>
  80fc3c:	e0bffd17 	ldw	r2,-12(fp)
  80fc40:	10800044 	addi	r2,r2,1
  80fc44:	e0bffd15 	stw	r2,-12(fp)
  80fc48:	00802074 	movhi	r2,129
  80fc4c:	1092e804 	addi	r2,r2,19360
  80fc50:	10800017 	ldw	r2,0(r2)
  80fc54:	1007883a 	mov	r3,r2
  80fc58:	e0bffd17 	ldw	r2,-12(fp)
  80fc5c:	18bfd72e 	bgeu	r3,r2,80fbbc <alt_file_locked+0x34>
  80fc60:	e03fff15 	stw	zero,-4(fp)
  80fc64:	e0bfff17 	ldw	r2,-4(fp)
  80fc68:	e037883a 	mov	sp,fp
  80fc6c:	dfc00217 	ldw	ra,8(sp)
  80fc70:	df000117 	ldw	fp,4(sp)
  80fc74:	dc000017 	ldw	r16,0(sp)
  80fc78:	dec00304 	addi	sp,sp,12
  80fc7c:	f800283a 	ret

0080fc80 <open>:
  80fc80:	defff404 	addi	sp,sp,-48
  80fc84:	dfc00b15 	stw	ra,44(sp)
  80fc88:	df000a15 	stw	fp,40(sp)
  80fc8c:	df000a04 	addi	fp,sp,40
  80fc90:	e13ffb15 	stw	r4,-20(fp)
  80fc94:	e17ffc15 	stw	r5,-16(fp)
  80fc98:	e1bffd15 	stw	r6,-12(fp)
  80fc9c:	00bfffc4 	movi	r2,-1
  80fca0:	e0bff815 	stw	r2,-32(fp)
  80fca4:	00bffb44 	movi	r2,-19
  80fca8:	e0bff715 	stw	r2,-36(fp)
  80fcac:	e03ff615 	stw	zero,-40(fp)
  80fcb0:	e13ffb17 	ldw	r4,-20(fp)
  80fcb4:	01402074 	movhi	r5,129
  80fcb8:	2952e604 	addi	r5,r5,19352
  80fcbc:	0811a340 	call	811a34 <alt_find_dev>
  80fcc0:	e0bffa15 	stw	r2,-24(fp)
  80fcc4:	e0bffa17 	ldw	r2,-24(fp)
  80fcc8:	1004c03a 	cmpne	r2,r2,zero
  80fccc:	1000051e 	bne	r2,zero,80fce4 <open+0x64>
  80fcd0:	e13ffb17 	ldw	r4,-20(fp)
  80fcd4:	0811ac80 	call	811ac8 <alt_find_file>
  80fcd8:	e0bffa15 	stw	r2,-24(fp)
  80fcdc:	00800044 	movi	r2,1
  80fce0:	e0bff615 	stw	r2,-40(fp)
  80fce4:	e0bffa17 	ldw	r2,-24(fp)
  80fce8:	1005003a 	cmpeq	r2,r2,zero
  80fcec:	1000311e 	bne	r2,zero,80fdb4 <open+0x134>
  80fcf0:	e13ffa17 	ldw	r4,-24(fp)
  80fcf4:	0811be80 	call	811be8 <alt_get_fd>
  80fcf8:	e0bff815 	stw	r2,-32(fp)
  80fcfc:	e0bff817 	ldw	r2,-32(fp)
  80fd00:	1004403a 	cmpge	r2,r2,zero
  80fd04:	1000031e 	bne	r2,zero,80fd14 <open+0x94>
  80fd08:	e0bff817 	ldw	r2,-32(fp)
  80fd0c:	e0bff715 	stw	r2,-36(fp)
  80fd10:	00002a06 	br	80fdbc <open+0x13c>
  80fd14:	e13ff817 	ldw	r4,-32(fp)
  80fd18:	01400304 	movi	r5,12
  80fd1c:	08014540 	call	801454 <__mulsi3>
  80fd20:	1007883a 	mov	r3,r2
  80fd24:	00802074 	movhi	r2,129
  80fd28:	108e3a04 	addi	r2,r2,14568
  80fd2c:	1885883a 	add	r2,r3,r2
  80fd30:	e0bff915 	stw	r2,-28(fp)
  80fd34:	e0fffc17 	ldw	r3,-16(fp)
  80fd38:	00900034 	movhi	r2,16384
  80fd3c:	10bfffc4 	addi	r2,r2,-1
  80fd40:	1886703a 	and	r3,r3,r2
  80fd44:	e0bff917 	ldw	r2,-28(fp)
  80fd48:	10c00215 	stw	r3,8(r2)
  80fd4c:	e0bff617 	ldw	r2,-40(fp)
  80fd50:	1004c03a 	cmpne	r2,r2,zero
  80fd54:	1000061e 	bne	r2,zero,80fd70 <open+0xf0>
  80fd58:	e13ff917 	ldw	r4,-28(fp)
  80fd5c:	080fb880 	call	80fb88 <alt_file_locked>
  80fd60:	e0bff715 	stw	r2,-36(fp)
  80fd64:	e0bff717 	ldw	r2,-36(fp)
  80fd68:	1004803a 	cmplt	r2,r2,zero
  80fd6c:	1000131e 	bne	r2,zero,80fdbc <open+0x13c>
  80fd70:	e0bffa17 	ldw	r2,-24(fp)
  80fd74:	10800317 	ldw	r2,12(r2)
  80fd78:	1005003a 	cmpeq	r2,r2,zero
  80fd7c:	1000091e 	bne	r2,zero,80fda4 <open+0x124>
  80fd80:	e0bffa17 	ldw	r2,-24(fp)
  80fd84:	10800317 	ldw	r2,12(r2)
  80fd88:	e13ff917 	ldw	r4,-28(fp)
  80fd8c:	e17ffb17 	ldw	r5,-20(fp)
  80fd90:	e1bffc17 	ldw	r6,-16(fp)
  80fd94:	e1fffd17 	ldw	r7,-12(fp)
  80fd98:	103ee83a 	callr	r2
  80fd9c:	e0bfff15 	stw	r2,-4(fp)
  80fda0:	00000106 	br	80fda8 <open+0x128>
  80fda4:	e03fff15 	stw	zero,-4(fp)
  80fda8:	e0bfff17 	ldw	r2,-4(fp)
  80fdac:	e0bff715 	stw	r2,-36(fp)
  80fdb0:	00000206 	br	80fdbc <open+0x13c>
  80fdb4:	00bffb44 	movi	r2,-19
  80fdb8:	e0bff715 	stw	r2,-36(fp)
  80fdbc:	e0bff717 	ldw	r2,-36(fp)
  80fdc0:	1004403a 	cmpge	r2,r2,zero
  80fdc4:	1000091e 	bne	r2,zero,80fdec <open+0x16c>
  80fdc8:	e13ff817 	ldw	r4,-32(fp)
  80fdcc:	080fff00 	call	80fff0 <alt_release_fd>
  80fdd0:	080fe0c0 	call	80fe0c <alt_get_errno>
  80fdd4:	e0fff717 	ldw	r3,-36(fp)
  80fdd8:	00c7c83a 	sub	r3,zero,r3
  80fddc:	10c00015 	stw	r3,0(r2)
  80fde0:	00bfffc4 	movi	r2,-1
  80fde4:	e0bffe15 	stw	r2,-8(fp)
  80fde8:	00000206 	br	80fdf4 <open+0x174>
  80fdec:	e0bff817 	ldw	r2,-32(fp)
  80fdf0:	e0bffe15 	stw	r2,-8(fp)
  80fdf4:	e0bffe17 	ldw	r2,-8(fp)
  80fdf8:	e037883a 	mov	sp,fp
  80fdfc:	dfc00117 	ldw	ra,4(sp)
  80fe00:	df000017 	ldw	fp,0(sp)
  80fe04:	dec00204 	addi	sp,sp,8
  80fe08:	f800283a 	ret

0080fe0c <alt_get_errno>:
  80fe0c:	defffd04 	addi	sp,sp,-12
  80fe10:	dfc00215 	stw	ra,8(sp)
  80fe14:	df000115 	stw	fp,4(sp)
  80fe18:	df000104 	addi	fp,sp,4
  80fe1c:	00802074 	movhi	r2,129
  80fe20:	1092e904 	addi	r2,r2,19364
  80fe24:	10800017 	ldw	r2,0(r2)
  80fe28:	1005003a 	cmpeq	r2,r2,zero
  80fe2c:	1000061e 	bne	r2,zero,80fe48 <alt_get_errno+0x3c>
  80fe30:	00802074 	movhi	r2,129
  80fe34:	1092e904 	addi	r2,r2,19364
  80fe38:	10800017 	ldw	r2,0(r2)
  80fe3c:	103ee83a 	callr	r2
  80fe40:	e0bfff15 	stw	r2,-4(fp)
  80fe44:	00000306 	br	80fe54 <alt_get_errno+0x48>
  80fe48:	00802074 	movhi	r2,129
  80fe4c:	1099ca04 	addi	r2,r2,26408
  80fe50:	e0bfff15 	stw	r2,-4(fp)
  80fe54:	e0bfff17 	ldw	r2,-4(fp)
  80fe58:	e037883a 	mov	sp,fp
  80fe5c:	dfc00117 	ldw	ra,4(sp)
  80fe60:	df000017 	ldw	fp,0(sp)
  80fe64:	dec00204 	addi	sp,sp,8
  80fe68:	f800283a 	ret

0080fe6c <read>:
  80fe6c:	defff704 	addi	sp,sp,-36
  80fe70:	dfc00815 	stw	ra,32(sp)
  80fe74:	df000715 	stw	fp,28(sp)
  80fe78:	df000704 	addi	fp,sp,28
  80fe7c:	e13ffb15 	stw	r4,-20(fp)
  80fe80:	e17ffc15 	stw	r5,-16(fp)
  80fe84:	e1bffd15 	stw	r6,-12(fp)
  80fe88:	e0bffb17 	ldw	r2,-20(fp)
  80fe8c:	1004803a 	cmplt	r2,r2,zero
  80fe90:	1000091e 	bne	r2,zero,80feb8 <read+0x4c>
  80fe94:	e13ffb17 	ldw	r4,-20(fp)
  80fe98:	01400304 	movi	r5,12
  80fe9c:	08014540 	call	801454 <__mulsi3>
  80fea0:	1007883a 	mov	r3,r2
  80fea4:	00802074 	movhi	r2,129
  80fea8:	108e3a04 	addi	r2,r2,14568
  80feac:	1887883a 	add	r3,r3,r2
  80feb0:	e0ffff15 	stw	r3,-4(fp)
  80feb4:	00000106 	br	80febc <read+0x50>
  80feb8:	e03fff15 	stw	zero,-4(fp)
  80febc:	e0bfff17 	ldw	r2,-4(fp)
  80fec0:	e0bffa15 	stw	r2,-24(fp)
  80fec4:	e0bffa17 	ldw	r2,-24(fp)
  80fec8:	1005003a 	cmpeq	r2,r2,zero
  80fecc:	1000241e 	bne	r2,zero,80ff60 <read+0xf4>
  80fed0:	e0bffa17 	ldw	r2,-24(fp)
  80fed4:	10800217 	ldw	r2,8(r2)
  80fed8:	108000cc 	andi	r2,r2,3
  80fedc:	10800060 	cmpeqi	r2,r2,1
  80fee0:	10001a1e 	bne	r2,zero,80ff4c <read+0xe0>
  80fee4:	e0bffa17 	ldw	r2,-24(fp)
  80fee8:	10800017 	ldw	r2,0(r2)
  80feec:	10800517 	ldw	r2,20(r2)
  80fef0:	1005003a 	cmpeq	r2,r2,zero
  80fef4:	1000151e 	bne	r2,zero,80ff4c <read+0xe0>
  80fef8:	e0bffa17 	ldw	r2,-24(fp)
  80fefc:	10800017 	ldw	r2,0(r2)
  80ff00:	10800517 	ldw	r2,20(r2)
  80ff04:	e17ffc17 	ldw	r5,-16(fp)
  80ff08:	e1bffd17 	ldw	r6,-12(fp)
  80ff0c:	e13ffa17 	ldw	r4,-24(fp)
  80ff10:	103ee83a 	callr	r2
  80ff14:	e0bff915 	stw	r2,-28(fp)
  80ff18:	e0bff917 	ldw	r2,-28(fp)
  80ff1c:	1004403a 	cmpge	r2,r2,zero
  80ff20:	1000071e 	bne	r2,zero,80ff40 <read+0xd4>
  80ff24:	080ff900 	call	80ff90 <alt_get_errno>
  80ff28:	e0fff917 	ldw	r3,-28(fp)
  80ff2c:	00c7c83a 	sub	r3,zero,r3
  80ff30:	10c00015 	stw	r3,0(r2)
  80ff34:	00bfffc4 	movi	r2,-1
  80ff38:	e0bffe15 	stw	r2,-8(fp)
  80ff3c:	00000e06 	br	80ff78 <read+0x10c>
  80ff40:	e0bff917 	ldw	r2,-28(fp)
  80ff44:	e0bffe15 	stw	r2,-8(fp)
  80ff48:	00000b06 	br	80ff78 <read+0x10c>
  80ff4c:	080ff900 	call	80ff90 <alt_get_errno>
  80ff50:	1007883a 	mov	r3,r2
  80ff54:	00800344 	movi	r2,13
  80ff58:	18800015 	stw	r2,0(r3)
  80ff5c:	00000406 	br	80ff70 <read+0x104>
  80ff60:	080ff900 	call	80ff90 <alt_get_errno>
  80ff64:	1007883a 	mov	r3,r2
  80ff68:	00801444 	movi	r2,81
  80ff6c:	18800015 	stw	r2,0(r3)
  80ff70:	00bfffc4 	movi	r2,-1
  80ff74:	e0bffe15 	stw	r2,-8(fp)
  80ff78:	e0bffe17 	ldw	r2,-8(fp)
  80ff7c:	e037883a 	mov	sp,fp
  80ff80:	dfc00117 	ldw	ra,4(sp)
  80ff84:	df000017 	ldw	fp,0(sp)
  80ff88:	dec00204 	addi	sp,sp,8
  80ff8c:	f800283a 	ret

0080ff90 <alt_get_errno>:
  80ff90:	defffd04 	addi	sp,sp,-12
  80ff94:	dfc00215 	stw	ra,8(sp)
  80ff98:	df000115 	stw	fp,4(sp)
  80ff9c:	df000104 	addi	fp,sp,4
  80ffa0:	00802074 	movhi	r2,129
  80ffa4:	1092e904 	addi	r2,r2,19364
  80ffa8:	10800017 	ldw	r2,0(r2)
  80ffac:	1005003a 	cmpeq	r2,r2,zero
  80ffb0:	1000061e 	bne	r2,zero,80ffcc <alt_get_errno+0x3c>
  80ffb4:	00802074 	movhi	r2,129
  80ffb8:	1092e904 	addi	r2,r2,19364
  80ffbc:	10800017 	ldw	r2,0(r2)
  80ffc0:	103ee83a 	callr	r2
  80ffc4:	e0bfff15 	stw	r2,-4(fp)
  80ffc8:	00000306 	br	80ffd8 <alt_get_errno+0x48>
  80ffcc:	00802074 	movhi	r2,129
  80ffd0:	1099ca04 	addi	r2,r2,26408
  80ffd4:	e0bfff15 	stw	r2,-4(fp)
  80ffd8:	e0bfff17 	ldw	r2,-4(fp)
  80ffdc:	e037883a 	mov	sp,fp
  80ffe0:	dfc00117 	ldw	ra,4(sp)
  80ffe4:	df000017 	ldw	fp,0(sp)
  80ffe8:	dec00204 	addi	sp,sp,8
  80ffec:	f800283a 	ret

0080fff0 <alt_release_fd>:
  80fff0:	defffc04 	addi	sp,sp,-16
  80fff4:	dfc00315 	stw	ra,12(sp)
  80fff8:	df000215 	stw	fp,8(sp)
  80fffc:	dc000115 	stw	r16,4(sp)
  810000:	df000104 	addi	fp,sp,4
  810004:	e13fff15 	stw	r4,-4(fp)
  810008:	e0bfff17 	ldw	r2,-4(fp)
  81000c:	108000d0 	cmplti	r2,r2,3
  810010:	10000f1e 	bne	r2,zero,810050 <alt_release_fd+0x60>
  810014:	e13fff17 	ldw	r4,-4(fp)
  810018:	04002074 	movhi	r16,129
  81001c:	840e3a04 	addi	r16,r16,14568
  810020:	01400304 	movi	r5,12
  810024:	08014540 	call	801454 <__mulsi3>
  810028:	1405883a 	add	r2,r2,r16
  81002c:	10800204 	addi	r2,r2,8
  810030:	10000015 	stw	zero,0(r2)
  810034:	e13fff17 	ldw	r4,-4(fp)
  810038:	04002074 	movhi	r16,129
  81003c:	840e3a04 	addi	r16,r16,14568
  810040:	01400304 	movi	r5,12
  810044:	08014540 	call	801454 <__mulsi3>
  810048:	1405883a 	add	r2,r2,r16
  81004c:	10000015 	stw	zero,0(r2)
  810050:	e037883a 	mov	sp,fp
  810054:	dfc00217 	ldw	ra,8(sp)
  810058:	df000117 	ldw	fp,4(sp)
  81005c:	dc000017 	ldw	r16,0(sp)
  810060:	dec00304 	addi	sp,sp,12
  810064:	f800283a 	ret

00810068 <sbrk>:
  810068:	defff804 	addi	sp,sp,-32
  81006c:	df000715 	stw	fp,28(sp)
  810070:	df000704 	addi	fp,sp,28
  810074:	e13ffe15 	stw	r4,-8(fp)
  810078:	0005303a 	rdctl	r2,status
  81007c:	e0bffb15 	stw	r2,-20(fp)
  810080:	e0fffb17 	ldw	r3,-20(fp)
  810084:	00bfff84 	movi	r2,-2
  810088:	1884703a 	and	r2,r3,r2
  81008c:	1001703a 	wrctl	status,r2
  810090:	e0bffb17 	ldw	r2,-20(fp)
  810094:	e0bffd15 	stw	r2,-12(fp)
  810098:	d0a00e17 	ldw	r2,-32712(gp)
  81009c:	10c000c4 	addi	r3,r2,3
  8100a0:	00bfff04 	movi	r2,-4
  8100a4:	1884703a 	and	r2,r3,r2
  8100a8:	d0a00e15 	stw	r2,-32712(gp)
  8100ac:	d0e00e17 	ldw	r3,-32712(gp)
  8100b0:	e0bffe17 	ldw	r2,-8(fp)
  8100b4:	1887883a 	add	r3,r3,r2
  8100b8:	00804034 	movhi	r2,256
  8100bc:	10800004 	addi	r2,r2,0
  8100c0:	10c0072e 	bgeu	r2,r3,8100e0 <sbrk+0x78>
  8100c4:	e0bffd17 	ldw	r2,-12(fp)
  8100c8:	e0bffa15 	stw	r2,-24(fp)
  8100cc:	e0bffa17 	ldw	r2,-24(fp)
  8100d0:	1001703a 	wrctl	status,r2
  8100d4:	00bfffc4 	movi	r2,-1
  8100d8:	e0bfff15 	stw	r2,-4(fp)
  8100dc:	00000c06 	br	810110 <sbrk+0xa8>
  8100e0:	d0a00e17 	ldw	r2,-32712(gp)
  8100e4:	e0bffc15 	stw	r2,-16(fp)
  8100e8:	d0e00e17 	ldw	r3,-32712(gp)
  8100ec:	e0bffe17 	ldw	r2,-8(fp)
  8100f0:	1885883a 	add	r2,r3,r2
  8100f4:	d0a00e15 	stw	r2,-32712(gp)
  8100f8:	e0bffd17 	ldw	r2,-12(fp)
  8100fc:	e0bff915 	stw	r2,-28(fp)
  810100:	e0bff917 	ldw	r2,-28(fp)
  810104:	1001703a 	wrctl	status,r2
  810108:	e0bffc17 	ldw	r2,-16(fp)
  81010c:	e0bfff15 	stw	r2,-4(fp)
  810110:	e0bfff17 	ldw	r2,-4(fp)
  810114:	e037883a 	mov	sp,fp
  810118:	df000017 	ldw	fp,0(sp)
  81011c:	dec00104 	addi	sp,sp,4
  810120:	f800283a 	ret

00810124 <alt_alarm_stop>:
  810124:	defffa04 	addi	sp,sp,-24
  810128:	df000515 	stw	fp,20(sp)
  81012c:	df000504 	addi	fp,sp,20
  810130:	e13fff15 	stw	r4,-4(fp)
  810134:	0005303a 	rdctl	r2,status
  810138:	e0bffd15 	stw	r2,-12(fp)
  81013c:	e0fffd17 	ldw	r3,-12(fp)
  810140:	00bfff84 	movi	r2,-2
  810144:	1884703a 	and	r2,r3,r2
  810148:	1001703a 	wrctl	status,r2
  81014c:	e0bffd17 	ldw	r2,-12(fp)
  810150:	e0bffe15 	stw	r2,-8(fp)
  810154:	e0bfff17 	ldw	r2,-4(fp)
  810158:	e0bffc15 	stw	r2,-16(fp)
  81015c:	e0bffc17 	ldw	r2,-16(fp)
  810160:	10c00017 	ldw	r3,0(r2)
  810164:	e0bffc17 	ldw	r2,-16(fp)
  810168:	10800117 	ldw	r2,4(r2)
  81016c:	18800115 	stw	r2,4(r3)
  810170:	e0bffc17 	ldw	r2,-16(fp)
  810174:	10c00117 	ldw	r3,4(r2)
  810178:	e0bffc17 	ldw	r2,-16(fp)
  81017c:	10800017 	ldw	r2,0(r2)
  810180:	18800015 	stw	r2,0(r3)
  810184:	e0fffc17 	ldw	r3,-16(fp)
  810188:	e0bffc17 	ldw	r2,-16(fp)
  81018c:	18800115 	stw	r2,4(r3)
  810190:	e0fffc17 	ldw	r3,-16(fp)
  810194:	e0bffc17 	ldw	r2,-16(fp)
  810198:	18800015 	stw	r2,0(r3)
  81019c:	e0bffe17 	ldw	r2,-8(fp)
  8101a0:	e0bffb15 	stw	r2,-20(fp)
  8101a4:	e0bffb17 	ldw	r2,-20(fp)
  8101a8:	1001703a 	wrctl	status,r2
  8101ac:	e037883a 	mov	sp,fp
  8101b0:	df000017 	ldw	fp,0(sp)
  8101b4:	dec00104 	addi	sp,sp,4
  8101b8:	f800283a 	ret

008101bc <alt_tick>:
  8101bc:	defffb04 	addi	sp,sp,-20
  8101c0:	dfc00415 	stw	ra,16(sp)
  8101c4:	df000315 	stw	fp,12(sp)
  8101c8:	df000304 	addi	fp,sp,12
  8101cc:	d0a00f17 	ldw	r2,-32708(gp)
  8101d0:	e0bffe15 	stw	r2,-8(fp)
  8101d4:	d0a70b17 	ldw	r2,-25556(gp)
  8101d8:	10800044 	addi	r2,r2,1
  8101dc:	d0a70b15 	stw	r2,-25556(gp)
  8101e0:	00003106 	br	8102a8 <alt_tick+0xec>
  8101e4:	e0bffe17 	ldw	r2,-8(fp)
  8101e8:	10800017 	ldw	r2,0(r2)
  8101ec:	e0bfff15 	stw	r2,-4(fp)
  8101f0:	e0bffe17 	ldw	r2,-8(fp)
  8101f4:	10800403 	ldbu	r2,16(r2)
  8101f8:	10803fcc 	andi	r2,r2,255
  8101fc:	1005003a 	cmpeq	r2,r2,zero
  810200:	1000051e 	bne	r2,zero,810218 <alt_tick+0x5c>
  810204:	d0a70b17 	ldw	r2,-25556(gp)
  810208:	1004c03a 	cmpne	r2,r2,zero
  81020c:	1000021e 	bne	r2,zero,810218 <alt_tick+0x5c>
  810210:	e0bffe17 	ldw	r2,-8(fp)
  810214:	10000405 	stb	zero,16(r2)
  810218:	e0bffe17 	ldw	r2,-8(fp)
  81021c:	10c00217 	ldw	r3,8(r2)
  810220:	d0a70b17 	ldw	r2,-25556(gp)
  810224:	10c01e36 	bltu	r2,r3,8102a0 <alt_tick+0xe4>
  810228:	e0bffe17 	ldw	r2,-8(fp)
  81022c:	10800403 	ldbu	r2,16(r2)
  810230:	10803fcc 	andi	r2,r2,255
  810234:	1004c03a 	cmpne	r2,r2,zero
  810238:	1000191e 	bne	r2,zero,8102a0 <alt_tick+0xe4>
  81023c:	e0bffe17 	ldw	r2,-8(fp)
  810240:	10c00317 	ldw	r3,12(r2)
  810244:	e0bffe17 	ldw	r2,-8(fp)
  810248:	11000517 	ldw	r4,20(r2)
  81024c:	183ee83a 	callr	r3
  810250:	e0bffd15 	stw	r2,-12(fp)
  810254:	e0bffd17 	ldw	r2,-12(fp)
  810258:	1004c03a 	cmpne	r2,r2,zero
  81025c:	1000031e 	bne	r2,zero,81026c <alt_tick+0xb0>
  810260:	e13ffe17 	ldw	r4,-8(fp)
  810264:	08101240 	call	810124 <alt_alarm_stop>
  810268:	00000d06 	br	8102a0 <alt_tick+0xe4>
  81026c:	e0bffe17 	ldw	r2,-8(fp)
  810270:	10c00217 	ldw	r3,8(r2)
  810274:	e0bffd17 	ldw	r2,-12(fp)
  810278:	1887883a 	add	r3,r3,r2
  81027c:	e0bffe17 	ldw	r2,-8(fp)
  810280:	10c00215 	stw	r3,8(r2)
  810284:	e0bffe17 	ldw	r2,-8(fp)
  810288:	10c00217 	ldw	r3,8(r2)
  81028c:	d0a70b17 	ldw	r2,-25556(gp)
  810290:	1880032e 	bgeu	r3,r2,8102a0 <alt_tick+0xe4>
  810294:	e0fffe17 	ldw	r3,-8(fp)
  810298:	00800044 	movi	r2,1
  81029c:	18800405 	stb	r2,16(r3)
  8102a0:	e0bfff17 	ldw	r2,-4(fp)
  8102a4:	e0bffe15 	stw	r2,-8(fp)
  8102a8:	d0e00f04 	addi	r3,gp,-32708
  8102ac:	e0bffe17 	ldw	r2,-8(fp)
  8102b0:	10ffcc1e 	bne	r2,r3,8101e4 <alt_tick+0x28>
  8102b4:	08117780 	call	811778 <vPortSysTickHandler>
  8102b8:	e037883a 	mov	sp,fp
  8102bc:	dfc00117 	ldw	ra,4(sp)
  8102c0:	df000017 	ldw	fp,0(sp)
  8102c4:	dec00204 	addi	sp,sp,8
  8102c8:	f800283a 	ret

008102cc <write>:
  8102cc:	defff704 	addi	sp,sp,-36
  8102d0:	dfc00815 	stw	ra,32(sp)
  8102d4:	df000715 	stw	fp,28(sp)
  8102d8:	df000704 	addi	fp,sp,28
  8102dc:	e13ffb15 	stw	r4,-20(fp)
  8102e0:	e17ffc15 	stw	r5,-16(fp)
  8102e4:	e1bffd15 	stw	r6,-12(fp)
  8102e8:	e0bffb17 	ldw	r2,-20(fp)
  8102ec:	1004803a 	cmplt	r2,r2,zero
  8102f0:	1000091e 	bne	r2,zero,810318 <write+0x4c>
  8102f4:	e13ffb17 	ldw	r4,-20(fp)
  8102f8:	01400304 	movi	r5,12
  8102fc:	08014540 	call	801454 <__mulsi3>
  810300:	1007883a 	mov	r3,r2
  810304:	00802074 	movhi	r2,129
  810308:	108e3a04 	addi	r2,r2,14568
  81030c:	1887883a 	add	r3,r3,r2
  810310:	e0ffff15 	stw	r3,-4(fp)
  810314:	00000106 	br	81031c <write+0x50>
  810318:	e03fff15 	stw	zero,-4(fp)
  81031c:	e0bfff17 	ldw	r2,-4(fp)
  810320:	e0bffa15 	stw	r2,-24(fp)
  810324:	e0bffa17 	ldw	r2,-24(fp)
  810328:	1005003a 	cmpeq	r2,r2,zero
  81032c:	1000271e 	bne	r2,zero,8103cc <write+0x100>
  810330:	e0bffa17 	ldw	r2,-24(fp)
  810334:	10800217 	ldw	r2,8(r2)
  810338:	108000cc 	andi	r2,r2,3
  81033c:	1005003a 	cmpeq	r2,r2,zero
  810340:	10001d1e 	bne	r2,zero,8103b8 <write+0xec>
  810344:	e0bffa17 	ldw	r2,-24(fp)
  810348:	10800017 	ldw	r2,0(r2)
  81034c:	10800617 	ldw	r2,24(r2)
  810350:	1005003a 	cmpeq	r2,r2,zero
  810354:	1000181e 	bne	r2,zero,8103b8 <write+0xec>
  810358:	e13ffc17 	ldw	r4,-16(fp)
  81035c:	e17ffd17 	ldw	r5,-12(fp)
  810360:	080f87c0 	call	80f87c <alt_log_write>
  810364:	e0bffa17 	ldw	r2,-24(fp)
  810368:	10800017 	ldw	r2,0(r2)
  81036c:	10800617 	ldw	r2,24(r2)
  810370:	e17ffc17 	ldw	r5,-16(fp)
  810374:	e1bffd17 	ldw	r6,-12(fp)
  810378:	e13ffa17 	ldw	r4,-24(fp)
  81037c:	103ee83a 	callr	r2
  810380:	e0bff915 	stw	r2,-28(fp)
  810384:	e0bff917 	ldw	r2,-28(fp)
  810388:	1004403a 	cmpge	r2,r2,zero
  81038c:	1000071e 	bne	r2,zero,8103ac <write+0xe0>
  810390:	08103fc0 	call	8103fc <alt_get_errno>
  810394:	e0fff917 	ldw	r3,-28(fp)
  810398:	00c7c83a 	sub	r3,zero,r3
  81039c:	10c00015 	stw	r3,0(r2)
  8103a0:	00bfffc4 	movi	r2,-1
  8103a4:	e0bffe15 	stw	r2,-8(fp)
  8103a8:	00000e06 	br	8103e4 <write+0x118>
  8103ac:	e0bff917 	ldw	r2,-28(fp)
  8103b0:	e0bffe15 	stw	r2,-8(fp)
  8103b4:	00000b06 	br	8103e4 <write+0x118>
  8103b8:	08103fc0 	call	8103fc <alt_get_errno>
  8103bc:	1007883a 	mov	r3,r2
  8103c0:	00800344 	movi	r2,13
  8103c4:	18800015 	stw	r2,0(r3)
  8103c8:	00000406 	br	8103dc <write+0x110>
  8103cc:	08103fc0 	call	8103fc <alt_get_errno>
  8103d0:	1007883a 	mov	r3,r2
  8103d4:	00801444 	movi	r2,81
  8103d8:	18800015 	stw	r2,0(r3)
  8103dc:	00bfffc4 	movi	r2,-1
  8103e0:	e0bffe15 	stw	r2,-8(fp)
  8103e4:	e0bffe17 	ldw	r2,-8(fp)
  8103e8:	e037883a 	mov	sp,fp
  8103ec:	dfc00117 	ldw	ra,4(sp)
  8103f0:	df000017 	ldw	fp,0(sp)
  8103f4:	dec00204 	addi	sp,sp,8
  8103f8:	f800283a 	ret

008103fc <alt_get_errno>:
  8103fc:	defffd04 	addi	sp,sp,-12
  810400:	dfc00215 	stw	ra,8(sp)
  810404:	df000115 	stw	fp,4(sp)
  810408:	df000104 	addi	fp,sp,4
  81040c:	00802074 	movhi	r2,129
  810410:	1092e904 	addi	r2,r2,19364
  810414:	10800017 	ldw	r2,0(r2)
  810418:	1005003a 	cmpeq	r2,r2,zero
  81041c:	1000061e 	bne	r2,zero,810438 <alt_get_errno+0x3c>
  810420:	00802074 	movhi	r2,129
  810424:	1092e904 	addi	r2,r2,19364
  810428:	10800017 	ldw	r2,0(r2)
  81042c:	103ee83a 	callr	r2
  810430:	e0bfff15 	stw	r2,-4(fp)
  810434:	00000306 	br	810444 <alt_get_errno+0x48>
  810438:	00802074 	movhi	r2,129
  81043c:	1099ca04 	addi	r2,r2,26408
  810440:	e0bfff15 	stw	r2,-4(fp)
  810444:	e0bfff17 	ldw	r2,-4(fp)
  810448:	e037883a 	mov	sp,fp
  81044c:	dfc00117 	ldw	ra,4(sp)
  810450:	df000017 	ldw	fp,0(sp)
  810454:	dec00204 	addi	sp,sp,8
  810458:	f800283a 	ret

0081045c <alt_irq_init>:
  81045c:	defffd04 	addi	sp,sp,-12
  810460:	dfc00215 	stw	ra,8(sp)
  810464:	df000115 	stw	fp,4(sp)
  810468:	df000104 	addi	fp,sp,4
  81046c:	e13fff15 	stw	r4,-4(fp)
  810470:	0811ff80 	call	811ff8 <altera_nios2_qsys_irq_init>
  810474:	00800044 	movi	r2,1
  810478:	1001703a 	wrctl	status,r2
  81047c:	e037883a 	mov	sp,fp
  810480:	dfc00117 	ldw	ra,4(sp)
  810484:	df000017 	ldw	fp,0(sp)
  810488:	dec00204 	addi	sp,sp,8
  81048c:	f800283a 	ret

00810490 <alt_sys_init>:
  810490:	defffe04 	addi	sp,sp,-8
  810494:	dfc00115 	stw	ra,4(sp)
  810498:	df000015 	stw	fp,0(sp)
  81049c:	d839883a 	mov	fp,sp
  8104a0:	01004034 	movhi	r4,256
  8104a4:	21040004 	addi	r4,r4,4096
  8104a8:	000b883a 	mov	r5,zero
  8104ac:	01800044 	movi	r6,1
  8104b0:	01c0fa04 	movi	r7,1000
  8104b4:	08111e00 	call	8111e0 <alt_avalon_timer_sc_init>
  8104b8:	01002074 	movhi	r4,129
  8104bc:	210ecc04 	addi	r4,r4,15152
  8104c0:	000b883a 	mov	r5,zero
  8104c4:	01800404 	movi	r6,16
  8104c8:	081066c0 	call	81066c <altera_avalon_jtag_uart_init>
  8104cc:	01002074 	movhi	r4,129
  8104d0:	210ec204 	addi	r4,r4,15112
  8104d4:	08104ec0 	call	8104ec <alt_dev_reg>
  8104d8:	e037883a 	mov	sp,fp
  8104dc:	dfc00117 	ldw	ra,4(sp)
  8104e0:	df000017 	ldw	fp,0(sp)
  8104e4:	dec00204 	addi	sp,sp,8
  8104e8:	f800283a 	ret

008104ec <alt_dev_reg>:
  8104ec:	defffd04 	addi	sp,sp,-12
  8104f0:	dfc00215 	stw	ra,8(sp)
  8104f4:	df000115 	stw	fp,4(sp)
  8104f8:	df000104 	addi	fp,sp,4
  8104fc:	e13fff15 	stw	r4,-4(fp)
  810500:	e13fff17 	ldw	r4,-4(fp)
  810504:	01402074 	movhi	r5,129
  810508:	2952e604 	addi	r5,r5,19352
  81050c:	08119200 	call	811920 <alt_dev_llist_insert>
  810510:	e037883a 	mov	sp,fp
  810514:	dfc00117 	ldw	ra,4(sp)
  810518:	df000017 	ldw	fp,0(sp)
  81051c:	dec00204 	addi	sp,sp,8
  810520:	f800283a 	ret

00810524 <altera_avalon_jtag_uart_read_fd>:
  810524:	defffa04 	addi	sp,sp,-24
  810528:	dfc00515 	stw	ra,20(sp)
  81052c:	df000415 	stw	fp,16(sp)
  810530:	df000404 	addi	fp,sp,16
  810534:	e13ffd15 	stw	r4,-12(fp)
  810538:	e17ffe15 	stw	r5,-8(fp)
  81053c:	e1bfff15 	stw	r6,-4(fp)
  810540:	e0bffd17 	ldw	r2,-12(fp)
  810544:	10800017 	ldw	r2,0(r2)
  810548:	e0bffc15 	stw	r2,-16(fp)
  81054c:	e0bffc17 	ldw	r2,-16(fp)
  810550:	11000a04 	addi	r4,r2,40
  810554:	e0bffd17 	ldw	r2,-12(fp)
  810558:	11c00217 	ldw	r7,8(r2)
  81055c:	e17ffe17 	ldw	r5,-8(fp)
  810560:	e1bfff17 	ldw	r6,-4(fp)
  810564:	0810c900 	call	810c90 <altera_avalon_jtag_uart_read>
  810568:	e037883a 	mov	sp,fp
  81056c:	dfc00117 	ldw	ra,4(sp)
  810570:	df000017 	ldw	fp,0(sp)
  810574:	dec00204 	addi	sp,sp,8
  810578:	f800283a 	ret

0081057c <altera_avalon_jtag_uart_write_fd>:
  81057c:	defffa04 	addi	sp,sp,-24
  810580:	dfc00515 	stw	ra,20(sp)
  810584:	df000415 	stw	fp,16(sp)
  810588:	df000404 	addi	fp,sp,16
  81058c:	e13ffd15 	stw	r4,-12(fp)
  810590:	e17ffe15 	stw	r5,-8(fp)
  810594:	e1bfff15 	stw	r6,-4(fp)
  810598:	e0bffd17 	ldw	r2,-12(fp)
  81059c:	10800017 	ldw	r2,0(r2)
  8105a0:	e0bffc15 	stw	r2,-16(fp)
  8105a4:	e0bffc17 	ldw	r2,-16(fp)
  8105a8:	11000a04 	addi	r4,r2,40
  8105ac:	e0bffd17 	ldw	r2,-12(fp)
  8105b0:	11c00217 	ldw	r7,8(r2)
  8105b4:	e17ffe17 	ldw	r5,-8(fp)
  8105b8:	e1bfff17 	ldw	r6,-4(fp)
  8105bc:	0810ef00 	call	810ef0 <altera_avalon_jtag_uart_write>
  8105c0:	e037883a 	mov	sp,fp
  8105c4:	dfc00117 	ldw	ra,4(sp)
  8105c8:	df000017 	ldw	fp,0(sp)
  8105cc:	dec00204 	addi	sp,sp,8
  8105d0:	f800283a 	ret

008105d4 <altera_avalon_jtag_uart_close_fd>:
  8105d4:	defffc04 	addi	sp,sp,-16
  8105d8:	dfc00315 	stw	ra,12(sp)
  8105dc:	df000215 	stw	fp,8(sp)
  8105e0:	df000204 	addi	fp,sp,8
  8105e4:	e13fff15 	stw	r4,-4(fp)
  8105e8:	e0bfff17 	ldw	r2,-4(fp)
  8105ec:	10800017 	ldw	r2,0(r2)
  8105f0:	e0bffe15 	stw	r2,-8(fp)
  8105f4:	e0bffe17 	ldw	r2,-8(fp)
  8105f8:	11000a04 	addi	r4,r2,40
  8105fc:	e0bfff17 	ldw	r2,-4(fp)
  810600:	11400217 	ldw	r5,8(r2)
  810604:	0810b280 	call	810b28 <altera_avalon_jtag_uart_close>
  810608:	e037883a 	mov	sp,fp
  81060c:	dfc00117 	ldw	ra,4(sp)
  810610:	df000017 	ldw	fp,0(sp)
  810614:	dec00204 	addi	sp,sp,8
  810618:	f800283a 	ret

0081061c <altera_avalon_jtag_uart_ioctl_fd>:
  81061c:	defffa04 	addi	sp,sp,-24
  810620:	dfc00515 	stw	ra,20(sp)
  810624:	df000415 	stw	fp,16(sp)
  810628:	df000404 	addi	fp,sp,16
  81062c:	e13ffd15 	stw	r4,-12(fp)
  810630:	e17ffe15 	stw	r5,-8(fp)
  810634:	e1bfff15 	stw	r6,-4(fp)
  810638:	e0bffd17 	ldw	r2,-12(fp)
  81063c:	10800017 	ldw	r2,0(r2)
  810640:	e0bffc15 	stw	r2,-16(fp)
  810644:	e0bffc17 	ldw	r2,-16(fp)
  810648:	11000a04 	addi	r4,r2,40
  81064c:	e17ffe17 	ldw	r5,-8(fp)
  810650:	e1bfff17 	ldw	r6,-4(fp)
  810654:	0810b9c0 	call	810b9c <altera_avalon_jtag_uart_ioctl>
  810658:	e037883a 	mov	sp,fp
  81065c:	dfc00117 	ldw	ra,4(sp)
  810660:	df000017 	ldw	fp,0(sp)
  810664:	dec00204 	addi	sp,sp,8
  810668:	f800283a 	ret

0081066c <altera_avalon_jtag_uart_init>:
  81066c:	defff404 	addi	sp,sp,-48
  810670:	dfc00b15 	stw	ra,44(sp)
  810674:	df000a15 	stw	fp,40(sp)
  810678:	df000a04 	addi	fp,sp,40
  81067c:	e13ffb15 	stw	r4,-20(fp)
  810680:	e17ffc15 	stw	r5,-16(fp)
  810684:	e1bffd15 	stw	r6,-12(fp)
  810688:	e0bffb17 	ldw	r2,-20(fp)
  81068c:	10800a04 	addi	r2,r2,40
  810690:	e0bff915 	stw	r2,-28(fp)
  810694:	00800044 	movi	r2,1
  810698:	e0bffa0d 	sth	r2,-24(fp)
  81069c:	e0bffa0b 	ldhu	r2,-24(fp)
  8106a0:	1005003a 	cmpeq	r2,r2,zero
  8106a4:	1000031e 	bne	r2,zero,8106b4 <altera_avalon_jtag_uart_init+0x48>
  8106a8:	e0bffa0b 	ldhu	r2,-24(fp)
  8106ac:	e0bfff15 	stw	r2,-4(fp)
  8106b0:	00000206 	br	8106bc <altera_avalon_jtag_uart_init+0x50>
  8106b4:	00800044 	movi	r2,1
  8106b8:	e0bfff15 	stw	r2,-4(fp)
  8106bc:	e17ffa0b 	ldhu	r5,-24(fp)
  8106c0:	e13fff17 	ldw	r4,-4(fp)
  8106c4:	080b5980 	call	80b598 <xQueueCreateCountingSemaphore>
  8106c8:	1007883a 	mov	r3,r2
  8106cc:	e0bff917 	ldw	r2,-28(fp)
  8106d0:	10c00015 	stw	r3,0(r2)
  8106d4:	e0bffb17 	ldw	r2,-20(fp)
  8106d8:	10800b04 	addi	r2,r2,44
  8106dc:	e0bff715 	stw	r2,-36(fp)
  8106e0:	00800044 	movi	r2,1
  8106e4:	e0bff80d 	sth	r2,-32(fp)
  8106e8:	e0bff80b 	ldhu	r2,-32(fp)
  8106ec:	1005003a 	cmpeq	r2,r2,zero
  8106f0:	1000031e 	bne	r2,zero,810700 <altera_avalon_jtag_uart_init+0x94>
  8106f4:	e0bff80b 	ldhu	r2,-32(fp)
  8106f8:	e0bffe15 	stw	r2,-8(fp)
  8106fc:	00000206 	br	810708 <altera_avalon_jtag_uart_init+0x9c>
  810700:	00800044 	movi	r2,1
  810704:	e0bffe15 	stw	r2,-8(fp)
  810708:	e17ff80b 	ldhu	r5,-32(fp)
  81070c:	e13ffe17 	ldw	r4,-8(fp)
  810710:	080b5980 	call	80b598 <xQueueCreateCountingSemaphore>
  810714:	1007883a 	mov	r3,r2
  810718:	e0bff717 	ldw	r2,-36(fp)
  81071c:	10c00015 	stw	r3,0(r2)
  810720:	e0fffb17 	ldw	r3,-20(fp)
  810724:	00800044 	movi	r2,1
  810728:	18800815 	stw	r2,32(r3)
  81072c:	e0bffb17 	ldw	r2,-20(fp)
  810730:	10800017 	ldw	r2,0(r2)
  810734:	11000104 	addi	r4,r2,4
  810738:	e0bffb17 	ldw	r2,-20(fp)
  81073c:	10800817 	ldw	r2,32(r2)
  810740:	1007883a 	mov	r3,r2
  810744:	2005883a 	mov	r2,r4
  810748:	10c00035 	stwio	r3,0(r2)
  81074c:	e13ffc17 	ldw	r4,-16(fp)
  810750:	e17ffd17 	ldw	r5,-12(fp)
  810754:	d8000015 	stw	zero,0(sp)
  810758:	01802074 	movhi	r6,129
  81075c:	31820f04 	addi	r6,r6,2108
  810760:	e1fffb17 	ldw	r7,-20(fp)
  810764:	0811d2c0 	call	811d2c <alt_ic_isr_register>
  810768:	e0bffb17 	ldw	r2,-20(fp)
  81076c:	10000915 	stw	zero,36(r2)
  810770:	e0bffb17 	ldw	r2,-20(fp)
  810774:	11000204 	addi	r4,r2,8
  810778:	00802074 	movhi	r2,129
  81077c:	1099e604 	addi	r2,r2,26520
  810780:	10800017 	ldw	r2,0(r2)
  810784:	100b883a 	mov	r5,r2
  810788:	01802074 	movhi	r6,129
  81078c:	31829e04 	addi	r6,r6,2680
  810790:	e1fffb17 	ldw	r7,-20(fp)
  810794:	08117b00 	call	8117b0 <alt_alarm_start>
  810798:	1004403a 	cmpge	r2,r2,zero
  81079c:	1000041e 	bne	r2,zero,8107b0 <altera_avalon_jtag_uart_init+0x144>
  8107a0:	e0fffb17 	ldw	r3,-20(fp)
  8107a4:	00a00034 	movhi	r2,32768
  8107a8:	10bfffc4 	addi	r2,r2,-1
  8107ac:	18800115 	stw	r2,4(r3)
  8107b0:	00802074 	movhi	r2,129
  8107b4:	1099e284 	addi	r2,r2,26506
  8107b8:	10800003 	ldbu	r2,0(r2)
  8107bc:	10803fcc 	andi	r2,r2,255
  8107c0:	10800058 	cmpnei	r2,r2,1
  8107c4:	10000d1e 	bne	r2,zero,8107fc <altera_avalon_jtag_uart_init+0x190>
  8107c8:	00802074 	movhi	r2,129
  8107cc:	1099e604 	addi	r2,r2,26520
  8107d0:	10800017 	ldw	r2,0(r2)
  8107d4:	1009883a 	mov	r4,r2
  8107d8:	01400284 	movi	r5,10
  8107dc:	080a7f80 	call	80a7f8 <__udivsi3>
  8107e0:	100b883a 	mov	r5,r2
  8107e4:	01002074 	movhi	r4,129
  8107e8:	211a5704 	addi	r4,r4,26972
  8107ec:	01802074 	movhi	r6,129
  8107f0:	31bd9904 	addi	r6,r6,-2460
  8107f4:	e1fffb17 	ldw	r7,-20(fp)
  8107f8:	08117b00 	call	8117b0 <alt_alarm_start>
  8107fc:	00802074 	movhi	r2,129
  810800:	1099e304 	addi	r2,r2,26508
  810804:	10800003 	ldbu	r2,0(r2)
  810808:	10803fcc 	andi	r2,r2,255
  81080c:	10800058 	cmpnei	r2,r2,1
  810810:	1000051e 	bne	r2,zero,810828 <altera_avalon_jtag_uart_init+0x1bc>
  810814:	e0bffb17 	ldw	r2,-20(fp)
  810818:	10800017 	ldw	r2,0(r2)
  81081c:	100b883a 	mov	r5,r2
  810820:	e13ffb17 	ldw	r4,-20(fp)
  810824:	080f7dc0 	call	80f7dc <alt_log_jtag_uart_startup_info>
  810828:	e037883a 	mov	sp,fp
  81082c:	dfc00117 	ldw	ra,4(sp)
  810830:	df000017 	ldw	fp,0(sp)
  810834:	dec00204 	addi	sp,sp,8
  810838:	f800283a 	ret

0081083c <altera_avalon_jtag_uart_irq>:
  81083c:	defff704 	addi	sp,sp,-36
  810840:	dfc00815 	stw	ra,32(sp)
  810844:	df000715 	stw	fp,28(sp)
  810848:	df000704 	addi	fp,sp,28
  81084c:	e13fff15 	stw	r4,-4(fp)
  810850:	e0bfff17 	ldw	r2,-4(fp)
  810854:	e0bffe15 	stw	r2,-8(fp)
  810858:	e0bffe17 	ldw	r2,-8(fp)
  81085c:	10800017 	ldw	r2,0(r2)
  810860:	e0bffd15 	stw	r2,-12(fp)
  810864:	e13ffd17 	ldw	r4,-12(fp)
  810868:	e17ffe17 	ldw	r5,-8(fp)
  81086c:	080f8240 	call	80f824 <alt_log_jtag_uart_isr_proc>
  810870:	00000006 	br	810874 <altera_avalon_jtag_uart_irq+0x38>
  810874:	e0bffd17 	ldw	r2,-12(fp)
  810878:	10800104 	addi	r2,r2,4
  81087c:	10800037 	ldwio	r2,0(r2)
  810880:	e0bffc15 	stw	r2,-16(fp)
  810884:	e0bffc17 	ldw	r2,-16(fp)
  810888:	1080c00c 	andi	r2,r2,768
  81088c:	1005003a 	cmpeq	r2,r2,zero
  810890:	1000741e 	bne	r2,zero,810a64 <altera_avalon_jtag_uart_irq+0x228>
  810894:	e0bffc17 	ldw	r2,-16(fp)
  810898:	1080400c 	andi	r2,r2,256
  81089c:	1005003a 	cmpeq	r2,r2,zero
  8108a0:	1000351e 	bne	r2,zero,810978 <altera_avalon_jtag_uart_irq+0x13c>
  8108a4:	00800074 	movhi	r2,1
  8108a8:	e0bffb15 	stw	r2,-20(fp)
  8108ac:	e0bffe17 	ldw	r2,-8(fp)
  8108b0:	10800c17 	ldw	r2,48(r2)
  8108b4:	10800044 	addi	r2,r2,1
  8108b8:	1081ffcc 	andi	r2,r2,2047
  8108bc:	e0bffa15 	stw	r2,-24(fp)
  8108c0:	e0bffe17 	ldw	r2,-8(fp)
  8108c4:	10c00d17 	ldw	r3,52(r2)
  8108c8:	e0bffa17 	ldw	r2,-24(fp)
  8108cc:	18801626 	beq	r3,r2,810928 <altera_avalon_jtag_uart_irq+0xec>
  8108d0:	e0bffd17 	ldw	r2,-12(fp)
  8108d4:	10800037 	ldwio	r2,0(r2)
  8108d8:	e0bffb15 	stw	r2,-20(fp)
  8108dc:	e0bffb17 	ldw	r2,-20(fp)
  8108e0:	10a0000c 	andi	r2,r2,32768
  8108e4:	1005003a 	cmpeq	r2,r2,zero
  8108e8:	10000f1e 	bne	r2,zero,810928 <altera_avalon_jtag_uart_irq+0xec>
  8108ec:	e0bffe17 	ldw	r2,-8(fp)
  8108f0:	10c00c17 	ldw	r3,48(r2)
  8108f4:	e0bffb17 	ldw	r2,-20(fp)
  8108f8:	1009883a 	mov	r4,r2
  8108fc:	e0bffe17 	ldw	r2,-8(fp)
  810900:	1885883a 	add	r2,r3,r2
  810904:	10801004 	addi	r2,r2,64
  810908:	11000005 	stb	r4,0(r2)
  81090c:	e0bffe17 	ldw	r2,-8(fp)
  810910:	10800c17 	ldw	r2,48(r2)
  810914:	10800044 	addi	r2,r2,1
  810918:	10c1ffcc 	andi	r3,r2,2047
  81091c:	e0bffe17 	ldw	r2,-8(fp)
  810920:	10c00c15 	stw	r3,48(r2)
  810924:	003fe106 	br	8108ac <altera_avalon_jtag_uart_irq+0x70>
  810928:	e0bffb17 	ldw	r2,-20(fp)
  81092c:	10bfffec 	andhi	r2,r2,65535
  810930:	1005003a 	cmpeq	r2,r2,zero
  810934:	1000101e 	bne	r2,zero,810978 <altera_avalon_jtag_uart_irq+0x13c>
  810938:	e0bffe17 	ldw	r2,-8(fp)
  81093c:	10c00817 	ldw	r3,32(r2)
  810940:	00bfff84 	movi	r2,-2
  810944:	1886703a 	and	r3,r3,r2
  810948:	e0bffe17 	ldw	r2,-8(fp)
  81094c:	10c00815 	stw	r3,32(r2)
  810950:	e0bffd17 	ldw	r2,-12(fp)
  810954:	11000104 	addi	r4,r2,4
  810958:	e0bffe17 	ldw	r2,-8(fp)
  81095c:	10800817 	ldw	r2,32(r2)
  810960:	1007883a 	mov	r3,r2
  810964:	2005883a 	mov	r2,r4
  810968:	10c00035 	stwio	r3,0(r2)
  81096c:	e0bffd17 	ldw	r2,-12(fp)
  810970:	10800104 	addi	r2,r2,4
  810974:	10800037 	ldwio	r2,0(r2)
  810978:	e0bffc17 	ldw	r2,-16(fp)
  81097c:	1080800c 	andi	r2,r2,512
  810980:	1005003a 	cmpeq	r2,r2,zero
  810984:	103fbb1e 	bne	r2,zero,810874 <altera_avalon_jtag_uart_irq+0x38>
  810988:	e0bffc17 	ldw	r2,-16(fp)
  81098c:	10bfffec 	andhi	r2,r2,65535
  810990:	1004d43a 	srli	r2,r2,16
  810994:	e0bff915 	stw	r2,-28(fp)
  810998:	00001506 	br	8109f0 <altera_avalon_jtag_uart_irq+0x1b4>
  81099c:	e13ffd17 	ldw	r4,-12(fp)
  8109a0:	e0bffe17 	ldw	r2,-8(fp)
  8109a4:	10c00f17 	ldw	r3,60(r2)
  8109a8:	e0bffe17 	ldw	r2,-8(fp)
  8109ac:	1885883a 	add	r2,r3,r2
  8109b0:	10821004 	addi	r2,r2,2112
  8109b4:	10800003 	ldbu	r2,0(r2)
  8109b8:	10c03fcc 	andi	r3,r2,255
  8109bc:	18c0201c 	xori	r3,r3,128
  8109c0:	18ffe004 	addi	r3,r3,-128
  8109c4:	2005883a 	mov	r2,r4
  8109c8:	10c00035 	stwio	r3,0(r2)
  8109cc:	e0bffe17 	ldw	r2,-8(fp)
  8109d0:	10800f17 	ldw	r2,60(r2)
  8109d4:	10800044 	addi	r2,r2,1
  8109d8:	10c1ffcc 	andi	r3,r2,2047
  8109dc:	e0bffe17 	ldw	r2,-8(fp)
  8109e0:	10c00f15 	stw	r3,60(r2)
  8109e4:	e0bff917 	ldw	r2,-28(fp)
  8109e8:	10bfffc4 	addi	r2,r2,-1
  8109ec:	e0bff915 	stw	r2,-28(fp)
  8109f0:	e0bff917 	ldw	r2,-28(fp)
  8109f4:	1005003a 	cmpeq	r2,r2,zero
  8109f8:	1000051e 	bne	r2,zero,810a10 <altera_avalon_jtag_uart_irq+0x1d4>
  8109fc:	e0bffe17 	ldw	r2,-8(fp)
  810a00:	10c00f17 	ldw	r3,60(r2)
  810a04:	e0bffe17 	ldw	r2,-8(fp)
  810a08:	10800e17 	ldw	r2,56(r2)
  810a0c:	18bfe31e 	bne	r3,r2,81099c <altera_avalon_jtag_uart_irq+0x160>
  810a10:	e0bff917 	ldw	r2,-28(fp)
  810a14:	1005003a 	cmpeq	r2,r2,zero
  810a18:	103f961e 	bne	r2,zero,810874 <altera_avalon_jtag_uart_irq+0x38>
  810a1c:	e0bffe17 	ldw	r2,-8(fp)
  810a20:	10c00817 	ldw	r3,32(r2)
  810a24:	00bfff44 	movi	r2,-3
  810a28:	1886703a 	and	r3,r3,r2
  810a2c:	e0bffe17 	ldw	r2,-8(fp)
  810a30:	10c00815 	stw	r3,32(r2)
  810a34:	e0bffe17 	ldw	r2,-8(fp)
  810a38:	10800017 	ldw	r2,0(r2)
  810a3c:	11000104 	addi	r4,r2,4
  810a40:	e0bffe17 	ldw	r2,-8(fp)
  810a44:	10800817 	ldw	r2,32(r2)
  810a48:	1007883a 	mov	r3,r2
  810a4c:	2005883a 	mov	r2,r4
  810a50:	10c00035 	stwio	r3,0(r2)
  810a54:	e0bffd17 	ldw	r2,-12(fp)
  810a58:	10800104 	addi	r2,r2,4
  810a5c:	10800037 	ldwio	r2,0(r2)
  810a60:	003f8406 	br	810874 <altera_avalon_jtag_uart_irq+0x38>
  810a64:	e037883a 	mov	sp,fp
  810a68:	dfc00117 	ldw	ra,4(sp)
  810a6c:	df000017 	ldw	fp,0(sp)
  810a70:	dec00204 	addi	sp,sp,8
  810a74:	f800283a 	ret

00810a78 <altera_avalon_jtag_uart_timeout>:
  810a78:	defffc04 	addi	sp,sp,-16
  810a7c:	df000315 	stw	fp,12(sp)
  810a80:	df000304 	addi	fp,sp,12
  810a84:	e13fff15 	stw	r4,-4(fp)
  810a88:	e0bfff17 	ldw	r2,-4(fp)
  810a8c:	e0bffe15 	stw	r2,-8(fp)
  810a90:	e0bffe17 	ldw	r2,-8(fp)
  810a94:	10800017 	ldw	r2,0(r2)
  810a98:	10800104 	addi	r2,r2,4
  810a9c:	10800037 	ldwio	r2,0(r2)
  810aa0:	e0bffd15 	stw	r2,-12(fp)
  810aa4:	e0bffd17 	ldw	r2,-12(fp)
  810aa8:	1081000c 	andi	r2,r2,1024
  810aac:	1005003a 	cmpeq	r2,r2,zero
  810ab0:	10000c1e 	bne	r2,zero,810ae4 <altera_avalon_jtag_uart_timeout+0x6c>
  810ab4:	e0bffe17 	ldw	r2,-8(fp)
  810ab8:	10800017 	ldw	r2,0(r2)
  810abc:	11000104 	addi	r4,r2,4
  810ac0:	e0bffe17 	ldw	r2,-8(fp)
  810ac4:	10800817 	ldw	r2,32(r2)
  810ac8:	10810014 	ori	r2,r2,1024
  810acc:	1007883a 	mov	r3,r2
  810ad0:	2005883a 	mov	r2,r4
  810ad4:	10c00035 	stwio	r3,0(r2)
  810ad8:	e0bffe17 	ldw	r2,-8(fp)
  810adc:	10000915 	stw	zero,36(r2)
  810ae0:	00000a06 	br	810b0c <altera_avalon_jtag_uart_timeout+0x94>
  810ae4:	e0bffe17 	ldw	r2,-8(fp)
  810ae8:	10c00917 	ldw	r3,36(r2)
  810aec:	00a00034 	movhi	r2,32768
  810af0:	10bfff04 	addi	r2,r2,-4
  810af4:	10c00536 	bltu	r2,r3,810b0c <altera_avalon_jtag_uart_timeout+0x94>
  810af8:	e0bffe17 	ldw	r2,-8(fp)
  810afc:	10800917 	ldw	r2,36(r2)
  810b00:	10c00044 	addi	r3,r2,1
  810b04:	e0bffe17 	ldw	r2,-8(fp)
  810b08:	10c00915 	stw	r3,36(r2)
  810b0c:	00802074 	movhi	r2,129
  810b10:	1099e604 	addi	r2,r2,26520
  810b14:	10800017 	ldw	r2,0(r2)
  810b18:	e037883a 	mov	sp,fp
  810b1c:	df000017 	ldw	fp,0(sp)
  810b20:	dec00104 	addi	sp,sp,4
  810b24:	f800283a 	ret

00810b28 <altera_avalon_jtag_uart_close>:
  810b28:	defffc04 	addi	sp,sp,-16
  810b2c:	df000315 	stw	fp,12(sp)
  810b30:	df000304 	addi	fp,sp,12
  810b34:	e13ffd15 	stw	r4,-12(fp)
  810b38:	e17ffe15 	stw	r5,-8(fp)
  810b3c:	00000706 	br	810b5c <altera_avalon_jtag_uart_close+0x34>
  810b40:	e0bffe17 	ldw	r2,-8(fp)
  810b44:	1090000c 	andi	r2,r2,16384
  810b48:	1005003a 	cmpeq	r2,r2,zero
  810b4c:	1000031e 	bne	r2,zero,810b5c <altera_avalon_jtag_uart_close+0x34>
  810b50:	00bffd44 	movi	r2,-11
  810b54:	e0bfff15 	stw	r2,-4(fp)
  810b58:	00000b06 	br	810b88 <altera_avalon_jtag_uart_close+0x60>
  810b5c:	e0bffd17 	ldw	r2,-12(fp)
  810b60:	10c00f17 	ldw	r3,60(r2)
  810b64:	e0bffd17 	ldw	r2,-12(fp)
  810b68:	10800e17 	ldw	r2,56(r2)
  810b6c:	18800526 	beq	r3,r2,810b84 <altera_avalon_jtag_uart_close+0x5c>
  810b70:	e0bffd17 	ldw	r2,-12(fp)
  810b74:	10c00917 	ldw	r3,36(r2)
  810b78:	e0bffd17 	ldw	r2,-12(fp)
  810b7c:	10800117 	ldw	r2,4(r2)
  810b80:	18bfef36 	bltu	r3,r2,810b40 <altera_avalon_jtag_uart_close+0x18>
  810b84:	e03fff15 	stw	zero,-4(fp)
  810b88:	e0bfff17 	ldw	r2,-4(fp)
  810b8c:	e037883a 	mov	sp,fp
  810b90:	df000017 	ldw	fp,0(sp)
  810b94:	dec00104 	addi	sp,sp,4
  810b98:	f800283a 	ret

00810b9c <altera_avalon_jtag_uart_ioctl>:
  810b9c:	defff804 	addi	sp,sp,-32
  810ba0:	df000715 	stw	fp,28(sp)
  810ba4:	df000704 	addi	fp,sp,28
  810ba8:	e13ffb15 	stw	r4,-20(fp)
  810bac:	e17ffc15 	stw	r5,-16(fp)
  810bb0:	e1bffd15 	stw	r6,-12(fp)
  810bb4:	00bff9c4 	movi	r2,-25
  810bb8:	e0bffa15 	stw	r2,-24(fp)
  810bbc:	e0bffc17 	ldw	r2,-16(fp)
  810bc0:	e0bfff15 	stw	r2,-4(fp)
  810bc4:	e0ffff17 	ldw	r3,-4(fp)
  810bc8:	189a8060 	cmpeqi	r2,r3,27137
  810bcc:	1000041e 	bne	r2,zero,810be0 <altera_avalon_jtag_uart_ioctl+0x44>
  810bd0:	e0ffff17 	ldw	r3,-4(fp)
  810bd4:	189a80a0 	cmpeqi	r2,r3,27138
  810bd8:	10001b1e 	bne	r2,zero,810c48 <altera_avalon_jtag_uart_ioctl+0xac>
  810bdc:	00002706 	br	810c7c <altera_avalon_jtag_uart_ioctl+0xe0>
  810be0:	e0bffb17 	ldw	r2,-20(fp)
  810be4:	10c00117 	ldw	r3,4(r2)
  810be8:	00a00034 	movhi	r2,32768
  810bec:	10bfffc4 	addi	r2,r2,-1
  810bf0:	18802226 	beq	r3,r2,810c7c <altera_avalon_jtag_uart_ioctl+0xe0>
  810bf4:	e0bffd17 	ldw	r2,-12(fp)
  810bf8:	10800017 	ldw	r2,0(r2)
  810bfc:	e0bff915 	stw	r2,-28(fp)
  810c00:	e0bff917 	ldw	r2,-28(fp)
  810c04:	10800090 	cmplti	r2,r2,2
  810c08:	1000071e 	bne	r2,zero,810c28 <altera_avalon_jtag_uart_ioctl+0x8c>
  810c0c:	e0fff917 	ldw	r3,-28(fp)
  810c10:	00a00034 	movhi	r2,32768
  810c14:	10bfffc4 	addi	r2,r2,-1
  810c18:	18800326 	beq	r3,r2,810c28 <altera_avalon_jtag_uart_ioctl+0x8c>
  810c1c:	e0bff917 	ldw	r2,-28(fp)
  810c20:	e0bffe15 	stw	r2,-8(fp)
  810c24:	00000306 	br	810c34 <altera_avalon_jtag_uart_ioctl+0x98>
  810c28:	00e00034 	movhi	r3,32768
  810c2c:	18ffff84 	addi	r3,r3,-2
  810c30:	e0fffe15 	stw	r3,-8(fp)
  810c34:	e0bffb17 	ldw	r2,-20(fp)
  810c38:	e0fffe17 	ldw	r3,-8(fp)
  810c3c:	10c00115 	stw	r3,4(r2)
  810c40:	e03ffa15 	stw	zero,-24(fp)
  810c44:	00000d06 	br	810c7c <altera_avalon_jtag_uart_ioctl+0xe0>
  810c48:	e0bffb17 	ldw	r2,-20(fp)
  810c4c:	10c00117 	ldw	r3,4(r2)
  810c50:	00a00034 	movhi	r2,32768
  810c54:	10bfffc4 	addi	r2,r2,-1
  810c58:	18800826 	beq	r3,r2,810c7c <altera_avalon_jtag_uart_ioctl+0xe0>
  810c5c:	e13ffd17 	ldw	r4,-12(fp)
  810c60:	e0bffb17 	ldw	r2,-20(fp)
  810c64:	10c00917 	ldw	r3,36(r2)
  810c68:	e0bffb17 	ldw	r2,-20(fp)
  810c6c:	10800117 	ldw	r2,4(r2)
  810c70:	1885803a 	cmpltu	r2,r3,r2
  810c74:	20800015 	stw	r2,0(r4)
  810c78:	e03ffa15 	stw	zero,-24(fp)
  810c7c:	e0bffa17 	ldw	r2,-24(fp)
  810c80:	e037883a 	mov	sp,fp
  810c84:	df000017 	ldw	fp,0(sp)
  810c88:	dec00104 	addi	sp,sp,4
  810c8c:	f800283a 	ret

00810c90 <altera_avalon_jtag_uart_read>:
  810c90:	defff004 	addi	sp,sp,-64
  810c94:	dfc00f15 	stw	ra,60(sp)
  810c98:	df000e15 	stw	fp,56(sp)
  810c9c:	df000e04 	addi	fp,sp,56
  810ca0:	e13ffb15 	stw	r4,-20(fp)
  810ca4:	e17ffc15 	stw	r5,-16(fp)
  810ca8:	e1bffd15 	stw	r6,-12(fp)
  810cac:	e1fffe15 	stw	r7,-8(fp)
  810cb0:	e0bffc17 	ldw	r2,-16(fp)
  810cb4:	e0bffa15 	stw	r2,-24(fp)
  810cb8:	e0bffb17 	ldw	r2,-20(fp)
  810cbc:	10800a17 	ldw	r2,40(r2)
  810cc0:	e0bff415 	stw	r2,-48(fp)
  810cc4:	e03ff50d 	sth	zero,-44(fp)
  810cc8:	e1bff50b 	ldhu	r6,-44(fp)
  810ccc:	e13ff417 	ldw	r4,-48(fp)
  810cd0:	000b883a 	mov	r5,zero
  810cd4:	000f883a 	mov	r7,zero
  810cd8:	080b8940 	call	80b894 <xQueueGenericReceive>
  810cdc:	00004806 	br	810e00 <altera_avalon_jtag_uart_read+0x170>
  810ce0:	e0bffb17 	ldw	r2,-20(fp)
  810ce4:	10800c17 	ldw	r2,48(r2)
  810ce8:	e0bff715 	stw	r2,-36(fp)
  810cec:	e0bffb17 	ldw	r2,-20(fp)
  810cf0:	10800d17 	ldw	r2,52(r2)
  810cf4:	e0bff615 	stw	r2,-40(fp)
  810cf8:	e0fff717 	ldw	r3,-36(fp)
  810cfc:	e0bff617 	ldw	r2,-40(fp)
  810d00:	18800536 	bltu	r3,r2,810d18 <altera_avalon_jtag_uart_read+0x88>
  810d04:	e0bff717 	ldw	r2,-36(fp)
  810d08:	e0fff617 	ldw	r3,-40(fp)
  810d0c:	10c5c83a 	sub	r2,r2,r3
  810d10:	e0bff815 	stw	r2,-32(fp)
  810d14:	00000406 	br	810d28 <altera_avalon_jtag_uart_read+0x98>
  810d18:	00820004 	movi	r2,2048
  810d1c:	e0fff617 	ldw	r3,-40(fp)
  810d20:	10c5c83a 	sub	r2,r2,r3
  810d24:	e0bff815 	stw	r2,-32(fp)
  810d28:	e0bff817 	ldw	r2,-32(fp)
  810d2c:	1005003a 	cmpeq	r2,r2,zero
  810d30:	10001f1e 	bne	r2,zero,810db0 <altera_avalon_jtag_uart_read+0x120>
  810d34:	e0fffd17 	ldw	r3,-12(fp)
  810d38:	e0bff817 	ldw	r2,-32(fp)
  810d3c:	1880022e 	bgeu	r3,r2,810d48 <altera_avalon_jtag_uart_read+0xb8>
  810d40:	e0bffd17 	ldw	r2,-12(fp)
  810d44:	e0bff815 	stw	r2,-32(fp)
  810d48:	e0bffb17 	ldw	r2,-20(fp)
  810d4c:	10c01004 	addi	r3,r2,64
  810d50:	e0bff617 	ldw	r2,-40(fp)
  810d54:	1887883a 	add	r3,r3,r2
  810d58:	e0bffa17 	ldw	r2,-24(fp)
  810d5c:	1009883a 	mov	r4,r2
  810d60:	180b883a 	mov	r5,r3
  810d64:	e1bff817 	ldw	r6,-32(fp)
  810d68:	080689c0 	call	80689c <memcpy>
  810d6c:	e0fff817 	ldw	r3,-32(fp)
  810d70:	e0bffa17 	ldw	r2,-24(fp)
  810d74:	10c5883a 	add	r2,r2,r3
  810d78:	e0bffa15 	stw	r2,-24(fp)
  810d7c:	e0fffd17 	ldw	r3,-12(fp)
  810d80:	e0bff817 	ldw	r2,-32(fp)
  810d84:	1885c83a 	sub	r2,r3,r2
  810d88:	e0bffd15 	stw	r2,-12(fp)
  810d8c:	e0fff617 	ldw	r3,-40(fp)
  810d90:	e0bff817 	ldw	r2,-32(fp)
  810d94:	1885883a 	add	r2,r3,r2
  810d98:	10c1ffcc 	andi	r3,r2,2047
  810d9c:	e0bffb17 	ldw	r2,-20(fp)
  810da0:	10c00d15 	stw	r3,52(r2)
  810da4:	e0bffd17 	ldw	r2,-12(fp)
  810da8:	10800048 	cmpgei	r2,r2,1
  810dac:	103fcc1e 	bne	r2,zero,810ce0 <altera_avalon_jtag_uart_read+0x50>
  810db0:	e0fffa17 	ldw	r3,-24(fp)
  810db4:	e0bffc17 	ldw	r2,-16(fp)
  810db8:	1880141e 	bne	r3,r2,810e0c <altera_avalon_jtag_uart_read+0x17c>
  810dbc:	e0bffe17 	ldw	r2,-8(fp)
  810dc0:	1090000c 	andi	r2,r2,16384
  810dc4:	1004c03a 	cmpne	r2,r2,zero
  810dc8:	1000101e 	bne	r2,zero,810e0c <altera_avalon_jtag_uart_read+0x17c>
  810dcc:	e0bffb17 	ldw	r2,-20(fp)
  810dd0:	10c00c17 	ldw	r3,48(r2)
  810dd4:	e0bff717 	ldw	r2,-36(fp)
  810dd8:	1880051e 	bne	r3,r2,810df0 <altera_avalon_jtag_uart_read+0x160>
  810ddc:	e0bffb17 	ldw	r2,-20(fp)
  810de0:	10c00917 	ldw	r3,36(r2)
  810de4:	e0bffb17 	ldw	r2,-20(fp)
  810de8:	10800117 	ldw	r2,4(r2)
  810dec:	18bff736 	bltu	r3,r2,810dcc <altera_avalon_jtag_uart_read+0x13c>
  810df0:	e0bffb17 	ldw	r2,-20(fp)
  810df4:	10c00c17 	ldw	r3,48(r2)
  810df8:	e0bff717 	ldw	r2,-36(fp)
  810dfc:	18800326 	beq	r3,r2,810e0c <altera_avalon_jtag_uart_read+0x17c>
  810e00:	e0bffd17 	ldw	r2,-12(fp)
  810e04:	10800048 	cmpgei	r2,r2,1
  810e08:	103fb51e 	bne	r2,zero,810ce0 <altera_avalon_jtag_uart_read+0x50>
  810e0c:	e0bffb17 	ldw	r2,-20(fp)
  810e10:	11000a17 	ldw	r4,40(r2)
  810e14:	000b883a 	mov	r5,zero
  810e18:	000d883a 	mov	r6,zero
  810e1c:	000f883a 	mov	r7,zero
  810e20:	080b5f40 	call	80b5f4 <xQueueGenericSend>
  810e24:	e0fffa17 	ldw	r3,-24(fp)
  810e28:	e0bffc17 	ldw	r2,-16(fp)
  810e2c:	18801926 	beq	r3,r2,810e94 <altera_avalon_jtag_uart_read+0x204>
  810e30:	0005303a 	rdctl	r2,status
  810e34:	e0bff315 	stw	r2,-52(fp)
  810e38:	e0fff317 	ldw	r3,-52(fp)
  810e3c:	00bfff84 	movi	r2,-2
  810e40:	1884703a 	and	r2,r3,r2
  810e44:	1001703a 	wrctl	status,r2
  810e48:	e0bff317 	ldw	r2,-52(fp)
  810e4c:	e0bff915 	stw	r2,-28(fp)
  810e50:	e0bffb17 	ldw	r2,-20(fp)
  810e54:	10800817 	ldw	r2,32(r2)
  810e58:	10c00054 	ori	r3,r2,1
  810e5c:	e0bffb17 	ldw	r2,-20(fp)
  810e60:	10c00815 	stw	r3,32(r2)
  810e64:	e0bffb17 	ldw	r2,-20(fp)
  810e68:	10800017 	ldw	r2,0(r2)
  810e6c:	11000104 	addi	r4,r2,4
  810e70:	e0bffb17 	ldw	r2,-20(fp)
  810e74:	10800817 	ldw	r2,32(r2)
  810e78:	1007883a 	mov	r3,r2
  810e7c:	2005883a 	mov	r2,r4
  810e80:	10c00035 	stwio	r3,0(r2)
  810e84:	e0bff917 	ldw	r2,-28(fp)
  810e88:	e0bff215 	stw	r2,-56(fp)
  810e8c:	e0bff217 	ldw	r2,-56(fp)
  810e90:	1001703a 	wrctl	status,r2
  810e94:	e0fffa17 	ldw	r3,-24(fp)
  810e98:	e0bffc17 	ldw	r2,-16(fp)
  810e9c:	18800526 	beq	r3,r2,810eb4 <altera_avalon_jtag_uart_read+0x224>
  810ea0:	e0fffa17 	ldw	r3,-24(fp)
  810ea4:	e0bffc17 	ldw	r2,-16(fp)
  810ea8:	1887c83a 	sub	r3,r3,r2
  810eac:	e0ffff15 	stw	r3,-4(fp)
  810eb0:	00000906 	br	810ed8 <altera_avalon_jtag_uart_read+0x248>
  810eb4:	e0bffe17 	ldw	r2,-8(fp)
  810eb8:	1090000c 	andi	r2,r2,16384
  810ebc:	1005003a 	cmpeq	r2,r2,zero
  810ec0:	1000031e 	bne	r2,zero,810ed0 <altera_avalon_jtag_uart_read+0x240>
  810ec4:	00bffd44 	movi	r2,-11
  810ec8:	e0bfff15 	stw	r2,-4(fp)
  810ecc:	00000206 	br	810ed8 <altera_avalon_jtag_uart_read+0x248>
  810ed0:	00bffec4 	movi	r2,-5
  810ed4:	e0bfff15 	stw	r2,-4(fp)
  810ed8:	e0bfff17 	ldw	r2,-4(fp)
  810edc:	e037883a 	mov	sp,fp
  810ee0:	dfc00117 	ldw	ra,4(sp)
  810ee4:	df000017 	ldw	fp,0(sp)
  810ee8:	dec00204 	addi	sp,sp,8
  810eec:	f800283a 	ret

00810ef0 <altera_avalon_jtag_uart_write>:
  810ef0:	defff004 	addi	sp,sp,-64
  810ef4:	dfc00f15 	stw	ra,60(sp)
  810ef8:	df000e15 	stw	fp,56(sp)
  810efc:	df000e04 	addi	fp,sp,56
  810f00:	e13ffb15 	stw	r4,-20(fp)
  810f04:	e17ffc15 	stw	r5,-16(fp)
  810f08:	e1bffd15 	stw	r6,-12(fp)
  810f0c:	e1fffe15 	stw	r7,-8(fp)
  810f10:	e03ff915 	stw	zero,-28(fp)
  810f14:	e0bffc17 	ldw	r2,-16(fp)
  810f18:	e0bff615 	stw	r2,-40(fp)
  810f1c:	e0bffb17 	ldw	r2,-20(fp)
  810f20:	10800b17 	ldw	r2,44(r2)
  810f24:	e0bff415 	stw	r2,-48(fp)
  810f28:	e03ff50d 	sth	zero,-44(fp)
  810f2c:	e1bff50b 	ldhu	r6,-44(fp)
  810f30:	e13ff417 	ldw	r4,-48(fp)
  810f34:	000b883a 	mov	r5,zero
  810f38:	000f883a 	mov	r7,zero
  810f3c:	080b8940 	call	80b894 <xQueueGenericReceive>
  810f40:	00003a06 	br	81102c <altera_avalon_jtag_uart_write+0x13c>
  810f44:	e0bffb17 	ldw	r2,-20(fp)
  810f48:	10800e17 	ldw	r2,56(r2)
  810f4c:	e0bffa15 	stw	r2,-24(fp)
  810f50:	e0bffb17 	ldw	r2,-20(fp)
  810f54:	10800f17 	ldw	r2,60(r2)
  810f58:	e0bff915 	stw	r2,-28(fp)
  810f5c:	e0fffa17 	ldw	r3,-24(fp)
  810f60:	e0bff917 	ldw	r2,-28(fp)
  810f64:	1880062e 	bgeu	r3,r2,810f80 <altera_avalon_jtag_uart_write+0x90>
  810f68:	e0fff917 	ldw	r3,-28(fp)
  810f6c:	e0bffa17 	ldw	r2,-24(fp)
  810f70:	1885c83a 	sub	r2,r3,r2
  810f74:	10bfffc4 	addi	r2,r2,-1
  810f78:	e0bff815 	stw	r2,-32(fp)
  810f7c:	00000c06 	br	810fb0 <altera_avalon_jtag_uart_write+0xc0>
  810f80:	e0bff917 	ldw	r2,-28(fp)
  810f84:	1005003a 	cmpeq	r2,r2,zero
  810f88:	1000051e 	bne	r2,zero,810fa0 <altera_avalon_jtag_uart_write+0xb0>
  810f8c:	00820004 	movi	r2,2048
  810f90:	e0fffa17 	ldw	r3,-24(fp)
  810f94:	10c5c83a 	sub	r2,r2,r3
  810f98:	e0bff815 	stw	r2,-32(fp)
  810f9c:	00000406 	br	810fb0 <altera_avalon_jtag_uart_write+0xc0>
  810fa0:	0081ffc4 	movi	r2,2047
  810fa4:	e0fffa17 	ldw	r3,-24(fp)
  810fa8:	10c5c83a 	sub	r2,r2,r3
  810fac:	e0bff815 	stw	r2,-32(fp)
  810fb0:	e0bff817 	ldw	r2,-32(fp)
  810fb4:	1005003a 	cmpeq	r2,r2,zero
  810fb8:	10001f1e 	bne	r2,zero,811038 <altera_avalon_jtag_uart_write+0x148>
  810fbc:	e0fffd17 	ldw	r3,-12(fp)
  810fc0:	e0bff817 	ldw	r2,-32(fp)
  810fc4:	1880022e 	bgeu	r3,r2,810fd0 <altera_avalon_jtag_uart_write+0xe0>
  810fc8:	e0bffd17 	ldw	r2,-12(fp)
  810fcc:	e0bff815 	stw	r2,-32(fp)
  810fd0:	e0bffb17 	ldw	r2,-20(fp)
  810fd4:	10c21004 	addi	r3,r2,2112
  810fd8:	e0bffa17 	ldw	r2,-24(fp)
  810fdc:	1885883a 	add	r2,r3,r2
  810fe0:	e0fffc17 	ldw	r3,-16(fp)
  810fe4:	1009883a 	mov	r4,r2
  810fe8:	180b883a 	mov	r5,r3
  810fec:	e1bff817 	ldw	r6,-32(fp)
  810ff0:	080689c0 	call	80689c <memcpy>
  810ff4:	e0fff817 	ldw	r3,-32(fp)
  810ff8:	e0bffc17 	ldw	r2,-16(fp)
  810ffc:	10c5883a 	add	r2,r2,r3
  811000:	e0bffc15 	stw	r2,-16(fp)
  811004:	e0fffd17 	ldw	r3,-12(fp)
  811008:	e0bff817 	ldw	r2,-32(fp)
  81100c:	1885c83a 	sub	r2,r3,r2
  811010:	e0bffd15 	stw	r2,-12(fp)
  811014:	e0fffa17 	ldw	r3,-24(fp)
  811018:	e0bff817 	ldw	r2,-32(fp)
  81101c:	1885883a 	add	r2,r3,r2
  811020:	10c1ffcc 	andi	r3,r2,2047
  811024:	e0bffb17 	ldw	r2,-20(fp)
  811028:	10c00e15 	stw	r3,56(r2)
  81102c:	e0bffd17 	ldw	r2,-12(fp)
  811030:	10800048 	cmpgei	r2,r2,1
  811034:	103fc31e 	bne	r2,zero,810f44 <altera_avalon_jtag_uart_write+0x54>
  811038:	0005303a 	rdctl	r2,status
  81103c:	e0bff315 	stw	r2,-52(fp)
  811040:	e0fff317 	ldw	r3,-52(fp)
  811044:	00bfff84 	movi	r2,-2
  811048:	1884703a 	and	r2,r3,r2
  81104c:	1001703a 	wrctl	status,r2
  811050:	e0bff317 	ldw	r2,-52(fp)
  811054:	e0bff715 	stw	r2,-36(fp)
  811058:	e0bffb17 	ldw	r2,-20(fp)
  81105c:	10800817 	ldw	r2,32(r2)
  811060:	10c00094 	ori	r3,r2,2
  811064:	e0bffb17 	ldw	r2,-20(fp)
  811068:	10c00815 	stw	r3,32(r2)
  81106c:	e0bffb17 	ldw	r2,-20(fp)
  811070:	10800017 	ldw	r2,0(r2)
  811074:	11000104 	addi	r4,r2,4
  811078:	e0bffb17 	ldw	r2,-20(fp)
  81107c:	10800817 	ldw	r2,32(r2)
  811080:	1007883a 	mov	r3,r2
  811084:	2005883a 	mov	r2,r4
  811088:	10c00035 	stwio	r3,0(r2)
  81108c:	e0bff717 	ldw	r2,-36(fp)
  811090:	e0bff215 	stw	r2,-56(fp)
  811094:	e0bff217 	ldw	r2,-56(fp)
  811098:	1001703a 	wrctl	status,r2
  81109c:	e0bffd17 	ldw	r2,-12(fp)
  8110a0:	10800050 	cmplti	r2,r2,1
  8110a4:	1000111e 	bne	r2,zero,8110ec <altera_avalon_jtag_uart_write+0x1fc>
  8110a8:	e0bffe17 	ldw	r2,-8(fp)
  8110ac:	1090000c 	andi	r2,r2,16384
  8110b0:	1004c03a 	cmpne	r2,r2,zero
  8110b4:	1000101e 	bne	r2,zero,8110f8 <altera_avalon_jtag_uart_write+0x208>
  8110b8:	e0bffb17 	ldw	r2,-20(fp)
  8110bc:	10c00f17 	ldw	r3,60(r2)
  8110c0:	e0bff917 	ldw	r2,-28(fp)
  8110c4:	1880051e 	bne	r3,r2,8110dc <altera_avalon_jtag_uart_write+0x1ec>
  8110c8:	e0bffb17 	ldw	r2,-20(fp)
  8110cc:	10c00917 	ldw	r3,36(r2)
  8110d0:	e0bffb17 	ldw	r2,-20(fp)
  8110d4:	10800117 	ldw	r2,4(r2)
  8110d8:	18bff736 	bltu	r3,r2,8110b8 <altera_avalon_jtag_uart_write+0x1c8>
  8110dc:	e0bffb17 	ldw	r2,-20(fp)
  8110e0:	10c00f17 	ldw	r3,60(r2)
  8110e4:	e0bff917 	ldw	r2,-28(fp)
  8110e8:	18800326 	beq	r3,r2,8110f8 <altera_avalon_jtag_uart_write+0x208>
  8110ec:	e0bffd17 	ldw	r2,-12(fp)
  8110f0:	10800048 	cmpgei	r2,r2,1
  8110f4:	103fcd1e 	bne	r2,zero,81102c <altera_avalon_jtag_uart_write+0x13c>
  8110f8:	e0bffb17 	ldw	r2,-20(fp)
  8110fc:	11000b17 	ldw	r4,44(r2)
  811100:	000b883a 	mov	r5,zero
  811104:	000d883a 	mov	r6,zero
  811108:	000f883a 	mov	r7,zero
  81110c:	080b5f40 	call	80b5f4 <xQueueGenericSend>
  811110:	e0fffc17 	ldw	r3,-16(fp)
  811114:	e0bff617 	ldw	r2,-40(fp)
  811118:	18800526 	beq	r3,r2,811130 <altera_avalon_jtag_uart_write+0x240>
  81111c:	e0fffc17 	ldw	r3,-16(fp)
  811120:	e0bff617 	ldw	r2,-40(fp)
  811124:	1887c83a 	sub	r3,r3,r2
  811128:	e0ffff15 	stw	r3,-4(fp)
  81112c:	00000906 	br	811154 <altera_avalon_jtag_uart_write+0x264>
  811130:	e0bffe17 	ldw	r2,-8(fp)
  811134:	1090000c 	andi	r2,r2,16384
  811138:	1005003a 	cmpeq	r2,r2,zero
  81113c:	1000031e 	bne	r2,zero,81114c <altera_avalon_jtag_uart_write+0x25c>
  811140:	00bffd44 	movi	r2,-11
  811144:	e0bfff15 	stw	r2,-4(fp)
  811148:	00000206 	br	811154 <altera_avalon_jtag_uart_write+0x264>
  81114c:	00bffec4 	movi	r2,-5
  811150:	e0bfff15 	stw	r2,-4(fp)
  811154:	e0bfff17 	ldw	r2,-4(fp)
  811158:	e037883a 	mov	sp,fp
  81115c:	dfc00117 	ldw	ra,4(sp)
  811160:	df000017 	ldw	fp,0(sp)
  811164:	dec00204 	addi	sp,sp,8
  811168:	f800283a 	ret

0081116c <alt_avalon_timer_sc_irq>:
  81116c:	defffa04 	addi	sp,sp,-24
  811170:	dfc00515 	stw	ra,20(sp)
  811174:	df000415 	stw	fp,16(sp)
  811178:	df000404 	addi	fp,sp,16
  81117c:	e13fff15 	stw	r4,-4(fp)
  811180:	e0bfff17 	ldw	r2,-4(fp)
  811184:	10000035 	stwio	zero,0(r2)
  811188:	e0bfff17 	ldw	r2,-4(fp)
  81118c:	10800104 	addi	r2,r2,4
  811190:	10800037 	ldwio	r2,0(r2)
  811194:	080f9bc0 	call	80f9bc <alt_log_system_clock>
  811198:	0005303a 	rdctl	r2,status
  81119c:	e0bffd15 	stw	r2,-12(fp)
  8111a0:	e0fffd17 	ldw	r3,-12(fp)
  8111a4:	00bfff84 	movi	r2,-2
  8111a8:	1884703a 	and	r2,r3,r2
  8111ac:	1001703a 	wrctl	status,r2
  8111b0:	e0bffd17 	ldw	r2,-12(fp)
  8111b4:	e0bffe15 	stw	r2,-8(fp)
  8111b8:	08101bc0 	call	8101bc <alt_tick>
  8111bc:	e0bffe17 	ldw	r2,-8(fp)
  8111c0:	e0bffc15 	stw	r2,-16(fp)
  8111c4:	e0bffc17 	ldw	r2,-16(fp)
  8111c8:	1001703a 	wrctl	status,r2
  8111cc:	e037883a 	mov	sp,fp
  8111d0:	dfc00117 	ldw	ra,4(sp)
  8111d4:	df000017 	ldw	fp,0(sp)
  8111d8:	dec00204 	addi	sp,sp,8
  8111dc:	f800283a 	ret

008111e0 <alt_avalon_timer_sc_init>:
  8111e0:	defff804 	addi	sp,sp,-32
  8111e4:	dfc00715 	stw	ra,28(sp)
  8111e8:	df000615 	stw	fp,24(sp)
  8111ec:	df000604 	addi	fp,sp,24
  8111f0:	e13ffc15 	stw	r4,-16(fp)
  8111f4:	e17ffd15 	stw	r5,-12(fp)
  8111f8:	e1bffe15 	stw	r6,-8(fp)
  8111fc:	e1ffff15 	stw	r7,-4(fp)
  811200:	e0bfff17 	ldw	r2,-4(fp)
  811204:	e0bffb15 	stw	r2,-20(fp)
  811208:	00802074 	movhi	r2,129
  81120c:	1099e604 	addi	r2,r2,26520
  811210:	10800017 	ldw	r2,0(r2)
  811214:	1004c03a 	cmpne	r2,r2,zero
  811218:	1000041e 	bne	r2,zero,81122c <alt_avalon_timer_sc_init+0x4c>
  81121c:	00c02074 	movhi	r3,129
  811220:	18d9e604 	addi	r3,r3,26520
  811224:	e0bffb17 	ldw	r2,-20(fp)
  811228:	18800015 	stw	r2,0(r3)
  81122c:	e0bffc17 	ldw	r2,-16(fp)
  811230:	10800104 	addi	r2,r2,4
  811234:	1007883a 	mov	r3,r2
  811238:	008001c4 	movi	r2,7
  81123c:	18800035 	stwio	r2,0(r3)
  811240:	d8000015 	stw	zero,0(sp)
  811244:	e13ffd17 	ldw	r4,-12(fp)
  811248:	e17ffe17 	ldw	r5,-8(fp)
  81124c:	01802074 	movhi	r6,129
  811250:	31845b04 	addi	r6,r6,4460
  811254:	e1fffc17 	ldw	r7,-16(fp)
  811258:	0811d2c0 	call	811d2c <alt_ic_isr_register>
  81125c:	e037883a 	mov	sp,fp
  811260:	dfc00117 	ldw	ra,4(sp)
  811264:	df000017 	ldw	fp,0(sp)
  811268:	dec00204 	addi	sp,sp,8
  81126c:	f800283a 	ret

00811270 <__env_lock>:
  811270:	defffd04 	addi	sp,sp,-12
  811274:	dfc00215 	stw	ra,8(sp)
  811278:	df000115 	stw	fp,4(sp)
  81127c:	df000104 	addi	fp,sp,4
  811280:	e13fff15 	stw	r4,-4(fp)
  811284:	080dca80 	call	80dca8 <xTaskGetSchedulerState>
  811288:	1005003a 	cmpeq	r2,r2,zero
  81128c:	1000081e 	bne	r2,zero,8112b0 <__env_lock+0x40>
  811290:	00000206 	br	81129c <__env_lock+0x2c>
  811294:	01000044 	movi	r4,1
  811298:	080c6140 	call	80c614 <vTaskDelay>
  81129c:	d1270c17 	ldw	r4,-25552(gp)
  8112a0:	01400284 	movi	r5,10
  8112a4:	080b4f80 	call	80b4f8 <xQueueTakeMutexRecursive>
  8112a8:	10800058 	cmpnei	r2,r2,1
  8112ac:	103ff91e 	bne	r2,zero,811294 <__env_lock+0x24>
  8112b0:	e037883a 	mov	sp,fp
  8112b4:	dfc00117 	ldw	ra,4(sp)
  8112b8:	df000017 	ldw	fp,0(sp)
  8112bc:	dec00204 	addi	sp,sp,8
  8112c0:	f800283a 	ret

008112c4 <__env_unlock>:
  8112c4:	defffd04 	addi	sp,sp,-12
  8112c8:	dfc00215 	stw	ra,8(sp)
  8112cc:	df000115 	stw	fp,4(sp)
  8112d0:	df000104 	addi	fp,sp,4
  8112d4:	e13fff15 	stw	r4,-4(fp)
  8112d8:	080dca80 	call	80dca8 <xTaskGetSchedulerState>
  8112dc:	1005003a 	cmpeq	r2,r2,zero
  8112e0:	1000021e 	bne	r2,zero,8112ec <__env_unlock+0x28>
  8112e4:	d1270c17 	ldw	r4,-25552(gp)
  8112e8:	080b46c0 	call	80b46c <xQueueGiveMutexRecursive>
  8112ec:	e037883a 	mov	sp,fp
  8112f0:	dfc00117 	ldw	ra,4(sp)
  8112f4:	df000017 	ldw	fp,0(sp)
  8112f8:	dec00204 	addi	sp,sp,8
  8112fc:	f800283a 	ret

00811300 <pvPortMalloc>:
  811300:	defffc04 	addi	sp,sp,-16
  811304:	dfc00315 	stw	ra,12(sp)
  811308:	df000215 	stw	fp,8(sp)
  81130c:	df000204 	addi	fp,sp,8
  811310:	e13fff15 	stw	r4,-4(fp)
  811314:	080cce40 	call	80cce4 <vTaskSuspendAll>
  811318:	e13fff17 	ldw	r4,-4(fp)
  81131c:	08121180 	call	812118 <malloc>
  811320:	e0bffe15 	stw	r2,-8(fp)
  811324:	080cd0c0 	call	80cd0c <xTaskResumeAll>
  811328:	e0bffe17 	ldw	r2,-8(fp)
  81132c:	e037883a 	mov	sp,fp
  811330:	dfc00117 	ldw	ra,4(sp)
  811334:	df000017 	ldw	fp,0(sp)
  811338:	dec00204 	addi	sp,sp,8
  81133c:	f800283a 	ret

00811340 <vPortFree>:
  811340:	defffd04 	addi	sp,sp,-12
  811344:	dfc00215 	stw	ra,8(sp)
  811348:	df000115 	stw	fp,4(sp)
  81134c:	df000104 	addi	fp,sp,4
  811350:	e13fff15 	stw	r4,-4(fp)
  811354:	e0bfff17 	ldw	r2,-4(fp)
  811358:	1005003a 	cmpeq	r2,r2,zero
  81135c:	1000041e 	bne	r2,zero,811370 <vPortFree+0x30>
  811360:	080cce40 	call	80cce4 <vTaskSuspendAll>
  811364:	e13fff17 	ldw	r4,-4(fp)
  811368:	08121040 	call	812104 <free>
  81136c:	080cd0c0 	call	80cd0c <xTaskResumeAll>
  811370:	e037883a 	mov	sp,fp
  811374:	dfc00117 	ldw	ra,4(sp)
  811378:	df000017 	ldw	fp,0(sp)
  81137c:	dec00204 	addi	sp,sp,8
  811380:	f800283a 	ret

00811384 <vListInitialise>:
  811384:	defffe04 	addi	sp,sp,-8
  811388:	df000115 	stw	fp,4(sp)
  81138c:	df000104 	addi	fp,sp,4
  811390:	e13fff15 	stw	r4,-4(fp)
  811394:	e0bfff17 	ldw	r2,-4(fp)
  811398:	10800204 	addi	r2,r2,8
  81139c:	1007883a 	mov	r3,r2
  8113a0:	e0bfff17 	ldw	r2,-4(fp)
  8113a4:	10c00115 	stw	r3,4(r2)
  8113a8:	e0ffff17 	ldw	r3,-4(fp)
  8113ac:	00bfffc4 	movi	r2,-1
  8113b0:	18800215 	stw	r2,8(r3)
  8113b4:	e0bfff17 	ldw	r2,-4(fp)
  8113b8:	10800204 	addi	r2,r2,8
  8113bc:	1007883a 	mov	r3,r2
  8113c0:	e0bfff17 	ldw	r2,-4(fp)
  8113c4:	10c00315 	stw	r3,12(r2)
  8113c8:	e0bfff17 	ldw	r2,-4(fp)
  8113cc:	10800204 	addi	r2,r2,8
  8113d0:	1007883a 	mov	r3,r2
  8113d4:	e0bfff17 	ldw	r2,-4(fp)
  8113d8:	10c00415 	stw	r3,16(r2)
  8113dc:	e0bfff17 	ldw	r2,-4(fp)
  8113e0:	10000015 	stw	zero,0(r2)
  8113e4:	e037883a 	mov	sp,fp
  8113e8:	df000017 	ldw	fp,0(sp)
  8113ec:	dec00104 	addi	sp,sp,4
  8113f0:	f800283a 	ret

008113f4 <vListInitialiseItem>:
  8113f4:	defffe04 	addi	sp,sp,-8
  8113f8:	df000115 	stw	fp,4(sp)
  8113fc:	df000104 	addi	fp,sp,4
  811400:	e13fff15 	stw	r4,-4(fp)
  811404:	e0bfff17 	ldw	r2,-4(fp)
  811408:	10000415 	stw	zero,16(r2)
  81140c:	e037883a 	mov	sp,fp
  811410:	df000017 	ldw	fp,0(sp)
  811414:	dec00104 	addi	sp,sp,4
  811418:	f800283a 	ret

0081141c <vListInsertEnd>:
  81141c:	defffc04 	addi	sp,sp,-16
  811420:	df000315 	stw	fp,12(sp)
  811424:	df000304 	addi	fp,sp,12
  811428:	e13ffe15 	stw	r4,-8(fp)
  81142c:	e17fff15 	stw	r5,-4(fp)
  811430:	e0bffe17 	ldw	r2,-8(fp)
  811434:	10800117 	ldw	r2,4(r2)
  811438:	e0bffd15 	stw	r2,-12(fp)
  81143c:	e0bffd17 	ldw	r2,-12(fp)
  811440:	10c00117 	ldw	r3,4(r2)
  811444:	e0bfff17 	ldw	r2,-4(fp)
  811448:	10c00115 	stw	r3,4(r2)
  81144c:	e0bffe17 	ldw	r2,-8(fp)
  811450:	10c00117 	ldw	r3,4(r2)
  811454:	e0bfff17 	ldw	r2,-4(fp)
  811458:	10c00215 	stw	r3,8(r2)
  81145c:	e0bffd17 	ldw	r2,-12(fp)
  811460:	10c00117 	ldw	r3,4(r2)
  811464:	e0bfff17 	ldw	r2,-4(fp)
  811468:	18800215 	stw	r2,8(r3)
  81146c:	e0ffff17 	ldw	r3,-4(fp)
  811470:	e0bffd17 	ldw	r2,-12(fp)
  811474:	10c00115 	stw	r3,4(r2)
  811478:	e0ffff17 	ldw	r3,-4(fp)
  81147c:	e0bffe17 	ldw	r2,-8(fp)
  811480:	10c00115 	stw	r3,4(r2)
  811484:	e0ffff17 	ldw	r3,-4(fp)
  811488:	e0bffe17 	ldw	r2,-8(fp)
  81148c:	18800415 	stw	r2,16(r3)
  811490:	e0bffe17 	ldw	r2,-8(fp)
  811494:	10800017 	ldw	r2,0(r2)
  811498:	10c00044 	addi	r3,r2,1
  81149c:	e0bffe17 	ldw	r2,-8(fp)
  8114a0:	10c00015 	stw	r3,0(r2)
  8114a4:	e037883a 	mov	sp,fp
  8114a8:	df000017 	ldw	fp,0(sp)
  8114ac:	dec00104 	addi	sp,sp,4
  8114b0:	f800283a 	ret

008114b4 <vListInsert>:
  8114b4:	defffb04 	addi	sp,sp,-20
  8114b8:	df000415 	stw	fp,16(sp)
  8114bc:	df000404 	addi	fp,sp,16
  8114c0:	e13ffe15 	stw	r4,-8(fp)
  8114c4:	e17fff15 	stw	r5,-4(fp)
  8114c8:	e0bfff17 	ldw	r2,-4(fp)
  8114cc:	10800017 	ldw	r2,0(r2)
  8114d0:	e0bffc15 	stw	r2,-16(fp)
  8114d4:	e0bffc17 	ldw	r2,-16(fp)
  8114d8:	10bfffd8 	cmpnei	r2,r2,-1
  8114dc:	1000041e 	bne	r2,zero,8114f0 <vListInsert+0x3c>
  8114e0:	e0bffe17 	ldw	r2,-8(fp)
  8114e4:	10800417 	ldw	r2,16(r2)
  8114e8:	e0bffd15 	stw	r2,-12(fp)
  8114ec:	00000c06 	br	811520 <vListInsert+0x6c>
  8114f0:	e0bffe17 	ldw	r2,-8(fp)
  8114f4:	10800204 	addi	r2,r2,8
  8114f8:	e0bffd15 	stw	r2,-12(fp)
  8114fc:	00000306 	br	81150c <vListInsert+0x58>
  811500:	e0bffd17 	ldw	r2,-12(fp)
  811504:	10800117 	ldw	r2,4(r2)
  811508:	e0bffd15 	stw	r2,-12(fp)
  81150c:	e0bffd17 	ldw	r2,-12(fp)
  811510:	10800117 	ldw	r2,4(r2)
  811514:	10c00017 	ldw	r3,0(r2)
  811518:	e0bffc17 	ldw	r2,-16(fp)
  81151c:	10fff82e 	bgeu	r2,r3,811500 <vListInsert+0x4c>
  811520:	e0bffd17 	ldw	r2,-12(fp)
  811524:	10c00117 	ldw	r3,4(r2)
  811528:	e0bfff17 	ldw	r2,-4(fp)
  81152c:	10c00115 	stw	r3,4(r2)
  811530:	e0bfff17 	ldw	r2,-4(fp)
  811534:	10c00117 	ldw	r3,4(r2)
  811538:	e0bfff17 	ldw	r2,-4(fp)
  81153c:	18800215 	stw	r2,8(r3)
  811540:	e0ffff17 	ldw	r3,-4(fp)
  811544:	e0bffd17 	ldw	r2,-12(fp)
  811548:	18800215 	stw	r2,8(r3)
  81154c:	e0ffff17 	ldw	r3,-4(fp)
  811550:	e0bffd17 	ldw	r2,-12(fp)
  811554:	10c00115 	stw	r3,4(r2)
  811558:	e0ffff17 	ldw	r3,-4(fp)
  81155c:	e0bffe17 	ldw	r2,-8(fp)
  811560:	18800415 	stw	r2,16(r3)
  811564:	e0bffe17 	ldw	r2,-8(fp)
  811568:	10800017 	ldw	r2,0(r2)
  81156c:	10c00044 	addi	r3,r2,1
  811570:	e0bffe17 	ldw	r2,-8(fp)
  811574:	10c00015 	stw	r3,0(r2)
  811578:	e037883a 	mov	sp,fp
  81157c:	df000017 	ldw	fp,0(sp)
  811580:	dec00104 	addi	sp,sp,4
  811584:	f800283a 	ret

00811588 <uxListRemove>:
  811588:	defffd04 	addi	sp,sp,-12
  81158c:	df000215 	stw	fp,8(sp)
  811590:	df000204 	addi	fp,sp,8
  811594:	e13fff15 	stw	r4,-4(fp)
  811598:	e0bfff17 	ldw	r2,-4(fp)
  81159c:	10c00117 	ldw	r3,4(r2)
  8115a0:	e0bfff17 	ldw	r2,-4(fp)
  8115a4:	10800217 	ldw	r2,8(r2)
  8115a8:	18800215 	stw	r2,8(r3)
  8115ac:	e0bfff17 	ldw	r2,-4(fp)
  8115b0:	10c00217 	ldw	r3,8(r2)
  8115b4:	e0bfff17 	ldw	r2,-4(fp)
  8115b8:	10800117 	ldw	r2,4(r2)
  8115bc:	18800115 	stw	r2,4(r3)
  8115c0:	e0bfff17 	ldw	r2,-4(fp)
  8115c4:	10800417 	ldw	r2,16(r2)
  8115c8:	e0bffe15 	stw	r2,-8(fp)
  8115cc:	e0bffe17 	ldw	r2,-8(fp)
  8115d0:	10c00117 	ldw	r3,4(r2)
  8115d4:	e0bfff17 	ldw	r2,-4(fp)
  8115d8:	1880041e 	bne	r3,r2,8115ec <uxListRemove+0x64>
  8115dc:	e0bfff17 	ldw	r2,-4(fp)
  8115e0:	10c00217 	ldw	r3,8(r2)
  8115e4:	e0bffe17 	ldw	r2,-8(fp)
  8115e8:	10c00115 	stw	r3,4(r2)
  8115ec:	e0bfff17 	ldw	r2,-4(fp)
  8115f0:	10000415 	stw	zero,16(r2)
  8115f4:	e0bffe17 	ldw	r2,-8(fp)
  8115f8:	10800017 	ldw	r2,0(r2)
  8115fc:	10ffffc4 	addi	r3,r2,-1
  811600:	e0bffe17 	ldw	r2,-8(fp)
  811604:	10c00015 	stw	r3,0(r2)
  811608:	e0bffe17 	ldw	r2,-8(fp)
  81160c:	10800017 	ldw	r2,0(r2)
  811610:	e037883a 	mov	sp,fp
  811614:	df000017 	ldw	fp,0(sp)
  811618:	dec00104 	addi	sp,sp,4
  81161c:	f800283a 	ret

00811620 <pxPortInitialiseStack>:
  811620:	defff904 	addi	sp,sp,-28
  811624:	dfc00615 	stw	ra,24(sp)
  811628:	df000515 	stw	fp,20(sp)
  81162c:	df000504 	addi	fp,sp,20
  811630:	e13ffd15 	stw	r4,-12(fp)
  811634:	e17ffe15 	stw	r5,-8(fp)
  811638:	e1bfff15 	stw	r6,-4(fp)
  81163c:	e0bffd17 	ldw	r2,-12(fp)
  811640:	10bfff04 	addi	r2,r2,-4
  811644:	e0bffb15 	stw	r2,-20(fp)
  811648:	e13ffc04 	addi	r4,fp,-16
  81164c:	08117080 	call	811708 <prvReadGp>
  811650:	e0fffd17 	ldw	r3,-12(fp)
  811654:	00b7abb4 	movhi	r2,57006
  811658:	10afbbc4 	addi	r2,r2,-16657
  81165c:	18800015 	stw	r2,0(r3)
  811660:	e0bffd17 	ldw	r2,-12(fp)
  811664:	10bfff04 	addi	r2,r2,-4
  811668:	e0bffd15 	stw	r2,-12(fp)
  81166c:	e0bffb17 	ldw	r2,-20(fp)
  811670:	1007883a 	mov	r3,r2
  811674:	e0bffd17 	ldw	r2,-12(fp)
  811678:	10c00015 	stw	r3,0(r2)
  81167c:	e0bffd17 	ldw	r2,-12(fp)
  811680:	10bfff04 	addi	r2,r2,-4
  811684:	e0bffd15 	stw	r2,-12(fp)
  811688:	e0fffc17 	ldw	r3,-16(fp)
  81168c:	e0bffd17 	ldw	r2,-12(fp)
  811690:	10c00015 	stw	r3,0(r2)
  811694:	e0bffd17 	ldw	r2,-12(fp)
  811698:	10bff704 	addi	r2,r2,-36
  81169c:	e0bffd15 	stw	r2,-12(fp)
  8116a0:	e0bffe17 	ldw	r2,-8(fp)
  8116a4:	1007883a 	mov	r3,r2
  8116a8:	e0bffd17 	ldw	r2,-12(fp)
  8116ac:	10c00015 	stw	r3,0(r2)
  8116b0:	e0bffd17 	ldw	r2,-12(fp)
  8116b4:	10bfff04 	addi	r2,r2,-4
  8116b8:	e0bffd15 	stw	r2,-12(fp)
  8116bc:	e0fffd17 	ldw	r3,-12(fp)
  8116c0:	00800044 	movi	r2,1
  8116c4:	18800015 	stw	r2,0(r3)
  8116c8:	e0bffd17 	ldw	r2,-12(fp)
  8116cc:	10bff404 	addi	r2,r2,-48
  8116d0:	e0bffd15 	stw	r2,-12(fp)
  8116d4:	e0bfff17 	ldw	r2,-4(fp)
  8116d8:	1007883a 	mov	r3,r2
  8116dc:	e0bffd17 	ldw	r2,-12(fp)
  8116e0:	10c00015 	stw	r3,0(r2)
  8116e4:	e0bffd17 	ldw	r2,-12(fp)
  8116e8:	10bffb04 	addi	r2,r2,-20
  8116ec:	e0bffd15 	stw	r2,-12(fp)
  8116f0:	e0bffd17 	ldw	r2,-12(fp)
  8116f4:	e037883a 	mov	sp,fp
  8116f8:	dfc00117 	ldw	ra,4(sp)
  8116fc:	df000017 	ldw	fp,0(sp)
  811700:	dec00204 	addi	sp,sp,8
  811704:	f800283a 	ret

00811708 <prvReadGp>:
  811708:	defffe04 	addi	sp,sp,-8
  81170c:	df000115 	stw	fp,4(sp)
  811710:	df000104 	addi	fp,sp,4
  811714:	e13fff15 	stw	r4,-4(fp)
  811718:	e0bfff17 	ldw	r2,-4(fp)
  81171c:	16800015 	stw	gp,0(r2)
  811720:	e037883a 	mov	sp,fp
  811724:	df000017 	ldw	fp,0(sp)
  811728:	dec00104 	addi	sp,sp,4
  81172c:	f800283a 	ret

00811730 <xPortStartScheduler>:
  811730:	deffff04 	addi	sp,sp,-4
  811734:	df000015 	stw	fp,0(sp)
  811738:	d839883a 	mov	fp,sp
  81173c:	00802034 	movhi	r2,128
  811740:	10803604 	addi	r2,r2,216
  811744:	1000683a 	jmp	r2
  811748:	0005883a 	mov	r2,zero
  81174c:	e037883a 	mov	sp,fp
  811750:	df000017 	ldw	fp,0(sp)
  811754:	dec00104 	addi	sp,sp,4
  811758:	f800283a 	ret

0081175c <vPortEndScheduler>:
  81175c:	deffff04 	addi	sp,sp,-4
  811760:	df000015 	stw	fp,0(sp)
  811764:	d839883a 	mov	fp,sp
  811768:	e037883a 	mov	sp,fp
  81176c:	df000017 	ldw	fp,0(sp)
  811770:	dec00104 	addi	sp,sp,4
  811774:	f800283a 	ret

00811778 <vPortSysTickHandler>:
  811778:	defffe04 	addi	sp,sp,-8
  81177c:	dfc00115 	stw	ra,4(sp)
  811780:	df000015 	stw	fp,0(sp)
  811784:	d839883a 	mov	fp,sp
  811788:	080dca80 	call	80dca8 <xTaskGetSchedulerState>
  81178c:	1005003a 	cmpeq	r2,r2,zero
  811790:	1000021e 	bne	r2,zero,81179c <vPortSysTickHandler+0x24>
  811794:	080d08c0 	call	80d08c <vTaskIncrementTick>
  811798:	080d20c0 	call	80d20c <vTaskSwitchContext>
  81179c:	e037883a 	mov	sp,fp
  8117a0:	dfc00117 	ldw	ra,4(sp)
  8117a4:	df000017 	ldw	fp,0(sp)
  8117a8:	dec00204 	addi	sp,sp,8
  8117ac:	f800283a 	ret

008117b0 <alt_alarm_start>:
  8117b0:	defff404 	addi	sp,sp,-48
  8117b4:	df000b15 	stw	fp,44(sp)
  8117b8:	df000b04 	addi	fp,sp,44
  8117bc:	e13ffb15 	stw	r4,-20(fp)
  8117c0:	e17ffc15 	stw	r5,-16(fp)
  8117c4:	e1bffd15 	stw	r6,-12(fp)
  8117c8:	e1fffe15 	stw	r7,-8(fp)
  8117cc:	e03ff915 	stw	zero,-28(fp)
  8117d0:	00802074 	movhi	r2,129
  8117d4:	1099e604 	addi	r2,r2,26520
  8117d8:	10800017 	ldw	r2,0(r2)
  8117dc:	1005003a 	cmpeq	r2,r2,zero
  8117e0:	1000411e 	bne	r2,zero,8118e8 <alt_alarm_start+0x138>
  8117e4:	e0bffb17 	ldw	r2,-20(fp)
  8117e8:	1005003a 	cmpeq	r2,r2,zero
  8117ec:	10003b1e 	bne	r2,zero,8118dc <alt_alarm_start+0x12c>
  8117f0:	e0fffb17 	ldw	r3,-20(fp)
  8117f4:	e0bffd17 	ldw	r2,-12(fp)
  8117f8:	18800315 	stw	r2,12(r3)
  8117fc:	e0fffb17 	ldw	r3,-20(fp)
  811800:	e0bffe17 	ldw	r2,-8(fp)
  811804:	18800515 	stw	r2,20(r3)
  811808:	0005303a 	rdctl	r2,status
  81180c:	e0bff815 	stw	r2,-32(fp)
  811810:	e0fff817 	ldw	r3,-32(fp)
  811814:	00bfff84 	movi	r2,-2
  811818:	1884703a 	and	r2,r3,r2
  81181c:	1001703a 	wrctl	status,r2
  811820:	e0bff817 	ldw	r2,-32(fp)
  811824:	e0bffa15 	stw	r2,-24(fp)
  811828:	00802074 	movhi	r2,129
  81182c:	1099e704 	addi	r2,r2,26524
  811830:	10800017 	ldw	r2,0(r2)
  811834:	e0bff915 	stw	r2,-28(fp)
  811838:	e0fffc17 	ldw	r3,-16(fp)
  81183c:	e0bff917 	ldw	r2,-28(fp)
  811840:	1885883a 	add	r2,r3,r2
  811844:	10c00044 	addi	r3,r2,1
  811848:	e0bffb17 	ldw	r2,-20(fp)
  81184c:	10c00215 	stw	r3,8(r2)
  811850:	e0bffb17 	ldw	r2,-20(fp)
  811854:	10c00217 	ldw	r3,8(r2)
  811858:	e0bff917 	ldw	r2,-28(fp)
  81185c:	1880042e 	bgeu	r3,r2,811870 <alt_alarm_start+0xc0>
  811860:	e0fffb17 	ldw	r3,-20(fp)
  811864:	00800044 	movi	r2,1
  811868:	18800405 	stb	r2,16(r3)
  81186c:	00000206 	br	811878 <alt_alarm_start+0xc8>
  811870:	e0bffb17 	ldw	r2,-20(fp)
  811874:	10000405 	stb	zero,16(r2)
  811878:	e0fffb17 	ldw	r3,-20(fp)
  81187c:	00802074 	movhi	r2,129
  811880:	1092eb04 	addi	r2,r2,19372
  811884:	e0bff615 	stw	r2,-40(fp)
  811888:	e0fff715 	stw	r3,-36(fp)
  81188c:	e0fff717 	ldw	r3,-36(fp)
  811890:	e0bff617 	ldw	r2,-40(fp)
  811894:	18800115 	stw	r2,4(r3)
  811898:	e0bff617 	ldw	r2,-40(fp)
  81189c:	10c00017 	ldw	r3,0(r2)
  8118a0:	e0bff717 	ldw	r2,-36(fp)
  8118a4:	10c00015 	stw	r3,0(r2)
  8118a8:	e0bff617 	ldw	r2,-40(fp)
  8118ac:	10c00017 	ldw	r3,0(r2)
  8118b0:	e0bff717 	ldw	r2,-36(fp)
  8118b4:	18800115 	stw	r2,4(r3)
  8118b8:	e0fff617 	ldw	r3,-40(fp)
  8118bc:	e0bff717 	ldw	r2,-36(fp)
  8118c0:	18800015 	stw	r2,0(r3)
  8118c4:	e0bffa17 	ldw	r2,-24(fp)
  8118c8:	e0bff515 	stw	r2,-44(fp)
  8118cc:	e0bff517 	ldw	r2,-44(fp)
  8118d0:	1001703a 	wrctl	status,r2
  8118d4:	e03fff15 	stw	zero,-4(fp)
  8118d8:	00000506 	br	8118f0 <alt_alarm_start+0x140>
  8118dc:	00bffa84 	movi	r2,-22
  8118e0:	e0bfff15 	stw	r2,-4(fp)
  8118e4:	00000206 	br	8118f0 <alt_alarm_start+0x140>
  8118e8:	00bfde84 	movi	r2,-134
  8118ec:	e0bfff15 	stw	r2,-4(fp)
  8118f0:	e0bfff17 	ldw	r2,-4(fp)
  8118f4:	e037883a 	mov	sp,fp
  8118f8:	df000017 	ldw	fp,0(sp)
  8118fc:	dec00104 	addi	sp,sp,4
  811900:	f800283a 	ret

00811904 <alt_dcache_flush_all>:
  811904:	deffff04 	addi	sp,sp,-4
  811908:	df000015 	stw	fp,0(sp)
  81190c:	d839883a 	mov	fp,sp
  811910:	e037883a 	mov	sp,fp
  811914:	df000017 	ldw	fp,0(sp)
  811918:	dec00104 	addi	sp,sp,4
  81191c:	f800283a 	ret

00811920 <alt_dev_llist_insert>:
  811920:	defff904 	addi	sp,sp,-28
  811924:	dfc00615 	stw	ra,24(sp)
  811928:	df000515 	stw	fp,20(sp)
  81192c:	df000504 	addi	fp,sp,20
  811930:	e13ffd15 	stw	r4,-12(fp)
  811934:	e17ffe15 	stw	r5,-8(fp)
  811938:	e0bffd17 	ldw	r2,-12(fp)
  81193c:	1005003a 	cmpeq	r2,r2,zero
  811940:	1000041e 	bne	r2,zero,811954 <alt_dev_llist_insert+0x34>
  811944:	e0bffd17 	ldw	r2,-12(fp)
  811948:	10800217 	ldw	r2,8(r2)
  81194c:	1004c03a 	cmpne	r2,r2,zero
  811950:	1000071e 	bne	r2,zero,811970 <alt_dev_llist_insert+0x50>
  811954:	08119d40 	call	8119d4 <alt_get_errno>
  811958:	1007883a 	mov	r3,r2
  81195c:	00800584 	movi	r2,22
  811960:	18800015 	stw	r2,0(r3)
  811964:	00bffa84 	movi	r2,-22
  811968:	e0bfff15 	stw	r2,-4(fp)
  81196c:	00001306 	br	8119bc <alt_dev_llist_insert+0x9c>
  811970:	e0fffd17 	ldw	r3,-12(fp)
  811974:	e0bffe17 	ldw	r2,-8(fp)
  811978:	e0bffb15 	stw	r2,-20(fp)
  81197c:	e0fffc15 	stw	r3,-16(fp)
  811980:	e0fffc17 	ldw	r3,-16(fp)
  811984:	e0bffb17 	ldw	r2,-20(fp)
  811988:	18800115 	stw	r2,4(r3)
  81198c:	e0bffb17 	ldw	r2,-20(fp)
  811990:	10c00017 	ldw	r3,0(r2)
  811994:	e0bffc17 	ldw	r2,-16(fp)
  811998:	10c00015 	stw	r3,0(r2)
  81199c:	e0bffb17 	ldw	r2,-20(fp)
  8119a0:	10c00017 	ldw	r3,0(r2)
  8119a4:	e0bffc17 	ldw	r2,-16(fp)
  8119a8:	18800115 	stw	r2,4(r3)
  8119ac:	e0fffb17 	ldw	r3,-20(fp)
  8119b0:	e0bffc17 	ldw	r2,-16(fp)
  8119b4:	18800015 	stw	r2,0(r3)
  8119b8:	e03fff15 	stw	zero,-4(fp)
  8119bc:	e0bfff17 	ldw	r2,-4(fp)
  8119c0:	e037883a 	mov	sp,fp
  8119c4:	dfc00117 	ldw	ra,4(sp)
  8119c8:	df000017 	ldw	fp,0(sp)
  8119cc:	dec00204 	addi	sp,sp,8
  8119d0:	f800283a 	ret

008119d4 <alt_get_errno>:
  8119d4:	defffd04 	addi	sp,sp,-12
  8119d8:	dfc00215 	stw	ra,8(sp)
  8119dc:	df000115 	stw	fp,4(sp)
  8119e0:	df000104 	addi	fp,sp,4
  8119e4:	00802074 	movhi	r2,129
  8119e8:	1092e904 	addi	r2,r2,19364
  8119ec:	10800017 	ldw	r2,0(r2)
  8119f0:	1005003a 	cmpeq	r2,r2,zero
  8119f4:	1000061e 	bne	r2,zero,811a10 <alt_get_errno+0x3c>
  8119f8:	00802074 	movhi	r2,129
  8119fc:	1092e904 	addi	r2,r2,19364
  811a00:	10800017 	ldw	r2,0(r2)
  811a04:	103ee83a 	callr	r2
  811a08:	e0bfff15 	stw	r2,-4(fp)
  811a0c:	00000306 	br	811a1c <alt_get_errno+0x48>
  811a10:	00802074 	movhi	r2,129
  811a14:	1099ca04 	addi	r2,r2,26408
  811a18:	e0bfff15 	stw	r2,-4(fp)
  811a1c:	e0bfff17 	ldw	r2,-4(fp)
  811a20:	e037883a 	mov	sp,fp
  811a24:	dfc00117 	ldw	ra,4(sp)
  811a28:	df000017 	ldw	fp,0(sp)
  811a2c:	dec00204 	addi	sp,sp,8
  811a30:	f800283a 	ret

00811a34 <alt_find_dev>:
  811a34:	defff904 	addi	sp,sp,-28
  811a38:	dfc00615 	stw	ra,24(sp)
  811a3c:	df000515 	stw	fp,20(sp)
  811a40:	df000504 	addi	fp,sp,20
  811a44:	e13ffd15 	stw	r4,-12(fp)
  811a48:	e17ffe15 	stw	r5,-8(fp)
  811a4c:	e0bffe17 	ldw	r2,-8(fp)
  811a50:	10800017 	ldw	r2,0(r2)
  811a54:	e0bffc15 	stw	r2,-16(fp)
  811a58:	e13ffd17 	ldw	r4,-12(fp)
  811a5c:	08015b80 	call	8015b8 <strlen>
  811a60:	10800044 	addi	r2,r2,1
  811a64:	e0bffb15 	stw	r2,-20(fp)
  811a68:	00000d06 	br	811aa0 <alt_find_dev+0x6c>
  811a6c:	e0bffc17 	ldw	r2,-16(fp)
  811a70:	11000217 	ldw	r4,8(r2)
  811a74:	e1bffb17 	ldw	r6,-20(fp)
  811a78:	e17ffd17 	ldw	r5,-12(fp)
  811a7c:	081212c0 	call	81212c <memcmp>
  811a80:	1004c03a 	cmpne	r2,r2,zero
  811a84:	1000031e 	bne	r2,zero,811a94 <alt_find_dev+0x60>
  811a88:	e0bffc17 	ldw	r2,-16(fp)
  811a8c:	e0bfff15 	stw	r2,-4(fp)
  811a90:	00000706 	br	811ab0 <alt_find_dev+0x7c>
  811a94:	e0bffc17 	ldw	r2,-16(fp)
  811a98:	10800017 	ldw	r2,0(r2)
  811a9c:	e0bffc15 	stw	r2,-16(fp)
  811aa0:	e0fffe17 	ldw	r3,-8(fp)
  811aa4:	e0bffc17 	ldw	r2,-16(fp)
  811aa8:	10fff01e 	bne	r2,r3,811a6c <alt_find_dev+0x38>
  811aac:	e03fff15 	stw	zero,-4(fp)
  811ab0:	e0bfff17 	ldw	r2,-4(fp)
  811ab4:	e037883a 	mov	sp,fp
  811ab8:	dfc00117 	ldw	ra,4(sp)
  811abc:	df000017 	ldw	fp,0(sp)
  811ac0:	dec00204 	addi	sp,sp,8
  811ac4:	f800283a 	ret

00811ac8 <alt_find_file>:
  811ac8:	defffa04 	addi	sp,sp,-24
  811acc:	dfc00515 	stw	ra,20(sp)
  811ad0:	df000415 	stw	fp,16(sp)
  811ad4:	df000404 	addi	fp,sp,16
  811ad8:	e13ffe15 	stw	r4,-8(fp)
  811adc:	00802074 	movhi	r2,129
  811ae0:	1092e404 	addi	r2,r2,19344
  811ae4:	10800017 	ldw	r2,0(r2)
  811ae8:	e0bffd15 	stw	r2,-12(fp)
  811aec:	00003306 	br	811bbc <alt_find_file+0xf4>
  811af0:	e0bffd17 	ldw	r2,-12(fp)
  811af4:	11000217 	ldw	r4,8(r2)
  811af8:	08015b80 	call	8015b8 <strlen>
  811afc:	e0bffc15 	stw	r2,-16(fp)
  811b00:	e0bffd17 	ldw	r2,-12(fp)
  811b04:	10c00217 	ldw	r3,8(r2)
  811b08:	e0bffc17 	ldw	r2,-16(fp)
  811b0c:	1885883a 	add	r2,r3,r2
  811b10:	10bfffc4 	addi	r2,r2,-1
  811b14:	10800003 	ldbu	r2,0(r2)
  811b18:	10803fcc 	andi	r2,r2,255
  811b1c:	1080201c 	xori	r2,r2,128
  811b20:	10bfe004 	addi	r2,r2,-128
  811b24:	10800bd8 	cmpnei	r2,r2,47
  811b28:	1000031e 	bne	r2,zero,811b38 <alt_find_file+0x70>
  811b2c:	e0bffc17 	ldw	r2,-16(fp)
  811b30:	10bfffc4 	addi	r2,r2,-1
  811b34:	e0bffc15 	stw	r2,-16(fp)
  811b38:	e0bffc17 	ldw	r2,-16(fp)
  811b3c:	1007883a 	mov	r3,r2
  811b40:	e0bffe17 	ldw	r2,-8(fp)
  811b44:	1885883a 	add	r2,r3,r2
  811b48:	10800003 	ldbu	r2,0(r2)
  811b4c:	10803fcc 	andi	r2,r2,255
  811b50:	1080201c 	xori	r2,r2,128
  811b54:	10bfe004 	addi	r2,r2,-128
  811b58:	10800be0 	cmpeqi	r2,r2,47
  811b5c:	10000a1e 	bne	r2,zero,811b88 <alt_find_file+0xc0>
  811b60:	e0bffc17 	ldw	r2,-16(fp)
  811b64:	1007883a 	mov	r3,r2
  811b68:	e0bffe17 	ldw	r2,-8(fp)
  811b6c:	1885883a 	add	r2,r3,r2
  811b70:	10800003 	ldbu	r2,0(r2)
  811b74:	10803fcc 	andi	r2,r2,255
  811b78:	1080201c 	xori	r2,r2,128
  811b7c:	10bfe004 	addi	r2,r2,-128
  811b80:	1004c03a 	cmpne	r2,r2,zero
  811b84:	10000a1e 	bne	r2,zero,811bb0 <alt_find_file+0xe8>
  811b88:	e0bffd17 	ldw	r2,-12(fp)
  811b8c:	11000217 	ldw	r4,8(r2)
  811b90:	e1bffc17 	ldw	r6,-16(fp)
  811b94:	e17ffe17 	ldw	r5,-8(fp)
  811b98:	081212c0 	call	81212c <memcmp>
  811b9c:	1004c03a 	cmpne	r2,r2,zero
  811ba0:	1000031e 	bne	r2,zero,811bb0 <alt_find_file+0xe8>
  811ba4:	e0bffd17 	ldw	r2,-12(fp)
  811ba8:	e0bfff15 	stw	r2,-4(fp)
  811bac:	00000806 	br	811bd0 <alt_find_file+0x108>
  811bb0:	e0bffd17 	ldw	r2,-12(fp)
  811bb4:	10800017 	ldw	r2,0(r2)
  811bb8:	e0bffd15 	stw	r2,-12(fp)
  811bbc:	00c02074 	movhi	r3,129
  811bc0:	18d2e404 	addi	r3,r3,19344
  811bc4:	e0bffd17 	ldw	r2,-12(fp)
  811bc8:	10ffc91e 	bne	r2,r3,811af0 <alt_find_file+0x28>
  811bcc:	e03fff15 	stw	zero,-4(fp)
  811bd0:	e0bfff17 	ldw	r2,-4(fp)
  811bd4:	e037883a 	mov	sp,fp
  811bd8:	dfc00117 	ldw	ra,4(sp)
  811bdc:	df000017 	ldw	fp,0(sp)
  811be0:	dec00204 	addi	sp,sp,8
  811be4:	f800283a 	ret

00811be8 <alt_get_fd>:
  811be8:	defff804 	addi	sp,sp,-32
  811bec:	dfc00715 	stw	ra,28(sp)
  811bf0:	df000615 	stw	fp,24(sp)
  811bf4:	dc000515 	stw	r16,20(sp)
  811bf8:	df000504 	addi	fp,sp,20
  811bfc:	e13fff15 	stw	r4,-4(fp)
  811c00:	00bffa04 	movi	r2,-24
  811c04:	e0bffd15 	stw	r2,-12(fp)
  811c08:	00802074 	movhi	r2,129
  811c0c:	1099e104 	addi	r2,r2,26500
  811c10:	10800017 	ldw	r2,0(r2)
  811c14:	e0bffb15 	stw	r2,-20(fp)
  811c18:	e03ffc0d 	sth	zero,-16(fp)
  811c1c:	e1bffc0b 	ldhu	r6,-16(fp)
  811c20:	e13ffb17 	ldw	r4,-20(fp)
  811c24:	000b883a 	mov	r5,zero
  811c28:	000f883a 	mov	r7,zero
  811c2c:	080b8940 	call	80b894 <xQueueGenericReceive>
  811c30:	e03ffe15 	stw	zero,-8(fp)
  811c34:	00002006 	br	811cb8 <alt_get_fd+0xd0>
  811c38:	e13ffe17 	ldw	r4,-8(fp)
  811c3c:	04002074 	movhi	r16,129
  811c40:	840e3a04 	addi	r16,r16,14568
  811c44:	01400304 	movi	r5,12
  811c48:	08014540 	call	801454 <__mulsi3>
  811c4c:	1405883a 	add	r2,r2,r16
  811c50:	10800017 	ldw	r2,0(r2)
  811c54:	1004c03a 	cmpne	r2,r2,zero
  811c58:	1000141e 	bne	r2,zero,811cac <alt_get_fd+0xc4>
  811c5c:	e13ffe17 	ldw	r4,-8(fp)
  811c60:	04002074 	movhi	r16,129
  811c64:	840e3a04 	addi	r16,r16,14568
  811c68:	01400304 	movi	r5,12
  811c6c:	08014540 	call	801454 <__mulsi3>
  811c70:	1407883a 	add	r3,r2,r16
  811c74:	e0bfff17 	ldw	r2,-4(fp)
  811c78:	18800015 	stw	r2,0(r3)
  811c7c:	00802074 	movhi	r2,129
  811c80:	1092e804 	addi	r2,r2,19360
  811c84:	10c00017 	ldw	r3,0(r2)
  811c88:	e0bffe17 	ldw	r2,-8(fp)
  811c8c:	1880040e 	bge	r3,r2,811ca0 <alt_get_fd+0xb8>
  811c90:	00c02074 	movhi	r3,129
  811c94:	18d2e804 	addi	r3,r3,19360
  811c98:	e0bffe17 	ldw	r2,-8(fp)
  811c9c:	18800015 	stw	r2,0(r3)
  811ca0:	e0bffe17 	ldw	r2,-8(fp)
  811ca4:	e0bffd15 	stw	r2,-12(fp)
  811ca8:	00000606 	br	811cc4 <alt_get_fd+0xdc>
  811cac:	e0bffe17 	ldw	r2,-8(fp)
  811cb0:	10800044 	addi	r2,r2,1
  811cb4:	e0bffe15 	stw	r2,-8(fp)
  811cb8:	e0bffe17 	ldw	r2,-8(fp)
  811cbc:	10800810 	cmplti	r2,r2,32
  811cc0:	103fdd1e 	bne	r2,zero,811c38 <alt_get_fd+0x50>
  811cc4:	00802074 	movhi	r2,129
  811cc8:	1099e104 	addi	r2,r2,26500
  811ccc:	11000017 	ldw	r4,0(r2)
  811cd0:	000b883a 	mov	r5,zero
  811cd4:	000d883a 	mov	r6,zero
  811cd8:	000f883a 	mov	r7,zero
  811cdc:	080b5f40 	call	80b5f4 <xQueueGenericSend>
  811ce0:	e0bffd17 	ldw	r2,-12(fp)
  811ce4:	e037883a 	mov	sp,fp
  811ce8:	dfc00217 	ldw	ra,8(sp)
  811cec:	df000117 	ldw	fp,4(sp)
  811cf0:	dc000017 	ldw	r16,0(sp)
  811cf4:	dec00304 	addi	sp,sp,12
  811cf8:	f800283a 	ret

00811cfc <alt_icache_flush_all>:
  811cfc:	defffe04 	addi	sp,sp,-8
  811d00:	dfc00115 	stw	ra,4(sp)
  811d04:	df000015 	stw	fp,0(sp)
  811d08:	d839883a 	mov	fp,sp
  811d0c:	0009883a 	mov	r4,zero
  811d10:	01420004 	movi	r5,2048
  811d14:	08120180 	call	812018 <alt_icache_flush>
  811d18:	e037883a 	mov	sp,fp
  811d1c:	dfc00117 	ldw	ra,4(sp)
  811d20:	df000017 	ldw	fp,0(sp)
  811d24:	dec00204 	addi	sp,sp,8
  811d28:	f800283a 	ret

00811d2c <alt_ic_isr_register>:
  811d2c:	defff904 	addi	sp,sp,-28
  811d30:	dfc00615 	stw	ra,24(sp)
  811d34:	df000515 	stw	fp,20(sp)
  811d38:	df000504 	addi	fp,sp,20
  811d3c:	e13ffc15 	stw	r4,-16(fp)
  811d40:	e17ffd15 	stw	r5,-12(fp)
  811d44:	e1bffe15 	stw	r6,-8(fp)
  811d48:	e1ffff15 	stw	r7,-4(fp)
  811d4c:	e0800217 	ldw	r2,8(fp)
  811d50:	d8800015 	stw	r2,0(sp)
  811d54:	e13ffc17 	ldw	r4,-16(fp)
  811d58:	e17ffd17 	ldw	r5,-12(fp)
  811d5c:	e1bffe17 	ldw	r6,-8(fp)
  811d60:	e1ffff17 	ldw	r7,-4(fp)
  811d64:	0811f000 	call	811f00 <alt_iic_isr_register>
  811d68:	e037883a 	mov	sp,fp
  811d6c:	dfc00117 	ldw	ra,4(sp)
  811d70:	df000017 	ldw	fp,0(sp)
  811d74:	dec00204 	addi	sp,sp,8
  811d78:	f800283a 	ret

00811d7c <alt_ic_irq_enable>:
  811d7c:	defff904 	addi	sp,sp,-28
  811d80:	df000615 	stw	fp,24(sp)
  811d84:	df000604 	addi	fp,sp,24
  811d88:	e13ffe15 	stw	r4,-8(fp)
  811d8c:	e17fff15 	stw	r5,-4(fp)
  811d90:	e0bfff17 	ldw	r2,-4(fp)
  811d94:	e0bffc15 	stw	r2,-16(fp)
  811d98:	0005303a 	rdctl	r2,status
  811d9c:	e0bffb15 	stw	r2,-20(fp)
  811da0:	e0fffb17 	ldw	r3,-20(fp)
  811da4:	00bfff84 	movi	r2,-2
  811da8:	1884703a 	and	r2,r3,r2
  811dac:	1001703a 	wrctl	status,r2
  811db0:	e0bffb17 	ldw	r2,-20(fp)
  811db4:	e0bffd15 	stw	r2,-12(fp)
  811db8:	e0fffc17 	ldw	r3,-16(fp)
  811dbc:	00800044 	movi	r2,1
  811dc0:	10c4983a 	sll	r2,r2,r3
  811dc4:	1007883a 	mov	r3,r2
  811dc8:	00802074 	movhi	r2,129
  811dcc:	1099e904 	addi	r2,r2,26532
  811dd0:	10800017 	ldw	r2,0(r2)
  811dd4:	1886b03a 	or	r3,r3,r2
  811dd8:	00802074 	movhi	r2,129
  811ddc:	1099e904 	addi	r2,r2,26532
  811de0:	10c00015 	stw	r3,0(r2)
  811de4:	00802074 	movhi	r2,129
  811de8:	1099e904 	addi	r2,r2,26532
  811dec:	10800017 	ldw	r2,0(r2)
  811df0:	100170fa 	wrctl	ienable,r2
  811df4:	e0bffd17 	ldw	r2,-12(fp)
  811df8:	e0bffa15 	stw	r2,-24(fp)
  811dfc:	e0bffa17 	ldw	r2,-24(fp)
  811e00:	1001703a 	wrctl	status,r2
  811e04:	0005883a 	mov	r2,zero
  811e08:	e037883a 	mov	sp,fp
  811e0c:	df000017 	ldw	fp,0(sp)
  811e10:	dec00104 	addi	sp,sp,4
  811e14:	f800283a 	ret

00811e18 <alt_ic_irq_disable>:
  811e18:	defff904 	addi	sp,sp,-28
  811e1c:	df000615 	stw	fp,24(sp)
  811e20:	df000604 	addi	fp,sp,24
  811e24:	e13ffe15 	stw	r4,-8(fp)
  811e28:	e17fff15 	stw	r5,-4(fp)
  811e2c:	e0bfff17 	ldw	r2,-4(fp)
  811e30:	e0bffc15 	stw	r2,-16(fp)
  811e34:	0005303a 	rdctl	r2,status
  811e38:	e0bffb15 	stw	r2,-20(fp)
  811e3c:	e0fffb17 	ldw	r3,-20(fp)
  811e40:	00bfff84 	movi	r2,-2
  811e44:	1884703a 	and	r2,r3,r2
  811e48:	1001703a 	wrctl	status,r2
  811e4c:	e0bffb17 	ldw	r2,-20(fp)
  811e50:	e0bffd15 	stw	r2,-12(fp)
  811e54:	e0fffc17 	ldw	r3,-16(fp)
  811e58:	00800044 	movi	r2,1
  811e5c:	10c4983a 	sll	r2,r2,r3
  811e60:	0084303a 	nor	r2,zero,r2
  811e64:	1007883a 	mov	r3,r2
  811e68:	00802074 	movhi	r2,129
  811e6c:	1099e904 	addi	r2,r2,26532
  811e70:	10800017 	ldw	r2,0(r2)
  811e74:	1886703a 	and	r3,r3,r2
  811e78:	00802074 	movhi	r2,129
  811e7c:	1099e904 	addi	r2,r2,26532
  811e80:	10c00015 	stw	r3,0(r2)
  811e84:	00802074 	movhi	r2,129
  811e88:	1099e904 	addi	r2,r2,26532
  811e8c:	10800017 	ldw	r2,0(r2)
  811e90:	100170fa 	wrctl	ienable,r2
  811e94:	e0bffd17 	ldw	r2,-12(fp)
  811e98:	e0bffa15 	stw	r2,-24(fp)
  811e9c:	e0bffa17 	ldw	r2,-24(fp)
  811ea0:	1001703a 	wrctl	status,r2
  811ea4:	0005883a 	mov	r2,zero
  811ea8:	e037883a 	mov	sp,fp
  811eac:	df000017 	ldw	fp,0(sp)
  811eb0:	dec00104 	addi	sp,sp,4
  811eb4:	f800283a 	ret

00811eb8 <alt_ic_irq_enabled>:
  811eb8:	defffc04 	addi	sp,sp,-16
  811ebc:	df000315 	stw	fp,12(sp)
  811ec0:	df000304 	addi	fp,sp,12
  811ec4:	e13ffe15 	stw	r4,-8(fp)
  811ec8:	e17fff15 	stw	r5,-4(fp)
  811ecc:	000530fa 	rdctl	r2,ienable
  811ed0:	e0bffd15 	stw	r2,-12(fp)
  811ed4:	e0ffff17 	ldw	r3,-4(fp)
  811ed8:	00800044 	movi	r2,1
  811edc:	10c4983a 	sll	r2,r2,r3
  811ee0:	1007883a 	mov	r3,r2
  811ee4:	e0bffd17 	ldw	r2,-12(fp)
  811ee8:	1884703a 	and	r2,r3,r2
  811eec:	1004c03a 	cmpne	r2,r2,zero
  811ef0:	e037883a 	mov	sp,fp
  811ef4:	df000017 	ldw	fp,0(sp)
  811ef8:	dec00104 	addi	sp,sp,4
  811efc:	f800283a 	ret

00811f00 <alt_iic_isr_register>:
  811f00:	defff404 	addi	sp,sp,-48
  811f04:	dfc00b15 	stw	ra,44(sp)
  811f08:	df000a15 	stw	fp,40(sp)
  811f0c:	df000a04 	addi	fp,sp,40
  811f10:	e13ffb15 	stw	r4,-20(fp)
  811f14:	e17ffc15 	stw	r5,-16(fp)
  811f18:	e1bffd15 	stw	r6,-12(fp)
  811f1c:	e1fffe15 	stw	r7,-8(fp)
  811f20:	00bffa84 	movi	r2,-22
  811f24:	e0bffa15 	stw	r2,-24(fp)
  811f28:	e0bffc17 	ldw	r2,-16(fp)
  811f2c:	e0bff915 	stw	r2,-28(fp)
  811f30:	e0bff917 	ldw	r2,-28(fp)
  811f34:	10800808 	cmpgei	r2,r2,32
  811f38:	1000291e 	bne	r2,zero,811fe0 <alt_iic_isr_register+0xe0>
  811f3c:	0005303a 	rdctl	r2,status
  811f40:	e0bff715 	stw	r2,-36(fp)
  811f44:	e0fff717 	ldw	r3,-36(fp)
  811f48:	00bfff84 	movi	r2,-2
  811f4c:	1884703a 	and	r2,r3,r2
  811f50:	1001703a 	wrctl	status,r2
  811f54:	e0bff717 	ldw	r2,-36(fp)
  811f58:	e0bff815 	stw	r2,-32(fp)
  811f5c:	e0bff917 	ldw	r2,-28(fp)
  811f60:	00c02074 	movhi	r3,129
  811f64:	18da5d04 	addi	r3,r3,26996
  811f68:	100490fa 	slli	r2,r2,3
  811f6c:	10c7883a 	add	r3,r2,r3
  811f70:	e0bffd17 	ldw	r2,-12(fp)
  811f74:	18800015 	stw	r2,0(r3)
  811f78:	e0bff917 	ldw	r2,-28(fp)
  811f7c:	00c02074 	movhi	r3,129
  811f80:	18da5d04 	addi	r3,r3,26996
  811f84:	100490fa 	slli	r2,r2,3
  811f88:	10c5883a 	add	r2,r2,r3
  811f8c:	10c00104 	addi	r3,r2,4
  811f90:	e0bffe17 	ldw	r2,-8(fp)
  811f94:	18800015 	stw	r2,0(r3)
  811f98:	e0bffd17 	ldw	r2,-12(fp)
  811f9c:	1005003a 	cmpeq	r2,r2,zero
  811fa0:	1000051e 	bne	r2,zero,811fb8 <alt_iic_isr_register+0xb8>
  811fa4:	e17ff917 	ldw	r5,-28(fp)
  811fa8:	e13ffb17 	ldw	r4,-20(fp)
  811fac:	0811d7c0 	call	811d7c <alt_ic_irq_enable>
  811fb0:	e0bfff15 	stw	r2,-4(fp)
  811fb4:	00000406 	br	811fc8 <alt_iic_isr_register+0xc8>
  811fb8:	e17ff917 	ldw	r5,-28(fp)
  811fbc:	e13ffb17 	ldw	r4,-20(fp)
  811fc0:	0811e180 	call	811e18 <alt_ic_irq_disable>
  811fc4:	e0bfff15 	stw	r2,-4(fp)
  811fc8:	e0bfff17 	ldw	r2,-4(fp)
  811fcc:	e0bffa15 	stw	r2,-24(fp)
  811fd0:	e0bff817 	ldw	r2,-32(fp)
  811fd4:	e0bff615 	stw	r2,-40(fp)
  811fd8:	e0bff617 	ldw	r2,-40(fp)
  811fdc:	1001703a 	wrctl	status,r2
  811fe0:	e0bffa17 	ldw	r2,-24(fp)
  811fe4:	e037883a 	mov	sp,fp
  811fe8:	dfc00117 	ldw	ra,4(sp)
  811fec:	df000017 	ldw	fp,0(sp)
  811ff0:	dec00204 	addi	sp,sp,8
  811ff4:	f800283a 	ret

00811ff8 <altera_nios2_qsys_irq_init>:
  811ff8:	deffff04 	addi	sp,sp,-4
  811ffc:	df000015 	stw	fp,0(sp)
  812000:	d839883a 	mov	fp,sp
  812004:	000170fa 	wrctl	ienable,zero
  812008:	e037883a 	mov	sp,fp
  81200c:	df000017 	ldw	fp,0(sp)
  812010:	dec00104 	addi	sp,sp,4
  812014:	f800283a 	ret

00812018 <alt_icache_flush>:
  812018:	defffb04 	addi	sp,sp,-20
  81201c:	df000415 	stw	fp,16(sp)
  812020:	df000404 	addi	fp,sp,16
  812024:	e13ffe15 	stw	r4,-8(fp)
  812028:	e17fff15 	stw	r5,-4(fp)
  81202c:	e0bfff17 	ldw	r2,-4(fp)
  812030:	10820070 	cmpltui	r2,r2,2049
  812034:	1000021e 	bne	r2,zero,812040 <alt_icache_flush+0x28>
  812038:	00820004 	movi	r2,2048
  81203c:	e0bfff15 	stw	r2,-4(fp)
  812040:	e0fffe17 	ldw	r3,-8(fp)
  812044:	e0bfff17 	ldw	r2,-4(fp)
  812048:	1885883a 	add	r2,r3,r2
  81204c:	e0bffc15 	stw	r2,-16(fp)
  812050:	e0bffe17 	ldw	r2,-8(fp)
  812054:	e0bffd15 	stw	r2,-12(fp)
  812058:	00000506 	br	812070 <alt_icache_flush+0x58>
  81205c:	e0bffd17 	ldw	r2,-12(fp)
  812060:	1000603a 	flushi	r2
  812064:	e0bffd17 	ldw	r2,-12(fp)
  812068:	10800804 	addi	r2,r2,32
  81206c:	e0bffd15 	stw	r2,-12(fp)
  812070:	e0fffd17 	ldw	r3,-12(fp)
  812074:	e0bffc17 	ldw	r2,-16(fp)
  812078:	18bff836 	bltu	r3,r2,81205c <alt_icache_flush+0x44>
  81207c:	e0bffe17 	ldw	r2,-8(fp)
  812080:	108007cc 	andi	r2,r2,31
  812084:	1005003a 	cmpeq	r2,r2,zero
  812088:	1000021e 	bne	r2,zero,812094 <alt_icache_flush+0x7c>
  81208c:	e0bffd17 	ldw	r2,-12(fp)
  812090:	1000603a 	flushi	r2
  812094:	0000203a 	flushp
  812098:	e037883a 	mov	sp,fp
  81209c:	df000017 	ldw	fp,0(sp)
  8120a0:	dec00104 	addi	sp,sp,4
  8120a4:	f800283a 	ret

008120a8 <atexit>:
  8120a8:	200b883a 	mov	r5,r4
  8120ac:	000d883a 	mov	r6,zero
  8120b0:	0009883a 	mov	r4,zero
  8120b4:	000f883a 	mov	r7,zero
  8120b8:	081244c1 	jmpi	81244c <__register_exitproc>

008120bc <__errno>:
  8120bc:	00c02074 	movhi	r3,129
  8120c0:	18d2dd04 	addi	r3,r3,19316
  8120c4:	18800017 	ldw	r2,0(r3)
  8120c8:	f800283a 	ret

008120cc <exit>:
  8120cc:	defffe04 	addi	sp,sp,-8
  8120d0:	000b883a 	mov	r5,zero
  8120d4:	dc000015 	stw	r16,0(sp)
  8120d8:	dfc00115 	stw	ra,4(sp)
  8120dc:	2021883a 	mov	r16,r4
  8120e0:	08125840 	call	812584 <__call_exitprocs>
  8120e4:	00802074 	movhi	r2,129
  8120e8:	1092de04 	addi	r2,r2,19320
  8120ec:	11000017 	ldw	r4,0(r2)
  8120f0:	20800f17 	ldw	r2,60(r4)
  8120f4:	10000126 	beq	r2,zero,8120fc <exit+0x30>
  8120f8:	103ee83a 	callr	r2
  8120fc:	8009883a 	mov	r4,r16
  812100:	08127740 	call	812774 <_exit>

00812104 <free>:
  812104:	00802074 	movhi	r2,129
  812108:	1092dd04 	addi	r2,r2,19316
  81210c:	200b883a 	mov	r5,r4
  812110:	11000017 	ldw	r4,0(r2)
  812114:	08054f01 	jmpi	8054f0 <_free_r>

00812118 <malloc>:
  812118:	00802074 	movhi	r2,129
  81211c:	1092dd04 	addi	r2,r2,19316
  812120:	200b883a 	mov	r5,r4
  812124:	11000017 	ldw	r4,0(r2)
  812128:	08060781 	jmpi	806078 <_malloc_r>

0081212c <memcmp>:
  81212c:	00c000c4 	movi	r3,3
  812130:	1980032e 	bgeu	r3,r6,812140 <memcmp+0x14>
  812134:	2144b03a 	or	r2,r4,r5
  812138:	10c4703a 	and	r2,r2,r3
  81213c:	10000f26 	beq	r2,zero,81217c <memcmp+0x50>
  812140:	31ffffc4 	addi	r7,r6,-1
  812144:	3000061e 	bne	r6,zero,812160 <memcmp+0x34>
  812148:	00000a06 	br	812174 <memcmp+0x48>
  81214c:	39ffffc4 	addi	r7,r7,-1
  812150:	00bfffc4 	movi	r2,-1
  812154:	21000044 	addi	r4,r4,1
  812158:	29400044 	addi	r5,r5,1
  81215c:	38800526 	beq	r7,r2,812174 <memcmp+0x48>
  812160:	20c00003 	ldbu	r3,0(r4)
  812164:	28800003 	ldbu	r2,0(r5)
  812168:	18bff826 	beq	r3,r2,81214c <memcmp+0x20>
  81216c:	1885c83a 	sub	r2,r3,r2
  812170:	f800283a 	ret
  812174:	0005883a 	mov	r2,zero
  812178:	f800283a 	ret
  81217c:	180f883a 	mov	r7,r3
  812180:	20c00017 	ldw	r3,0(r4)
  812184:	28800017 	ldw	r2,0(r5)
  812188:	18bfed1e 	bne	r3,r2,812140 <memcmp+0x14>
  81218c:	31bfff04 	addi	r6,r6,-4
  812190:	21000104 	addi	r4,r4,4
  812194:	29400104 	addi	r5,r5,4
  812198:	39bff936 	bltu	r7,r6,812180 <memcmp+0x54>
  81219c:	003fe806 	br	812140 <memcmp+0x14>

008121a0 <sprintf>:
  8121a0:	deffe504 	addi	sp,sp,-108
  8121a4:	2013883a 	mov	r9,r4
  8121a8:	dfc01815 	stw	ra,96(sp)
  8121ac:	d9801915 	stw	r6,100(sp)
  8121b0:	d9c01a15 	stw	r7,104(sp)
  8121b4:	d8801904 	addi	r2,sp,100
  8121b8:	d8800015 	stw	r2,0(sp)
  8121bc:	00802074 	movhi	r2,129
  8121c0:	1092dd04 	addi	r2,r2,19316
  8121c4:	11000017 	ldw	r4,0(r2)
  8121c8:	d9c00017 	ldw	r7,0(sp)
  8121cc:	00808204 	movi	r2,520
  8121d0:	00e00034 	movhi	r3,32768
  8121d4:	18ffffc4 	addi	r3,r3,-1
  8121d8:	280d883a 	mov	r6,r5
  8121dc:	d880040d 	sth	r2,16(sp)
  8121e0:	d9400104 	addi	r5,sp,4
  8121e4:	00bfffc4 	movi	r2,-1
  8121e8:	d8c00615 	stw	r3,24(sp)
  8121ec:	d8c00315 	stw	r3,12(sp)
  8121f0:	da400515 	stw	r9,20(sp)
  8121f4:	d880048d 	sth	r2,18(sp)
  8121f8:	da400115 	stw	r9,4(sp)
  8121fc:	08016840 	call	801684 <___vfprintf_internal_r>
  812200:	d8c00117 	ldw	r3,4(sp)
  812204:	18000005 	stb	zero,0(r3)
  812208:	dfc01817 	ldw	ra,96(sp)
  81220c:	dec01b04 	addi	sp,sp,108
  812210:	f800283a 	ret

00812214 <_sprintf_r>:
  812214:	deffe604 	addi	sp,sp,-104
  812218:	2813883a 	mov	r9,r5
  81221c:	dfc01815 	stw	ra,96(sp)
  812220:	d9c01915 	stw	r7,100(sp)
  812224:	d8801904 	addi	r2,sp,100
  812228:	d8800015 	stw	r2,0(sp)
  81222c:	100f883a 	mov	r7,r2
  812230:	00808204 	movi	r2,520
  812234:	00e00034 	movhi	r3,32768
  812238:	18ffffc4 	addi	r3,r3,-1
  81223c:	d880040d 	sth	r2,16(sp)
  812240:	d9400104 	addi	r5,sp,4
  812244:	00bfffc4 	movi	r2,-1
  812248:	d8c00615 	stw	r3,24(sp)
  81224c:	d8c00315 	stw	r3,12(sp)
  812250:	da400515 	stw	r9,20(sp)
  812254:	d880048d 	sth	r2,18(sp)
  812258:	da400115 	stw	r9,4(sp)
  81225c:	08016840 	call	801684 <___vfprintf_internal_r>
  812260:	d8c00117 	ldw	r3,4(sp)
  812264:	18000005 	stb	zero,0(r3)
  812268:	dfc01817 	ldw	ra,96(sp)
  81226c:	dec01a04 	addi	sp,sp,104
  812270:	f800283a 	ret

00812274 <strcat>:
  812274:	defffe04 	addi	sp,sp,-8
  812278:	208000cc 	andi	r2,r4,3
  81227c:	dc000015 	stw	r16,0(sp)
  812280:	dfc00115 	stw	ra,4(sp)
  812284:	2021883a 	mov	r16,r4
  812288:	1000161e 	bne	r2,zero,8122e4 <strcat+0x70>
  81228c:	20c00017 	ldw	r3,0(r4)
  812290:	01bfbff4 	movhi	r6,65279
  812294:	31bfbfc4 	addi	r6,r6,-257
  812298:	02202074 	movhi	r8,32897
  81229c:	42202004 	addi	r8,r8,-32640
  8122a0:	1985883a 	add	r2,r3,r6
  8122a4:	1204703a 	and	r2,r2,r8
  8122a8:	00c6303a 	nor	r3,zero,r3
  8122ac:	1886703a 	and	r3,r3,r2
  8122b0:	18000c1e 	bne	r3,zero,8122e4 <strcat+0x70>
  8122b4:	300f883a 	mov	r7,r6
  8122b8:	400d883a 	mov	r6,r8
  8122bc:	21000104 	addi	r4,r4,4
  8122c0:	20800017 	ldw	r2,0(r4)
  8122c4:	11c7883a 	add	r3,r2,r7
  8122c8:	1986703a 	and	r3,r3,r6
  8122cc:	0084303a 	nor	r2,zero,r2
  8122d0:	10c4703a 	and	r2,r2,r3
  8122d4:	103ff926 	beq	r2,zero,8122bc <strcat+0x48>
  8122d8:	20800007 	ldb	r2,0(r4)
  8122dc:	10000326 	beq	r2,zero,8122ec <strcat+0x78>
  8122e0:	21000044 	addi	r4,r4,1
  8122e4:	20800007 	ldb	r2,0(r4)
  8122e8:	103ffd1e 	bne	r2,zero,8122e0 <strcat+0x6c>
  8122ec:	08123040 	call	812304 <strcpy>
  8122f0:	8005883a 	mov	r2,r16
  8122f4:	dfc00117 	ldw	ra,4(sp)
  8122f8:	dc000017 	ldw	r16,0(sp)
  8122fc:	dec00204 	addi	sp,sp,8
  812300:	f800283a 	ret

00812304 <strcpy>:
  812304:	2904b03a 	or	r2,r5,r4
  812308:	108000cc 	andi	r2,r2,3
  81230c:	10000826 	beq	r2,zero,812330 <strcpy+0x2c>
  812310:	2007883a 	mov	r3,r4
  812314:	28800003 	ldbu	r2,0(r5)
  812318:	29400044 	addi	r5,r5,1
  81231c:	18800005 	stb	r2,0(r3)
  812320:	18c00044 	addi	r3,r3,1
  812324:	103ffb1e 	bne	r2,zero,812314 <strcpy+0x10>
  812328:	2005883a 	mov	r2,r4
  81232c:	f800283a 	ret
  812330:	29800017 	ldw	r6,0(r5)
  812334:	023fbff4 	movhi	r8,65279
  812338:	423fbfc4 	addi	r8,r8,-257
  81233c:	02a02074 	movhi	r10,32897
  812340:	52a02004 	addi	r10,r10,-32640
  812344:	3205883a 	add	r2,r6,r8
  812348:	0186303a 	nor	r3,zero,r6
  81234c:	10c4703a 	and	r2,r2,r3
  812350:	1284703a 	and	r2,r2,r10
  812354:	200f883a 	mov	r7,r4
  812358:	10000b1e 	bne	r2,zero,812388 <strcpy+0x84>
  81235c:	4013883a 	mov	r9,r8
  812360:	5011883a 	mov	r8,r10
  812364:	39800015 	stw	r6,0(r7)
  812368:	29400104 	addi	r5,r5,4
  81236c:	29800017 	ldw	r6,0(r5)
  812370:	39c00104 	addi	r7,r7,4
  812374:	3245883a 	add	r2,r6,r9
  812378:	0186303a 	nor	r3,zero,r6
  81237c:	10c4703a 	and	r2,r2,r3
  812380:	1204703a 	and	r2,r2,r8
  812384:	103ff726 	beq	r2,zero,812364 <strcpy+0x60>
  812388:	3807883a 	mov	r3,r7
  81238c:	003fe106 	br	812314 <strcpy+0x10>

00812390 <strncpy>:
  812390:	2904b03a 	or	r2,r5,r4
  812394:	108000cc 	andi	r2,r2,3
  812398:	00c000c4 	movi	r3,3
  81239c:	1000291e 	bne	r2,zero,812444 <strncpy+0xb4>
  8123a0:	1980282e 	bgeu	r3,r6,812444 <strncpy+0xb4>
  8123a4:	1817883a 	mov	r11,r3
  8123a8:	2011883a 	mov	r8,r4
  8123ac:	02bfbff4 	movhi	r10,65279
  8123b0:	52bfbfc4 	addi	r10,r10,-257
  8123b4:	02602074 	movhi	r9,32897
  8123b8:	4a602004 	addi	r9,r9,-32640
  8123bc:	29c00017 	ldw	r7,0(r5)
  8123c0:	3a85883a 	add	r2,r7,r10
  8123c4:	01c6303a 	nor	r3,zero,r7
  8123c8:	10c4703a 	and	r2,r2,r3
  8123cc:	1244703a 	and	r2,r2,r9
  8123d0:	1000051e 	bne	r2,zero,8123e8 <strncpy+0x58>
  8123d4:	31bfff04 	addi	r6,r6,-4
  8123d8:	41c00015 	stw	r7,0(r8)
  8123dc:	29400104 	addi	r5,r5,4
  8123e0:	42000104 	addi	r8,r8,4
  8123e4:	59bff536 	bltu	r11,r6,8123bc <strncpy+0x2c>
  8123e8:	400f883a 	mov	r7,r8
  8123ec:	30001326 	beq	r6,zero,81243c <strncpy+0xac>
  8123f0:	28800003 	ldbu	r2,0(r5)
  8123f4:	31bfffc4 	addi	r6,r6,-1
  8123f8:	38c00044 	addi	r3,r7,1
  8123fc:	38800005 	stb	r2,0(r7)
  812400:	10000826 	beq	r2,zero,812424 <strncpy+0x94>
  812404:	29400044 	addi	r5,r5,1
  812408:	30000c26 	beq	r6,zero,81243c <strncpy+0xac>
  81240c:	28800003 	ldbu	r2,0(r5)
  812410:	31bfffc4 	addi	r6,r6,-1
  812414:	29400044 	addi	r5,r5,1
  812418:	18800005 	stb	r2,0(r3)
  81241c:	18c00044 	addi	r3,r3,1
  812420:	103ff91e 	bne	r2,zero,812408 <strncpy+0x78>
  812424:	30000526 	beq	r6,zero,81243c <strncpy+0xac>
  812428:	1805883a 	mov	r2,r3
  81242c:	30cd883a 	add	r6,r6,r3
  812430:	10000005 	stb	zero,0(r2)
  812434:	10800044 	addi	r2,r2,1
  812438:	30bffd1e 	bne	r6,r2,812430 <strncpy+0xa0>
  81243c:	2005883a 	mov	r2,r4
  812440:	f800283a 	ret
  812444:	200f883a 	mov	r7,r4
  812448:	003fe806 	br	8123ec <strncpy+0x5c>

0081244c <__register_exitproc>:
  81244c:	defffa04 	addi	sp,sp,-24
  812450:	00802074 	movhi	r2,129
  812454:	1092de04 	addi	r2,r2,19320
  812458:	dc000015 	stw	r16,0(sp)
  81245c:	14000017 	ldw	r16,0(r2)
  812460:	dd000415 	stw	r20,16(sp)
  812464:	2829883a 	mov	r20,r5
  812468:	81405217 	ldw	r5,328(r16)
  81246c:	dcc00315 	stw	r19,12(sp)
  812470:	dc800215 	stw	r18,8(sp)
  812474:	dc400115 	stw	r17,4(sp)
  812478:	dfc00515 	stw	ra,20(sp)
  81247c:	2023883a 	mov	r17,r4
  812480:	3027883a 	mov	r19,r6
  812484:	3825883a 	mov	r18,r7
  812488:	28002526 	beq	r5,zero,812520 <__register_exitproc+0xd4>
  81248c:	29000117 	ldw	r4,4(r5)
  812490:	008007c4 	movi	r2,31
  812494:	11002716 	blt	r2,r4,812534 <__register_exitproc+0xe8>
  812498:	8800101e 	bne	r17,zero,8124dc <__register_exitproc+0x90>
  81249c:	2105883a 	add	r2,r4,r4
  8124a0:	1085883a 	add	r2,r2,r2
  8124a4:	20c00044 	addi	r3,r4,1
  8124a8:	1145883a 	add	r2,r2,r5
  8124ac:	0009883a 	mov	r4,zero
  8124b0:	15000215 	stw	r20,8(r2)
  8124b4:	28c00115 	stw	r3,4(r5)
  8124b8:	2005883a 	mov	r2,r4
  8124bc:	dfc00517 	ldw	ra,20(sp)
  8124c0:	dd000417 	ldw	r20,16(sp)
  8124c4:	dcc00317 	ldw	r19,12(sp)
  8124c8:	dc800217 	ldw	r18,8(sp)
  8124cc:	dc400117 	ldw	r17,4(sp)
  8124d0:	dc000017 	ldw	r16,0(sp)
  8124d4:	dec00604 	addi	sp,sp,24
  8124d8:	f800283a 	ret
  8124dc:	29802204 	addi	r6,r5,136
  8124e0:	00800044 	movi	r2,1
  8124e4:	110e983a 	sll	r7,r2,r4
  8124e8:	30c04017 	ldw	r3,256(r6)
  8124ec:	2105883a 	add	r2,r4,r4
  8124f0:	1085883a 	add	r2,r2,r2
  8124f4:	1185883a 	add	r2,r2,r6
  8124f8:	19c6b03a 	or	r3,r3,r7
  8124fc:	14802015 	stw	r18,128(r2)
  812500:	14c00015 	stw	r19,0(r2)
  812504:	00800084 	movi	r2,2
  812508:	30c04015 	stw	r3,256(r6)
  81250c:	88bfe31e 	bne	r17,r2,81249c <__register_exitproc+0x50>
  812510:	30804117 	ldw	r2,260(r6)
  812514:	11c4b03a 	or	r2,r2,r7
  812518:	30804115 	stw	r2,260(r6)
  81251c:	003fdf06 	br	81249c <__register_exitproc+0x50>
  812520:	00802074 	movhi	r2,129
  812524:	109a9d04 	addi	r2,r2,27252
  812528:	100b883a 	mov	r5,r2
  81252c:	80805215 	stw	r2,328(r16)
  812530:	003fd606 	br	81248c <__register_exitproc+0x40>
  812534:	00802074 	movhi	r2,129
  812538:	10884604 	addi	r2,r2,8472
  81253c:	1000021e 	bne	r2,zero,812548 <__register_exitproc+0xfc>
  812540:	013fffc4 	movi	r4,-1
  812544:	003fdc06 	br	8124b8 <__register_exitproc+0x6c>
  812548:	01006404 	movi	r4,400
  81254c:	103ee83a 	callr	r2
  812550:	1007883a 	mov	r3,r2
  812554:	103ffa26 	beq	r2,zero,812540 <__register_exitproc+0xf4>
  812558:	80805217 	ldw	r2,328(r16)
  81255c:	180b883a 	mov	r5,r3
  812560:	18000115 	stw	zero,4(r3)
  812564:	18800015 	stw	r2,0(r3)
  812568:	80c05215 	stw	r3,328(r16)
  81256c:	18006215 	stw	zero,392(r3)
  812570:	18006315 	stw	zero,396(r3)
  812574:	0009883a 	mov	r4,zero
  812578:	883fc826 	beq	r17,zero,81249c <__register_exitproc+0x50>
  81257c:	003fd706 	br	8124dc <__register_exitproc+0x90>

00812580 <register_fini>:
  812580:	f800283a 	ret

00812584 <__call_exitprocs>:
  812584:	00802074 	movhi	r2,129
  812588:	1092de04 	addi	r2,r2,19320
  81258c:	10800017 	ldw	r2,0(r2)
  812590:	defff304 	addi	sp,sp,-52
  812594:	df000b15 	stw	fp,44(sp)
  812598:	d8800115 	stw	r2,4(sp)
  81259c:	00802074 	movhi	r2,129
  8125a0:	10884104 	addi	r2,r2,8452
  8125a4:	1005003a 	cmpeq	r2,r2,zero
  8125a8:	d8800215 	stw	r2,8(sp)
  8125ac:	d8800117 	ldw	r2,4(sp)
  8125b0:	dd400815 	stw	r21,32(sp)
  8125b4:	dd000715 	stw	r20,28(sp)
  8125b8:	10805204 	addi	r2,r2,328
  8125bc:	dfc00c15 	stw	ra,48(sp)
  8125c0:	ddc00a15 	stw	r23,40(sp)
  8125c4:	dd800915 	stw	r22,36(sp)
  8125c8:	dcc00615 	stw	r19,24(sp)
  8125cc:	dc800515 	stw	r18,20(sp)
  8125d0:	dc400415 	stw	r17,16(sp)
  8125d4:	dc000315 	stw	r16,12(sp)
  8125d8:	282b883a 	mov	r21,r5
  8125dc:	2039883a 	mov	fp,r4
  8125e0:	d8800015 	stw	r2,0(sp)
  8125e4:	2829003a 	cmpeq	r20,r5,zero
  8125e8:	d8800117 	ldw	r2,4(sp)
  8125ec:	14405217 	ldw	r17,328(r2)
  8125f0:	88001026 	beq	r17,zero,812634 <__call_exitprocs+0xb0>
  8125f4:	ddc00017 	ldw	r23,0(sp)
  8125f8:	88800117 	ldw	r2,4(r17)
  8125fc:	8c802204 	addi	r18,r17,136
  812600:	143fffc4 	addi	r16,r2,-1
  812604:	80000916 	blt	r16,zero,81262c <__call_exitprocs+0xa8>
  812608:	05bfffc4 	movi	r22,-1
  81260c:	a000151e 	bne	r20,zero,812664 <__call_exitprocs+0xe0>
  812610:	8409883a 	add	r4,r16,r16
  812614:	2105883a 	add	r2,r4,r4
  812618:	1485883a 	add	r2,r2,r18
  81261c:	10c02017 	ldw	r3,128(r2)
  812620:	a8c01126 	beq	r21,r3,812668 <__call_exitprocs+0xe4>
  812624:	843fffc4 	addi	r16,r16,-1
  812628:	85bff81e 	bne	r16,r22,81260c <__call_exitprocs+0x88>
  81262c:	d8800217 	ldw	r2,8(sp)
  812630:	10003126 	beq	r2,zero,8126f8 <__call_exitprocs+0x174>
  812634:	dfc00c17 	ldw	ra,48(sp)
  812638:	df000b17 	ldw	fp,44(sp)
  81263c:	ddc00a17 	ldw	r23,40(sp)
  812640:	dd800917 	ldw	r22,36(sp)
  812644:	dd400817 	ldw	r21,32(sp)
  812648:	dd000717 	ldw	r20,28(sp)
  81264c:	dcc00617 	ldw	r19,24(sp)
  812650:	dc800517 	ldw	r18,20(sp)
  812654:	dc400417 	ldw	r17,16(sp)
  812658:	dc000317 	ldw	r16,12(sp)
  81265c:	dec00d04 	addi	sp,sp,52
  812660:	f800283a 	ret
  812664:	8409883a 	add	r4,r16,r16
  812668:	88c00117 	ldw	r3,4(r17)
  81266c:	2105883a 	add	r2,r4,r4
  812670:	1445883a 	add	r2,r2,r17
  812674:	18ffffc4 	addi	r3,r3,-1
  812678:	11800217 	ldw	r6,8(r2)
  81267c:	1c001526 	beq	r3,r16,8126d4 <__call_exitprocs+0x150>
  812680:	10000215 	stw	zero,8(r2)
  812684:	303fe726 	beq	r6,zero,812624 <__call_exitprocs+0xa0>
  812688:	00c00044 	movi	r3,1
  81268c:	1c06983a 	sll	r3,r3,r16
  812690:	90804017 	ldw	r2,256(r18)
  812694:	8cc00117 	ldw	r19,4(r17)
  812698:	1884703a 	and	r2,r3,r2
  81269c:	10001426 	beq	r2,zero,8126f0 <__call_exitprocs+0x16c>
  8126a0:	90804117 	ldw	r2,260(r18)
  8126a4:	1884703a 	and	r2,r3,r2
  8126a8:	10000c1e 	bne	r2,zero,8126dc <__call_exitprocs+0x158>
  8126ac:	2105883a 	add	r2,r4,r4
  8126b0:	1485883a 	add	r2,r2,r18
  8126b4:	11400017 	ldw	r5,0(r2)
  8126b8:	e009883a 	mov	r4,fp
  8126bc:	303ee83a 	callr	r6
  8126c0:	88800117 	ldw	r2,4(r17)
  8126c4:	98bfc81e 	bne	r19,r2,8125e8 <__call_exitprocs+0x64>
  8126c8:	b8800017 	ldw	r2,0(r23)
  8126cc:	147fd526 	beq	r2,r17,812624 <__call_exitprocs+0xa0>
  8126d0:	003fc506 	br	8125e8 <__call_exitprocs+0x64>
  8126d4:	8c000115 	stw	r16,4(r17)
  8126d8:	003fea06 	br	812684 <__call_exitprocs+0x100>
  8126dc:	2105883a 	add	r2,r4,r4
  8126e0:	1485883a 	add	r2,r2,r18
  8126e4:	11000017 	ldw	r4,0(r2)
  8126e8:	303ee83a 	callr	r6
  8126ec:	003ff406 	br	8126c0 <__call_exitprocs+0x13c>
  8126f0:	303ee83a 	callr	r6
  8126f4:	003ff206 	br	8126c0 <__call_exitprocs+0x13c>
  8126f8:	88800117 	ldw	r2,4(r17)
  8126fc:	1000081e 	bne	r2,zero,812720 <__call_exitprocs+0x19c>
  812700:	89000017 	ldw	r4,0(r17)
  812704:	20000726 	beq	r4,zero,812724 <__call_exitprocs+0x1a0>
  812708:	b9000015 	stw	r4,0(r23)
  81270c:	8809883a 	mov	r4,r17
  812710:	08121040 	call	812104 <free>
  812714:	bc400017 	ldw	r17,0(r23)
  812718:	883fb71e 	bne	r17,zero,8125f8 <__call_exitprocs+0x74>
  81271c:	003fc506 	br	812634 <__call_exitprocs+0xb0>
  812720:	89000017 	ldw	r4,0(r17)
  812724:	882f883a 	mov	r23,r17
  812728:	2023883a 	mov	r17,r4
  81272c:	883fb21e 	bne	r17,zero,8125f8 <__call_exitprocs+0x74>
  812730:	003fc006 	br	812634 <__call_exitprocs+0xb0>

00812734 <alt_sim_halt>:
  812734:	defffd04 	addi	sp,sp,-12
  812738:	df000215 	stw	fp,8(sp)
  81273c:	df000204 	addi	fp,sp,8
  812740:	e13fff15 	stw	r4,-4(fp)
  812744:	e0bfff17 	ldw	r2,-4(fp)
  812748:	e0bffe15 	stw	r2,-8(fp)
  81274c:	e0bffe17 	ldw	r2,-8(fp)
  812750:	1005003a 	cmpeq	r2,r2,zero
  812754:	1000021e 	bne	r2,zero,812760 <alt_sim_halt+0x2c>
  812758:	002af070 	cmpltui	zero,zero,43969
  81275c:	00000106 	br	812764 <alt_sim_halt+0x30>
  812760:	002af0b0 	cmpltui	zero,zero,43970
  812764:	e037883a 	mov	sp,fp
  812768:	df000017 	ldw	fp,0(sp)
  81276c:	dec00104 	addi	sp,sp,4
  812770:	f800283a 	ret

00812774 <_exit>:
  812774:	defffd04 	addi	sp,sp,-12
  812778:	dfc00215 	stw	ra,8(sp)
  81277c:	df000115 	stw	fp,4(sp)
  812780:	df000104 	addi	fp,sp,4
  812784:	e13fff15 	stw	r4,-4(fp)
  812788:	00802074 	movhi	r2,129
  81278c:	108ec104 	addi	r2,r2,15108
  812790:	10800017 	ldw	r2,0(r2)
  812794:	10800058 	cmpnei	r2,r2,1
  812798:	1000031e 	bne	r2,zero,8127a8 <_exit+0x34>
  81279c:	01002074 	movhi	r4,129
  8127a0:	210bec04 	addi	r4,r4,12208
  8127a4:	080f6100 	call	80f610 <alt_log_printf_proc>
  8127a8:	00802074 	movhi	r2,129
  8127ac:	108ec104 	addi	r2,r2,15108
  8127b0:	10800017 	ldw	r2,0(r2)
  8127b4:	10800058 	cmpnei	r2,r2,1
  8127b8:	1000041e 	bne	r2,zero,8127cc <_exit+0x58>
  8127bc:	01002074 	movhi	r4,129
  8127c0:	210bf704 	addi	r4,r4,12252
  8127c4:	e17fff17 	ldw	r5,-4(fp)
  8127c8:	080f6100 	call	80f610 <alt_log_printf_proc>
  8127cc:	00802074 	movhi	r2,129
  8127d0:	108ec104 	addi	r2,r2,15108
  8127d4:	10800017 	ldw	r2,0(r2)
  8127d8:	10800058 	cmpnei	r2,r2,1
  8127dc:	1000031e 	bne	r2,zero,8127ec <_exit+0x78>
  8127e0:	01002074 	movhi	r4,129
  8127e4:	210c0204 	addi	r4,r4,12296
  8127e8:	080f6100 	call	80f610 <alt_log_printf_proc>
  8127ec:	00802074 	movhi	r2,129
  8127f0:	108ec104 	addi	r2,r2,15108
  8127f4:	10800017 	ldw	r2,0(r2)
  8127f8:	10800058 	cmpnei	r2,r2,1
  8127fc:	1000031e 	bne	r2,zero,81280c <_exit+0x98>
  812800:	01002074 	movhi	r4,129
  812804:	210c0c04 	addi	r4,r4,12336
  812808:	080f6100 	call	80f610 <alt_log_printf_proc>
  81280c:	e13fff17 	ldw	r4,-4(fp)
  812810:	08127340 	call	812734 <alt_sim_halt>
  812814:	00802074 	movhi	r2,129
  812818:	108ec104 	addi	r2,r2,15108
  81281c:	10800017 	ldw	r2,0(r2)
  812820:	10800058 	cmpnei	r2,r2,1
  812824:	1000031e 	bne	r2,zero,812834 <_exit+0xc0>
  812828:	01002074 	movhi	r4,129
  81282c:	210c1604 	addi	r4,r4,12376
  812830:	080f6100 	call	80f610 <alt_log_printf_proc>
  812834:	003fff06 	br	812834 <_exit+0xc0>
  812838:	00000010 	cmplti	zero,zero,0
  81283c:	00000000 	call	0 <__reset-0x800000>
  812840:	00527a01 	jmpi	527a0 <__reset-0x7ad860>
  812844:	011f7c01 	jmpi	11f7c0 <__reset-0x6e0840>
  812848:	001b0c0b 	ldhu	zero,27696(zero)
  81284c:	00000028 	cmpgeui	zero,zero,0
  812850:	00000018 	cmpnei	zero,zero,0
  812854:	008088c4 	movi	r2,547
  812858:	0000066c 	andhi	zero,zero,25
  81285c:	3c0e4400 	call	3c0e440 <__alt_data_end+0x2c0e440>
  812860:	910a9074 	orhi	r4,r18,10817
  812864:	94089209 	0x94089209
  812868:	97049606 	br	813ac4 <alt_log_msg_stackpointer+0x20>
  81286c:	93019f03 	ldbu	r12,1660(r18)
  812870:	9c059507 	ldb	r16,5716(r19)
  812874:	00000002 	0x2
  812878:	00000028 	cmpgeui	zero,zero,0
  81287c:	00000044 	movi	zero,1
  812880:	00808f30 	cmpltui	r2,zero,572
  812884:	00000660 	cmpeqi	zero,zero,25
  812888:	400e4400 	call	400e440 <__alt_data_end+0x300e440>
  81288c:	92099170 	cmpltui	r8,r18,9797
  812890:	96069408 	cmpgei	et,r18,6736
  812894:	9c039704 	addi	r16,r19,3676
  812898:	90019f02 	0x90019f02
  81289c:	9507930a 	0x9507930a
  8128a0:	00000005 	stb	zero,0(zero)
  8128a4:	00812580 	call	81258 <__reset-0x77eda8>
